
main_O2:     file format elf64-littleaarch64


Disassembly of section .init:

0000000000401d90 <_init>:
  401d90:	d503201f 	nop
  401d94:	a9bf7bfd 	stp	x29, x30, [sp, #-16]!
  401d98:	910003fd 	mov	x29, sp
  401d9c:	940005aa 	bl	403444 <call_weak_fn>
  401da0:	a8c17bfd 	ldp	x29, x30, [sp], #16
  401da4:	d65f03c0 	ret

Disassembly of section .plt:

0000000000401db0 <.plt>:
  401db0:	a9bf7bf0 	stp	x16, x30, [sp, #-16]!
  401db4:	d0000170 	adrp	x16, 42f000 <__FRAME_END__+0x1a5d8>
  401db8:	f947fe11 	ldr	x17, [x16, #4088]
  401dbc:	913fe210 	add	x16, x16, #0xff8
  401dc0:	d61f0220 	br	x17
  401dc4:	d503201f 	nop
  401dc8:	d503201f 	nop
  401dcc:	d503201f 	nop

0000000000401dd0 <_Znam@plt>:
  401dd0:	f0000170 	adrp	x16, 430000 <_Znam@GLIBCXX_3.4>
  401dd4:	f9400211 	ldr	x17, [x16]
  401dd8:	91000210 	add	x16, x16, #0x0
  401ddc:	d61f0220 	br	x17

0000000000401de0 <_ZNSo3putEc@plt>:
  401de0:	f0000170 	adrp	x16, 430000 <_Znam@GLIBCXX_3.4>
  401de4:	f9400611 	ldr	x17, [x16, #8]
  401de8:	91002210 	add	x16, x16, #0x8
  401dec:	d61f0220 	br	x17

0000000000401df0 <_ZNSt6chrono3_V212system_clock3nowEv@plt>:
  401df0:	f0000170 	adrp	x16, 430000 <_Znam@GLIBCXX_3.4>
  401df4:	f9400a11 	ldr	x17, [x16, #16]
  401df8:	91004210 	add	x16, x16, #0x10
  401dfc:	d61f0220 	br	x17

0000000000401e00 <memcpy@plt>:
  401e00:	f0000170 	adrp	x16, 430000 <_Znam@GLIBCXX_3.4>
  401e04:	f9400e11 	ldr	x17, [x16, #24]
  401e08:	91006210 	add	x16, x16, #0x18
  401e0c:	d61f0220 	br	x17

0000000000401e10 <_ZSt11_Hash_bytesPKvmm@plt>:
  401e10:	f0000170 	adrp	x16, 430000 <_Znam@GLIBCXX_3.4>
  401e14:	f9401211 	ldr	x17, [x16, #32]
  401e18:	91008210 	add	x16, x16, #0x20
  401e1c:	d61f0220 	br	x17

0000000000401e20 <_ZNSdD2Ev@plt>:
  401e20:	f0000170 	adrp	x16, 430000 <_Znam@GLIBCXX_3.4>
  401e24:	f9401611 	ldr	x17, [x16, #40]
  401e28:	9100a210 	add	x16, x16, #0x28
  401e2c:	d61f0220 	br	x17

0000000000401e30 <_ZNSt13basic_filebufIcSt11char_traitsIcEE5closeEv@plt>:
  401e30:	f0000170 	adrp	x16, 430000 <_Znam@GLIBCXX_3.4>
  401e34:	f9401a11 	ldr	x17, [x16, #48]
  401e38:	9100c210 	add	x16, x16, #0x30
  401e3c:	d61f0220 	br	x17

0000000000401e40 <_ZNSt14basic_ifstreamIcSt11char_traitsIcEED1Ev@plt>:
  401e40:	f0000170 	adrp	x16, 430000 <_Znam@GLIBCXX_3.4>
  401e44:	f9401e11 	ldr	x17, [x16, #56]
  401e48:	9100e210 	add	x16, x16, #0x38
  401e4c:	d61f0220 	br	x17

0000000000401e50 <_ZNKSt7__cxx1112basic_stringIcSt11char_traitsIcESaIcEE7compareEPKc@plt>:
  401e50:	f0000170 	adrp	x16, 430000 <_Znam@GLIBCXX_3.4>
  401e54:	f9402211 	ldr	x17, [x16, #64]
  401e58:	91010210 	add	x16, x16, #0x40
  401e5c:	d61f0220 	br	x17

0000000000401e60 <_ZNSt8ios_baseC2Ev@plt>:
  401e60:	f0000170 	adrp	x16, 430000 <_Znam@GLIBCXX_3.4>
  401e64:	f9402611 	ldr	x17, [x16, #72]
  401e68:	91012210 	add	x16, x16, #0x48
  401e6c:	d61f0220 	br	x17

0000000000401e70 <strlen@plt>:
  401e70:	f0000170 	adrp	x16, 430000 <_Znam@GLIBCXX_3.4>
  401e74:	f9402a11 	ldr	x17, [x16, #80]
  401e78:	91014210 	add	x16, x16, #0x50
  401e7c:	d61f0220 	br	x17

0000000000401e80 <_ZNSt7__cxx1112basic_stringIcSt11char_traitsIcESaIcEE9_M_appendEPKcm@plt>:
  401e80:	f0000170 	adrp	x16, 430000 <_Znam@GLIBCXX_3.4>
  401e84:	f9402e11 	ldr	x17, [x16, #88]
  401e88:	91016210 	add	x16, x16, #0x58
  401e8c:	d61f0220 	br	x17

0000000000401e90 <_ZNSt8ios_baseD2Ev@plt>:
  401e90:	f0000170 	adrp	x16, 430000 <_Znam@GLIBCXX_3.4>
  401e94:	f9403211 	ldr	x17, [x16, #96]
  401e98:	91018210 	add	x16, x16, #0x60
  401e9c:	d61f0220 	br	x17

0000000000401ea0 <_ZSt17__throw_bad_allocv@plt>:
  401ea0:	f0000170 	adrp	x16, 430000 <_Znam@GLIBCXX_3.4>
  401ea4:	f9403611 	ldr	x17, [x16, #104]
  401ea8:	9101a210 	add	x16, x16, #0x68
  401eac:	d61f0220 	br	x17

0000000000401eb0 <__cxa_begin_catch@plt>:
  401eb0:	f0000170 	adrp	x16, 430000 <_Znam@GLIBCXX_3.4>
  401eb4:	f9403a11 	ldr	x17, [x16, #112]
  401eb8:	9101c210 	add	x16, x16, #0x70
  401ebc:	d61f0220 	br	x17

0000000000401ec0 <memcmp@plt>:
  401ec0:	f0000170 	adrp	x16, 430000 <_Znam@GLIBCXX_3.4>
  401ec4:	f9403e11 	ldr	x17, [x16, #120]
  401ec8:	9101e210 	add	x16, x16, #0x78
  401ecc:	d61f0220 	br	x17

0000000000401ed0 <_ZSt20__throw_length_errorPKc@plt>:
  401ed0:	f0000170 	adrp	x16, 430000 <_Znam@GLIBCXX_3.4>
  401ed4:	f9404211 	ldr	x17, [x16, #128]
  401ed8:	91020210 	add	x16, x16, #0x80
  401edc:	d61f0220 	br	x17

0000000000401ee0 <_ZNSt7__cxx1112basic_stringIcSt11char_traitsIcESaIcEE9_M_assignERKS4_@plt>:
  401ee0:	f0000170 	adrp	x16, 430000 <_Znam@GLIBCXX_3.4>
  401ee4:	f9404611 	ldr	x17, [x16, #136]
  401ee8:	91022210 	add	x16, x16, #0x88
  401eec:	d61f0220 	br	x17

0000000000401ef0 <memset@plt>:
  401ef0:	f0000170 	adrp	x16, 430000 <_Znam@GLIBCXX_3.4>
  401ef4:	f9404a11 	ldr	x17, [x16, #144]
  401ef8:	91024210 	add	x16, x16, #0x90
  401efc:	d61f0220 	br	x17

0000000000401f00 <_ZNSo9_M_insertImEERSoT_@plt>:
  401f00:	f0000170 	adrp	x16, 430000 <_Znam@GLIBCXX_3.4>
  401f04:	f9404e11 	ldr	x17, [x16, #152]
  401f08:	91026210 	add	x16, x16, #0x98
  401f0c:	d61f0220 	br	x17

0000000000401f10 <_ZNSo5flushEv@plt>:
  401f10:	f0000170 	adrp	x16, 430000 <_Znam@GLIBCXX_3.4>
  401f14:	f9405211 	ldr	x17, [x16, #160]
  401f18:	91028210 	add	x16, x16, #0xa0
  401f1c:	d61f0220 	br	x17

0000000000401f20 <_ZSt19__throw_logic_errorPKc@plt>:
  401f20:	f0000170 	adrp	x16, 430000 <_Znam@GLIBCXX_3.4>
  401f24:	f9405611 	ldr	x17, [x16, #168]
  401f28:	9102a210 	add	x16, x16, #0xa8
  401f2c:	d61f0220 	br	x17

0000000000401f30 <_ZNSt7__cxx1112basic_stringIcSt11char_traitsIcESaIcEE4swapERS4_@plt>:
  401f30:	f0000170 	adrp	x16, 430000 <_Znam@GLIBCXX_3.4>
  401f34:	f9405a11 	ldr	x17, [x16, #176]
  401f38:	9102c210 	add	x16, x16, #0xb0
  401f3c:	d61f0220 	br	x17

0000000000401f40 <__libc_start_main@plt>:
  401f40:	f0000170 	adrp	x16, 430000 <_Znam@GLIBCXX_3.4>
  401f44:	f9405e11 	ldr	x17, [x16, #184]
  401f48:	9102e210 	add	x16, x16, #0xb8
  401f4c:	d61f0220 	br	x17

0000000000401f50 <_ZNSt7__cxx1118basic_stringstreamIcSt11char_traitsIcESaIcEED1Ev@plt>:
  401f50:	f0000170 	adrp	x16, 430000 <_Znam@GLIBCXX_3.4>
  401f54:	f9406211 	ldr	x17, [x16, #192]
  401f58:	91030210 	add	x16, x16, #0xc0
  401f5c:	d61f0220 	br	x17

0000000000401f60 <_ZNSt13basic_filebufIcSt11char_traitsIcEE4openEPKcSt13_Ios_Openmode@plt>:
  401f60:	f0000170 	adrp	x16, 430000 <_Znam@GLIBCXX_3.4>
  401f64:	f9406611 	ldr	x17, [x16, #200]
  401f68:	91032210 	add	x16, x16, #0xc8
  401f6c:	d61f0220 	br	x17

0000000000401f70 <_ZStlsISt11char_traitsIcEERSt13basic_ostreamIcT_ES5_PKc@plt>:
  401f70:	f0000170 	adrp	x16, 430000 <_Znam@GLIBCXX_3.4>
  401f74:	f9406a11 	ldr	x17, [x16, #208]
  401f78:	91034210 	add	x16, x16, #0xd0
  401f7c:	d61f0220 	br	x17

0000000000401f80 <_Znwm@plt>:
  401f80:	f0000170 	adrp	x16, 430000 <_Znam@GLIBCXX_3.4>
  401f84:	f9406e11 	ldr	x17, [x16, #216]
  401f88:	91036210 	add	x16, x16, #0xd8
  401f8c:	d61f0220 	br	x17

0000000000401f90 <_ZdlPvm@plt>:
  401f90:	f0000170 	adrp	x16, 430000 <_Znam@GLIBCXX_3.4>
  401f94:	f9407211 	ldr	x17, [x16, #224]
  401f98:	91038210 	add	x16, x16, #0xe0
  401f9c:	d61f0220 	br	x17

0000000000401fa0 <_ZNSt13basic_filebufIcSt11char_traitsIcEEC1Ev@plt>:
  401fa0:	f0000170 	adrp	x16, 430000 <_Znam@GLIBCXX_3.4>
  401fa4:	f9407611 	ldr	x17, [x16, #232]
  401fa8:	9103a210 	add	x16, x16, #0xe8
  401fac:	d61f0220 	br	x17

0000000000401fb0 <__cxa_atexit@plt>:
  401fb0:	f0000170 	adrp	x16, 430000 <_Znam@GLIBCXX_3.4>
  401fb4:	f9407a11 	ldr	x17, [x16, #240]
  401fb8:	9103c210 	add	x16, x16, #0xf0
  401fbc:	d61f0220 	br	x17

0000000000401fc0 <_ZSt16__ostream_insertIcSt11char_traitsIcEERSt13basic_ostreamIT_T0_ES6_PKS3_l@plt>:
  401fc0:	f0000170 	adrp	x16, 430000 <_Znam@GLIBCXX_3.4>
  401fc4:	f9407e11 	ldr	x17, [x16, #248]
  401fc8:	9103e210 	add	x16, x16, #0xf8
  401fcc:	d61f0220 	br	x17

0000000000401fd0 <_ZNKSt5ctypeIcE13_M_widen_initEv@plt>:
  401fd0:	f0000170 	adrp	x16, 430000 <_Znam@GLIBCXX_3.4>
  401fd4:	f9408211 	ldr	x17, [x16, #256]
  401fd8:	91040210 	add	x16, x16, #0x100
  401fdc:	d61f0220 	br	x17

0000000000401fe0 <_ZNSt7__cxx1112basic_stringIcSt11char_traitsIcESaIcEE10_M_disposeEv@plt>:
  401fe0:	f0000170 	adrp	x16, 430000 <_Znam@GLIBCXX_3.4>
  401fe4:	f9408611 	ldr	x17, [x16, #264]
  401fe8:	91042210 	add	x16, x16, #0x108
  401fec:	d61f0220 	br	x17

0000000000401ff0 <memmove@plt>:
  401ff0:	f0000170 	adrp	x16, 430000 <_Znam@GLIBCXX_3.4>
  401ff4:	f9408a11 	ldr	x17, [x16, #272]
  401ff8:	91044210 	add	x16, x16, #0x110
  401ffc:	d61f0220 	br	x17

0000000000402000 <_ZSt16__throw_bad_castv@plt>:
  402000:	d0000170 	adrp	x16, 430000 <_Znam@GLIBCXX_3.4>
  402004:	f9408e11 	ldr	x17, [x16, #280]
  402008:	91046210 	add	x16, x16, #0x118
  40200c:	d61f0220 	br	x17

0000000000402010 <isalpha@plt>:
  402010:	d0000170 	adrp	x16, 430000 <_Znam@GLIBCXX_3.4>
  402014:	f9409211 	ldr	x17, [x16, #288]
  402018:	91048210 	add	x16, x16, #0x120
  40201c:	d61f0220 	br	x17

0000000000402020 <_ZStrsIcSt11char_traitsIcESaIcEERSt13basic_istreamIT_T0_ES7_RNSt7__cxx1112basic_stringIS4_S5_T1_EE@plt>:
  402020:	d0000170 	adrp	x16, 430000 <_Znam@GLIBCXX_3.4>
  402024:	f9409611 	ldr	x17, [x16, #296]
  402028:	9104a210 	add	x16, x16, #0x128
  40202c:	d61f0220 	br	x17

0000000000402030 <_ZdaPv@plt>:
  402030:	d0000170 	adrp	x16, 430000 <_Znam@GLIBCXX_3.4>
  402034:	f9409a11 	ldr	x17, [x16, #304]
  402038:	9104c210 	add	x16, x16, #0x130
  40203c:	d61f0220 	br	x17

0000000000402040 <_ZNKSt8__detail20_Prime_rehash_policy14_M_need_rehashEmmm@plt>:
  402040:	d0000170 	adrp	x16, 430000 <_Znam@GLIBCXX_3.4>
  402044:	f9409e11 	ldr	x17, [x16, #312]
  402048:	9104e210 	add	x16, x16, #0x138
  40204c:	d61f0220 	br	x17

0000000000402050 <_ZNSt9basic_iosIcSt11char_traitsIcEE4initEPSt15basic_streambufIcS1_E@plt>:
  402050:	d0000170 	adrp	x16, 430000 <_Znam@GLIBCXX_3.4>
  402054:	f940a211 	ldr	x17, [x16, #320]
  402058:	91050210 	add	x16, x16, #0x140
  40205c:	d61f0220 	br	x17

0000000000402060 <_ZNSt6localeD1Ev@plt>:
  402060:	d0000170 	adrp	x16, 430000 <_Znam@GLIBCXX_3.4>
  402064:	f940a611 	ldr	x17, [x16, #328]
  402068:	91052210 	add	x16, x16, #0x148
  40206c:	d61f0220 	br	x17

0000000000402070 <_ZSt20__throw_out_of_rangePKc@plt>:
  402070:	d0000170 	adrp	x16, 430000 <_Znam@GLIBCXX_3.4>
  402074:	f940aa11 	ldr	x17, [x16, #336]
  402078:	91054210 	add	x16, x16, #0x150
  40207c:	d61f0220 	br	x17

0000000000402080 <__cxa_rethrow@plt>:
  402080:	d0000170 	adrp	x16, 430000 <_Znam@GLIBCXX_3.4>
  402084:	f940ae11 	ldr	x17, [x16, #344]
  402088:	91056210 	add	x16, x16, #0x158
  40208c:	d61f0220 	br	x17

0000000000402090 <_ZNSt8ios_base4InitC1Ev@plt>:
  402090:	d0000170 	adrp	x16, 430000 <_Znam@GLIBCXX_3.4>
  402094:	f940b211 	ldr	x17, [x16, #352]
  402098:	91058210 	add	x16, x16, #0x160
  40209c:	d61f0220 	br	x17

00000000004020a0 <_ZNSt7__cxx1112basic_stringIcSt11char_traitsIcESaIcEE10_M_replaceEmmPKcm@plt>:
  4020a0:	d0000170 	adrp	x16, 430000 <_Znam@GLIBCXX_3.4>
  4020a4:	f940b611 	ldr	x17, [x16, #360]
  4020a8:	9105a210 	add	x16, x16, #0x168
  4020ac:	d61f0220 	br	x17

00000000004020b0 <_ZNSt13basic_filebufIcSt11char_traitsIcEED1Ev@plt>:
  4020b0:	d0000170 	adrp	x16, 430000 <_Znam@GLIBCXX_3.4>
  4020b4:	f940ba11 	ldr	x17, [x16, #368]
  4020b8:	9105c210 	add	x16, x16, #0x170
  4020bc:	d61f0220 	br	x17

00000000004020c0 <abort@plt>:
  4020c0:	d0000170 	adrp	x16, 430000 <_Znam@GLIBCXX_3.4>
  4020c4:	f940be11 	ldr	x17, [x16, #376]
  4020c8:	9105e210 	add	x16, x16, #0x178
  4020cc:	d61f0220 	br	x17

00000000004020d0 <_ZNSo9_M_insertIdEERSoT_@plt>:
  4020d0:	d0000170 	adrp	x16, 430000 <_Znam@GLIBCXX_3.4>
  4020d4:	f940c211 	ldr	x17, [x16, #384]
  4020d8:	91060210 	add	x16, x16, #0x180
  4020dc:	d61f0220 	br	x17

00000000004020e0 <__cxa_end_catch@plt>:
  4020e0:	d0000170 	adrp	x16, 430000 <_Znam@GLIBCXX_3.4>
  4020e4:	f940c611 	ldr	x17, [x16, #392]
  4020e8:	91062210 	add	x16, x16, #0x188
  4020ec:	d61f0220 	br	x17

00000000004020f0 <__gxx_personality_v0@plt>:
  4020f0:	d0000170 	adrp	x16, 430000 <_Znam@GLIBCXX_3.4>
  4020f4:	f940ca11 	ldr	x17, [x16, #400]
  4020f8:	91064210 	add	x16, x16, #0x190
  4020fc:	d61f0220 	br	x17

0000000000402100 <_ZNSt9basic_iosIcSt11char_traitsIcEE5clearESt12_Ios_Iostate@plt>:
  402100:	d0000170 	adrp	x16, 430000 <_Znam@GLIBCXX_3.4>
  402104:	f940ce11 	ldr	x17, [x16, #408]
  402108:	91066210 	add	x16, x16, #0x198
  40210c:	d61f0220 	br	x17

0000000000402110 <_ZNSolsEi@plt>:
  402110:	d0000170 	adrp	x16, 430000 <_Znam@GLIBCXX_3.4>
  402114:	f940d211 	ldr	x17, [x16, #416]
  402118:	91068210 	add	x16, x16, #0x1a0
  40211c:	d61f0220 	br	x17

0000000000402120 <_Unwind_Resume@plt>:
  402120:	d0000170 	adrp	x16, 430000 <_Znam@GLIBCXX_3.4>
  402124:	f940d611 	ldr	x17, [x16, #424]
  402128:	9106a210 	add	x16, x16, #0x1a8
  40212c:	d61f0220 	br	x17

0000000000402130 <_ZNSt7__cxx1112basic_stringIcSt11char_traitsIcESaIcEE9_M_createERmm@plt>:
  402130:	d0000170 	adrp	x16, 430000 <_Znam@GLIBCXX_3.4>
  402134:	f940da11 	ldr	x17, [x16, #432]
  402138:	9106c210 	add	x16, x16, #0x1b0
  40213c:	d61f0220 	br	x17

0000000000402140 <_ZNSt7__cxx1112basic_stringIcSt11char_traitsIcESaIcEE9_M_mutateEmmPKcm@plt>:
  402140:	d0000170 	adrp	x16, 430000 <_Znam@GLIBCXX_3.4>
  402144:	f940de11 	ldr	x17, [x16, #440]
  402148:	9106e210 	add	x16, x16, #0x1b8
  40214c:	d61f0220 	br	x17

0000000000402150 <_ZNSt12__basic_fileIcED1Ev@plt>:
  402150:	d0000170 	adrp	x16, 430000 <_Znam@GLIBCXX_3.4>
  402154:	f940e211 	ldr	x17, [x16, #448]
  402158:	91070210 	add	x16, x16, #0x1c0
  40215c:	d61f0220 	br	x17

0000000000402160 <__gmon_start__@plt>:
  402160:	d0000170 	adrp	x16, 430000 <_Znam@GLIBCXX_3.4>
  402164:	f940e611 	ldr	x17, [x16, #456]
  402168:	91072210 	add	x16, x16, #0x1c8
  40216c:	d61f0220 	br	x17

0000000000402170 <_ZNSt6localeC1Ev@plt>:
  402170:	d0000170 	adrp	x16, 430000 <_Znam@GLIBCXX_3.4>
  402174:	f940ea11 	ldr	x17, [x16, #464]
  402178:	91074210 	add	x16, x16, #0x1d0
  40217c:	d61f0220 	br	x17

0000000000402180 <_ZNSt8ios_base4InitD1Ev@plt>:
  402180:	d0000170 	adrp	x16, 430000 <_Znam@GLIBCXX_3.4>
  402184:	f940ee11 	ldr	x17, [x16, #472]
  402188:	91076210 	add	x16, x16, #0x1d8
  40218c:	d61f0220 	br	x17

Disassembly of section .text:

00000000004021c0 <main>:
  4021c0:	d10e83ff 	sub	sp, sp, #0x3a0
  4021c4:	a9007bfd 	stp	x29, x30, [sp]
  4021c8:	910003fd 	mov	x29, sp
  4021cc:	a90153f3 	stp	x19, x20, [sp, #16]
  4021d0:	a9025bf5 	stp	x21, x22, [sp, #32]
  4021d4:	a90363f7 	stp	x23, x24, [sp, #48]
  4021d8:	a9046bf9 	stp	x25, x26, [sp, #64]
  4021dc:	a90573fb 	stp	x27, x28, [sp, #80]
  4021e0:	6d0627e8 	stp	d8, d9, [sp, #96]
  4021e4:	7100041f 	cmp	w0, #0x1
  4021e8:	54007ced 	b.le	403184 <main+0xfc4>
  4021ec:	51000800 	sub	w0, w0, #0x2
  4021f0:	91004022 	add	x2, x1, #0x10
  4021f4:	9107e3fc 	add	x28, sp, #0x1f8
  4021f8:	90000098 	adrp	x24, 412000 <_Z19MD5Hash_simdversionPKNSt7__cxx1112basic_stringIcSt11char_traitsIcESaIcEEEP12__Uint32x4_t+0x1000>
  4021fc:	91002034 	add	x20, x1, #0x8
  402200:	8b204c57 	add	x23, x2, w0, uxtw #3
  402204:	91004396 	add	x22, x28, #0x10
  402208:	91272318 	add	x24, x24, #0x9c8
  40220c:	d503201f 	nop
  402210:	f9400295 	ldr	x21, [x20]
  402214:	f900fff6 	str	x22, [sp, #504]
  402218:	b4007c15 	cbz	x21, 403198 <main+0xfd8>
  40221c:	aa1503e0 	mov	x0, x21
  402220:	97ffff14 	bl	401e70 <strlen@plt>
  402224:	f900dbe0 	str	x0, [sp, #432]
  402228:	aa0003f3 	mov	x19, x0
  40222c:	f1003c1f 	cmp	x0, #0xf
  402230:	54004ea8 	b.hi	402c04 <main+0xa44>  // b.pmore
  402234:	f100041f 	cmp	x0, #0x1
  402238:	54004e01 	b.ne	402bf8 <main+0xa38>  // b.any
  40223c:	394002a1 	ldrb	w1, [x21]
  402240:	aa1603e0 	mov	x0, x22
  402244:	390823e1 	strb	w1, [sp, #520]
  402248:	f90103f3 	str	x19, [sp, #512]
  40224c:	aa1803e1 	mov	x1, x24
  402250:	3833681f 	strb	wzr, [x0, x19]
  402254:	aa1c03e0 	mov	x0, x28
  402258:	97fffefe 	bl	401e50 <_ZNKSt7__cxx1112basic_stringIcSt11char_traitsIcESaIcEE7compareEPKc@plt>
  40225c:	2a0003f3 	mov	w19, w0
  402260:	f940ffe2 	ldr	x2, [sp, #504]
  402264:	eb16005f 	cmp	x2, x22
  402268:	540000a0 	b.eq	40227c <main+0xbc>  // b.none
  40226c:	f94107e1 	ldr	x1, [sp, #520]
  402270:	aa0203e0 	mov	x0, x2
  402274:	91000421 	add	x1, x1, #0x1
  402278:	97ffff46 	bl	401f90 <_ZdlPvm@plt>
  40227c:	34006ed3 	cbz	w19, 403054 <main+0xe94>
  402280:	91002294 	add	x20, x20, #0x8
  402284:	eb17029f 	cmp	x20, x23
  402288:	54fffc41 	b.ne	402210 <main+0x50>  // b.any
  40228c:	52800020 	mov	w0, #0x1                   	// #1
  402290:	b9011fe0 	str	w0, [sp, #284]
  402294:	aa1c03e0 	mov	x0, x28
  402298:	90000081 	adrp	x1, 412000 <_Z19MD5Hash_simdversionPKNSt7__cxx1112basic_stringIcSt11char_traitsIcESaIcEEEP12__Uint32x4_t+0x1000>
  40229c:	91276021 	add	x1, x1, #0x9d8
  4022a0:	9400049c 	bl	403510 <_ZNSt7__cxx1112basic_stringIcSt11char_traitsIcESaIcEEC2EPKcRKS3_.constprop.0>
  4022a4:	91008380 	add	x0, x28, #0x20
  4022a8:	90000081 	adrp	x1, 412000 <_Z19MD5Hash_simdversionPKNSt7__cxx1112basic_stringIcSt11char_traitsIcESaIcEEEP12__Uint32x4_t+0x1000>
  4022ac:	91278021 	add	x1, x1, #0x9e0
  4022b0:	94000498 	bl	403510 <_ZNSt7__cxx1112basic_stringIcSt11char_traitsIcESaIcEEC2EPKcRKS3_.constprop.0>
  4022b4:	91010380 	add	x0, x28, #0x40
  4022b8:	90000081 	adrp	x1, 412000 <_Z19MD5Hash_simdversionPKNSt7__cxx1112basic_stringIcSt11char_traitsIcESaIcEEEP12__Uint32x4_t+0x1000>
  4022bc:	9127c021 	add	x1, x1, #0x9f0
  4022c0:	94000494 	bl	403510 <_ZNSt7__cxx1112basic_stringIcSt11char_traitsIcESaIcEEC2EPKcRKS3_.constprop.0>
  4022c4:	91018380 	add	x0, x28, #0x60
  4022c8:	90000081 	adrp	x1, 412000 <_Z19MD5Hash_simdversionPKNSt7__cxx1112basic_stringIcSt11char_traitsIcESaIcEEEP12__Uint32x4_t+0x1000>
  4022cc:	91280021 	add	x1, x1, #0xa00
  4022d0:	94000490 	bl	403510 <_ZNSt7__cxx1112basic_stringIcSt11char_traitsIcESaIcEEC2EPKcRKS3_.constprop.0>
  4022d4:	91020380 	add	x0, x28, #0x80
  4022d8:	90000081 	adrp	x1, 412000 <_Z19MD5Hash_simdversionPKNSt7__cxx1112basic_stringIcSt11char_traitsIcESaIcEEEP12__Uint32x4_t+0x1000>
  4022dc:	91282021 	add	x1, x1, #0xa08
  4022e0:	9400048c 	bl	403510 <_ZNSt7__cxx1112basic_stringIcSt11char_traitsIcESaIcEEC2EPKcRKS3_.constprop.0>
  4022e4:	91028380 	add	x0, x28, #0xa0
  4022e8:	90000081 	adrp	x1, 412000 <_Z19MD5Hash_simdversionPKNSt7__cxx1112basic_stringIcSt11char_traitsIcESaIcEEEP12__Uint32x4_t+0x1000>
  4022ec:	91286021 	add	x1, x1, #0xa18
  4022f0:	94000488 	bl	403510 <_ZNSt7__cxx1112basic_stringIcSt11char_traitsIcESaIcEEC2EPKcRKS3_.constprop.0>
  4022f4:	91030380 	add	x0, x28, #0xc0
  4022f8:	90000081 	adrp	x1, 412000 <_Z19MD5Hash_simdversionPKNSt7__cxx1112basic_stringIcSt11char_traitsIcESaIcEEEP12__Uint32x4_t+0x1000>
  4022fc:	91288021 	add	x1, x1, #0xa20
  402300:	94000484 	bl	403510 <_ZNSt7__cxx1112basic_stringIcSt11char_traitsIcESaIcEEC2EPKcRKS3_.constprop.0>
  402304:	91038380 	add	x0, x28, #0xe0
  402308:	90000081 	adrp	x1, 412000 <_Z19MD5Hash_simdversionPKNSt7__cxx1112basic_stringIcSt11char_traitsIcESaIcEEEP12__Uint32x4_t+0x1000>
  40230c:	9128a021 	add	x1, x1, #0xa28
  402310:	94000480 	bl	403510 <_ZNSt7__cxx1112basic_stringIcSt11char_traitsIcESaIcEEC2EPKcRKS3_.constprop.0>
  402314:	9106c3e3 	add	x3, sp, #0x1b0
  402318:	910483e0 	add	x0, sp, #0x120
  40231c:	aa1c03e1 	mov	x1, x28
  402320:	d2800102 	mov	x2, #0x8                   	// #8
  402324:	94000523 	bl	4037b0 <_ZNSt6vectorINSt7__cxx1112basic_stringIcSt11char_traitsIcESaIcEEESaIS5_EEC1ESt16initializer_listIS5_ERKS6_>
  402328:	91038393 	add	x19, x28, #0xe0
  40232c:	14000002 	b	402334 <main+0x174>
  402330:	aa0003f3 	mov	x19, x0
  402334:	aa1303e1 	mov	x1, x19
  402338:	f8410420 	ldr	x0, [x1], #16
  40233c:	eb01001f 	cmp	x0, x1
  402340:	54000080 	b.eq	402350 <main+0x190>  // b.none
  402344:	f9400a61 	ldr	x1, [x19, #16]
  402348:	91000421 	add	x1, x1, #0x1
  40234c:	97ffff11 	bl	401f90 <_ZdlPvm@plt>
  402350:	d1008260 	sub	x0, x19, #0x20
  402354:	eb13039f 	cmp	x28, x19
  402358:	54fffec1 	b.ne	402330 <main+0x170>  // b.any
  40235c:	90000081 	adrp	x1, 412000 <_Z19MD5Hash_simdversionPKNSt7__cxx1112basic_stringIcSt11char_traitsIcESaIcEEEP12__Uint32x4_t+0x1000>
  402360:	aa1c03e0 	mov	x0, x28
  402364:	9128c021 	add	x1, x1, #0xa30
  402368:	9400046a 	bl	403510 <_ZNSt7__cxx1112basic_stringIcSt11char_traitsIcESaIcEEC2EPKcRKS3_.constprop.0>
  40236c:	90000081 	adrp	x1, 412000 <_Z19MD5Hash_simdversionPKNSt7__cxx1112basic_stringIcSt11char_traitsIcESaIcEEEP12__Uint32x4_t+0x1000>
  402370:	91008380 	add	x0, x28, #0x20
  402374:	91296021 	add	x1, x1, #0xa58
  402378:	94000466 	bl	403510 <_ZNSt7__cxx1112basic_stringIcSt11char_traitsIcESaIcEEC2EPKcRKS3_.constprop.0>
  40237c:	90000081 	adrp	x1, 412000 <_Z19MD5Hash_simdversionPKNSt7__cxx1112basic_stringIcSt11char_traitsIcESaIcEEEP12__Uint32x4_t+0x1000>
  402380:	91010380 	add	x0, x28, #0x40
  402384:	912a0021 	add	x1, x1, #0xa80
  402388:	94000462 	bl	403510 <_ZNSt7__cxx1112basic_stringIcSt11char_traitsIcESaIcEEC2EPKcRKS3_.constprop.0>
  40238c:	90000081 	adrp	x1, 412000 <_Z19MD5Hash_simdversionPKNSt7__cxx1112basic_stringIcSt11char_traitsIcESaIcEEEP12__Uint32x4_t+0x1000>
  402390:	91018380 	add	x0, x28, #0x60
  402394:	912aa021 	add	x1, x1, #0xaa8
  402398:	9400045e 	bl	403510 <_ZNSt7__cxx1112basic_stringIcSt11char_traitsIcESaIcEEC2EPKcRKS3_.constprop.0>
  40239c:	90000081 	adrp	x1, 412000 <_Z19MD5Hash_simdversionPKNSt7__cxx1112basic_stringIcSt11char_traitsIcESaIcEEEP12__Uint32x4_t+0x1000>
  4023a0:	91020380 	add	x0, x28, #0x80
  4023a4:	912b4021 	add	x1, x1, #0xad0
  4023a8:	9400045a 	bl	403510 <_ZNSt7__cxx1112basic_stringIcSt11char_traitsIcESaIcEEC2EPKcRKS3_.constprop.0>
  4023ac:	90000081 	adrp	x1, 412000 <_Z19MD5Hash_simdversionPKNSt7__cxx1112basic_stringIcSt11char_traitsIcESaIcEEEP12__Uint32x4_t+0x1000>
  4023b0:	91028380 	add	x0, x28, #0xa0
  4023b4:	912be021 	add	x1, x1, #0xaf8
  4023b8:	94000456 	bl	403510 <_ZNSt7__cxx1112basic_stringIcSt11char_traitsIcESaIcEEC2EPKcRKS3_.constprop.0>
  4023bc:	90000081 	adrp	x1, 412000 <_Z19MD5Hash_simdversionPKNSt7__cxx1112basic_stringIcSt11char_traitsIcESaIcEEEP12__Uint32x4_t+0x1000>
  4023c0:	91030380 	add	x0, x28, #0xc0
  4023c4:	912c8021 	add	x1, x1, #0xb20
  4023c8:	94000452 	bl	403510 <_ZNSt7__cxx1112basic_stringIcSt11char_traitsIcESaIcEEC2EPKcRKS3_.constprop.0>
  4023cc:	90000081 	adrp	x1, 412000 <_Z19MD5Hash_simdversionPKNSt7__cxx1112basic_stringIcSt11char_traitsIcESaIcEEEP12__Uint32x4_t+0x1000>
  4023d0:	91038380 	add	x0, x28, #0xe0
  4023d4:	912d2021 	add	x1, x1, #0xb48
  4023d8:	9400044e 	bl	403510 <_ZNSt7__cxx1112basic_stringIcSt11char_traitsIcESaIcEEC2EPKcRKS3_.constprop.0>
  4023dc:	9106c3e3 	add	x3, sp, #0x1b0
  4023e0:	9104e3e0 	add	x0, sp, #0x138
  4023e4:	aa1c03e1 	mov	x1, x28
  4023e8:	d2800102 	mov	x2, #0x8                   	// #8
  4023ec:	940004f1 	bl	4037b0 <_ZNSt6vectorINSt7__cxx1112basic_stringIcSt11char_traitsIcESaIcEEESaIS5_EEC1ESt16initializer_listIS5_ERKS6_>
  4023f0:	91038393 	add	x19, x28, #0xe0
  4023f4:	14000002 	b	4023fc <main+0x23c>
  4023f8:	aa0003f3 	mov	x19, x0
  4023fc:	aa1303e1 	mov	x1, x19
  402400:	f8410420 	ldr	x0, [x1], #16
  402404:	eb01001f 	cmp	x0, x1
  402408:	54000080 	b.eq	402418 <main+0x258>  // b.none
  40240c:	f9400a61 	ldr	x1, [x19, #16]
  402410:	91000421 	add	x1, x1, #0x1
  402414:	97fffedf 	bl	401f90 <_ZdlPvm@plt>
  402418:	d1008260 	sub	x0, x19, #0x20
  40241c:	eb1c027f 	cmp	x19, x28
  402420:	54fffec1 	b.ne	4023f8 <main+0x238>  // b.any
  402424:	d0000160 	adrp	x0, 430000 <_Znam@GLIBCXX_3.4>
  402428:	90000081 	adrp	x1, 412000 <_Z19MD5Hash_simdversionPKNSt7__cxx1112basic_stringIcSt11char_traitsIcESaIcEEEP12__Uint32x4_t+0x1000>
  40242c:	91080000 	add	x0, x0, #0x200
  402430:	912dc021 	add	x1, x1, #0xb70
  402434:	f9007fe0 	str	x0, [sp, #248]
  402438:	97fffece 	bl	401f70 <_ZStlsISt11char_traitsIcEERSt13basic_ostreamIcT_ES5_PKc@plt>
  40243c:	94000462 	bl	4035c4 <_ZSt4endlIcSt11char_traitsIcEERSt13basic_ostreamIT_T0_ES6_.isra.0>
  402440:	a95207e0 	ldp	x0, x1, [sp, #288]
  402444:	9105c3e2 	add	x2, sp, #0x170
  402448:	a90a7fe2 	stp	x2, xzr, [sp, #160]
  40244c:	eb00003f 	cmp	x1, x0
  402450:	54002100 	b.eq	402870 <main+0x6b0>  // b.none
  402454:	b0000162 	adrp	x2, 42f000 <__FRAME_END__+0x1a5d8>
  402458:	b0000001 	adrp	x1, 403000 <main+0xe40>
  40245c:	912c0042 	add	x2, x2, #0xb00
  402460:	91194021 	add	x1, x1, #0x650
  402464:	f9005fe2 	str	x2, [sp, #184]
  402468:	f90073e1 	str	x1, [sp, #224]
  40246c:	d503201f 	nop
  402470:	f94057e1 	ldr	x1, [sp, #168]
  402474:	d37be821 	lsl	x1, x1, #5
  402478:	aa0103e2 	mov	x2, x1
  40247c:	8b010000 	add	x0, x0, x1
  402480:	f94053e1 	ldr	x1, [sp, #160]
  402484:	f9005be2 	str	x2, [sp, #176]
  402488:	94003817 	bl	4104e4 <_Z7MD5HashRKNSt7__cxx1112basic_stringIcSt11char_traitsIcESaIcEEEPj>
  40248c:	91020380 	add	x0, x28, #0x80
  402490:	97fffe74 	bl	401e60 <_ZNSt8ios_baseC2Ev@plt>
  402494:	b0000160 	adrp	x0, 42f000 <__FRAME_END__+0x1a5d8>
  402498:	912c4013 	add	x19, x0, #0xb10
  40249c:	7906b3ff 	strh	wzr, [sp, #856]
  4024a0:	d2800001 	mov	x1, #0x0                   	// #0
  4024a4:	f9405fe0 	ldr	x0, [sp, #184]
  4024a8:	f9013fe0 	str	x0, [sp, #632]
  4024ac:	a9410a76 	ldp	x22, x2, [x19, #16]
  4024b0:	f900fff6 	str	x22, [sp, #504]
  4024b4:	f901abff 	str	xzr, [sp, #848]
  4024b8:	f901b3ff 	str	xzr, [sp, #864]
  4024bc:	f90063e2 	str	x2, [sp, #192]
  4024c0:	f85e82c0 	ldur	x0, [x22, #-24]
  4024c4:	f901b7ff 	str	xzr, [sp, #872]
  4024c8:	f901bbff 	str	xzr, [sp, #880]
  4024cc:	f901bfff 	str	xzr, [sp, #888]
  4024d0:	f8206b82 	str	x2, [x28, x0]
  4024d4:	f90103ff 	str	xzr, [sp, #512]
  4024d8:	f85e82c0 	ldur	x0, [x22, #-24]
  4024dc:	8b000380 	add	x0, x28, x0
  4024e0:	97fffedc 	bl	402050 <_ZNSt9basic_iosIcSt11char_traitsIcEE4initEPSt15basic_streambufIcS1_E@plt>
  4024e4:	a942127a 	ldp	x26, x4, [x19, #32]
  4024e8:	91004382 	add	x2, x28, #0x10
  4024ec:	d2800001 	mov	x1, #0x0                   	// #0
  4024f0:	f9006fe4 	str	x4, [sp, #216]
  4024f4:	f85e8343 	ldur	x3, [x26, #-24]
  4024f8:	f90107fa 	str	x26, [sp, #520]
  4024fc:	8b030040 	add	x0, x2, x3
  402500:	f8236844 	str	x4, [x2, x3]
  402504:	97fffed3 	bl	402050 <_ZNSt9basic_iosIcSt11char_traitsIcEE4initEPSt15basic_streambufIcS1_E@plt>
  402508:	f9400661 	ldr	x1, [x19, #8]
  40250c:	910823f0 	add	x16, sp, #0x208
  402510:	f9401a63 	ldr	x3, [x19, #48]
  402514:	9108a3f1 	add	x17, sp, #0x228
  402518:	f85e8022 	ldur	x2, [x1, #-24]
  40251c:	b0000160 	adrp	x0, 42f000 <__FRAME_END__+0x1a5d8>
  402520:	91312004 	add	x4, x0, #0xc48
  402524:	b0000160 	adrp	x0, 42f000 <__FRAME_END__+0x1a5d8>
  402528:	9131c005 	add	x5, x0, #0xc70
  40252c:	b0000160 	adrp	x0, 42f000 <__FRAME_END__+0x1a5d8>
  402530:	f8226b83 	str	x3, [x28, x2]
  402534:	912dc002 	add	x2, x0, #0xb70
  402538:	f900ffe4 	str	x4, [sp, #504]
  40253c:	91014380 	add	x0, x28, #0x50
  402540:	a9000a05 	stp	x5, x2, [x16]
  402544:	a9017e1f 	stp	xzr, xzr, [x16, #16]
  402548:	a90c8fe1 	stp	x1, x3, [sp, #200]
  40254c:	b0000161 	adrp	x1, 42f000 <__FRAME_END__+0x1a5d8>
  402550:	91326021 	add	x1, x1, #0xc98
  402554:	a9007e3f 	stp	xzr, xzr, [x17]
  402558:	a9017e3f 	stp	xzr, xzr, [x17, #16]
  40255c:	a90793e2 	stp	x2, x4, [sp, #120]
  402560:	f90047e5 	str	x5, [sp, #136]
  402564:	f9004be1 	str	x1, [sp, #144]
  402568:	f9013fe1 	str	x1, [sp, #632]
  40256c:	97ffff01 	bl	402170 <_ZNSt6localeC1Ev@plt>
  402570:	b0000160 	adrp	x0, 42f000 <__FRAME_END__+0x1a5d8>
  402574:	91356000 	add	x0, x0, #0xd58
  402578:	aa0003e4 	mov	x4, x0
  40257c:	9101c382 	add	x2, x28, #0x70
  402580:	52800303 	mov	w3, #0x18                  	// #24
  402584:	91006381 	add	x1, x28, #0x18
  402588:	91020380 	add	x0, x28, #0x80
  40258c:	f9004fe4 	str	x4, [sp, #152]
  402590:	f9010be4 	str	x4, [sp, #528]
  402594:	b90253e3 	str	w3, [sp, #592]
  402598:	f9012fe2 	str	x2, [sp, #600]
  40259c:	f90133ff 	str	xzr, [sp, #608]
  4025a0:	3909a3ff 	strb	wzr, [sp, #616]
  4025a4:	97fffeab 	bl	402050 <_ZNSt9basic_iosIcSt11char_traitsIcEE4initEPSt15basic_streambufIcS1_E@plt>
  4025a8:	f94053e0 	ldr	x0, [sp, #160]
  4025ac:	910823fb 	add	x27, sp, #0x208
  4025b0:	91004395 	add	x21, x28, #0x10
  4025b4:	d2800118 	mov	x24, #0x8                   	// #8
  4025b8:	aa0003f4 	mov	x20, x0
  4025bc:	91004019 	add	x25, x0, #0x10
  4025c0:	f94107e0 	ldr	x0, [sp, #520]
  4025c4:	f85e8001 	ldur	x1, [x0, #-24]
  4025c8:	8b010361 	add	x1, x27, x1
  4025cc:	f9000838 	str	x24, [x1, #16]
  4025d0:	f85e8013 	ldur	x19, [x0, #-24]
  4025d4:	8b1302b3 	add	x19, x21, x19
  4025d8:	39438661 	ldrb	w1, [x19, #225]
  4025dc:	34000ec1 	cbz	w1, 4027b4 <main+0x5f4>
  4025e0:	52800601 	mov	w1, #0x30                  	// #48
  4025e4:	39038261 	strb	w1, [x19, #224]
  4025e8:	12800944 	mov	w4, #0xffffffb5            	// #-75
  4025ec:	b9400281 	ldr	w1, [x20]
  4025f0:	f85e8003 	ldur	x3, [x0, #-24]
  4025f4:	aa1503e0 	mov	x0, x21
  4025f8:	8b0302a3 	add	x3, x21, x3
  4025fc:	b9401862 	ldr	w2, [x3, #24]
  402600:	0a040042 	and	w2, w2, w4
  402604:	321d0042 	orr	w2, w2, #0x8
  402608:	b9001862 	str	w2, [x3, #24]
  40260c:	97fffe3d 	bl	401f00 <_ZNSo9_M_insertImEERSoT_@plt>
  402610:	91001294 	add	x20, x20, #0x4
  402614:	eb14033f 	cmp	x25, x20
  402618:	54fffd41 	b.ne	4025c0 <main+0x400>  // b.any
  40261c:	f9411fe0 	ldr	x0, [sp, #568]
  402620:	910703e1 	add	x1, sp, #0x1c0
  402624:	a91b7fe1 	stp	x1, xzr, [sp, #432]
  402628:	390703ff 	strb	wzr, [sp, #448]
  40262c:	b4003060 	cbz	x0, 402c38 <main+0xa78>
  402630:	f94117e4 	ldr	x4, [sp, #552]
  402634:	f9411be3 	ldr	x3, [sp, #560]
  402638:	eb04001f 	cmp	x0, x4
  40263c:	54000e29 	b.ls	402800 <main+0x640>  // b.plast
  402640:	cb030004 	sub	x4, x0, x3
  402644:	d2800002 	mov	x2, #0x0                   	// #0
  402648:	9106c3e0 	add	x0, sp, #0x1b0
  40264c:	d2800001 	mov	x1, #0x0                   	// #0
  402650:	97fffe94 	bl	4020a0 <_ZNSt7__cxx1112basic_stringIcSt11char_traitsIcESaIcEE10_M_replaceEmmPKcm@plt>
  402654:	f94043e2 	ldr	x2, [sp, #128]
  402658:	f900ffe2 	str	x2, [sp, #504]
  40265c:	f94047e2 	ldr	x2, [sp, #136]
  402660:	f90107e2 	str	x2, [sp, #520]
  402664:	f9404fe2 	ldr	x2, [sp, #152]
  402668:	f9010be2 	str	x2, [sp, #528]
  40266c:	f9412fe0 	ldr	x0, [sp, #600]
  402670:	9101c381 	add	x1, x28, #0x70
  402674:	f9404be2 	ldr	x2, [sp, #144]
  402678:	f9013fe2 	str	x2, [sp, #632]
  40267c:	eb01001f 	cmp	x0, x1
  402680:	54000080 	b.eq	402690 <main+0x4d0>  // b.none
  402684:	f94137e1 	ldr	x1, [sp, #616]
  402688:	91000421 	add	x1, x1, #0x1
  40268c:	97fffe41 	bl	401f90 <_ZdlPvm@plt>
  402690:	f9403fe1 	ldr	x1, [sp, #120]
  402694:	91014380 	add	x0, x28, #0x50
  402698:	f9010be1 	str	x1, [sp, #528]
  40269c:	97fffe71 	bl	402060 <_ZNSt6localeD1Ev@plt>
  4026a0:	a94c8fe0 	ldp	x0, x3, [sp, #200]
  4026a4:	f85e8342 	ldur	x2, [x26, #-24]
  4026a8:	f85e8001 	ldur	x1, [x0, #-24]
  4026ac:	91020380 	add	x0, x28, #0x80
  4026b0:	f8216b83 	str	x3, [x28, x1]
  4026b4:	f85e82c1 	ldur	x1, [x22, #-24]
  4026b8:	f90107fa 	str	x26, [sp, #520]
  4026bc:	f9406fe3 	ldr	x3, [sp, #216]
  4026c0:	f8226b63 	str	x3, [x27, x2]
  4026c4:	f900fff6 	str	x22, [sp, #504]
  4026c8:	f94063e2 	ldr	x2, [sp, #192]
  4026cc:	f8216b82 	str	x2, [x28, x1]
  4026d0:	f9405fe1 	ldr	x1, [sp, #184]
  4026d4:	f90103ff 	str	xzr, [sp, #512]
  4026d8:	f9013fe1 	str	x1, [sp, #632]
  4026dc:	97fffded 	bl	401e90 <_ZNSt8ios_baseD2Ev@plt>
  4026e0:	f9405be1 	ldr	x1, [sp, #176]
  4026e4:	f9409fe0 	ldr	x0, [sp, #312]
  4026e8:	f940dfe2 	ldr	x2, [sp, #440]
  4026ec:	8b010001 	add	x1, x0, x1
  4026f0:	f9400421 	ldr	x1, [x1, #8]
  4026f4:	eb01005f 	cmp	x2, x1
  4026f8:	54000900 	b.eq	402818 <main+0x658>  // b.none
  4026fc:	f9407ff4 	ldr	x20, [sp, #248]
  402700:	90000081 	adrp	x1, 412000 <_Z19MD5Hash_simdversionPKNSt7__cxx1112basic_stringIcSt11char_traitsIcESaIcEEEP12__Uint32x4_t+0x1000>
  402704:	912ea021 	add	x1, x1, #0xba8
  402708:	aa1403e0 	mov	x0, x20
  40270c:	97fffe19 	bl	401f70 <_ZStlsISt11char_traitsIcEERSt13basic_ostreamIcT_ES5_PKc@plt>
  402710:	f9405bf3 	ldr	x19, [sp, #176]
  402714:	f94093e1 	ldr	x1, [sp, #288]
  402718:	8b130022 	add	x2, x1, x19
  40271c:	f8736821 	ldr	x1, [x1, x19]
  402720:	f9400442 	ldr	x2, [x2, #8]
  402724:	97fffe27 	bl	401fc0 <_ZSt16__ostream_insertIcSt11char_traitsIcEERSt13basic_ostreamIT_T0_ES6_PKS3_l@plt>
  402728:	90000081 	adrp	x1, 412000 <_Z19MD5Hash_simdversionPKNSt7__cxx1112basic_stringIcSt11char_traitsIcESaIcEEEP12__Uint32x4_t+0x1000>
  40272c:	912f2021 	add	x1, x1, #0xbc8
  402730:	97fffe10 	bl	401f70 <_ZStlsISt11char_traitsIcEERSt13basic_ostreamIcT_ES5_PKc@plt>
  402734:	940003a4 	bl	4035c4 <_ZSt4endlIcSt11char_traitsIcEERSt13basic_ostreamIT_T0_ES6_.isra.0>
  402738:	90000081 	adrp	x1, 412000 <_Z19MD5Hash_simdversionPKNSt7__cxx1112basic_stringIcSt11char_traitsIcESaIcEEEP12__Uint32x4_t+0x1000>
  40273c:	aa1403e0 	mov	x0, x20
  402740:	912f4021 	add	x1, x1, #0xbd0
  402744:	97fffe0b 	bl	401f70 <_ZStlsISt11char_traitsIcEERSt13basic_ostreamIcT_ES5_PKc@plt>
  402748:	f9409fe1 	ldr	x1, [sp, #312]
  40274c:	8b130022 	add	x2, x1, x19
  402750:	f8736821 	ldr	x1, [x1, x19]
  402754:	f9400442 	ldr	x2, [x2, #8]
  402758:	97fffe1a 	bl	401fc0 <_ZSt16__ostream_insertIcSt11char_traitsIcEERSt13basic_ostreamIT_T0_ES6_PKS3_l@plt>
  40275c:	90000081 	adrp	x1, 412000 <_Z19MD5Hash_simdversionPKNSt7__cxx1112basic_stringIcSt11char_traitsIcESaIcEEEP12__Uint32x4_t+0x1000>
  402760:	912f8021 	add	x1, x1, #0xbe0
  402764:	97fffe03 	bl	401f70 <_ZStlsISt11char_traitsIcEERSt13basic_ostreamIcT_ES5_PKc@plt>
  402768:	a95b0be1 	ldp	x1, x2, [sp, #432]
  40276c:	97fffe15 	bl	401fc0 <_ZSt16__ostream_insertIcSt11char_traitsIcEERSt13basic_ostreamIT_T0_ES6_PKS3_l@plt>
  402770:	94000395 	bl	4035c4 <_ZSt4endlIcSt11char_traitsIcEERSt13basic_ostreamIT_T0_ES6_.isra.0>
  402774:	9106c3e0 	add	x0, sp, #0x1b0
  402778:	97fffe1a 	bl	401fe0 <_ZNSt7__cxx1112basic_stringIcSt11char_traitsIcESaIcEE10_M_disposeEv@plt>
  40277c:	9104e3e0 	add	x0, sp, #0x138
  402780:	940003b8 	bl	403660 <_ZNSt6vectorINSt7__cxx1112basic_stringIcSt11char_traitsIcESaIcEEESaIS5_EED1Ev>
  402784:	910483e0 	add	x0, sp, #0x120
  402788:	940003b6 	bl	403660 <_ZNSt6vectorINSt7__cxx1112basic_stringIcSt11char_traitsIcESaIcEEESaIS5_EED1Ev>
  40278c:	52800020 	mov	w0, #0x1                   	// #1
  402790:	a9407bfd 	ldp	x29, x30, [sp]
  402794:	a94153f3 	ldp	x19, x20, [sp, #16]
  402798:	a9425bf5 	ldp	x21, x22, [sp, #32]
  40279c:	a94363f7 	ldp	x23, x24, [sp, #48]
  4027a0:	a9446bf9 	ldp	x25, x26, [sp, #64]
  4027a4:	a94573fb 	ldp	x27, x28, [sp, #80]
  4027a8:	6d4627e8 	ldp	d8, d9, [sp, #96]
  4027ac:	910e83ff 	add	sp, sp, #0x3a0
  4027b0:	d65f03c0 	ret
  4027b4:	f9407a77 	ldr	x23, [x19, #240]
  4027b8:	b4004ed7 	cbz	x23, 403190 <main+0xfd0>
  4027bc:	3940e2e1 	ldrb	w1, [x23, #56]
  4027c0:	35000121 	cbnz	w1, 4027e4 <main+0x624>
  4027c4:	aa1703e0 	mov	x0, x23
  4027c8:	97fffe02 	bl	401fd0 <_ZNKSt5ctypeIcE13_M_widen_initEv@plt>
  4027cc:	f94002e0 	ldr	x0, [x23]
  4027d0:	f9401802 	ldr	x2, [x0, #48]
  4027d4:	f94073e0 	ldr	x0, [sp, #224]
  4027d8:	eb00005f 	cmp	x2, x0
  4027dc:	540000a1 	b.ne	4027f0 <main+0x630>  // b.any
  4027e0:	f94107e0 	ldr	x0, [sp, #520]
  4027e4:	52800021 	mov	w1, #0x1                   	// #1
  4027e8:	39038661 	strb	w1, [x19, #225]
  4027ec:	17ffff7d 	b	4025e0 <main+0x420>
  4027f0:	aa1703e0 	mov	x0, x23
  4027f4:	52800401 	mov	w1, #0x20                  	// #32
  4027f8:	d63f0040 	blr	x2
  4027fc:	17fffff9 	b	4027e0 <main+0x620>
  402800:	cb030084 	sub	x4, x4, x3
  402804:	9106c3e0 	add	x0, sp, #0x1b0
  402808:	d2800002 	mov	x2, #0x0                   	// #0
  40280c:	d2800001 	mov	x1, #0x0                   	// #0
  402810:	97fffe24 	bl	4020a0 <_ZNSt7__cxx1112basic_stringIcSt11char_traitsIcESaIcEE10_M_replaceEmmPKcm@plt>
  402814:	17ffff90 	b	402654 <main+0x494>
  402818:	f940dbf3 	ldr	x19, [sp, #432]
  40281c:	b40000c2 	cbz	x2, 402834 <main+0x674>
  402820:	f9405be1 	ldr	x1, [sp, #176]
  402824:	f8616801 	ldr	x1, [x0, x1]
  402828:	aa1303e0 	mov	x0, x19
  40282c:	97fffda5 	bl	401ec0 <memcmp@plt>
  402830:	35fff660 	cbnz	w0, 4026fc <main+0x53c>
  402834:	910703e0 	add	x0, sp, #0x1c0
  402838:	eb00027f 	cmp	x19, x0
  40283c:	540000a0 	b.eq	402850 <main+0x690>  // b.none
  402840:	f940e3e1 	ldr	x1, [sp, #448]
  402844:	aa1303e0 	mov	x0, x19
  402848:	91000421 	add	x1, x1, #0x1
  40284c:	97fffdd1 	bl	401f90 <_ZdlPvm@plt>
  402850:	f94057e1 	ldr	x1, [sp, #168]
  402854:	f94093e0 	ldr	x0, [sp, #288]
  402858:	91000422 	add	x2, x1, #0x1
  40285c:	f94097e1 	ldr	x1, [sp, #296]
  402860:	f90057e2 	str	x2, [sp, #168]
  402864:	cb000021 	sub	x1, x1, x0
  402868:	eb81145f 	cmp	x2, x1, asr #5
  40286c:	54ffe023 	b.cc	402470 <main+0x2b0>  // b.lo, b.ul, b.last
  402870:	f9407fe0 	ldr	x0, [sp, #248]
  402874:	90000081 	adrp	x1, 412000 <_Z19MD5Hash_simdversionPKNSt7__cxx1112basic_stringIcSt11char_traitsIcESaIcEEEP12__Uint32x4_t+0x1000>
  402878:	912e4021 	add	x1, x1, #0xb90
  40287c:	97fffdbd 	bl	401f70 <_ZStlsISt11char_traitsIcEERSt13basic_ostreamIcT_ES5_PKc@plt>
  402880:	94000351 	bl	4035c4 <_ZSt4endlIcSt11char_traitsIcEERSt13basic_ostreamIT_T0_ES6_.isra.0>
  402884:	f9407fe0 	ldr	x0, [sp, #248]
  402888:	90000081 	adrp	x1, 412000 <_Z19MD5Hash_simdversionPKNSt7__cxx1112basic_stringIcSt11char_traitsIcESaIcEEEP12__Uint32x4_t+0x1000>
  40288c:	912fc021 	add	x1, x1, #0xbf0
  402890:	97fffdb8 	bl	401f70 <_ZStlsISt11char_traitsIcEERSt13basic_ostreamIcT_ES5_PKc@plt>
  402894:	9400034c 	bl	4035c4 <_ZSt4endlIcSt11char_traitsIcEERSt13basic_ostreamIT_T0_ES6_.isra.0>
  402898:	a95207e0 	ldp	x0, x1, [sp, #288]
  40289c:	eb01001f 	cmp	x0, x1
  4028a0:	54002440 	b.eq	402d28 <main+0xb68>  // b.none
  4028a4:	9105c3e2 	add	x2, sp, #0x170
  4028a8:	b0000001 	adrp	x1, 403000 <main+0xe40>
  4028ac:	91194021 	add	x1, x1, #0x650
  4028b0:	f90053e2 	str	x2, [sp, #160]
  4028b4:	a91007ff 	stp	xzr, x1, [sp, #256]
  4028b8:	f9008bff 	str	xzr, [sp, #272]
  4028bc:	f94053e1 	ldr	x1, [sp, #160]
  4028c0:	f94083f4 	ldr	x20, [sp, #256]
  4028c4:	8b140000 	add	x0, x0, x20
  4028c8:	940039ce 	bl	411000 <_Z19MD5Hash_simdversionPKNSt7__cxx1112basic_stringIcSt11char_traitsIcESaIcEEEP12__Uint32x4_t>
  4028cc:	b0000160 	adrp	x0, 42f000 <__FRAME_END__+0x1a5d8>
  4028d0:	912c4013 	add	x19, x0, #0xb10
  4028d4:	910703e0 	add	x0, sp, #0x1c0
  4028d8:	f9007be0 	str	x0, [sp, #240]
  4028dc:	9106c3e0 	add	x0, sp, #0x1b0
  4028e0:	f9005be0 	str	x0, [sp, #176]
  4028e4:	91010000 	add	x0, x0, #0x40
  4028e8:	b0000161 	adrp	x1, 42f000 <__FRAME_END__+0x1a5d8>
  4028ec:	912c0021 	add	x1, x1, #0xb00
  4028f0:	f90057f4 	str	x20, [sp, #168]
  4028f4:	f9005fe1 	str	x1, [sp, #184]
  4028f8:	f90077e0 	str	x0, [sp, #232]
  4028fc:	910583e0 	add	x0, sp, #0x160
  402900:	f90063e0 	str	x0, [sp, #192]
  402904:	f94053e1 	ldr	x1, [sp, #160]
  402908:	9106c3e0 	add	x0, sp, #0x1b0
  40290c:	f94077e2 	ldr	x2, [sp, #232]
  402910:	3cc10420 	ldr	q0, [x1], #16
  402914:	3c810400 	str	q0, [x0], #16
  402918:	eb00005f 	cmp	x2, x0
  40291c:	54ffffa1 	b.ne	402910 <main+0x750>  // b.any
  402920:	91020380 	add	x0, x28, #0x80
  402924:	97fffd4f 	bl	401e60 <_ZNSt8ios_baseC2Ev@plt>
  402928:	a9410a78 	ldp	x24, x2, [x19, #16]
  40292c:	7906b3ff 	strh	wzr, [sp, #856]
  402930:	f9405fe0 	ldr	x0, [sp, #184]
  402934:	910d83ef 	add	x15, sp, #0x360
  402938:	f9013fe0 	str	x0, [sp, #632]
  40293c:	d2800001 	mov	x1, #0x0                   	// #0
  402940:	f900fff8 	str	x24, [sp, #504]
  402944:	f85e8300 	ldur	x0, [x24, #-24]
  402948:	f901abff 	str	xzr, [sp, #848]
  40294c:	a9007dff 	stp	xzr, xzr, [x15]
  402950:	a9017dff 	stp	xzr, xzr, [x15, #16]
  402954:	f8206b82 	str	x2, [x28, x0]
  402958:	f90103ff 	str	xzr, [sp, #512]
  40295c:	f90067e2 	str	x2, [sp, #200]
  402960:	f85e8300 	ldur	x0, [x24, #-24]
  402964:	8b000380 	add	x0, x28, x0
  402968:	97fffdba 	bl	402050 <_ZNSt9basic_iosIcSt11char_traitsIcEE4initEPSt15basic_streambufIcS1_E@plt>
  40296c:	a942127a 	ldp	x26, x4, [x19, #32]
  402970:	91004382 	add	x2, x28, #0x10
  402974:	d2800001 	mov	x1, #0x0                   	// #0
  402978:	f90073e4 	str	x4, [sp, #224]
  40297c:	f85e8343 	ldur	x3, [x26, #-24]
  402980:	f90107fa 	str	x26, [sp, #520]
  402984:	8b030040 	add	x0, x2, x3
  402988:	f8236844 	str	x4, [x2, x3]
  40298c:	97fffdb1 	bl	402050 <_ZNSt9basic_iosIcSt11char_traitsIcEE4initEPSt15basic_streambufIcS1_E@plt>
  402990:	f9400661 	ldr	x1, [x19, #8]
  402994:	910823ed 	add	x13, sp, #0x208
  402998:	b0000160 	adrp	x0, 42f000 <__FRAME_END__+0x1a5d8>
  40299c:	9108a3ee 	add	x14, sp, #0x228
  4029a0:	f9401a63 	ldr	x3, [x19, #48]
  4029a4:	91312004 	add	x4, x0, #0xc48
  4029a8:	f85e8022 	ldur	x2, [x1, #-24]
  4029ac:	b0000160 	adrp	x0, 42f000 <__FRAME_END__+0x1a5d8>
  4029b0:	9131c005 	add	x5, x0, #0xc70
  4029b4:	b0000160 	adrp	x0, 42f000 <__FRAME_END__+0x1a5d8>
  4029b8:	a90d0fe1 	stp	x1, x3, [sp, #208]
  4029bc:	b0000161 	adrp	x1, 42f000 <__FRAME_END__+0x1a5d8>
  4029c0:	91326021 	add	x1, x1, #0xc98
  4029c4:	f8226b83 	str	x3, [x28, x2]
  4029c8:	912dc002 	add	x2, x0, #0xb70
  4029cc:	f900ffe4 	str	x4, [sp, #504]
  4029d0:	91014380 	add	x0, x28, #0x50
  4029d4:	a90009a5 	stp	x5, x2, [x13]
  4029d8:	a9017dbf 	stp	xzr, xzr, [x13, #16]
  4029dc:	a9007ddf 	stp	xzr, xzr, [x14]
  4029e0:	a9017ddf 	stp	xzr, xzr, [x14, #16]
  4029e4:	a90793e2 	stp	x2, x4, [sp, #120]
  4029e8:	f90047e5 	str	x5, [sp, #136]
  4029ec:	f9004be1 	str	x1, [sp, #144]
  4029f0:	f9013fe1 	str	x1, [sp, #632]
  4029f4:	97fffddf 	bl	402170 <_ZNSt6localeC1Ev@plt>
  4029f8:	9101c382 	add	x2, x28, #0x70
  4029fc:	52800303 	mov	w3, #0x18                  	// #24
  402a00:	b0000160 	adrp	x0, 42f000 <__FRAME_END__+0x1a5d8>
  402a04:	91356000 	add	x0, x0, #0xd58
  402a08:	91006381 	add	x1, x28, #0x18
  402a0c:	f9004fe0 	str	x0, [sp, #152]
  402a10:	f9010be0 	str	x0, [sp, #528]
  402a14:	91020380 	add	x0, x28, #0x80
  402a18:	b90253e3 	str	w3, [sp, #592]
  402a1c:	f9012fe2 	str	x2, [sp, #600]
  402a20:	f90133ff 	str	xzr, [sp, #608]
  402a24:	3909a3ff 	strb	wzr, [sp, #616]
  402a28:	97fffd8a 	bl	402050 <_ZNSt9basic_iosIcSt11char_traitsIcEE4initEPSt15basic_streambufIcS1_E@plt>
  402a2c:	f9405bf6 	ldr	x22, [sp, #176]
  402a30:	910823fb 	add	x27, sp, #0x208
  402a34:	91004397 	add	x23, x28, #0x10
  402a38:	52800095 	mov	w21, #0x4                   	// #4
  402a3c:	f94107e0 	ldr	x0, [sp, #520]
  402a40:	d2800102 	mov	x2, #0x8                   	// #8
  402a44:	f85e8001 	ldur	x1, [x0, #-24]
  402a48:	8b010361 	add	x1, x27, x1
  402a4c:	f9000822 	str	x2, [x1, #16]
  402a50:	f85e8014 	ldur	x20, [x0, #-24]
  402a54:	8b1402f4 	add	x20, x23, x20
  402a58:	39438681 	ldrb	w1, [x20, #225]
  402a5c:	34000f61 	cbz	w1, 402c48 <main+0xa88>
  402a60:	52800601 	mov	w1, #0x30                  	// #48
  402a64:	39038281 	strb	w1, [x20, #224]
  402a68:	12800944 	mov	w4, #0xffffffb5            	// #-75
  402a6c:	b94002c1 	ldr	w1, [x22]
  402a70:	f85e8003 	ldur	x3, [x0, #-24]
  402a74:	aa1703e0 	mov	x0, x23
  402a78:	8b0302e3 	add	x3, x23, x3
  402a7c:	b9401862 	ldr	w2, [x3, #24]
  402a80:	0a040042 	and	w2, w2, w4
  402a84:	321d0042 	orr	w2, w2, #0x8
  402a88:	b9001862 	str	w2, [x3, #24]
  402a8c:	97fffd1d 	bl	401f00 <_ZNSo9_M_insertImEERSoT_@plt>
  402a90:	910042d6 	add	x22, x22, #0x10
  402a94:	710006b5 	subs	w21, w21, #0x1
  402a98:	54fffd21 	b.ne	402a3c <main+0x87c>  // b.any
  402a9c:	f9411fe0 	ldr	x0, [sp, #568]
  402aa0:	390583ff 	strb	wzr, [sp, #352]
  402aa4:	f94063e1 	ldr	x1, [sp, #192]
  402aa8:	a9157fe1 	stp	x1, xzr, [sp, #336]
  402aac:	b4002cc0 	cbz	x0, 403044 <main+0xe84>
  402ab0:	f94117e4 	ldr	x4, [sp, #552]
  402ab4:	f9411be3 	ldr	x3, [sp, #560]
  402ab8:	eb04001f 	cmp	x0, x4
  402abc:	54000ec9 	b.ls	402c94 <main+0xad4>  // b.plast
  402ac0:	cb030004 	sub	x4, x0, x3
  402ac4:	d2800002 	mov	x2, #0x0                   	// #0
  402ac8:	910543e0 	add	x0, sp, #0x150
  402acc:	d2800001 	mov	x1, #0x0                   	// #0
  402ad0:	97fffd74 	bl	4020a0 <_ZNSt7__cxx1112basic_stringIcSt11char_traitsIcESaIcEE10_M_replaceEmmPKcm@plt>
  402ad4:	f94043e1 	ldr	x1, [sp, #128]
  402ad8:	f900ffe1 	str	x1, [sp, #504]
  402adc:	f9404fe2 	ldr	x2, [sp, #152]
  402ae0:	f9010be2 	str	x2, [sp, #528]
  402ae4:	a9488be1 	ldp	x1, x2, [sp, #136]
  402ae8:	f90107e1 	str	x1, [sp, #520]
  402aec:	f9412fe0 	ldr	x0, [sp, #600]
  402af0:	9101c381 	add	x1, x28, #0x70
  402af4:	f9013fe2 	str	x2, [sp, #632]
  402af8:	eb01001f 	cmp	x0, x1
  402afc:	54000080 	b.eq	402b0c <main+0x94c>  // b.none
  402b00:	f94137e1 	ldr	x1, [sp, #616]
  402b04:	91000421 	add	x1, x1, #0x1
  402b08:	97fffd22 	bl	401f90 <_ZdlPvm@plt>
  402b0c:	f9403fe1 	ldr	x1, [sp, #120]
  402b10:	91014380 	add	x0, x28, #0x50
  402b14:	f9010be1 	str	x1, [sp, #528]
  402b18:	97fffd52 	bl	402060 <_ZNSt6localeD1Ev@plt>
  402b1c:	a94d0fe0 	ldp	x0, x3, [sp, #208]
  402b20:	f85e8342 	ldur	x2, [x26, #-24]
  402b24:	f85e8001 	ldur	x1, [x0, #-24]
  402b28:	91020380 	add	x0, x28, #0x80
  402b2c:	f8216b83 	str	x3, [x28, x1]
  402b30:	f85e8301 	ldur	x1, [x24, #-24]
  402b34:	f90107fa 	str	x26, [sp, #520]
  402b38:	f94073e3 	ldr	x3, [sp, #224]
  402b3c:	f8226b63 	str	x3, [x27, x2]
  402b40:	f900fff8 	str	x24, [sp, #504]
  402b44:	f94067e2 	ldr	x2, [sp, #200]
  402b48:	f8216b82 	str	x2, [x28, x1]
  402b4c:	f9405fe1 	ldr	x1, [sp, #184]
  402b50:	f90103ff 	str	xzr, [sp, #512]
  402b54:	f9013fe1 	str	x1, [sp, #632]
  402b58:	97fffcce 	bl	401e90 <_ZNSt8ios_baseD2Ev@plt>
  402b5c:	f94057e1 	ldr	x1, [sp, #168]
  402b60:	f9409fe0 	ldr	x0, [sp, #312]
  402b64:	f940afe2 	ldr	x2, [sp, #344]
  402b68:	8b010000 	add	x0, x0, x1
  402b6c:	f9400401 	ldr	x1, [x0, #8]
  402b70:	eb01005f 	cmp	x2, x1
  402b74:	540009c0 	b.eq	402cac <main+0xaec>  // b.none
  402b78:	f9407ff4 	ldr	x20, [sp, #248]
  402b7c:	90000081 	adrp	x1, 412000 <_Z19MD5Hash_simdversionPKNSt7__cxx1112basic_stringIcSt11char_traitsIcESaIcEEEP12__Uint32x4_t+0x1000>
  402b80:	91312021 	add	x1, x1, #0xc48
  402b84:	aa1403e0 	mov	x0, x20
  402b88:	97fffcfa 	bl	401f70 <_ZStlsISt11char_traitsIcEERSt13basic_ostreamIcT_ES5_PKc@plt>
  402b8c:	f94057f3 	ldr	x19, [sp, #168]
  402b90:	f94093e1 	ldr	x1, [sp, #288]
  402b94:	8b130022 	add	x2, x1, x19
  402b98:	f8736821 	ldr	x1, [x1, x19]
  402b9c:	f9400442 	ldr	x2, [x2, #8]
  402ba0:	97fffd08 	bl	401fc0 <_ZSt16__ostream_insertIcSt11char_traitsIcEERSt13basic_ostreamIT_T0_ES6_PKS3_l@plt>
  402ba4:	90000081 	adrp	x1, 412000 <_Z19MD5Hash_simdversionPKNSt7__cxx1112basic_stringIcSt11char_traitsIcESaIcEEEP12__Uint32x4_t+0x1000>
  402ba8:	912f2021 	add	x1, x1, #0xbc8
  402bac:	97fffcf1 	bl	401f70 <_ZStlsISt11char_traitsIcEERSt13basic_ostreamIcT_ES5_PKc@plt>
  402bb0:	94000285 	bl	4035c4 <_ZSt4endlIcSt11char_traitsIcEERSt13basic_ostreamIT_T0_ES6_.isra.0>
  402bb4:	90000081 	adrp	x1, 412000 <_Z19MD5Hash_simdversionPKNSt7__cxx1112basic_stringIcSt11char_traitsIcESaIcEEEP12__Uint32x4_t+0x1000>
  402bb8:	aa1403e0 	mov	x0, x20
  402bbc:	912f4021 	add	x1, x1, #0xbd0
  402bc0:	97fffcec 	bl	401f70 <_ZStlsISt11char_traitsIcEERSt13basic_ostreamIcT_ES5_PKc@plt>
  402bc4:	f9409fe1 	ldr	x1, [sp, #312]
  402bc8:	8b130022 	add	x2, x1, x19
  402bcc:	f8736821 	ldr	x1, [x1, x19]
  402bd0:	f9400442 	ldr	x2, [x2, #8]
  402bd4:	97fffcfb 	bl	401fc0 <_ZSt16__ostream_insertIcSt11char_traitsIcEERSt13basic_ostreamIT_T0_ES6_PKS3_l@plt>
  402bd8:	90000081 	adrp	x1, 412000 <_Z19MD5Hash_simdversionPKNSt7__cxx1112basic_stringIcSt11char_traitsIcESaIcEEEP12__Uint32x4_t+0x1000>
  402bdc:	912f8021 	add	x1, x1, #0xbe0
  402be0:	97fffce4 	bl	401f70 <_ZStlsISt11char_traitsIcEERSt13basic_ostreamIcT_ES5_PKc@plt>
  402be4:	a9550be1 	ldp	x1, x2, [sp, #336]
  402be8:	97fffcf6 	bl	401fc0 <_ZSt16__ostream_insertIcSt11char_traitsIcEERSt13basic_ostreamIT_T0_ES6_PKS3_l@plt>
  402bec:	94000276 	bl	4035c4 <_ZSt4endlIcSt11char_traitsIcEERSt13basic_ostreamIT_T0_ES6_.isra.0>
  402bf0:	910543e0 	add	x0, sp, #0x150
  402bf4:	17fffee1 	b	402778 <main+0x5b8>
  402bf8:	aa1603e0 	mov	x0, x22
  402bfc:	b4ffb273 	cbz	x19, 402248 <main+0x88>
  402c00:	14000008 	b	402c20 <main+0xa60>
  402c04:	9106c3e1 	add	x1, sp, #0x1b0
  402c08:	aa1c03e0 	mov	x0, x28
  402c0c:	d2800002 	mov	x2, #0x0                   	// #0
  402c10:	97fffd48 	bl	402130 <_ZNSt7__cxx1112basic_stringIcSt11char_traitsIcESaIcEE9_M_createERmm@plt>
  402c14:	f940dbe1 	ldr	x1, [sp, #432]
  402c18:	f900ffe0 	str	x0, [sp, #504]
  402c1c:	f90107e1 	str	x1, [sp, #520]
  402c20:	aa1303e2 	mov	x2, x19
  402c24:	aa1503e1 	mov	x1, x21
  402c28:	97fffc76 	bl	401e00 <memcpy@plt>
  402c2c:	f940dbf3 	ldr	x19, [sp, #432]
  402c30:	f940ffe0 	ldr	x0, [sp, #504]
  402c34:	17fffd85 	b	402248 <main+0x88>
  402c38:	91018381 	add	x1, x28, #0x60
  402c3c:	9106c3e0 	add	x0, sp, #0x1b0
  402c40:	97fffca8 	bl	401ee0 <_ZNSt7__cxx1112basic_stringIcSt11char_traitsIcESaIcEE9_M_assignERKS4_@plt>
  402c44:	17fffe84 	b	402654 <main+0x494>
  402c48:	f9407a99 	ldr	x25, [x20, #240]
  402c4c:	b4002a19 	cbz	x25, 40318c <main+0xfcc>
  402c50:	3940e321 	ldrb	w1, [x25, #56]
  402c54:	35000121 	cbnz	w1, 402c78 <main+0xab8>
  402c58:	aa1903e0 	mov	x0, x25
  402c5c:	97fffcdd 	bl	401fd0 <_ZNKSt5ctypeIcE13_M_widen_initEv@plt>
  402c60:	f9400320 	ldr	x0, [x25]
  402c64:	f9401802 	ldr	x2, [x0, #48]
  402c68:	f94087e0 	ldr	x0, [sp, #264]
  402c6c:	eb00005f 	cmp	x2, x0
  402c70:	540000a1 	b.ne	402c84 <main+0xac4>  // b.any
  402c74:	f94107e0 	ldr	x0, [sp, #520]
  402c78:	52800021 	mov	w1, #0x1                   	// #1
  402c7c:	39038681 	strb	w1, [x20, #225]
  402c80:	17ffff78 	b	402a60 <main+0x8a0>
  402c84:	aa1903e0 	mov	x0, x25
  402c88:	52800401 	mov	w1, #0x20                  	// #32
  402c8c:	d63f0040 	blr	x2
  402c90:	17fffff9 	b	402c74 <main+0xab4>
  402c94:	cb030084 	sub	x4, x4, x3
  402c98:	910543e0 	add	x0, sp, #0x150
  402c9c:	d2800002 	mov	x2, #0x0                   	// #0
  402ca0:	d2800001 	mov	x1, #0x0                   	// #0
  402ca4:	97fffcff 	bl	4020a0 <_ZNSt7__cxx1112basic_stringIcSt11char_traitsIcESaIcEE10_M_replaceEmmPKcm@plt>
  402ca8:	17ffff8b 	b	402ad4 <main+0x914>
  402cac:	f940abf4 	ldr	x20, [sp, #336]
  402cb0:	b40000a2 	cbz	x2, 402cc4 <main+0xb04>
  402cb4:	f9400001 	ldr	x1, [x0]
  402cb8:	aa1403e0 	mov	x0, x20
  402cbc:	97fffc81 	bl	401ec0 <memcmp@plt>
  402cc0:	35fff5c0 	cbnz	w0, 402b78 <main+0x9b8>
  402cc4:	f94063e0 	ldr	x0, [sp, #192]
  402cc8:	eb00029f 	cmp	x20, x0
  402ccc:	540000a0 	b.eq	402ce0 <main+0xb20>  // b.none
  402cd0:	f940b3e1 	ldr	x1, [sp, #352]
  402cd4:	aa1403e0 	mov	x0, x20
  402cd8:	91000421 	add	x1, x1, #0x1
  402cdc:	97fffcad 	bl	401f90 <_ZdlPvm@plt>
  402ce0:	a94a83e1 	ldp	x1, x0, [sp, #168]
  402ce4:	91008021 	add	x1, x1, #0x20
  402ce8:	91001000 	add	x0, x0, #0x4
  402cec:	a90a83e1 	stp	x1, x0, [sp, #168]
  402cf0:	f9407be1 	ldr	x1, [sp, #240]
  402cf4:	eb01001f 	cmp	x0, x1
  402cf8:	54ffe061 	b.ne	402904 <main+0x744>  // b.any
  402cfc:	f9408be1 	ldr	x1, [sp, #272]
  402d00:	f94093e0 	ldr	x0, [sp, #288]
  402d04:	91001022 	add	x2, x1, #0x4
  402d08:	f94097e1 	ldr	x1, [sp, #296]
  402d0c:	f9008be2 	str	x2, [sp, #272]
  402d10:	f94083e3 	ldr	x3, [sp, #256]
  402d14:	cb000021 	sub	x1, x1, x0
  402d18:	91020063 	add	x3, x3, #0x80
  402d1c:	f90083e3 	str	x3, [sp, #256]
  402d20:	eb81145f 	cmp	x2, x1, asr #5
  402d24:	54ffdcc3 	b.cc	4028bc <main+0x6fc>  // b.lo, b.ul, b.last
  402d28:	f9407fe0 	ldr	x0, [sp, #248]
  402d2c:	90000081 	adrp	x1, 412000 <_Z19MD5Hash_simdversionPKNSt7__cxx1112basic_stringIcSt11char_traitsIcESaIcEEEP12__Uint32x4_t+0x1000>
  402d30:	91308021 	add	x1, x1, #0xc20
  402d34:	97fffc8f 	bl	401f70 <_ZStlsISt11char_traitsIcEERSt13basic_ostreamIcT_ES5_PKc@plt>
  402d38:	94000223 	bl	4035c4 <_ZSt4endlIcSt11char_traitsIcEERSt13basic_ostreamIT_T0_ES6_.isra.0>
  402d3c:	9104e3e0 	add	x0, sp, #0x138
  402d40:	94000248 	bl	403660 <_ZNSt6vectorINSt7__cxx1112basic_stringIcSt11char_traitsIcESaIcEEESaIS5_EED1Ev>
  402d44:	910483e0 	add	x0, sp, #0x120
  402d48:	94000246 	bl	403660 <_ZNSt6vectorINSt7__cxx1112basic_stringIcSt11char_traitsIcESaIcEEESaIS5_EED1Ev>
  402d4c:	92800001 	mov	x1, #0xffffffffffffffff    	// #-1
  402d50:	f9010be1 	str	x1, [sp, #528]
  402d54:	f9010fe1 	str	x1, [sp, #536]
  402d58:	9108a3e1 	add	x1, sp, #0x228
  402d5c:	910923e6 	add	x6, sp, #0x248
  402d60:	9109a3e7 	add	x7, sp, #0x268
  402d64:	a91fffff 	stp	xzr, xzr, [sp, #504]
  402d68:	910a23e8 	add	x8, sp, #0x288
  402d6c:	1e2e1000 	fmov	s0, #1.000000000000000000e+00
  402d70:	f90107ff 	str	xzr, [sp, #520]
  402d74:	d2800020 	mov	x0, #0x1                   	// #1
  402d78:	b90223ff 	str	wzr, [sp, #544]
  402d7c:	910ac3e9 	add	x9, sp, #0x2b0
  402d80:	a9007c3f 	stp	xzr, xzr, [x1]
  402d84:	91030385 	add	x5, x28, #0xc0
  402d88:	910ba3ea 	add	x10, sp, #0x2e8
  402d8c:	a9017c3f 	stp	xzr, xzr, [x1, #16]
  402d90:	9103e384 	add	x4, x28, #0xf8
  402d94:	910c83eb 	add	x11, sp, #0x320
  402d98:	a9007cdf 	stp	xzr, xzr, [x6]
  402d9c:	9104c383 	add	x3, x28, #0x130
  402da0:	910d63ec 	add	x12, sp, #0x358
  402da4:	a9017cdf 	stp	xzr, xzr, [x6, #16]
  402da8:	9105a382 	add	x2, x28, #0x168
  402dac:	a9007cff 	stp	xzr, xzr, [x7]
  402db0:	a9017cff 	stp	xzr, xzr, [x7, #16]
  402db4:	a9000105 	stp	x5, x0, [x8]
  402db8:	a9017d1f 	stp	xzr, xzr, [x8, #16]
  402dbc:	bd02abe0 	str	s0, [sp, #680]
  402dc0:	a9007d3f 	stp	xzr, xzr, [x9]
  402dc4:	a9010124 	stp	x4, x0, [x9, #16]
  402dc8:	f9016bff 	str	xzr, [sp, #720]
  402dcc:	f9016fff 	str	xzr, [sp, #728]
  402dd0:	bd02e3e0 	str	s0, [sp, #736]
  402dd4:	a9007d5f 	stp	xzr, xzr, [x10]
  402dd8:	a9010143 	stp	x3, x0, [x10, #16]
  402ddc:	f90187ff 	str	xzr, [sp, #776]
  402de0:	f9018bff 	str	xzr, [sp, #784]
  402de4:	bd031be0 	str	s0, [sp, #792]
  402de8:	a9007d7f 	stp	xzr, xzr, [x11]
  402dec:	a9010162 	stp	x2, x0, [x11, #16]
  402df0:	f901a3ff 	str	xzr, [sp, #832]
  402df4:	f901a7ff 	str	xzr, [sp, #840]
  402df8:	bd0353e0 	str	s0, [sp, #848]
  402dfc:	a9007d9f 	stp	xzr, xzr, [x12]
  402e00:	a9017d9f 	stp	xzr, xzr, [x12, #16]
  402e04:	f901bfff 	str	xzr, [sp, #888]
  402e08:	b90383ff 	str	wzr, [sp, #896]
  402e0c:	f901c7ff 	str	xzr, [sp, #904]
  402e10:	f901cbff 	str	xzr, [sp, #912]
  402e14:	f901cfff 	str	xzr, [sp, #920]
  402e18:	97fffbf6 	bl	401df0 <_ZNSt6chrono3_V212system_clock3nowEv@plt>
  402e1c:	90000081 	adrp	x1, 412000 <_Z19MD5Hash_simdversionPKNSt7__cxx1112basic_stringIcSt11char_traitsIcESaIcEEEP12__Uint32x4_t+0x1000>
  402e20:	aa0003f9 	mov	x25, x0
  402e24:	9131a021 	add	x1, x1, #0xc68
  402e28:	9106c3e0 	add	x0, sp, #0x1b0
  402e2c:	940001b9 	bl	403510 <_ZNSt7__cxx1112basic_stringIcSt11char_traitsIcESaIcEEC2EPKcRKS3_.constprop.0>
  402e30:	9106c3e1 	add	x1, sp, #0x1b0
  402e34:	91006380 	add	x0, x28, #0x18
  402e38:	94001976 	bl	409410 <_ZN5model5trainENSt7__cxx1112basic_stringIcSt11char_traitsIcESaIcEEE>
  402e3c:	9106c3e0 	add	x0, sp, #0x1b0
  402e40:	97fffc68 	bl	401fe0 <_ZNSt7__cxx1112basic_stringIcSt11char_traitsIcESaIcEE10_M_disposeEv@plt>
  402e44:	91006380 	add	x0, x28, #0x18
  402e48:	94001a8e 	bl	409880 <_ZN5model5orderEv>
  402e4c:	97fffbe9 	bl	401df0 <_ZNSt6chrono3_V212system_clock3nowEv@plt>
  402e50:	aa0003f8 	mov	x24, x0
  402e54:	aa1c03e0 	mov	x0, x28
  402e58:	94003116 	bl	40f2b0 <_ZN13PriorityQueue4initEv>
  402e5c:	f9407fe0 	ldr	x0, [sp, #248]
  402e60:	90000081 	adrp	x1, 412000 <_Z19MD5Hash_simdversionPKNSt7__cxx1112basic_stringIcSt11char_traitsIcESaIcEEEP12__Uint32x4_t+0x1000>
  402e64:	91324021 	add	x1, x1, #0xc90
  402e68:	97fffc42 	bl	401f70 <_ZStlsISt11char_traitsIcEERSt13basic_ostreamIcT_ES5_PKc@plt>
  402e6c:	940001d6 	bl	4035c4 <_ZSt4endlIcSt11char_traitsIcEERSt13basic_ostreamIT_T0_ES6_.isra.0>
  402e70:	97fffbe0 	bl	401df0 <_ZNSt6chrono3_V212system_clock3nowEv@plt>
  402e74:	90000097 	adrp	x23, 412000 <_Z19MD5Hash_simdversionPKNSt7__cxx1112basic_stringIcSt11char_traitsIcESaIcEEEP12__Uint32x4_t+0x1000>
  402e78:	2f00e408 	movi	d8, #0x0
  402e7c:	5290d3f4 	mov	w20, #0x869f                	// #34463
  402e80:	aa0003fa 	mov	x26, x0
  402e84:	913262f7 	add	x23, x23, #0xc98
  402e88:	52800015 	mov	w21, #0x0                   	// #0
  402e8c:	72a00034 	movk	w20, #0x1, lsl #16
  402e90:	5292d01b 	mov	w27, #0x9680                	// #38528
  402e94:	52800013 	mov	w19, #0x0                   	// #0
  402e98:	72a0131b 	movk	w27, #0x98, lsl #16
  402e9c:	d503201f 	nop
  402ea0:	a95f83e1 	ldp	x1, x0, [sp, #504]
  402ea4:	eb00003f 	cmp	x1, x0
  402ea8:	54001500 	b.eq	403148 <main+0xf88>  // b.none
  402eac:	aa1c03e0 	mov	x0, x28
  402eb0:	94002ef0 	bl	40ea70 <_ZN13PriorityQueue7PopNextEv>
  402eb4:	f941c7e1 	ldr	x1, [sp, #904]
  402eb8:	f941cbe0 	ldr	x0, [sp, #912]
  402ebc:	cb010000 	sub	x0, x0, x1
  402ec0:	9345fc00 	asr	x0, x0, #5
  402ec4:	b90383e0 	str	w0, [sp, #896]
  402ec8:	4b130000 	sub	w0, w0, w19
  402ecc:	6b14001f 	cmp	w0, w20
  402ed0:	54fffe8d 	b.le	402ea0 <main+0xce0>
  402ed4:	f9407ff3 	ldr	x19, [sp, #248]
  402ed8:	aa1703e1 	mov	x1, x23
  402edc:	d2800262 	mov	x2, #0x13                  	// #19
  402ee0:	aa1303e0 	mov	x0, x19
  402ee4:	97fffc37 	bl	401fc0 <_ZSt16__ostream_insertIcSt11char_traitsIcEERSt13basic_ostreamIT_T0_ES6_PKS3_l@plt>
  402ee8:	b94383e1 	ldr	w1, [sp, #896]
  402eec:	aa1303e0 	mov	x0, x19
  402ef0:	0b0102a1 	add	w1, w21, w1
  402ef4:	97fffc87 	bl	402110 <_ZNSolsEi@plt>
  402ef8:	aa0003f3 	mov	x19, x0
  402efc:	f9400000 	ldr	x0, [x0]
  402f00:	f85e8000 	ldur	x0, [x0, #-24]
  402f04:	8b000260 	add	x0, x19, x0
  402f08:	f9407816 	ldr	x22, [x0, #240]
  402f0c:	b4001456 	cbz	x22, 403194 <main+0xfd4>
  402f10:	3940e2c0 	ldrb	w0, [x22, #56]
  402f14:	34000a40 	cbz	w0, 40305c <main+0xe9c>
  402f18:	39410ec1 	ldrb	w1, [x22, #67]
  402f1c:	aa1303e0 	mov	x0, x19
  402f20:	97fffbb0 	bl	401de0 <_ZNSo3putEc@plt>
  402f24:	97fffbfb 	bl	401f10 <_ZNSo5flushEv@plt>
  402f28:	b94383f3 	ldr	w19, [sp, #896]
  402f2c:	0b1302b6 	add	w22, w21, w19
  402f30:	6b1b02df 	cmp	w22, w27
  402f34:	54000aec 	b.gt	403090 <main+0xed0>
  402f38:	52884800 	mov	w0, #0x4240                	// #16960
  402f3c:	72a001e0 	movk	w0, #0xf, lsl #16
  402f40:	6b00027f 	cmp	w19, w0
  402f44:	54fffaed 	b.le	402ea0 <main+0xce0>
  402f48:	97fffbaa 	bl	401df0 <_ZNSt6chrono3_V212system_clock3nowEv@plt>
  402f4c:	aa0003f5 	mov	x21, x0
  402f50:	b9411fe0 	ldr	w0, [sp, #284]
  402f54:	34001020 	cbz	w0, 403158 <main+0xf98>
  402f58:	f941c7e0 	ldr	x0, [sp, #904]
  402f5c:	d2800013 	mov	x19, #0x0                   	// #0
  402f60:	f941cbe1 	ldr	x1, [sp, #912]
  402f64:	cb000022 	sub	x2, x1, x0
  402f68:	f101805f 	cmp	x2, #0x60
  402f6c:	54000169 	b.ls	402f98 <main+0xdd8>  // b.plast
  402f70:	8b131400 	add	x0, x0, x19, lsl #5
  402f74:	9106c3e1 	add	x1, sp, #0x1b0
  402f78:	94003822 	bl	411000 <_Z19MD5Hash_simdversionPKNSt7__cxx1112basic_stringIcSt11char_traitsIcESaIcEEEP12__Uint32x4_t>
  402f7c:	f941c7e0 	ldr	x0, [sp, #904]
  402f80:	91001e62 	add	x2, x19, #0x7
  402f84:	f941cbe1 	ldr	x1, [sp, #912]
  402f88:	91001273 	add	x19, x19, #0x4
  402f8c:	cb000023 	sub	x3, x1, x0
  402f90:	eb83145f 	cmp	x2, x3, asr #5
  402f94:	54fffee3 	b.cc	402f70 <main+0xdb0>  // b.lo, b.ul, b.last
  402f98:	cb000021 	sub	x1, x1, x0
  402f9c:	eb81167f 	cmp	x19, x1, asr #5
  402fa0:	540001a2 	b.cs	402fd4 <main+0xe14>  // b.hs, b.nlast
  402fa4:	9105c3e1 	add	x1, sp, #0x170
  402fa8:	f90053e1 	str	x1, [sp, #160]
  402fac:	d503201f 	nop
  402fb0:	f94053e1 	ldr	x1, [sp, #160]
  402fb4:	8b131400 	add	x0, x0, x19, lsl #5
  402fb8:	9400354b 	bl	4104e4 <_Z7MD5HashRKNSt7__cxx1112basic_stringIcSt11char_traitsIcESaIcEEEPj>
  402fbc:	f941c7e0 	ldr	x0, [sp, #904]
  402fc0:	91000673 	add	x19, x19, #0x1
  402fc4:	f941cbe1 	ldr	x1, [sp, #912]
  402fc8:	cb000021 	sub	x1, x1, x0
  402fcc:	eb81167f 	cmp	x19, x1, asr #5
  402fd0:	54ffff03 	b.cc	402fb0 <main+0xdf0>  // b.lo, b.ul, b.last
  402fd4:	97fffb87 	bl	401df0 <_ZNSt6chrono3_V212system_clock3nowEv@plt>
  402fd8:	cb150000 	sub	x0, x0, x21
  402fdc:	d2807d02 	mov	x2, #0x3e8                 	// #1000
  402fe0:	d2d09001 	mov	x1, #0x848000000000        	// #145685290680320
  402fe4:	f2e825c1 	movk	x1, #0x412e, lsl #48
  402fe8:	9e670021 	fmov	d1, x1
  402fec:	9ac20c00 	sdiv	x0, x0, x2
  402ff0:	f941c7f3 	ldr	x19, [sp, #904]
  402ff4:	f941cbfb 	ldr	x27, [sp, #912]
  402ff8:	9e620000 	scvtf	d0, x0
  402ffc:	1e611800 	fdiv	d0, d0, d1
  403000:	1e602908 	fadd	d8, d8, d0
  403004:	eb1b027f 	cmp	x19, x27
  403008:	540001a0 	b.eq	40303c <main+0xe7c>  // b.none
  40300c:	aa1303f5 	mov	x21, x19
  403010:	aa1503e1 	mov	x1, x21
  403014:	f8410420 	ldr	x0, [x1], #16
  403018:	eb01001f 	cmp	x0, x1
  40301c:	54000080 	b.eq	40302c <main+0xe6c>  // b.none
  403020:	f9400aa1 	ldr	x1, [x21, #16]
  403024:	91000421 	add	x1, x1, #0x1
  403028:	97fffbda 	bl	401f90 <_ZdlPvm@plt>
  40302c:	910082b5 	add	x21, x21, #0x20
  403030:	eb15037f 	cmp	x27, x21
  403034:	54fffee1 	b.ne	403010 <main+0xe50>  // b.any
  403038:	f901cbf3 	str	x19, [sp, #912]
  40303c:	2a1603f5 	mov	w21, w22
  403040:	17ffff94 	b	402e90 <main+0xcd0>
  403044:	91018381 	add	x1, x28, #0x60
  403048:	910543e0 	add	x0, sp, #0x150
  40304c:	97fffba5 	bl	401ee0 <_ZNSt7__cxx1112basic_stringIcSt11char_traitsIcESaIcEE9_M_assignERKS4_@plt>
  403050:	17fffea1 	b	402ad4 <main+0x914>
  403054:	b9011fff 	str	wzr, [sp, #284]
  403058:	17fffc8f 	b	402294 <main+0xd4>
  40305c:	aa1603e0 	mov	x0, x22
  403060:	97fffbdc 	bl	401fd0 <_ZNKSt5ctypeIcE13_M_widen_initEv@plt>
  403064:	f94002c2 	ldr	x2, [x22]
  403068:	90000000 	adrp	x0, 403000 <main+0xe40>
  40306c:	91194000 	add	x0, x0, #0x650
  403070:	52800141 	mov	w1, #0xa                   	// #10
  403074:	f9401842 	ldr	x2, [x2, #48]
  403078:	eb00005f 	cmp	x2, x0
  40307c:	54fff500 	b.eq	402f1c <main+0xd5c>  // b.none
  403080:	aa1603e0 	mov	x0, x22
  403084:	d63f0040 	blr	x2
  403088:	12001c01 	and	w1, w0, #0xff
  40308c:	17ffffa4 	b	402f1c <main+0xd5c>
  403090:	97fffb58 	bl	401df0 <_ZNSt6chrono3_V212system_clock3nowEv@plt>
  403094:	cb1a0002 	sub	x2, x0, x26
  403098:	d2807d03 	mov	x3, #0x3e8                 	// #1000
  40309c:	d2d09000 	mov	x0, #0x848000000000        	// #145685290680320
  4030a0:	f2e825c0 	movk	x0, #0x412e, lsl #48
  4030a4:	9e670000 	fmov	d0, x0
  4030a8:	9ac30c42 	sdiv	x2, x2, x3
  4030ac:	f0000061 	adrp	x1, 412000 <_Z19MD5Hash_simdversionPKNSt7__cxx1112basic_stringIcSt11char_traitsIcESaIcEEEP12__Uint32x4_t+0x1000>
  4030b0:	f9407ff4 	ldr	x20, [sp, #248]
  4030b4:	9132c021 	add	x1, x1, #0xcb0
  4030b8:	9e620049 	scvtf	d9, x2
  4030bc:	aa1403e0 	mov	x0, x20
  4030c0:	1e601929 	fdiv	d9, d9, d0
  4030c4:	97fffbab 	bl	401f70 <_ZStlsISt11char_traitsIcEERSt13basic_ostreamIcT_ES5_PKc@plt>
  4030c8:	1e683920 	fsub	d0, d9, d8
  4030cc:	97fffc01 	bl	4020d0 <_ZNSo9_M_insertIdEERSoT_@plt>
  4030d0:	f0000073 	adrp	x19, 412000 <_Z19MD5Hash_simdversionPKNSt7__cxx1112basic_stringIcSt11char_traitsIcESaIcEEEP12__Uint32x4_t+0x1000>
  4030d4:	91330273 	add	x19, x19, #0xcc0
  4030d8:	aa1303e1 	mov	x1, x19
  4030dc:	97fffba5 	bl	401f70 <_ZStlsISt11char_traitsIcEERSt13basic_ostreamIcT_ES5_PKc@plt>
  4030e0:	94000139 	bl	4035c4 <_ZSt4endlIcSt11char_traitsIcEERSt13basic_ostreamIT_T0_ES6_.isra.0>
  4030e4:	f0000061 	adrp	x1, 412000 <_Z19MD5Hash_simdversionPKNSt7__cxx1112basic_stringIcSt11char_traitsIcESaIcEEEP12__Uint32x4_t+0x1000>
  4030e8:	aa1403e0 	mov	x0, x20
  4030ec:	91332021 	add	x1, x1, #0xcc8
  4030f0:	97fffba0 	bl	401f70 <_ZStlsISt11char_traitsIcEERSt13basic_ostreamIcT_ES5_PKc@plt>
  4030f4:	1e604100 	fmov	d0, d8
  4030f8:	97fffbf6 	bl	4020d0 <_ZNSo9_M_insertIdEERSoT_@plt>
  4030fc:	aa1303e1 	mov	x1, x19
  403100:	97fffb9c 	bl	401f70 <_ZStlsISt11char_traitsIcEERSt13basic_ostreamIcT_ES5_PKc@plt>
  403104:	94000130 	bl	4035c4 <_ZSt4endlIcSt11char_traitsIcEERSt13basic_ostreamIT_T0_ES6_.isra.0>
  403108:	f0000061 	adrp	x1, 412000 <_Z19MD5Hash_simdversionPKNSt7__cxx1112basic_stringIcSt11char_traitsIcESaIcEEEP12__Uint32x4_t+0x1000>
  40310c:	aa1403e0 	mov	x0, x20
  403110:	91336021 	add	x1, x1, #0xcd8
  403114:	97fffb97 	bl	401f70 <_ZStlsISt11char_traitsIcEERSt13basic_ostreamIcT_ES5_PKc@plt>
  403118:	cb190301 	sub	x1, x24, x25
  40311c:	d2807d03 	mov	x3, #0x3e8                 	// #1000
  403120:	d2d09002 	mov	x2, #0x848000000000        	// #145685290680320
  403124:	f2e825c2 	movk	x2, #0x412e, lsl #48
  403128:	9e670041 	fmov	d1, x2
  40312c:	9ac30c21 	sdiv	x1, x1, x3
  403130:	9e620020 	scvtf	d0, x1
  403134:	1e611800 	fdiv	d0, d0, d1
  403138:	97fffbe6 	bl	4020d0 <_ZNSo9_M_insertIdEERSoT_@plt>
  40313c:	aa1303e1 	mov	x1, x19
  403140:	97fffb8c 	bl	401f70 <_ZStlsISt11char_traitsIcEERSt13basic_ostreamIcT_ES5_PKc@plt>
  403144:	94000120 	bl	4035c4 <_ZSt4endlIcSt11char_traitsIcEERSt13basic_ostreamIT_T0_ES6_.isra.0>
  403148:	aa1c03e0 	mov	x0, x28
  40314c:	94000265 	bl	403ae0 <_ZN13PriorityQueueD1Ev>
  403150:	52800000 	mov	w0, #0x0                   	// #0
  403154:	17fffd8f 	b	402790 <main+0x5d0>
  403158:	f941c7f3 	ldr	x19, [sp, #904]
  40315c:	f941cbfb 	ldr	x27, [sp, #912]
  403160:	eb1b027f 	cmp	x19, x27
  403164:	54fff380 	b.eq	402fd4 <main+0xe14>  // b.none
  403168:	9106c3e1 	add	x1, sp, #0x1b0
  40316c:	aa1303e0 	mov	x0, x19
  403170:	940034dd 	bl	4104e4 <_Z7MD5HashRKNSt7__cxx1112basic_stringIcSt11char_traitsIcESaIcEEEPj>
  403174:	91008273 	add	x19, x19, #0x20
  403178:	eb13037f 	cmp	x27, x19
  40317c:	54ffff61 	b.ne	403168 <main+0xfa8>  // b.any
  403180:	17ffff95 	b	402fd4 <main+0xe14>
  403184:	9107e3fc 	add	x28, sp, #0x1f8
  403188:	17fffc41 	b	40228c <main+0xcc>
  40318c:	97fffb9d 	bl	402000 <_ZSt16__throw_bad_castv@plt>
  403190:	97fffb9c 	bl	402000 <_ZSt16__throw_bad_castv@plt>
  403194:	97fffb9b 	bl	402000 <_ZSt16__throw_bad_castv@plt>
  403198:	f0000060 	adrp	x0, 412000 <_Z19MD5Hash_simdversionPKNSt7__cxx1112basic_stringIcSt11char_traitsIcESaIcEEEP12__Uint32x4_t+0x1000>
  40319c:	91266000 	add	x0, x0, #0x998
  4031a0:	97fffb60 	bl	401f20 <_ZSt19__throw_logic_errorPKc@plt>
  4031a4:	aa0003f3 	mov	x19, x0
  4031a8:	910543e0 	add	x0, sp, #0x150
  4031ac:	97fffb8d 	bl	401fe0 <_ZNSt7__cxx1112basic_stringIcSt11char_traitsIcESaIcEE10_M_disposeEv@plt>
  4031b0:	aa1c03e0 	mov	x0, x28
  4031b4:	97fffb67 	bl	401f50 <_ZNSt7__cxx1118basic_stringstreamIcSt11char_traitsIcESaIcEED1Ev@plt>
  4031b8:	9104e3e0 	add	x0, sp, #0x138
  4031bc:	94000129 	bl	403660 <_ZNSt6vectorINSt7__cxx1112basic_stringIcSt11char_traitsIcESaIcEEESaIS5_EED1Ev>
  4031c0:	910483e0 	add	x0, sp, #0x120
  4031c4:	94000127 	bl	403660 <_ZNSt6vectorINSt7__cxx1112basic_stringIcSt11char_traitsIcESaIcEEESaIS5_EED1Ev>
  4031c8:	aa1303e0 	mov	x0, x19
  4031cc:	97fffbd5 	bl	402120 <_Unwind_Resume@plt>
  4031d0:	aa0003f3 	mov	x19, x0
  4031d4:	910543e0 	add	x0, sp, #0x150
  4031d8:	97fffb82 	bl	401fe0 <_ZNSt7__cxx1112basic_stringIcSt11char_traitsIcESaIcEE10_M_disposeEv@plt>
  4031dc:	17fffff7 	b	4031b8 <main+0xff8>
  4031e0:	aa0003f3 	mov	x19, x0
  4031e4:	9106c3e0 	add	x0, sp, #0x1b0
  4031e8:	97fffb7e 	bl	401fe0 <_ZNSt7__cxx1112basic_stringIcSt11char_traitsIcESaIcEE10_M_disposeEv@plt>
  4031ec:	aa1c03e0 	mov	x0, x28
  4031f0:	9400023c 	bl	403ae0 <_ZN13PriorityQueueD1Ev>
  4031f4:	aa1303e0 	mov	x0, x19
  4031f8:	97fffbca 	bl	402120 <_Unwind_Resume@plt>
  4031fc:	aa0003f3 	mov	x19, x0
  403200:	17fffffb 	b	4031ec <main+0x102c>
  403204:	aa0003f3 	mov	x19, x0
  403208:	17ffffee 	b	4031c0 <main+0x1000>
  40320c:	aa0003f4 	mov	x20, x0
  403210:	d28000f3 	mov	x19, #0x7                   	// #7
  403214:	8b131780 	add	x0, x28, x19, lsl #5
  403218:	d1000673 	sub	x19, x19, #0x1
  40321c:	97fffb71 	bl	401fe0 <_ZNSt7__cxx1112basic_stringIcSt11char_traitsIcESaIcEE10_M_disposeEv@plt>
  403220:	b100067f 	cmn	x19, #0x1
  403224:	54ffff81 	b.ne	403214 <main+0x1054>  // b.any
  403228:	aa1403e0 	mov	x0, x20
  40322c:	97fffbbd 	bl	402120 <_Unwind_Resume@plt>
  403230:	aa0003f3 	mov	x19, x0
  403234:	17ffffe1 	b	4031b8 <main+0xff8>
  403238:	aa0003f3 	mov	x19, x0
  40323c:	91006380 	add	x0, x28, #0x18
  403240:	94000128 	bl	4036e0 <_ZNSt7__cxx1115basic_stringbufIcSt11char_traitsIcESaIcEED1Ev>
  403244:	90000161 	adrp	x1, 42f000 <__FRAME_END__+0x1a5d8>
  403248:	aa1c03e0 	mov	x0, x28
  40324c:	912c6021 	add	x1, x1, #0xb18
  403250:	97fffaf4 	bl	401e20 <_ZNSdD2Ev@plt>
  403254:	f9405fe1 	ldr	x1, [sp, #184]
  403258:	91020380 	add	x0, x28, #0x80
  40325c:	f9013fe1 	str	x1, [sp, #632]
  403260:	97fffb0c 	bl	401e90 <_ZNSt8ios_baseD2Ev@plt>
  403264:	17ffffd5 	b	4031b8 <main+0xff8>
  403268:	aa0003f3 	mov	x19, x0
  40326c:	17ffffd1 	b	4031b0 <main+0xff0>
  403270:	aa0003f3 	mov	x19, x0
  403274:	d28000f4 	mov	x20, #0x7                   	// #7
  403278:	8b141780 	add	x0, x28, x20, lsl #5
  40327c:	d1000694 	sub	x20, x20, #0x1
  403280:	97fffb58 	bl	401fe0 <_ZNSt7__cxx1112basic_stringIcSt11char_traitsIcESaIcEE10_M_disposeEv@plt>
  403284:	b100069f 	cmn	x20, #0x1
  403288:	54fff9c0 	b.eq	4031c0 <main+0x1000>  // b.none
  40328c:	17fffffb 	b	403278 <main+0x10b8>
  403290:	aa0003f3 	mov	x19, x0
  403294:	17ffffc7 	b	4031b0 <main+0xff0>
  403298:	17ffffe8 	b	403238 <main+0x1078>
  40329c:	f85e82c1 	ldur	x1, [x22, #-24]
  4032a0:	aa0003f3 	mov	x19, x0
  4032a4:	f900fff6 	str	x22, [sp, #504]
  4032a8:	f94063e0 	ldr	x0, [sp, #192]
  4032ac:	f8216b80 	str	x0, [x28, x1]
  4032b0:	f90103ff 	str	xzr, [sp, #512]
  4032b4:	17ffffe8 	b	403254 <main+0x1094>
  4032b8:	aa0003f3 	mov	x19, x0
  4032bc:	17ffffe6 	b	403254 <main+0x1094>
  4032c0:	aa0003f3 	mov	x19, x0
  4032c4:	17ffffe4 	b	403254 <main+0x1094>
  4032c8:	aa0003f3 	mov	x19, x0
  4032cc:	9106c3e0 	add	x0, sp, #0x1b0
  4032d0:	97fffb44 	bl	401fe0 <_ZNSt7__cxx1112basic_stringIcSt11char_traitsIcESaIcEE10_M_disposeEv@plt>
  4032d4:	17ffffb9 	b	4031b8 <main+0xff8>
  4032d8:	aa0003f3 	mov	x19, x0
  4032dc:	9106c3e0 	add	x0, sp, #0x1b0
  4032e0:	97fffb40 	bl	401fe0 <_ZNSt7__cxx1112basic_stringIcSt11char_traitsIcESaIcEE10_M_disposeEv@plt>
  4032e4:	17ffffb3 	b	4031b0 <main+0xff0>
  4032e8:	f85e8301 	ldur	x1, [x24, #-24]
  4032ec:	aa0003f3 	mov	x19, x0
  4032f0:	f900fff8 	str	x24, [sp, #504]
  4032f4:	f94067e0 	ldr	x0, [sp, #200]
  4032f8:	f8216b80 	str	x0, [x28, x1]
  4032fc:	f90103ff 	str	xzr, [sp, #512]
  403300:	17ffffd5 	b	403254 <main+0x1094>

0000000000403304 <_GLOBAL__sub_I_main>:
  403304:	a9be7bfd 	stp	x29, x30, [sp, #-32]!
  403308:	910003fd 	mov	x29, sp
  40330c:	f9000bf3 	str	x19, [sp, #16]
  403310:	b0000173 	adrp	x19, 430000 <_Znam@GLIBCXX_3.4>
  403314:	910c6273 	add	x19, x19, #0x318
  403318:	aa1303e0 	mov	x0, x19
  40331c:	97fffb5d 	bl	402090 <_ZNSt8ios_base4InitC1Ev@plt>
  403320:	aa1303e1 	mov	x1, x19
  403324:	b0000162 	adrp	x2, 430000 <_Znam@GLIBCXX_3.4>
  403328:	f9400bf3 	ldr	x19, [sp, #16]
  40332c:	9107a042 	add	x2, x2, #0x1e8
  403330:	a8c27bfd 	ldp	x29, x30, [sp], #32
  403334:	f0ffffe0 	adrp	x0, 402000 <_ZSt16__throw_bad_castv@plt>
  403338:	91060000 	add	x0, x0, #0x180
  40333c:	17fffb1d 	b	401fb0 <__cxa_atexit@plt>

0000000000403340 <_GLOBAL__sub_I__ZN5model5trainENSt7__cxx1112basic_stringIcSt11char_traitsIcESaIcEEE>:
  403340:	a9be7bfd 	stp	x29, x30, [sp, #-32]!
  403344:	910003fd 	mov	x29, sp
  403348:	f9000bf3 	str	x19, [sp, #16]
  40334c:	b0000173 	adrp	x19, 430000 <_Znam@GLIBCXX_3.4>
  403350:	910c8273 	add	x19, x19, #0x320
  403354:	aa1303e0 	mov	x0, x19
  403358:	97fffb4e 	bl	402090 <_ZNSt8ios_base4InitC1Ev@plt>
  40335c:	aa1303e1 	mov	x1, x19
  403360:	b0000162 	adrp	x2, 430000 <_Znam@GLIBCXX_3.4>
  403364:	f9400bf3 	ldr	x19, [sp, #16]
  403368:	9107a042 	add	x2, x2, #0x1e8
  40336c:	a8c27bfd 	ldp	x29, x30, [sp], #32
  403370:	f0ffffe0 	adrp	x0, 402000 <_ZSt16__throw_bad_castv@plt>
  403374:	91060000 	add	x0, x0, #0x180
  403378:	17fffb0e 	b	401fb0 <__cxa_atexit@plt>
  40337c:	d503201f 	nop

0000000000403380 <_GLOBAL__sub_I__ZN13PriorityQueue7CalProbER2PT>:
  403380:	a9be7bfd 	stp	x29, x30, [sp, #-32]!
  403384:	910003fd 	mov	x29, sp
  403388:	f9000bf3 	str	x19, [sp, #16]
  40338c:	b0000173 	adrp	x19, 430000 <_Znam@GLIBCXX_3.4>
  403390:	910ca273 	add	x19, x19, #0x328
  403394:	aa1303e0 	mov	x0, x19
  403398:	97fffb3e 	bl	402090 <_ZNSt8ios_base4InitC1Ev@plt>
  40339c:	aa1303e1 	mov	x1, x19
  4033a0:	b0000162 	adrp	x2, 430000 <_Znam@GLIBCXX_3.4>
  4033a4:	f9400bf3 	ldr	x19, [sp, #16]
  4033a8:	9107a042 	add	x2, x2, #0x1e8
  4033ac:	a8c27bfd 	ldp	x29, x30, [sp], #32
  4033b0:	f0ffffe0 	adrp	x0, 402000 <_ZSt16__throw_bad_castv@plt>
  4033b4:	91060000 	add	x0, x0, #0x180
  4033b8:	17fffafe 	b	401fb0 <__cxa_atexit@plt>
  4033bc:	d503201f 	nop

00000000004033c0 <_GLOBAL__sub_I__Z13StringProcessRKNSt7__cxx1112basic_stringIcSt11char_traitsIcESaIcEEEPi>:
  4033c0:	a9be7bfd 	stp	x29, x30, [sp, #-32]!
  4033c4:	910003fd 	mov	x29, sp
  4033c8:	f9000bf3 	str	x19, [sp, #16]
  4033cc:	b0000173 	adrp	x19, 430000 <_Znam@GLIBCXX_3.4>
  4033d0:	910cc273 	add	x19, x19, #0x330
  4033d4:	aa1303e0 	mov	x0, x19
  4033d8:	97fffb2e 	bl	402090 <_ZNSt8ios_base4InitC1Ev@plt>
  4033dc:	aa1303e1 	mov	x1, x19
  4033e0:	b0000162 	adrp	x2, 430000 <_Znam@GLIBCXX_3.4>
  4033e4:	f9400bf3 	ldr	x19, [sp, #16]
  4033e8:	9107a042 	add	x2, x2, #0x1e8
  4033ec:	a8c27bfd 	ldp	x29, x30, [sp], #32
  4033f0:	f0ffffe0 	adrp	x0, 402000 <_ZSt16__throw_bad_castv@plt>
  4033f4:	91060000 	add	x0, x0, #0x180
  4033f8:	17fffaee 	b	401fb0 <__cxa_atexit@plt>
  4033fc:	d503201f 	nop

0000000000403400 <_start>:
  403400:	d503201f 	nop
  403404:	d280001d 	mov	x29, #0x0                   	// #0
  403408:	d280001e 	mov	x30, #0x0                   	// #0
  40340c:	aa0003e5 	mov	x5, x0
  403410:	f94003e1 	ldr	x1, [sp]
  403414:	910023e2 	add	x2, sp, #0x8
  403418:	910003e6 	mov	x6, sp
  40341c:	90000000 	adrp	x0, 403000 <main+0xe40>
  403420:	9110d000 	add	x0, x0, #0x434
  403424:	d2800003 	mov	x3, #0x0                   	// #0
  403428:	d2800004 	mov	x4, #0x0                   	// #0
  40342c:	97fffac5 	bl	401f40 <__libc_start_main@plt>
  403430:	97fffb24 	bl	4020c0 <abort@plt>

0000000000403434 <__wrap_main>:
  403434:	d503201f 	nop
  403438:	17fffb62 	b	4021c0 <main>
  40343c:	d503201f 	nop

0000000000403440 <_dl_relocate_static_pie>:
  403440:	d65f03c0 	ret

0000000000403444 <call_weak_fn>:
  403444:	90000160 	adrp	x0, 42f000 <__FRAME_END__+0x1a5d8>
  403448:	f947ec00 	ldr	x0, [x0, #4056]
  40344c:	b4000040 	cbz	x0, 403454 <call_weak_fn+0x10>
  403450:	17fffb44 	b	402160 <__gmon_start__@plt>
  403454:	d65f03c0 	ret
  403458:	d503201f 	nop
  40345c:	d503201f 	nop

0000000000403460 <deregister_tm_clones>:
  403460:	b0000160 	adrp	x0, 430000 <_Znam@GLIBCXX_3.4>
  403464:	9107e000 	add	x0, x0, #0x1f8
  403468:	b0000161 	adrp	x1, 430000 <_Znam@GLIBCXX_3.4>
  40346c:	9107e021 	add	x1, x1, #0x1f8
  403470:	eb00003f 	cmp	x1, x0
  403474:	540000c0 	b.eq	40348c <deregister_tm_clones+0x2c>  // b.none
  403478:	90000161 	adrp	x1, 42f000 <__FRAME_END__+0x1a5d8>
  40347c:	f947e821 	ldr	x1, [x1, #4048]
  403480:	b4000061 	cbz	x1, 40348c <deregister_tm_clones+0x2c>
  403484:	aa0103f0 	mov	x16, x1
  403488:	d61f0200 	br	x16
  40348c:	d65f03c0 	ret

0000000000403490 <register_tm_clones>:
  403490:	b0000160 	adrp	x0, 430000 <_Znam@GLIBCXX_3.4>
  403494:	9107e000 	add	x0, x0, #0x1f8
  403498:	b0000161 	adrp	x1, 430000 <_Znam@GLIBCXX_3.4>
  40349c:	9107e021 	add	x1, x1, #0x1f8
  4034a0:	cb000021 	sub	x1, x1, x0
  4034a4:	d37ffc22 	lsr	x2, x1, #63
  4034a8:	8b810c41 	add	x1, x2, x1, asr #3
  4034ac:	9341fc21 	asr	x1, x1, #1
  4034b0:	b40000c1 	cbz	x1, 4034c8 <register_tm_clones+0x38>
  4034b4:	90000162 	adrp	x2, 42f000 <__FRAME_END__+0x1a5d8>
  4034b8:	f947f042 	ldr	x2, [x2, #4064]
  4034bc:	b4000062 	cbz	x2, 4034c8 <register_tm_clones+0x38>
  4034c0:	aa0203f0 	mov	x16, x2
  4034c4:	d61f0200 	br	x16
  4034c8:	d65f03c0 	ret
  4034cc:	d503201f 	nop

00000000004034d0 <__do_global_dtors_aux>:
  4034d0:	a9be7bfd 	stp	x29, x30, [sp, #-32]!
  4034d4:	910003fd 	mov	x29, sp
  4034d8:	f9000bf3 	str	x19, [sp, #16]
  4034dc:	b0000173 	adrp	x19, 430000 <_Znam@GLIBCXX_3.4>
  4034e0:	394c4260 	ldrb	w0, [x19, #784]
  4034e4:	35000080 	cbnz	w0, 4034f4 <__do_global_dtors_aux+0x24>
  4034e8:	97ffffde 	bl	403460 <deregister_tm_clones>
  4034ec:	52800020 	mov	w0, #0x1                   	// #1
  4034f0:	390c4260 	strb	w0, [x19, #784]
  4034f4:	f9400bf3 	ldr	x19, [sp, #16]
  4034f8:	a8c27bfd 	ldp	x29, x30, [sp], #32
  4034fc:	d65f03c0 	ret

0000000000403500 <frame_dummy>:
  403500:	17ffffe4 	b	403490 <register_tm_clones>
  403504:	d503201f 	nop
  403508:	d503201f 	nop
  40350c:	d503201f 	nop

0000000000403510 <_ZNSt7__cxx1112basic_stringIcSt11char_traitsIcESaIcEEC2EPKcRKS3_.constprop.0>:
  403510:	a9bc7bfd 	stp	x29, x30, [sp, #-64]!
  403514:	910003fd 	mov	x29, sp
  403518:	a90153f3 	stp	x19, x20, [sp, #16]
  40351c:	a9025bf5 	stp	x21, x22, [sp, #32]
  403520:	91004016 	add	x22, x0, #0x10
  403524:	f9000016 	str	x22, [x0]
  403528:	b4000481 	cbz	x1, 4035b8 <_ZNSt7__cxx1112basic_stringIcSt11char_traitsIcESaIcEEC2EPKcRKS3_.constprop.0+0xa8>
  40352c:	aa0003f3 	mov	x19, x0
  403530:	aa0103f5 	mov	x21, x1
  403534:	aa0103e0 	mov	x0, x1
  403538:	97fffa4e 	bl	401e70 <strlen@plt>
  40353c:	f9001fe0 	str	x0, [sp, #56]
  403540:	aa0003f4 	mov	x20, x0
  403544:	f1003c1f 	cmp	x0, #0xf
  403548:	540001e8 	b.hi	403584 <_ZNSt7__cxx1112basic_stringIcSt11char_traitsIcESaIcEEC2EPKcRKS3_.constprop.0+0x74>  // b.pmore
  40354c:	f100041f 	cmp	x0, #0x1
  403550:	54000161 	b.ne	40357c <_ZNSt7__cxx1112basic_stringIcSt11char_traitsIcESaIcEEC2EPKcRKS3_.constprop.0+0x6c>  // b.any
  403554:	394002a0 	ldrb	w0, [x21]
  403558:	39004260 	strb	w0, [x19, #16]
  40355c:	f9400261 	ldr	x1, [x19]
  403560:	f9401fe0 	ldr	x0, [sp, #56]
  403564:	f9000660 	str	x0, [x19, #8]
  403568:	3820683f 	strb	wzr, [x1, x0]
  40356c:	a94153f3 	ldp	x19, x20, [sp, #16]
  403570:	a9425bf5 	ldp	x21, x22, [sp, #32]
  403574:	a8c47bfd 	ldp	x29, x30, [sp], #64
  403578:	d65f03c0 	ret
  40357c:	b4ffff00 	cbz	x0, 40355c <_ZNSt7__cxx1112basic_stringIcSt11char_traitsIcESaIcEEC2EPKcRKS3_.constprop.0+0x4c>
  403580:	14000009 	b	4035a4 <_ZNSt7__cxx1112basic_stringIcSt11char_traitsIcESaIcEEC2EPKcRKS3_.constprop.0+0x94>
  403584:	9100e3e1 	add	x1, sp, #0x38
  403588:	aa1303e0 	mov	x0, x19
  40358c:	d2800002 	mov	x2, #0x0                   	// #0
  403590:	97fffae8 	bl	402130 <_ZNSt7__cxx1112basic_stringIcSt11char_traitsIcESaIcEE9_M_createERmm@plt>
  403594:	aa0003f6 	mov	x22, x0
  403598:	f9000260 	str	x0, [x19]
  40359c:	f9401fe1 	ldr	x1, [sp, #56]
  4035a0:	f9000a61 	str	x1, [x19, #16]
  4035a4:	aa1403e2 	mov	x2, x20
  4035a8:	aa1503e1 	mov	x1, x21
  4035ac:	aa1603e0 	mov	x0, x22
  4035b0:	97fffa14 	bl	401e00 <memcpy@plt>
  4035b4:	17ffffea 	b	40355c <_ZNSt7__cxx1112basic_stringIcSt11char_traitsIcESaIcEEC2EPKcRKS3_.constprop.0+0x4c>
  4035b8:	f0000060 	adrp	x0, 412000 <_Z19MD5Hash_simdversionPKNSt7__cxx1112basic_stringIcSt11char_traitsIcESaIcEEEP12__Uint32x4_t+0x1000>
  4035bc:	91266000 	add	x0, x0, #0x998
  4035c0:	97fffa58 	bl	401f20 <_ZSt19__throw_logic_errorPKc@plt>

00000000004035c4 <_ZSt4endlIcSt11char_traitsIcEERSt13basic_ostreamIT_T0_ES6_.isra.0>:
  4035c4:	a9be7bfd 	stp	x29, x30, [sp, #-32]!
  4035c8:	910003fd 	mov	x29, sp
  4035cc:	a90153f3 	stp	x19, x20, [sp, #16]
  4035d0:	aa0003f3 	mov	x19, x0
  4035d4:	f9400000 	ldr	x0, [x0]
  4035d8:	f85e8000 	ldur	x0, [x0, #-24]
  4035dc:	8b000260 	add	x0, x19, x0
  4035e0:	f9407814 	ldr	x20, [x0, #240]
  4035e4:	b4000314 	cbz	x20, 403644 <_ZSt4endlIcSt11char_traitsIcEERSt13basic_ostreamIT_T0_ES6_.isra.0+0x80>
  4035e8:	3940e280 	ldrb	w0, [x20, #56]
  4035ec:	340000e0 	cbz	w0, 403608 <_ZSt4endlIcSt11char_traitsIcEERSt13basic_ostreamIT_T0_ES6_.isra.0+0x44>
  4035f0:	39410e81 	ldrb	w1, [x20, #67]
  4035f4:	aa1303e0 	mov	x0, x19
  4035f8:	97fff9fa 	bl	401de0 <_ZNSo3putEc@plt>
  4035fc:	a94153f3 	ldp	x19, x20, [sp, #16]
  403600:	a8c27bfd 	ldp	x29, x30, [sp], #32
  403604:	17fffa43 	b	401f10 <_ZNSo5flushEv@plt>
  403608:	aa1403e0 	mov	x0, x20
  40360c:	97fffa71 	bl	401fd0 <_ZNKSt5ctypeIcE13_M_widen_initEv@plt>
  403610:	f9400281 	ldr	x1, [x20]
  403614:	90000000 	adrp	x0, 403000 <main+0xe40>
  403618:	91194000 	add	x0, x0, #0x650
  40361c:	f9401822 	ldr	x2, [x1, #48]
  403620:	eb00005f 	cmp	x2, x0
  403624:	54000061 	b.ne	403630 <_ZSt4endlIcSt11char_traitsIcEERSt13basic_ostreamIT_T0_ES6_.isra.0+0x6c>  // b.any
  403628:	52800141 	mov	w1, #0xa                   	// #10
  40362c:	17fffff2 	b	4035f4 <_ZSt4endlIcSt11char_traitsIcEERSt13basic_ostreamIT_T0_ES6_.isra.0+0x30>
  403630:	52800141 	mov	w1, #0xa                   	// #10
  403634:	aa1403e0 	mov	x0, x20
  403638:	d63f0040 	blr	x2
  40363c:	12001c01 	and	w1, w0, #0xff
  403640:	17ffffed 	b	4035f4 <_ZSt4endlIcSt11char_traitsIcEERSt13basic_ostreamIT_T0_ES6_.isra.0+0x30>
  403644:	97fffa6f 	bl	402000 <_ZSt16__throw_bad_castv@plt>
  403648:	d503201f 	nop
  40364c:	d503201f 	nop

0000000000403650 <_ZNKSt5ctypeIcE8do_widenEc>:
  403650:	2a0103e0 	mov	w0, w1
  403654:	d65f03c0 	ret
  403658:	d503201f 	nop
  40365c:	d503201f 	nop

0000000000403660 <_ZNSt6vectorINSt7__cxx1112basic_stringIcSt11char_traitsIcESaIcEEESaIS5_EED1Ev>:
  403660:	a9bd7bfd 	stp	x29, x30, [sp, #-48]!
  403664:	910003fd 	mov	x29, sp
  403668:	a90153f3 	stp	x19, x20, [sp, #16]
  40366c:	a9405013 	ldp	x19, x20, [x0]
  403670:	f90013f5 	str	x21, [sp, #32]
  403674:	aa0003f5 	mov	x21, x0
  403678:	eb14027f 	cmp	x19, x20
  40367c:	54000180 	b.eq	4036ac <_ZNSt6vectorINSt7__cxx1112basic_stringIcSt11char_traitsIcESaIcEEESaIS5_EED1Ev+0x4c>  // b.none
  403680:	aa1303e1 	mov	x1, x19
  403684:	f8410420 	ldr	x0, [x1], #16
  403688:	eb01001f 	cmp	x0, x1
  40368c:	54000080 	b.eq	40369c <_ZNSt6vectorINSt7__cxx1112basic_stringIcSt11char_traitsIcESaIcEEESaIS5_EED1Ev+0x3c>  // b.none
  403690:	f9400a61 	ldr	x1, [x19, #16]
  403694:	91000421 	add	x1, x1, #0x1
  403698:	97fffa3e 	bl	401f90 <_ZdlPvm@plt>
  40369c:	91008273 	add	x19, x19, #0x20
  4036a0:	eb13029f 	cmp	x20, x19
  4036a4:	54fffee1 	b.ne	403680 <_ZNSt6vectorINSt7__cxx1112basic_stringIcSt11char_traitsIcESaIcEEESaIS5_EED1Ev+0x20>  // b.any
  4036a8:	f94002b4 	ldr	x20, [x21]
  4036ac:	b4000114 	cbz	x20, 4036cc <_ZNSt6vectorINSt7__cxx1112basic_stringIcSt11char_traitsIcESaIcEEESaIS5_EED1Ev+0x6c>
  4036b0:	f9400aa1 	ldr	x1, [x21, #16]
  4036b4:	aa1403e0 	mov	x0, x20
  4036b8:	f94013f5 	ldr	x21, [sp, #32]
  4036bc:	cb140021 	sub	x1, x1, x20
  4036c0:	a94153f3 	ldp	x19, x20, [sp, #16]
  4036c4:	a8c37bfd 	ldp	x29, x30, [sp], #48
  4036c8:	17fffa32 	b	401f90 <_ZdlPvm@plt>
  4036cc:	a94153f3 	ldp	x19, x20, [sp, #16]
  4036d0:	f94013f5 	ldr	x21, [sp, #32]
  4036d4:	a8c37bfd 	ldp	x29, x30, [sp], #48
  4036d8:	d65f03c0 	ret
  4036dc:	d503201f 	nop

00000000004036e0 <_ZNSt7__cxx1115basic_stringbufIcSt11char_traitsIcESaIcEED1Ev>:
  4036e0:	a9be7bfd 	stp	x29, x30, [sp, #-32]!
  4036e4:	aa0003e2 	mov	x2, x0
  4036e8:	91016003 	add	x3, x0, #0x58
  4036ec:	910003fd 	mov	x29, sp
  4036f0:	f9000bf3 	str	x19, [sp, #16]
  4036f4:	aa0003f3 	mov	x19, x0
  4036f8:	f9402400 	ldr	x0, [x0, #72]
  4036fc:	90000161 	adrp	x1, 42f000 <__FRAME_END__+0x1a5d8>
  403700:	91356021 	add	x1, x1, #0xd58
  403704:	f8048441 	str	x1, [x2], #72
  403708:	eb03001f 	cmp	x0, x3
  40370c:	54000080 	b.eq	40371c <_ZNSt7__cxx1115basic_stringbufIcSt11char_traitsIcESaIcEED1Ev+0x3c>  // b.none
  403710:	f9400841 	ldr	x1, [x2, #16]
  403714:	91000421 	add	x1, x1, #0x1
  403718:	97fffa1e 	bl	401f90 <_ZdlPvm@plt>
  40371c:	aa1303e0 	mov	x0, x19
  403720:	90000161 	adrp	x1, 42f000 <__FRAME_END__+0x1a5d8>
  403724:	912dc021 	add	x1, x1, #0xb70
  403728:	f9400bf3 	ldr	x19, [sp, #16]
  40372c:	f8038401 	str	x1, [x0], #56
  403730:	a8c27bfd 	ldp	x29, x30, [sp], #32
  403734:	17fffa4b 	b	402060 <_ZNSt6localeD1Ev@plt>
  403738:	d503201f 	nop
  40373c:	d503201f 	nop

0000000000403740 <_ZNSt7__cxx1115basic_stringbufIcSt11char_traitsIcESaIcEED0Ev>:
  403740:	a9be7bfd 	stp	x29, x30, [sp, #-32]!
  403744:	aa0003e2 	mov	x2, x0
  403748:	91016003 	add	x3, x0, #0x58
  40374c:	910003fd 	mov	x29, sp
  403750:	f9000bf3 	str	x19, [sp, #16]
  403754:	aa0003f3 	mov	x19, x0
  403758:	f9402400 	ldr	x0, [x0, #72]
  40375c:	90000161 	adrp	x1, 42f000 <__FRAME_END__+0x1a5d8>
  403760:	91356021 	add	x1, x1, #0xd58
  403764:	f8048441 	str	x1, [x2], #72
  403768:	eb03001f 	cmp	x0, x3
  40376c:	54000080 	b.eq	40377c <_ZNSt7__cxx1115basic_stringbufIcSt11char_traitsIcESaIcEED0Ev+0x3c>  // b.none
  403770:	f9400841 	ldr	x1, [x2, #16]
  403774:	91000421 	add	x1, x1, #0x1
  403778:	97fffa06 	bl	401f90 <_ZdlPvm@plt>
  40377c:	aa1303e0 	mov	x0, x19
  403780:	90000161 	adrp	x1, 42f000 <__FRAME_END__+0x1a5d8>
  403784:	912dc021 	add	x1, x1, #0xb70
  403788:	f8038401 	str	x1, [x0], #56
  40378c:	97fffa35 	bl	402060 <_ZNSt6localeD1Ev@plt>
  403790:	aa1303e0 	mov	x0, x19
  403794:	d2800d01 	mov	x1, #0x68                  	// #104
  403798:	f9400bf3 	ldr	x19, [sp, #16]
  40379c:	a8c27bfd 	ldp	x29, x30, [sp], #32
  4037a0:	17fff9fc 	b	401f90 <_ZdlPvm@plt>
  4037a4:	d503201f 	nop
  4037a8:	d503201f 	nop
  4037ac:	d503201f 	nop

00000000004037b0 <_ZNSt6vectorINSt7__cxx1112basic_stringIcSt11char_traitsIcESaIcEEESaIS5_EEC1ESt16initializer_listIS5_ERKS6_>:
  4037b0:	a9ba7bfd 	stp	x29, x30, [sp, #-96]!
  4037b4:	910003fd 	mov	x29, sp
  4037b8:	a90363f7 	stp	x23, x24, [sp, #48]
  4037bc:	aa0003f8 	mov	x24, x0
  4037c0:	a90153f3 	stp	x19, x20, [sp, #16]
  4037c4:	d37be853 	lsl	x19, x2, #5
  4037c8:	8b130037 	add	x23, x1, x19
  4037cc:	a9025bf5 	stp	x21, x22, [sp, #32]
  4037d0:	f90023f9 	str	x25, [sp, #64]
  4037d4:	f900001f 	str	xzr, [x0]
  4037d8:	b27be7e0 	mov	x0, #0x7fffffffffffffe0    	// #9223372036854775776
  4037dc:	a900ff1f 	stp	xzr, xzr, [x24, #8]
  4037e0:	eb00027f 	cmp	x19, x0
  4037e4:	54000928 	b.hi	403908 <_ZNSt6vectorINSt7__cxx1112basic_stringIcSt11char_traitsIcESaIcEEESaIS5_EEC1ESt16initializer_listIS5_ERKS6_+0x158>  // b.pmore
  4037e8:	b4000773 	cbz	x19, 4038d4 <_ZNSt6vectorINSt7__cxx1112basic_stringIcSt11char_traitsIcESaIcEEESaIS5_EEC1ESt16initializer_listIS5_ERKS6_+0x124>
  4037ec:	aa0103f4 	mov	x20, x1
  4037f0:	aa0103f5 	mov	x21, x1
  4037f4:	aa1303e0 	mov	x0, x19
  4037f8:	97fff9e2 	bl	401f80 <_Znwm@plt>
  4037fc:	8b130013 	add	x19, x0, x19
  403800:	f9000300 	str	x0, [x24]
  403804:	f9000b13 	str	x19, [x24, #16]
  403808:	eb1402ff 	cmp	x23, x20
  40380c:	aa0003f9 	mov	x25, x0
  403810:	aa0003f4 	mov	x20, x0
  403814:	54000141 	b.ne	40383c <_ZNSt6vectorINSt7__cxx1112basic_stringIcSt11char_traitsIcESaIcEEESaIS5_EEC1ESt16initializer_listIS5_ERKS6_+0x8c>  // b.any
  403818:	1400001b 	b	403884 <_ZNSt6vectorINSt7__cxx1112basic_stringIcSt11char_traitsIcESaIcEEESaIS5_EEC1ESt16initializer_listIS5_ERKS6_+0xd4>
  40381c:	394002c1 	ldrb	w1, [x22]
  403820:	39004281 	strb	w1, [x20, #16]
  403824:	f9000693 	str	x19, [x20, #8]
  403828:	910082b5 	add	x21, x21, #0x20
  40382c:	3833681f 	strb	wzr, [x0, x19]
  403830:	91008294 	add	x20, x20, #0x20
  403834:	eb1502ff 	cmp	x23, x21
  403838:	54000260 	b.eq	403884 <_ZNSt6vectorINSt7__cxx1112basic_stringIcSt11char_traitsIcESaIcEEESaIS5_EEC1ESt16initializer_listIS5_ERKS6_+0xd4>  // b.none
  40383c:	a9404eb6 	ldp	x22, x19, [x21]
  403840:	91004280 	add	x0, x20, #0x10
  403844:	f9000280 	str	x0, [x20]
  403848:	ab1302df 	cmn	x22, x19
  40384c:	fa401ac0 	ccmp	x22, #0x0, #0x0, ne  // ne = any
  403850:	54000560 	b.eq	4038fc <_ZNSt6vectorINSt7__cxx1112basic_stringIcSt11char_traitsIcESaIcEEESaIS5_EEC1ESt16initializer_listIS5_ERKS6_+0x14c>  // b.none
  403854:	f9002ff3 	str	x19, [sp, #88]
  403858:	f1003e7f 	cmp	x19, #0xf
  40385c:	54000228 	b.hi	4038a0 <_ZNSt6vectorINSt7__cxx1112basic_stringIcSt11char_traitsIcESaIcEEESaIS5_EEC1ESt16initializer_listIS5_ERKS6_+0xf0>  // b.pmore
  403860:	f100067f 	cmp	x19, #0x1
  403864:	54fffdc0 	b.eq	40381c <_ZNSt6vectorINSt7__cxx1112basic_stringIcSt11char_traitsIcESaIcEEESaIS5_EEC1ESt16initializer_listIS5_ERKS6_+0x6c>  // b.none
  403868:	b50002b3 	cbnz	x19, 4038bc <_ZNSt6vectorINSt7__cxx1112basic_stringIcSt11char_traitsIcESaIcEEESaIS5_EEC1ESt16initializer_listIS5_ERKS6_+0x10c>
  40386c:	f9000693 	str	x19, [x20, #8]
  403870:	910082b5 	add	x21, x21, #0x20
  403874:	3833681f 	strb	wzr, [x0, x19]
  403878:	91008294 	add	x20, x20, #0x20
  40387c:	eb1502ff 	cmp	x23, x21
  403880:	54fffde1 	b.ne	40383c <_ZNSt6vectorINSt7__cxx1112basic_stringIcSt11char_traitsIcESaIcEEESaIS5_EEC1ESt16initializer_listIS5_ERKS6_+0x8c>  // b.any
  403884:	a9425bf5 	ldp	x21, x22, [sp, #32]
  403888:	f94023f9 	ldr	x25, [sp, #64]
  40388c:	f9000714 	str	x20, [x24, #8]
  403890:	a94153f3 	ldp	x19, x20, [sp, #16]
  403894:	a94363f7 	ldp	x23, x24, [sp, #48]
  403898:	a8c67bfd 	ldp	x29, x30, [sp], #96
  40389c:	d65f03c0 	ret
  4038a0:	910163e1 	add	x1, sp, #0x58
  4038a4:	aa1403e0 	mov	x0, x20
  4038a8:	d2800002 	mov	x2, #0x0                   	// #0
  4038ac:	97fffa21 	bl	402130 <_ZNSt7__cxx1112basic_stringIcSt11char_traitsIcESaIcEE9_M_createERmm@plt>
  4038b0:	f9402fe1 	ldr	x1, [sp, #88]
  4038b4:	f9000280 	str	x0, [x20]
  4038b8:	f9000a81 	str	x1, [x20, #16]
  4038bc:	aa1303e2 	mov	x2, x19
  4038c0:	aa1603e1 	mov	x1, x22
  4038c4:	97fff94f 	bl	401e00 <memcpy@plt>
  4038c8:	f9400280 	ldr	x0, [x20]
  4038cc:	f9402ff3 	ldr	x19, [sp, #88]
  4038d0:	17ffffd5 	b	403824 <_ZNSt6vectorINSt7__cxx1112basic_stringIcSt11char_traitsIcESaIcEEESaIS5_EEC1ESt16initializer_listIS5_ERKS6_+0x74>
  4038d4:	d2800014 	mov	x20, #0x0                   	// #0
  4038d8:	f900031f 	str	xzr, [x24]
  4038dc:	f9000b1f 	str	xzr, [x24, #16]
  4038e0:	a9425bf5 	ldp	x21, x22, [sp, #32]
  4038e4:	f94023f9 	ldr	x25, [sp, #64]
  4038e8:	f9000714 	str	x20, [x24, #8]
  4038ec:	a94153f3 	ldp	x19, x20, [sp, #16]
  4038f0:	a94363f7 	ldp	x23, x24, [sp, #48]
  4038f4:	a8c67bfd 	ldp	x29, x30, [sp], #96
  4038f8:	d65f03c0 	ret
  4038fc:	f0000060 	adrp	x0, 412000 <_Z19MD5Hash_simdversionPKNSt7__cxx1112basic_stringIcSt11char_traitsIcESaIcEEEP12__Uint32x4_t+0x1000>
  403900:	91266000 	add	x0, x0, #0x998
  403904:	97fff987 	bl	401f20 <_ZSt19__throw_logic_errorPKc@plt>
  403908:	f0000060 	adrp	x0, 412000 <_Z19MD5Hash_simdversionPKNSt7__cxx1112basic_stringIcSt11char_traitsIcESaIcEEEP12__Uint32x4_t+0x1000>
  40390c:	9133a000 	add	x0, x0, #0xce8
  403910:	97fff970 	bl	401ed0 <_ZSt20__throw_length_errorPKc@plt>
  403914:	aa0003f3 	mov	x19, x0
  403918:	f9400300 	ldr	x0, [x24]
  40391c:	f9400b01 	ldr	x1, [x24, #16]
  403920:	cb000021 	sub	x1, x1, x0
  403924:	b4000040 	cbz	x0, 40392c <_ZNSt6vectorINSt7__cxx1112basic_stringIcSt11char_traitsIcESaIcEEESaIS5_EEC1ESt16initializer_listIS5_ERKS6_+0x17c>
  403928:	97fff99a 	bl	401f90 <_ZdlPvm@plt>
  40392c:	aa1303e0 	mov	x0, x19
  403930:	97fff9fc 	bl	402120 <_Unwind_Resume@plt>
  403934:	97fff95f 	bl	401eb0 <__cxa_begin_catch@plt>
  403938:	eb19029f 	cmp	x20, x25
  40393c:	54000041 	b.ne	403944 <_ZNSt6vectorINSt7__cxx1112basic_stringIcSt11char_traitsIcESaIcEEESaIS5_EEC1ESt16initializer_listIS5_ERKS6_+0x194>  // b.any
  403940:	97fff9d0 	bl	402080 <__cxa_rethrow@plt>
  403944:	aa1903e0 	mov	x0, x25
  403948:	91008339 	add	x25, x25, #0x20
  40394c:	97fff9a5 	bl	401fe0 <_ZNSt7__cxx1112basic_stringIcSt11char_traitsIcESaIcEE10_M_disposeEv@plt>
  403950:	17fffffa 	b	403938 <_ZNSt6vectorINSt7__cxx1112basic_stringIcSt11char_traitsIcESaIcEEESaIS5_EEC1ESt16initializer_listIS5_ERKS6_+0x188>
  403954:	aa0003f3 	mov	x19, x0
  403958:	97fff9e2 	bl	4020e0 <__cxa_end_catch@plt>
  40395c:	17ffffef 	b	403918 <_ZNSt6vectorINSt7__cxx1112basic_stringIcSt11char_traitsIcESaIcEEESaIS5_EEC1ESt16initializer_listIS5_ERKS6_+0x168>

0000000000403960 <_ZNSt6vectorI7segmentSaIS0_EED1Ev>:
  403960:	a9bc7bfd 	stp	x29, x30, [sp, #-64]!
  403964:	910003fd 	mov	x29, sp
  403968:	a9025bf5 	stp	x21, x22, [sp, #32]
  40396c:	a9405815 	ldp	x21, x22, [x0]
  403970:	f9001bf7 	str	x23, [sp, #48]
  403974:	aa0003f7 	mov	x23, x0
  403978:	eb1602bf 	cmp	x21, x22
  40397c:	54000980 	b.eq	403aac <_ZNSt6vectorI7segmentSaIS0_EED1Ev+0x14c>  // b.none
  403980:	a90153f3 	stp	x19, x20, [sp, #16]
  403984:	d503201f 	nop
  403988:	f94046b3 	ldr	x19, [x21, #136]
  40398c:	b40000d3 	cbz	x19, 4039a4 <_ZNSt6vectorI7segmentSaIS0_EED1Ev+0x44>
  403990:	aa1303e0 	mov	x0, x19
  403994:	d2800201 	mov	x1, #0x10                  	// #16
  403998:	f9400273 	ldr	x19, [x19]
  40399c:	97fff97d 	bl	401f90 <_ZdlPvm@plt>
  4039a0:	b5ffff93 	cbnz	x19, 403990 <_ZNSt6vectorI7segmentSaIS0_EED1Ev+0x30>
  4039a4:	a9478aa0 	ldp	x0, x2, [x21, #120]
  4039a8:	52800001 	mov	w1, #0x0                   	// #0
  4039ac:	d37df042 	lsl	x2, x2, #3
  4039b0:	97fff950 	bl	401ef0 <memset@plt>
  4039b4:	a94786a0 	ldp	x0, x1, [x21, #120]
  4039b8:	9102a2a2 	add	x2, x21, #0xa8
  4039bc:	a908febf 	stp	xzr, xzr, [x21, #136]
  4039c0:	eb02001f 	cmp	x0, x2
  4039c4:	54000060 	b.eq	4039d0 <_ZNSt6vectorI7segmentSaIS0_EED1Ev+0x70>  // b.none
  4039c8:	d37df021 	lsl	x1, x1, #3
  4039cc:	97fff971 	bl	401f90 <_ZdlPvm@plt>
  4039d0:	f9402ab4 	ldr	x20, [x21, #80]
  4039d4:	b40001d4 	cbz	x20, 403a0c <_ZNSt6vectorI7segmentSaIS0_EED1Ev+0xac>
  4039d8:	f9400680 	ldr	x0, [x20, #8]
  4039dc:	91006281 	add	x1, x20, #0x18
  4039e0:	aa1403f3 	mov	x19, x20
  4039e4:	f9400294 	ldr	x20, [x20]
  4039e8:	eb01001f 	cmp	x0, x1
  4039ec:	54000080 	b.eq	4039fc <_ZNSt6vectorI7segmentSaIS0_EED1Ev+0x9c>  // b.none
  4039f0:	f9400e61 	ldr	x1, [x19, #24]
  4039f4:	91000421 	add	x1, x1, #0x1
  4039f8:	97fff966 	bl	401f90 <_ZdlPvm@plt>
  4039fc:	aa1303e0 	mov	x0, x19
  403a00:	d2800701 	mov	x1, #0x38                  	// #56
  403a04:	97fff963 	bl	401f90 <_ZdlPvm@plt>
  403a08:	b5fffe94 	cbnz	x20, 4039d8 <_ZNSt6vectorI7segmentSaIS0_EED1Ev+0x78>
  403a0c:	a9440aa0 	ldp	x0, x2, [x21, #64]
  403a10:	52800001 	mov	w1, #0x0                   	// #0
  403a14:	d37df042 	lsl	x2, x2, #3
  403a18:	97fff936 	bl	401ef0 <memset@plt>
  403a1c:	a94406a0 	ldp	x0, x1, [x21, #64]
  403a20:	9101c2a2 	add	x2, x21, #0x70
  403a24:	a9057ebf 	stp	xzr, xzr, [x21, #80]
  403a28:	eb02001f 	cmp	x0, x2
  403a2c:	54000060 	b.eq	403a38 <_ZNSt6vectorI7segmentSaIS0_EED1Ev+0xd8>  // b.none
  403a30:	d37df021 	lsl	x1, x1, #3
  403a34:	97fff957 	bl	401f90 <_ZdlPvm@plt>
  403a38:	f94012a0 	ldr	x0, [x21, #32]
  403a3c:	b4000080 	cbz	x0, 403a4c <_ZNSt6vectorI7segmentSaIS0_EED1Ev+0xec>
  403a40:	f9401aa1 	ldr	x1, [x21, #48]
  403a44:	cb000021 	sub	x1, x1, x0
  403a48:	97fff952 	bl	401f90 <_ZdlPvm@plt>
  403a4c:	a940d2b3 	ldp	x19, x20, [x21, #8]
  403a50:	eb14027f 	cmp	x19, x20
  403a54:	54000180 	b.eq	403a84 <_ZNSt6vectorI7segmentSaIS0_EED1Ev+0x124>  // b.none
  403a58:	aa1303e1 	mov	x1, x19
  403a5c:	f8410420 	ldr	x0, [x1], #16
  403a60:	eb01001f 	cmp	x0, x1
  403a64:	54000080 	b.eq	403a74 <_ZNSt6vectorI7segmentSaIS0_EED1Ev+0x114>  // b.none
  403a68:	f9400a61 	ldr	x1, [x19, #16]
  403a6c:	91000421 	add	x1, x1, #0x1
  403a70:	97fff948 	bl	401f90 <_ZdlPvm@plt>
  403a74:	91008273 	add	x19, x19, #0x20
  403a78:	eb13029f 	cmp	x20, x19
  403a7c:	54fffee1 	b.ne	403a58 <_ZNSt6vectorI7segmentSaIS0_EED1Ev+0xf8>  // b.any
  403a80:	f94006b4 	ldr	x20, [x21, #8]
  403a84:	b40000b4 	cbz	x20, 403a98 <_ZNSt6vectorI7segmentSaIS0_EED1Ev+0x138>
  403a88:	f9400ea1 	ldr	x1, [x21, #24]
  403a8c:	aa1403e0 	mov	x0, x20
  403a90:	cb140021 	sub	x1, x1, x20
  403a94:	97fff93f 	bl	401f90 <_ZdlPvm@plt>
  403a98:	9102c2b5 	add	x21, x21, #0xb0
  403a9c:	eb1502df 	cmp	x22, x21
  403aa0:	54fff741 	b.ne	403988 <_ZNSt6vectorI7segmentSaIS0_EED1Ev+0x28>  // b.any
  403aa4:	a94153f3 	ldp	x19, x20, [sp, #16]
  403aa8:	f94002f6 	ldr	x22, [x23]
  403aac:	b4000116 	cbz	x22, 403acc <_ZNSt6vectorI7segmentSaIS0_EED1Ev+0x16c>
  403ab0:	f9400ae1 	ldr	x1, [x23, #16]
  403ab4:	aa1603e0 	mov	x0, x22
  403ab8:	f9401bf7 	ldr	x23, [sp, #48]
  403abc:	cb160021 	sub	x1, x1, x22
  403ac0:	a9425bf5 	ldp	x21, x22, [sp, #32]
  403ac4:	a8c47bfd 	ldp	x29, x30, [sp], #64
  403ac8:	17fff932 	b	401f90 <_ZdlPvm@plt>
  403acc:	a9425bf5 	ldp	x21, x22, [sp, #32]
  403ad0:	f9401bf7 	ldr	x23, [sp, #48]
  403ad4:	a8c47bfd 	ldp	x29, x30, [sp], #64
  403ad8:	d65f03c0 	ret
  403adc:	d503201f 	nop

0000000000403ae0 <_ZN13PriorityQueueD1Ev>:
  403ae0:	a9bd7bfd 	stp	x29, x30, [sp, #-48]!
  403ae4:	910003fd 	mov	x29, sp
  403ae8:	a9025bf5 	stp	x21, x22, [sp, #32]
  403aec:	91064016 	add	x22, x0, #0x190
  403af0:	a90153f3 	stp	x19, x20, [sp, #16]
  403af4:	aa0003f4 	mov	x20, x0
  403af8:	f94006d5 	ldr	x21, [x22, #8]
  403afc:	f940c813 	ldr	x19, [x0, #400]
  403b00:	eb15027f 	cmp	x19, x21
  403b04:	54000180 	b.eq	403b34 <_ZN13PriorityQueueD1Ev+0x54>  // b.none
  403b08:	aa1303e1 	mov	x1, x19
  403b0c:	f8410420 	ldr	x0, [x1], #16
  403b10:	eb01001f 	cmp	x0, x1
  403b14:	54000080 	b.eq	403b24 <_ZN13PriorityQueueD1Ev+0x44>  // b.none
  403b18:	f9400a61 	ldr	x1, [x19, #16]
  403b1c:	91000421 	add	x1, x1, #0x1
  403b20:	97fff91c 	bl	401f90 <_ZdlPvm@plt>
  403b24:	91008273 	add	x19, x19, #0x20
  403b28:	eb1302bf 	cmp	x21, x19
  403b2c:	54fffee1 	b.ne	403b08 <_ZN13PriorityQueueD1Ev+0x28>  // b.any
  403b30:	f940ca95 	ldr	x21, [x20, #400]
  403b34:	b40000b5 	cbz	x21, 403b48 <_ZN13PriorityQueueD1Ev+0x68>
  403b38:	f9400ac1 	ldr	x1, [x22, #16]
  403b3c:	aa1503e0 	mov	x0, x21
  403b40:	cb150021 	sub	x1, x1, x21
  403b44:	97fff913 	bl	401f90 <_ZdlPvm@plt>
  403b48:	f940ba93 	ldr	x19, [x20, #368]
  403b4c:	9105c296 	add	x22, x20, #0x170
  403b50:	f94006d5 	ldr	x21, [x22, #8]
  403b54:	eb15027f 	cmp	x19, x21
  403b58:	54000280 	b.eq	403ba8 <_ZN13PriorityQueueD1Ev+0xc8>  // b.none
  403b5c:	d503201f 	nop
  403b60:	f9401e61 	ldr	x1, [x19, #56]
  403b64:	aa0103e0 	mov	x0, x1
  403b68:	b4000081 	cbz	x1, 403b78 <_ZN13PriorityQueueD1Ev+0x98>
  403b6c:	f9402662 	ldr	x2, [x19, #72]
  403b70:	cb010041 	sub	x1, x2, x1
  403b74:	97fff907 	bl	401f90 <_ZdlPvm@plt>
  403b78:	f9401261 	ldr	x1, [x19, #32]
  403b7c:	aa0103e0 	mov	x0, x1
  403b80:	b4000081 	cbz	x1, 403b90 <_ZN13PriorityQueueD1Ev+0xb0>
  403b84:	f9401a62 	ldr	x2, [x19, #48]
  403b88:	cb010041 	sub	x1, x2, x1
  403b8c:	97fff901 	bl	401f90 <_ZdlPvm@plt>
  403b90:	aa1303e0 	mov	x0, x19
  403b94:	91016273 	add	x19, x19, #0x58
  403b98:	97ffff72 	bl	403960 <_ZNSt6vectorI7segmentSaIS0_EED1Ev>
  403b9c:	eb1302bf 	cmp	x21, x19
  403ba0:	54fffe01 	b.ne	403b60 <_ZN13PriorityQueueD1Ev+0x80>  // b.any
  403ba4:	f940ba95 	ldr	x21, [x20, #368]
  403ba8:	b40000b5 	cbz	x21, 403bbc <_ZN13PriorityQueueD1Ev+0xdc>
  403bac:	f9400ac1 	ldr	x1, [x22, #16]
  403bb0:	aa1503e0 	mov	x0, x21
  403bb4:	cb150021 	sub	x1, x1, x21
  403bb8:	97fff8f6 	bl	401f90 <_ZdlPvm@plt>
  403bbc:	f940a693 	ldr	x19, [x20, #328]
  403bc0:	9104e295 	add	x21, x20, #0x138
  403bc4:	b40000d3 	cbz	x19, 403bdc <_ZN13PriorityQueueD1Ev+0xfc>
  403bc8:	aa1303e0 	mov	x0, x19
  403bcc:	d2800201 	mov	x1, #0x10                  	// #16
  403bd0:	f9400273 	ldr	x19, [x19]
  403bd4:	97fff8ef 	bl	401f90 <_ZdlPvm@plt>
  403bd8:	b5ffff93 	cbnz	x19, 403bc8 <_ZN13PriorityQueueD1Ev+0xe8>
  403bdc:	f94006a2 	ldr	x2, [x21, #8]
  403be0:	52800001 	mov	w1, #0x0                   	// #0
  403be4:	f9409e80 	ldr	x0, [x20, #312]
  403be8:	d37df042 	lsl	x2, x2, #3
  403bec:	97fff8c1 	bl	401ef0 <memset@plt>
  403bf0:	f9409e80 	ldr	x0, [x20, #312]
  403bf4:	9105a282 	add	x2, x20, #0x168
  403bf8:	a9017ebf 	stp	xzr, xzr, [x21, #16]
  403bfc:	f94006a1 	ldr	x1, [x21, #8]
  403c00:	eb02001f 	cmp	x0, x2
  403c04:	54000060 	b.eq	403c10 <_ZN13PriorityQueueD1Ev+0x130>  // b.none
  403c08:	d37df021 	lsl	x1, x1, #3
  403c0c:	97fff8e1 	bl	401f90 <_ZdlPvm@plt>
  403c10:	f9408a93 	ldr	x19, [x20, #272]
  403c14:	91040295 	add	x21, x20, #0x100
  403c18:	b40000f3 	cbz	x19, 403c34 <_ZN13PriorityQueueD1Ev+0x154>
  403c1c:	d503201f 	nop
  403c20:	aa1303e0 	mov	x0, x19
  403c24:	d2800201 	mov	x1, #0x10                  	// #16
  403c28:	f9400273 	ldr	x19, [x19]
  403c2c:	97fff8d9 	bl	401f90 <_ZdlPvm@plt>
  403c30:	b5ffff93 	cbnz	x19, 403c20 <_ZN13PriorityQueueD1Ev+0x140>
  403c34:	f94006a2 	ldr	x2, [x21, #8]
  403c38:	52800001 	mov	w1, #0x0                   	// #0
  403c3c:	f9408280 	ldr	x0, [x20, #256]
  403c40:	d37df042 	lsl	x2, x2, #3
  403c44:	97fff8ab 	bl	401ef0 <memset@plt>
  403c48:	f9408280 	ldr	x0, [x20, #256]
  403c4c:	9104c282 	add	x2, x20, #0x130
  403c50:	a9017ebf 	stp	xzr, xzr, [x21, #16]
  403c54:	f94006a1 	ldr	x1, [x21, #8]
  403c58:	eb02001f 	cmp	x0, x2
  403c5c:	54000060 	b.eq	403c68 <_ZN13PriorityQueueD1Ev+0x188>  // b.none
  403c60:	d37df021 	lsl	x1, x1, #3
  403c64:	97fff8cb 	bl	401f90 <_ZdlPvm@plt>
  403c68:	f9406e93 	ldr	x19, [x20, #216]
  403c6c:	91032295 	add	x21, x20, #0xc8
  403c70:	b40000f3 	cbz	x19, 403c8c <_ZN13PriorityQueueD1Ev+0x1ac>
  403c74:	d503201f 	nop
  403c78:	aa1303e0 	mov	x0, x19
  403c7c:	d2800201 	mov	x1, #0x10                  	// #16
  403c80:	f9400273 	ldr	x19, [x19]
  403c84:	97fff8c3 	bl	401f90 <_ZdlPvm@plt>
  403c88:	b5ffff93 	cbnz	x19, 403c78 <_ZN13PriorityQueueD1Ev+0x198>
  403c8c:	f94006a2 	ldr	x2, [x21, #8]
  403c90:	52800001 	mov	w1, #0x0                   	// #0
  403c94:	f9406680 	ldr	x0, [x20, #200]
  403c98:	d37df042 	lsl	x2, x2, #3
  403c9c:	97fff895 	bl	401ef0 <memset@plt>
  403ca0:	f9406680 	ldr	x0, [x20, #200]
  403ca4:	9103e282 	add	x2, x20, #0xf8
  403ca8:	a9017ebf 	stp	xzr, xzr, [x21, #16]
  403cac:	f94006a1 	ldr	x1, [x21, #8]
  403cb0:	eb02001f 	cmp	x0, x2
  403cb4:	54000060 	b.eq	403cc0 <_ZN13PriorityQueueD1Ev+0x1e0>  // b.none
  403cb8:	d37df021 	lsl	x1, x1, #3
  403cbc:	97fff8b5 	bl	401f90 <_ZdlPvm@plt>
  403cc0:	f9405293 	ldr	x19, [x20, #160]
  403cc4:	91024295 	add	x21, x20, #0x90
  403cc8:	b40000f3 	cbz	x19, 403ce4 <_ZN13PriorityQueueD1Ev+0x204>
  403ccc:	d503201f 	nop
  403cd0:	aa1303e0 	mov	x0, x19
  403cd4:	d2800201 	mov	x1, #0x10                  	// #16
  403cd8:	f9400273 	ldr	x19, [x19]
  403cdc:	97fff8ad 	bl	401f90 <_ZdlPvm@plt>
  403ce0:	b5ffff93 	cbnz	x19, 403cd0 <_ZN13PriorityQueueD1Ev+0x1f0>
  403ce4:	f94006a2 	ldr	x2, [x21, #8]
  403ce8:	52800001 	mov	w1, #0x0                   	// #0
  403cec:	f9404a80 	ldr	x0, [x20, #144]
  403cf0:	d37df042 	lsl	x2, x2, #3
  403cf4:	97fff87f 	bl	401ef0 <memset@plt>
  403cf8:	f9404a80 	ldr	x0, [x20, #144]
  403cfc:	91030282 	add	x2, x20, #0xc0
  403d00:	a9017ebf 	stp	xzr, xzr, [x21, #16]
  403d04:	f94006a1 	ldr	x1, [x21, #8]
  403d08:	eb02001f 	cmp	x0, x2
  403d0c:	54000060 	b.eq	403d18 <_ZN13PriorityQueueD1Ev+0x238>  // b.none
  403d10:	d37df021 	lsl	x1, x1, #3
  403d14:	97fff89f 	bl	401f90 <_ZdlPvm@plt>
  403d18:	9100c296 	add	x22, x20, #0x30
  403d1c:	9101e280 	add	x0, x20, #0x78
  403d20:	97ffff10 	bl	403960 <_ZNSt6vectorI7segmentSaIS0_EED1Ev>
  403d24:	91018280 	add	x0, x20, #0x60
  403d28:	97ffff0e 	bl	403960 <_ZNSt6vectorI7segmentSaIS0_EED1Ev>
  403d2c:	91012280 	add	x0, x20, #0x48
  403d30:	97ffff0c 	bl	403960 <_ZNSt6vectorI7segmentSaIS0_EED1Ev>
  403d34:	f94006d5 	ldr	x21, [x22, #8]
  403d38:	f9401a93 	ldr	x19, [x20, #48]
  403d3c:	eb15027f 	cmp	x19, x21
  403d40:	54000280 	b.eq	403d90 <_ZN13PriorityQueueD1Ev+0x2b0>  // b.none
  403d44:	d503201f 	nop
  403d48:	f9401e61 	ldr	x1, [x19, #56]
  403d4c:	aa0103e0 	mov	x0, x1
  403d50:	b4000081 	cbz	x1, 403d60 <_ZN13PriorityQueueD1Ev+0x280>
  403d54:	f9402662 	ldr	x2, [x19, #72]
  403d58:	cb010041 	sub	x1, x2, x1
  403d5c:	97fff88d 	bl	401f90 <_ZdlPvm@plt>
  403d60:	f9401261 	ldr	x1, [x19, #32]
  403d64:	aa0103e0 	mov	x0, x1
  403d68:	b4000081 	cbz	x1, 403d78 <_ZN13PriorityQueueD1Ev+0x298>
  403d6c:	f9401a62 	ldr	x2, [x19, #48]
  403d70:	cb010041 	sub	x1, x2, x1
  403d74:	97fff887 	bl	401f90 <_ZdlPvm@plt>
  403d78:	aa1303e0 	mov	x0, x19
  403d7c:	91016273 	add	x19, x19, #0x58
  403d80:	97fffef8 	bl	403960 <_ZNSt6vectorI7segmentSaIS0_EED1Ev>
  403d84:	eb1302bf 	cmp	x21, x19
  403d88:	54fffe01 	b.ne	403d48 <_ZN13PriorityQueueD1Ev+0x268>  // b.any
  403d8c:	f9401a95 	ldr	x21, [x20, #48]
  403d90:	b40000b5 	cbz	x21, 403da4 <_ZN13PriorityQueueD1Ev+0x2c4>
  403d94:	f9400ac1 	ldr	x1, [x22, #16]
  403d98:	aa1503e0 	mov	x0, x21
  403d9c:	cb150021 	sub	x1, x1, x21
  403da0:	97fff87c 	bl	401f90 <_ZdlPvm@plt>
  403da4:	a9405693 	ldp	x19, x21, [x20]
  403da8:	eb15027f 	cmp	x19, x21
  403dac:	54000260 	b.eq	403df8 <_ZN13PriorityQueueD1Ev+0x318>  // b.none
  403db0:	f9401e61 	ldr	x1, [x19, #56]
  403db4:	aa0103e0 	mov	x0, x1
  403db8:	b4000081 	cbz	x1, 403dc8 <_ZN13PriorityQueueD1Ev+0x2e8>
  403dbc:	f9402662 	ldr	x2, [x19, #72]
  403dc0:	cb010041 	sub	x1, x2, x1
  403dc4:	97fff873 	bl	401f90 <_ZdlPvm@plt>
  403dc8:	f9401261 	ldr	x1, [x19, #32]
  403dcc:	aa0103e0 	mov	x0, x1
  403dd0:	b4000081 	cbz	x1, 403de0 <_ZN13PriorityQueueD1Ev+0x300>
  403dd4:	f9401a62 	ldr	x2, [x19, #48]
  403dd8:	cb010041 	sub	x1, x2, x1
  403ddc:	97fff86d 	bl	401f90 <_ZdlPvm@plt>
  403de0:	aa1303e0 	mov	x0, x19
  403de4:	91016273 	add	x19, x19, #0x58
  403de8:	97fffede 	bl	403960 <_ZNSt6vectorI7segmentSaIS0_EED1Ev>
  403dec:	eb1302bf 	cmp	x21, x19
  403df0:	54fffe01 	b.ne	403db0 <_ZN13PriorityQueueD1Ev+0x2d0>  // b.any
  403df4:	f9400295 	ldr	x21, [x20]
  403df8:	b4000115 	cbz	x21, 403e18 <_ZN13PriorityQueueD1Ev+0x338>
  403dfc:	f9400a81 	ldr	x1, [x20, #16]
  403e00:	aa1503e0 	mov	x0, x21
  403e04:	a94153f3 	ldp	x19, x20, [sp, #16]
  403e08:	cb150021 	sub	x1, x1, x21
  403e0c:	a9425bf5 	ldp	x21, x22, [sp, #32]
  403e10:	a8c37bfd 	ldp	x29, x30, [sp], #48
  403e14:	17fff85f 	b	401f90 <_ZdlPvm@plt>
  403e18:	a94153f3 	ldp	x19, x20, [sp, #16]
  403e1c:	a9425bf5 	ldp	x21, x22, [sp, #32]
  403e20:	a8c37bfd 	ldp	x29, x30, [sp], #48
  403e24:	d65f03c0 	ret
  403e28:	d503201f 	nop
  403e2c:	d503201f 	nop

0000000000403e30 <_Z20compareByPretermProbRK2PTS1_>:
  403e30:	bd405001 	ldr	s1, [x0, #80]
  403e34:	bd405020 	ldr	s0, [x1, #80]
  403e38:	1e202030 	fcmpe	s1, s0
  403e3c:	1a9fd7e0 	cset	w0, gt
  403e40:	d65f03c0 	ret

0000000000403e44 <_ZNSt7__cxx1112basic_stringIcSt11char_traitsIcESaIcEE12_M_constructIPcEEvT_S7_St20forward_iterator_tag.isra.0>:
  403e44:	a9bc7bfd 	stp	x29, x30, [sp, #-64]!
  403e48:	f100005f 	cmp	x2, #0x0
  403e4c:	fa401820 	ccmp	x1, #0x0, #0x0, ne  // ne = any
  403e50:	910003fd 	mov	x29, sp
  403e54:	a90153f3 	stp	x19, x20, [sp, #16]
  403e58:	f90013f5 	str	x21, [sp, #32]
  403e5c:	54000580 	b.eq	403f0c <_ZNSt7__cxx1112basic_stringIcSt11char_traitsIcESaIcEE12_M_constructIPcEEvT_S7_St20forward_iterator_tag.isra.0+0xc8>  // b.none
  403e60:	cb010053 	sub	x19, x2, x1
  403e64:	f9001ff3 	str	x19, [sp, #56]
  403e68:	aa0103f5 	mov	x21, x1
  403e6c:	aa0003f4 	mov	x20, x0
  403e70:	f1003e7f 	cmp	x19, #0xf
  403e74:	540002a8 	b.hi	403ec8 <_ZNSt7__cxx1112basic_stringIcSt11char_traitsIcESaIcEE12_M_constructIPcEEvT_S7_St20forward_iterator_tag.isra.0+0x84>  // b.pmore
  403e78:	f9400000 	ldr	x0, [x0]
  403e7c:	f100067f 	cmp	x19, #0x1
  403e80:	54000161 	b.ne	403eac <_ZNSt7__cxx1112basic_stringIcSt11char_traitsIcESaIcEE12_M_constructIPcEEvT_S7_St20forward_iterator_tag.isra.0+0x68>  // b.any
  403e84:	39400021 	ldrb	w1, [x1]
  403e88:	39000001 	strb	w1, [x0]
  403e8c:	f9400280 	ldr	x0, [x20]
  403e90:	f9401ff3 	ldr	x19, [sp, #56]
  403e94:	f9000693 	str	x19, [x20, #8]
  403e98:	3833681f 	strb	wzr, [x0, x19]
  403e9c:	a94153f3 	ldp	x19, x20, [sp, #16]
  403ea0:	f94013f5 	ldr	x21, [sp, #32]
  403ea4:	a8c47bfd 	ldp	x29, x30, [sp], #64
  403ea8:	d65f03c0 	ret
  403eac:	b50001b3 	cbnz	x19, 403ee0 <_ZNSt7__cxx1112basic_stringIcSt11char_traitsIcESaIcEE12_M_constructIPcEEvT_S7_St20forward_iterator_tag.isra.0+0x9c>
  403eb0:	f9000693 	str	x19, [x20, #8]
  403eb4:	3833681f 	strb	wzr, [x0, x19]
  403eb8:	a94153f3 	ldp	x19, x20, [sp, #16]
  403ebc:	f94013f5 	ldr	x21, [sp, #32]
  403ec0:	a8c47bfd 	ldp	x29, x30, [sp], #64
  403ec4:	d65f03c0 	ret
  403ec8:	9100e3e1 	add	x1, sp, #0x38
  403ecc:	d2800002 	mov	x2, #0x0                   	// #0
  403ed0:	97fff898 	bl	402130 <_ZNSt7__cxx1112basic_stringIcSt11char_traitsIcESaIcEE9_M_createERmm@plt>
  403ed4:	f9000280 	str	x0, [x20]
  403ed8:	f9401fe1 	ldr	x1, [sp, #56]
  403edc:	f9000a81 	str	x1, [x20, #16]
  403ee0:	aa1303e2 	mov	x2, x19
  403ee4:	aa1503e1 	mov	x1, x21
  403ee8:	97fff7c6 	bl	401e00 <memcpy@plt>
  403eec:	f9400280 	ldr	x0, [x20]
  403ef0:	f9401ff3 	ldr	x19, [sp, #56]
  403ef4:	f9000693 	str	x19, [x20, #8]
  403ef8:	3833681f 	strb	wzr, [x0, x19]
  403efc:	a94153f3 	ldp	x19, x20, [sp, #16]
  403f00:	f94013f5 	ldr	x21, [sp, #32]
  403f04:	a8c47bfd 	ldp	x29, x30, [sp], #64
  403f08:	d65f03c0 	ret
  403f0c:	f0000060 	adrp	x0, 412000 <_Z19MD5Hash_simdversionPKNSt7__cxx1112basic_stringIcSt11char_traitsIcESaIcEEEP12__Uint32x4_t+0x1000>
  403f10:	91266000 	add	x0, x0, #0x998
  403f14:	97fff803 	bl	401f20 <_ZSt19__throw_logic_errorPKc@plt>
  403f18:	d503201f 	nop
  403f1c:	d503201f 	nop

0000000000403f20 <_ZN5model6FindPTE2PT>:
  403f20:	a941b006 	ldp	x6, x12, [x0, #24]
  403f24:	d2917462 	mov	x2, #0x8ba3                	// #35747
  403f28:	f2b745c2 	movk	x2, #0xba2e, lsl #16
  403f2c:	f2d45d02 	movk	x2, #0xa2e8, lsl #32
  403f30:	f2e5d162 	movk	x2, #0x2e8b, lsl #48
  403f34:	cb06018c 	sub	x12, x12, x6
  403f38:	9343fd8c 	asr	x12, x12, #3
  403f3c:	9b027d8c 	mul	x12, x12, x2
  403f40:	b400046c 	cbz	x12, 403fcc <_ZN5model6FindPTE2PT+0xac>
  403f44:	a9403429 	ldp	x9, x13, [x1]
  403f48:	d2800007 	mov	x7, #0x0                   	// #0
  403f4c:	cb0901ad 	sub	x13, x13, x9
  403f50:	9100112b 	add	x11, x9, #0x4
  403f54:	9344fda8 	asr	x8, x13, #4
  403f58:	9b027d08 	mul	x8, x8, x2
  403f5c:	14000005 	b	403f70 <_ZN5model6FindPTE2PT+0x50>
  403f60:	910004e7 	add	x7, x7, #0x1
  403f64:	910160c6 	add	x6, x6, #0x58
  403f68:	eb0c00ff 	cmp	x7, x12
  403f6c:	54000300 	b.eq	403fcc <_ZN5model6FindPTE2PT+0xac>  // b.none
  403f70:	a94004c5 	ldp	x5, x1, [x6]
  403f74:	2a0703e0 	mov	w0, w7
  403f78:	cb050021 	sub	x1, x1, x5
  403f7c:	eb0101bf 	cmp	x13, x1
  403f80:	54ffff01 	b.ne	403f60 <_ZN5model6FindPTE2PT+0x40>  // b.any
  403f84:	b4000228 	cbz	x8, 403fc8 <_ZN5model6FindPTE2PT+0xa8>
  403f88:	910010aa 	add	x10, x5, #0x4
  403f8c:	d2800001 	mov	x1, #0x0                   	// #0
  403f90:	d2800002 	mov	x2, #0x0                   	// #0
  403f94:	d503201f 	nop
  403f98:	b86168a4 	ldr	w4, [x5, x1]
  403f9c:	91000442 	add	x2, x2, #0x1
  403fa0:	b8616923 	ldr	w3, [x9, x1]
  403fa4:	6b03009f 	cmp	w4, w3
  403fa8:	54fffdc1 	b.ne	403f60 <_ZN5model6FindPTE2PT+0x40>  // b.any
  403fac:	b8616944 	ldr	w4, [x10, x1]
  403fb0:	b8616963 	ldr	w3, [x11, x1]
  403fb4:	9102c021 	add	x1, x1, #0xb0
  403fb8:	6b03009f 	cmp	w4, w3
  403fbc:	54fffd21 	b.ne	403f60 <_ZN5model6FindPTE2PT+0x40>  // b.any
  403fc0:	eb08005f 	cmp	x2, x8
  403fc4:	54fffea1 	b.ne	403f98 <_ZN5model6FindPTE2PT+0x78>  // b.any
  403fc8:	d65f03c0 	ret
  403fcc:	12800000 	mov	w0, #0xffffffff            	// #-1
  403fd0:	d65f03c0 	ret

0000000000403fd4 <_ZN5model10FindLetterE7segment>:
  403fd4:	a9431002 	ldp	x2, x4, [x0, #48]
  403fd8:	d2917463 	mov	x3, #0x8ba3                	// #35747
  403fdc:	f2b745c3 	movk	x3, #0xba2e, lsl #16
  403fe0:	f2d45d03 	movk	x3, #0xa2e8, lsl #32
  403fe4:	f2e5d163 	movk	x3, #0x2e8b, lsl #48
  403fe8:	cb020084 	sub	x4, x4, x2
  403fec:	9344fc84 	asr	x4, x4, #4
  403ff0:	9b037c84 	mul	x4, x4, x3
  403ff4:	b40001c4 	cbz	x4, 40402c <_ZN5model10FindLetterE7segment+0x58>
  403ff8:	b9400425 	ldr	w5, [x1, #4]
  403ffc:	91001042 	add	x2, x2, #0x4
  404000:	d2800001 	mov	x1, #0x0                   	// #0
  404004:	14000003 	b	404010 <_ZN5model10FindLetterE7segment+0x3c>
  404008:	eb04003f 	cmp	x1, x4
  40400c:	54000100 	b.eq	40402c <_ZN5model10FindLetterE7segment+0x58>  // b.none
  404010:	b9400043 	ldr	w3, [x2]
  404014:	2a0103e0 	mov	w0, w1
  404018:	9102c042 	add	x2, x2, #0xb0
  40401c:	91000421 	add	x1, x1, #0x1
  404020:	6b05007f 	cmp	w3, w5
  404024:	54ffff21 	b.ne	404008 <_ZN5model10FindLetterE7segment+0x34>  // b.any
  404028:	d65f03c0 	ret
  40402c:	12800000 	mov	w0, #0xffffffff            	// #-1
  404030:	d65f03c0 	ret

0000000000404034 <_ZN5model9FindDigitE7segment>:
  404034:	a9449002 	ldp	x2, x4, [x0, #72]
  404038:	d2917463 	mov	x3, #0x8ba3                	// #35747
  40403c:	f2b745c3 	movk	x3, #0xba2e, lsl #16
  404040:	f2d45d03 	movk	x3, #0xa2e8, lsl #32
  404044:	f2e5d163 	movk	x3, #0x2e8b, lsl #48
  404048:	cb020084 	sub	x4, x4, x2
  40404c:	9344fc84 	asr	x4, x4, #4
  404050:	9b037c84 	mul	x4, x4, x3
  404054:	b40001c4 	cbz	x4, 40408c <_ZN5model9FindDigitE7segment+0x58>
  404058:	b9400425 	ldr	w5, [x1, #4]
  40405c:	91001042 	add	x2, x2, #0x4
  404060:	d2800001 	mov	x1, #0x0                   	// #0
  404064:	14000003 	b	404070 <_ZN5model9FindDigitE7segment+0x3c>
  404068:	eb04003f 	cmp	x1, x4
  40406c:	54000100 	b.eq	40408c <_ZN5model9FindDigitE7segment+0x58>  // b.none
  404070:	b9400043 	ldr	w3, [x2]
  404074:	2a0103e0 	mov	w0, w1
  404078:	9102c042 	add	x2, x2, #0xb0
  40407c:	91000421 	add	x1, x1, #0x1
  404080:	6b05007f 	cmp	w3, w5
  404084:	54ffff21 	b.ne	404068 <_ZN5model9FindDigitE7segment+0x34>  // b.any
  404088:	d65f03c0 	ret
  40408c:	12800000 	mov	w0, #0xffffffff            	// #-1
  404090:	d65f03c0 	ret

0000000000404094 <_ZN5model10FindSymbolE7segment>:
  404094:	a9461002 	ldp	x2, x4, [x0, #96]
  404098:	d2917463 	mov	x3, #0x8ba3                	// #35747
  40409c:	f2b745c3 	movk	x3, #0xba2e, lsl #16
  4040a0:	f2d45d03 	movk	x3, #0xa2e8, lsl #32
  4040a4:	f2e5d163 	movk	x3, #0x2e8b, lsl #48
  4040a8:	cb020084 	sub	x4, x4, x2
  4040ac:	9344fc84 	asr	x4, x4, #4
  4040b0:	9b037c84 	mul	x4, x4, x3
  4040b4:	b40001c4 	cbz	x4, 4040ec <_ZN5model10FindSymbolE7segment+0x58>
  4040b8:	b9400425 	ldr	w5, [x1, #4]
  4040bc:	91001042 	add	x2, x2, #0x4
  4040c0:	d2800001 	mov	x1, #0x0                   	// #0
  4040c4:	14000003 	b	4040d0 <_ZN5model10FindSymbolE7segment+0x3c>
  4040c8:	eb04003f 	cmp	x1, x4
  4040cc:	54000100 	b.eq	4040ec <_ZN5model10FindSymbolE7segment+0x58>  // b.none
  4040d0:	b9400043 	ldr	w3, [x2]
  4040d4:	2a0103e0 	mov	w0, w1
  4040d8:	9102c042 	add	x2, x2, #0xb0
  4040dc:	91000421 	add	x1, x1, #0x1
  4040e0:	6b05007f 	cmp	w3, w5
  4040e4:	54ffff21 	b.ne	4040c8 <_ZN5model10FindSymbolE7segment+0x34>  // b.any
  4040e8:	d65f03c0 	ret
  4040ec:	12800000 	mov	w0, #0xffffffff            	// #-1
  4040f0:	d65f03c0 	ret

00000000004040f4 <_ZN7segment8PrintSegEv>:
  4040f4:	a9be7bfd 	stp	x29, x30, [sp, #-32]!
  4040f8:	910003fd 	mov	x29, sp
  4040fc:	a90153f3 	stp	x19, x20, [sp, #16]
  404100:	aa0003f3 	mov	x19, x0
  404104:	b9400000 	ldr	w0, [x0]
  404108:	7100041f 	cmp	w0, #0x1
  40410c:	54000100 	b.eq	40412c <_ZN7segment8PrintSegEv+0x38>  // b.none
  404110:	7100081f 	cmp	w0, #0x2
  404114:	54000260 	b.eq	404160 <_ZN7segment8PrintSegEv+0x6c>  // b.none
  404118:	71000c1f 	cmp	w0, #0x3
  40411c:	540003c0 	b.eq	404194 <_ZN7segment8PrintSegEv+0xa0>  // b.none
  404120:	a94153f3 	ldp	x19, x20, [sp, #16]
  404124:	a8c27bfd 	ldp	x29, x30, [sp], #32
  404128:	d65f03c0 	ret
  40412c:	90000174 	adrp	x20, 430000 <_Znam@GLIBCXX_3.4>
  404130:	91080294 	add	x20, x20, #0x200
  404134:	d2800022 	mov	x2, #0x1                   	// #1
  404138:	aa1403e0 	mov	x0, x20
  40413c:	d0000061 	adrp	x1, 412000 <_Z19MD5Hash_simdversionPKNSt7__cxx1112basic_stringIcSt11char_traitsIcESaIcEEEP12__Uint32x4_t+0x1000>
  404140:	91348021 	add	x1, x1, #0xd20
  404144:	97fff79f 	bl	401fc0 <_ZSt16__ostream_insertIcSt11char_traitsIcEERSt13basic_ostreamIT_T0_ES6_PKS3_l@plt>
  404148:	b9400661 	ldr	w1, [x19, #4]
  40414c:	aa1403e0 	mov	x0, x20
  404150:	97fff7f0 	bl	402110 <_ZNSolsEi@plt>
  404154:	b9400260 	ldr	w0, [x19]
  404158:	7100081f 	cmp	w0, #0x2
  40415c:	54fffde1 	b.ne	404118 <_ZN7segment8PrintSegEv+0x24>  // b.any
  404160:	90000174 	adrp	x20, 430000 <_Znam@GLIBCXX_3.4>
  404164:	91080294 	add	x20, x20, #0x200
  404168:	d2800022 	mov	x2, #0x1                   	// #1
  40416c:	aa1403e0 	mov	x0, x20
  404170:	d0000061 	adrp	x1, 412000 <_Z19MD5Hash_simdversionPKNSt7__cxx1112basic_stringIcSt11char_traitsIcESaIcEEEP12__Uint32x4_t+0x1000>
  404174:	9134a021 	add	x1, x1, #0xd28
  404178:	97fff792 	bl	401fc0 <_ZSt16__ostream_insertIcSt11char_traitsIcEERSt13basic_ostreamIT_T0_ES6_PKS3_l@plt>
  40417c:	b9400661 	ldr	w1, [x19, #4]
  404180:	aa1403e0 	mov	x0, x20
  404184:	97fff7e3 	bl	402110 <_ZNSolsEi@plt>
  404188:	b9400260 	ldr	w0, [x19]
  40418c:	71000c1f 	cmp	w0, #0x3
  404190:	54fffc81 	b.ne	404120 <_ZN7segment8PrintSegEv+0x2c>  // b.any
  404194:	90000174 	adrp	x20, 430000 <_Znam@GLIBCXX_3.4>
  404198:	91080294 	add	x20, x20, #0x200
  40419c:	aa1403e0 	mov	x0, x20
  4041a0:	d2800022 	mov	x2, #0x1                   	// #1
  4041a4:	d0000061 	adrp	x1, 412000 <_Z19MD5Hash_simdversionPKNSt7__cxx1112basic_stringIcSt11char_traitsIcESaIcEEEP12__Uint32x4_t+0x1000>
  4041a8:	9134c021 	add	x1, x1, #0xd30
  4041ac:	97fff785 	bl	401fc0 <_ZSt16__ostream_insertIcSt11char_traitsIcEERSt13basic_ostreamIT_T0_ES6_PKS3_l@plt>
  4041b0:	b9400661 	ldr	w1, [x19, #4]
  4041b4:	aa1403e0 	mov	x0, x20
  4041b8:	a94153f3 	ldp	x19, x20, [sp, #16]
  4041bc:	a8c27bfd 	ldp	x29, x30, [sp], #32
  4041c0:	17fff7d4 	b	402110 <_ZNSolsEi@plt>

00000000004041c4 <_ZN2PTaSEOS_.isra.0>:
  4041c4:	a9bb7bfd 	stp	x29, x30, [sp, #-80]!
  4041c8:	910003fd 	mov	x29, sp
  4041cc:	a9025bf5 	stp	x21, x22, [sp, #32]
  4041d0:	aa0003f5 	mov	x21, x0
  4041d4:	aa0103f6 	mov	x22, x1
  4041d8:	a90363f7 	stp	x23, x24, [sp, #48]
  4041dc:	a9046bf9 	stp	x25, x26, [sp, #64]
  4041e0:	a940e6b7 	ldp	x23, x25, [x21, #8]
  4041e4:	f9400018 	ldr	x24, [x0]
  4041e8:	f9400020 	ldr	x0, [x1]
  4041ec:	f90002a0 	str	x0, [x21]
  4041f0:	f9400420 	ldr	x0, [x1, #8]
  4041f4:	f90006a0 	str	x0, [x21, #8]
  4041f8:	f9400820 	ldr	x0, [x1, #16]
  4041fc:	f9000aa0 	str	x0, [x21, #16]
  404200:	a9007c3f 	stp	xzr, xzr, [x1]
  404204:	f900083f 	str	xzr, [x1, #16]
  404208:	eb17031f 	cmp	x24, x23
  40420c:	54000720 	b.eq	4042f0 <_ZN2PTaSEOS_.isra.0+0x12c>  // b.none
  404210:	a90153f3 	stp	x19, x20, [sp, #16]
  404214:	aa1803f4 	mov	x20, x24
  404218:	f9404693 	ldr	x19, [x20, #136]
  40421c:	b40000d3 	cbz	x19, 404234 <_ZN2PTaSEOS_.isra.0+0x70>
  404220:	aa1303e0 	mov	x0, x19
  404224:	d2800201 	mov	x1, #0x10                  	// #16
  404228:	f9400273 	ldr	x19, [x19]
  40422c:	97fff759 	bl	401f90 <_ZdlPvm@plt>
  404230:	b5ffff93 	cbnz	x19, 404220 <_ZN2PTaSEOS_.isra.0+0x5c>
  404234:	a9478a80 	ldp	x0, x2, [x20, #120]
  404238:	52800001 	mov	w1, #0x0                   	// #0
  40423c:	d37df042 	lsl	x2, x2, #3
  404240:	97fff72c 	bl	401ef0 <memset@plt>
  404244:	a9478680 	ldp	x0, x1, [x20, #120]
  404248:	9102a282 	add	x2, x20, #0xa8
  40424c:	a908fe9f 	stp	xzr, xzr, [x20, #136]
  404250:	eb02001f 	cmp	x0, x2
  404254:	54000060 	b.eq	404260 <_ZN2PTaSEOS_.isra.0+0x9c>  // b.none
  404258:	d37df021 	lsl	x1, x1, #3
  40425c:	97fff74d 	bl	401f90 <_ZdlPvm@plt>
  404260:	91010280 	add	x0, x20, #0x40
  404264:	94001797 	bl	40a0c0 <_ZNSt10_HashtableINSt7__cxx1112basic_stringIcSt11char_traitsIcESaIcEEESt4pairIKS5_iESaIS8_ENSt8__detail10_Select1stESt8equal_toIS5_ESt4hashIS5_ENSA_18_Mod_range_hashingENSA_20_Default_ranged_hashENSA_20_Prime_rehash_policyENSA_17_Hashtable_traitsILb1ELb0ELb1EEEE5clearEv>
  404268:	a9440680 	ldp	x0, x1, [x20, #64]
  40426c:	9101c282 	add	x2, x20, #0x70
  404270:	eb02001f 	cmp	x0, x2
  404274:	54000060 	b.eq	404280 <_ZN2PTaSEOS_.isra.0+0xbc>  // b.none
  404278:	d37df021 	lsl	x1, x1, #3
  40427c:	97fff745 	bl	401f90 <_ZdlPvm@plt>
  404280:	f9401280 	ldr	x0, [x20, #32]
  404284:	b4000080 	cbz	x0, 404294 <_ZN2PTaSEOS_.isra.0+0xd0>
  404288:	f9401a81 	ldr	x1, [x20, #48]
  40428c:	cb000021 	sub	x1, x1, x0
  404290:	97fff740 	bl	401f90 <_ZdlPvm@plt>
  404294:	a940ea93 	ldp	x19, x26, [x20, #8]
  404298:	eb1a027f 	cmp	x19, x26
  40429c:	54000180 	b.eq	4042cc <_ZN2PTaSEOS_.isra.0+0x108>  // b.none
  4042a0:	aa1303e2 	mov	x2, x19
  4042a4:	f8410440 	ldr	x0, [x2], #16
  4042a8:	eb02001f 	cmp	x0, x2
  4042ac:	54000080 	b.eq	4042bc <_ZN2PTaSEOS_.isra.0+0xf8>  // b.none
  4042b0:	f9400a61 	ldr	x1, [x19, #16]
  4042b4:	91000421 	add	x1, x1, #0x1
  4042b8:	97fff736 	bl	401f90 <_ZdlPvm@plt>
  4042bc:	91008273 	add	x19, x19, #0x20
  4042c0:	eb13035f 	cmp	x26, x19
  4042c4:	54fffee1 	b.ne	4042a0 <_ZN2PTaSEOS_.isra.0+0xdc>  // b.any
  4042c8:	f940069a 	ldr	x26, [x20, #8]
  4042cc:	b40000ba 	cbz	x26, 4042e0 <_ZN2PTaSEOS_.isra.0+0x11c>
  4042d0:	f9400e81 	ldr	x1, [x20, #24]
  4042d4:	aa1a03e0 	mov	x0, x26
  4042d8:	cb1a0021 	sub	x1, x1, x26
  4042dc:	97fff72d 	bl	401f90 <_ZdlPvm@plt>
  4042e0:	9102c294 	add	x20, x20, #0xb0
  4042e4:	eb1402ff 	cmp	x23, x20
  4042e8:	54fff981 	b.ne	404218 <_ZN2PTaSEOS_.isra.0+0x54>  // b.any
  4042ec:	a94153f3 	ldp	x19, x20, [sp, #16]
  4042f0:	b4000098 	cbz	x24, 404300 <_ZN2PTaSEOS_.isra.0+0x13c>
  4042f4:	cb180321 	sub	x1, x25, x24
  4042f8:	aa1803e0 	mov	x0, x24
  4042fc:	97fff725 	bl	401f90 <_ZdlPvm@plt>
  404300:	b9401ac0 	ldr	w0, [x22, #24]
  404304:	a94216c6 	ldp	x6, x5, [x22, #32]
  404308:	f9401ac4 	ldr	x4, [x22, #48]
  40430c:	b9001aa0 	str	w0, [x21, #24]
  404310:	f94012a0 	ldr	x0, [x21, #32]
  404314:	f90012a6 	str	x6, [x21, #32]
  404318:	f9401aa1 	ldr	x1, [x21, #48]
  40431c:	a90292a5 	stp	x5, x4, [x21, #40]
  404320:	a9027edf 	stp	xzr, xzr, [x22, #32]
  404324:	f9001adf 	str	xzr, [x22, #48]
  404328:	b4000060 	cbz	x0, 404334 <_ZN2PTaSEOS_.isra.0+0x170>
  40432c:	cb000021 	sub	x1, x1, x0
  404330:	97fff718 	bl	401f90 <_ZdlPvm@plt>
  404334:	a94396c6 	ldp	x6, x5, [x22, #56]
  404338:	f9401ea0 	ldr	x0, [x21, #56]
  40433c:	f94026c4 	ldr	x4, [x22, #72]
  404340:	a90396a6 	stp	x6, x5, [x21, #56]
  404344:	f94026a1 	ldr	x1, [x21, #72]
  404348:	f90026a4 	str	x4, [x21, #72]
  40434c:	a903fedf 	stp	xzr, xzr, [x22, #56]
  404350:	f90026df 	str	xzr, [x22, #72]
  404354:	b4000060 	cbz	x0, 404360 <_ZN2PTaSEOS_.isra.0+0x19c>
  404358:	cb000021 	sub	x1, x1, x0
  40435c:	97fff70d 	bl	401f90 <_ZdlPvm@plt>
  404360:	2d4a02c1 	ldp	s1, s0, [x22, #80]
  404364:	a94363f7 	ldp	x23, x24, [sp, #48]
  404368:	a9446bf9 	ldp	x25, x26, [sp, #64]
  40436c:	2d0a02a1 	stp	s1, s0, [x21, #80]
  404370:	a9425bf5 	ldp	x21, x22, [sp, #32]
  404374:	a8c57bfd 	ldp	x29, x30, [sp], #80
  404378:	d65f03c0 	ret
  40437c:	d503201f 	nop

0000000000404380 <_ZN2PT7PrintPTEv>:
  404380:	a9b07bfd 	stp	x29, x30, [sp, #-256]!
  404384:	910003fd 	mov	x29, sp
  404388:	a90153f3 	stp	x19, x20, [sp, #16]
  40438c:	a9025bf5 	stp	x21, x22, [sp, #32]
  404390:	a9405414 	ldp	x20, x21, [x0]
  404394:	eb15029f 	cmp	x20, x21
  404398:	54000860 	b.eq	4044a4 <_ZN2PT7PrintPTEv+0x124>  // b.none
  40439c:	910143e1 	add	x1, sp, #0x50
  4043a0:	a90363f7 	stp	x23, x24, [sp, #48]
  4043a4:	9101c036 	add	x22, x1, #0x70
  4043a8:	9103e3f8 	add	x24, sp, #0xf8
  4043ac:	91010037 	add	x23, x1, #0x40
  4043b0:	f90023f9 	str	x25, [sp, #64]
  4043b4:	d503201f 	nop
  4043b8:	aa1403e1 	mov	x1, x20
  4043bc:	910143e0 	add	x0, sp, #0x50
  4043c0:	94001808 	bl	40a3e0 <_ZN7segmentC1ERKS_>
  4043c4:	910143e0 	add	x0, sp, #0x50
  4043c8:	97ffff4b 	bl	4040f4 <_ZN7segment8PrintSegEv>
  4043cc:	f9406ff3 	ldr	x19, [sp, #216]
  4043d0:	b40000f3 	cbz	x19, 4043ec <_ZN2PT7PrintPTEv+0x6c>
  4043d4:	d503201f 	nop
  4043d8:	aa1303e0 	mov	x0, x19
  4043dc:	d2800201 	mov	x1, #0x10                  	// #16
  4043e0:	f9400273 	ldr	x19, [x19]
  4043e4:	97fff6eb 	bl	401f90 <_ZdlPvm@plt>
  4043e8:	b5ffff93 	cbnz	x19, 4043d8 <_ZN2PT7PrintPTEv+0x58>
  4043ec:	a94c8be0 	ldp	x0, x2, [sp, #200]
  4043f0:	52800001 	mov	w1, #0x0                   	// #0
  4043f4:	d37df042 	lsl	x2, x2, #3
  4043f8:	97fff6be 	bl	401ef0 <memset@plt>
  4043fc:	a94c87e0 	ldp	x0, x1, [sp, #200]
  404400:	a90dffff 	stp	xzr, xzr, [sp, #216]
  404404:	eb18001f 	cmp	x0, x24
  404408:	54000060 	b.eq	404414 <_ZN2PT7PrintPTEv+0x94>  // b.none
  40440c:	d37df021 	lsl	x1, x1, #3
  404410:	97fff6e0 	bl	401f90 <_ZdlPvm@plt>
  404414:	aa1703e0 	mov	x0, x23
  404418:	9400172a 	bl	40a0c0 <_ZNSt10_HashtableINSt7__cxx1112basic_stringIcSt11char_traitsIcESaIcEEESt4pairIKS5_iESaIS8_ENSt8__detail10_Select1stESt8equal_toIS5_ESt4hashIS5_ENSA_18_Mod_range_hashingENSA_20_Default_ranged_hashENSA_20_Prime_rehash_policyENSA_17_Hashtable_traitsILb1ELb0ELb1EEEE5clearEv>
  40441c:	a94907e0 	ldp	x0, x1, [sp, #144]
  404420:	eb16001f 	cmp	x0, x22
  404424:	54000060 	b.eq	404430 <_ZN2PT7PrintPTEv+0xb0>  // b.none
  404428:	d37df021 	lsl	x1, x1, #3
  40442c:	97fff6d9 	bl	401f90 <_ZdlPvm@plt>
  404430:	f9403be0 	ldr	x0, [sp, #112]
  404434:	b4000080 	cbz	x0, 404444 <_ZN2PT7PrintPTEv+0xc4>
  404438:	f94043e1 	ldr	x1, [sp, #128]
  40443c:	cb000021 	sub	x1, x1, x0
  404440:	97fff6d4 	bl	401f90 <_ZdlPvm@plt>
  404444:	a945e7f3 	ldp	x19, x25, [sp, #88]
  404448:	eb19027f 	cmp	x19, x25
  40444c:	54000180 	b.eq	40447c <_ZN2PT7PrintPTEv+0xfc>  // b.none
  404450:	aa1303e1 	mov	x1, x19
  404454:	f8410420 	ldr	x0, [x1], #16
  404458:	eb01001f 	cmp	x0, x1
  40445c:	54000080 	b.eq	40446c <_ZN2PT7PrintPTEv+0xec>  // b.none
  404460:	f9400a61 	ldr	x1, [x19, #16]
  404464:	91000421 	add	x1, x1, #0x1
  404468:	97fff6ca 	bl	401f90 <_ZdlPvm@plt>
  40446c:	91008273 	add	x19, x19, #0x20
  404470:	eb13033f 	cmp	x25, x19
  404474:	54fffee1 	b.ne	404450 <_ZN2PT7PrintPTEv+0xd0>  // b.any
  404478:	f9402ff9 	ldr	x25, [sp, #88]
  40447c:	b40000b9 	cbz	x25, 404490 <_ZN2PT7PrintPTEv+0x110>
  404480:	f94037e1 	ldr	x1, [sp, #104]
  404484:	aa1903e0 	mov	x0, x25
  404488:	cb190021 	sub	x1, x1, x25
  40448c:	97fff6c1 	bl	401f90 <_ZdlPvm@plt>
  404490:	9102c294 	add	x20, x20, #0xb0
  404494:	eb1402bf 	cmp	x21, x20
  404498:	54fff901 	b.ne	4043b8 <_ZN2PT7PrintPTEv+0x38>  // b.any
  40449c:	a94363f7 	ldp	x23, x24, [sp, #48]
  4044a0:	f94023f9 	ldr	x25, [sp, #64]
  4044a4:	a94153f3 	ldp	x19, x20, [sp, #16]
  4044a8:	a9425bf5 	ldp	x21, x22, [sp, #32]
  4044ac:	a8d07bfd 	ldp	x29, x30, [sp], #256
  4044b0:	d65f03c0 	ret
  4044b4:	aa0003f3 	mov	x19, x0
  4044b8:	910143e0 	add	x0, sp, #0x50
  4044bc:	94001721 	bl	40a140 <_ZN7segmentD1Ev>
  4044c0:	aa1303e0 	mov	x0, x19
  4044c4:	97fff717 	bl	402120 <_Unwind_Resume@plt>
  4044c8:	d503201f 	nop
  4044cc:	d503201f 	nop

00000000004044d0 <_ZN2PT6insertE7segment>:
  4044d0:	a9409003 	ldp	x3, x4, [x0, #8]
  4044d4:	eb04007f 	cmp	x3, x4
  4044d8:	540001a0 	b.eq	40450c <_ZN2PT6insertE7segment+0x3c>  // b.none
  4044dc:	a9be7bfd 	stp	x29, x30, [sp, #-32]!
  4044e0:	910003fd 	mov	x29, sp
  4044e4:	f9000bf3 	str	x19, [sp, #16]
  4044e8:	aa0003f3 	mov	x19, x0
  4044ec:	aa0303e0 	mov	x0, x3
  4044f0:	940017bc 	bl	40a3e0 <_ZN7segmentC1ERKS_>
  4044f4:	f9400660 	ldr	x0, [x19, #8]
  4044f8:	9102c000 	add	x0, x0, #0xb0
  4044fc:	f9000660 	str	x0, [x19, #8]
  404500:	f9400bf3 	ldr	x19, [sp, #16]
  404504:	a8c27bfd 	ldp	x29, x30, [sp], #32
  404508:	d65f03c0 	ret
  40450c:	aa0103e2 	mov	x2, x1
  404510:	aa0303e1 	mov	x1, x3
  404514:	14001953 	b	40aa60 <_ZNSt6vectorI7segmentSaIS0_EE17_M_realloc_insertIJRS0_EEEvN9__gnu_cxx17__normal_iteratorIPS0_S2_EEDpOT_>
  404518:	d503201f 	nop
  40451c:	d503201f 	nop

0000000000404520 <_ZSt25__unguarded_linear_insertIN9__gnu_cxx17__normal_iteratorIPNSt7__cxx1112basic_stringIcSt11char_traitsIcESaIcEEESt6vectorIS7_SaIS7_EEEENS0_5__ops14_Val_comp_iterIZN7segment5orderEvEUlRKS7_SH_E_EEEvT_T0_>:
  404520:	a9ba7bfd 	stp	x29, x30, [sp, #-96]!
  404524:	aa0003e2 	mov	x2, x0
  404528:	910143e3 	add	x3, sp, #0x50
  40452c:	910003fd 	mov	x29, sp
  404530:	f90023e3 	str	x3, [sp, #64]
  404534:	f8410443 	ldr	x3, [x2], #16
  404538:	a90153f3 	stp	x19, x20, [sp, #16]
  40453c:	a9025bf5 	stp	x21, x22, [sp, #32]
  404540:	a90363f7 	stp	x23, x24, [sp, #48]
  404544:	eb03005f 	cmp	x2, x3
  404548:	54000ca0 	b.eq	4046dc <_ZSt25__unguarded_linear_insertIN9__gnu_cxx17__normal_iteratorIPNSt7__cxx1112basic_stringIcSt11char_traitsIcESaIcEEESt6vectorIS7_SaIS7_EEEENS0_5__ops14_Val_comp_iterIZN7segment5orderEvEUlRKS7_SH_E_EEEvT_T0_+0x1bc>  // b.none
  40454c:	f9400804 	ldr	x4, [x0, #16]
  404550:	f90023e3 	str	x3, [sp, #64]
  404554:	f9002be4 	str	x4, [sp, #80]
  404558:	91010036 	add	x22, x1, #0x40
  40455c:	9101e034 	add	x20, x1, #0x78
  404560:	f9400401 	ldr	x1, [x0, #8]
  404564:	aa0203f5 	mov	x21, x2
  404568:	d1004013 	sub	x19, x0, #0x10
  40456c:	a9007c02 	stp	x2, xzr, [x0]
  404570:	3900401f 	strb	wzr, [x0, #16]
  404574:	f90027e1 	str	x1, [sp, #72]
  404578:	1400000e 	b	4045b0 <_ZSt25__unguarded_linear_insertIN9__gnu_cxx17__normal_iteratorIPNSt7__cxx1112basic_stringIcSt11char_traitsIcESaIcEEESt6vectorIS7_SaIS7_EEEENS0_5__ops14_Val_comp_iterIZN7segment5orderEvEUlRKS7_SH_E_EEEvT_T0_+0x90>
  40457c:	a9010a60 	stp	x0, x2, [x19, #16]
  404580:	f9400261 	ldr	x1, [x19]
  404584:	eb0302bf 	cmp	x21, x3
  404588:	540005a0 	b.eq	40463c <_ZSt25__unguarded_linear_insertIN9__gnu_cxx17__normal_iteratorIPNSt7__cxx1112basic_stringIcSt11char_traitsIcESaIcEEESt6vectorIS7_SaIS7_EEEENS0_5__ops14_Val_comp_iterIZN7segment5orderEvEUlRKS7_SH_E_EEEvT_T0_+0x11c>  // b.none
  40458c:	f9401260 	ldr	x0, [x19, #32]
  404590:	f9001261 	str	x1, [x19, #32]
  404594:	b4000563 	cbz	x3, 404640 <_ZSt25__unguarded_linear_insertIN9__gnu_cxx17__normal_iteratorIPNSt7__cxx1112basic_stringIcSt11char_traitsIcESaIcEEESt6vectorIS7_SaIS7_EEEENS0_5__ops14_Val_comp_iterIZN7segment5orderEvEUlRKS7_SH_E_EEEvT_T0_+0x120>
  404598:	f81f0263 	stur	x3, [x19, #-16]
  40459c:	f9000260 	str	x0, [x19]
  4045a0:	d10082b5 	sub	x21, x21, #0x20
  4045a4:	d1008273 	sub	x19, x19, #0x20
  4045a8:	f9000e7f 	str	xzr, [x19, #24]
  4045ac:	3900007f 	strb	wzr, [x3]
  4045b0:	d1004277 	sub	x23, x19, #0x10
  4045b4:	91004278 	add	x24, x19, #0x10
  4045b8:	910103e1 	add	x1, sp, #0x40
  4045bc:	aa1603e0 	mov	x0, x22
  4045c0:	94001d24 	bl	40ba50 <_ZNSt8__detail9_Map_baseINSt7__cxx1112basic_stringIcSt11char_traitsIcESaIcEEESt4pairIKS6_iESaIS9_ENS_10_Select1stESt8equal_toIS6_ESt4hashIS6_ENS_18_Mod_range_hashingENS_20_Default_ranged_hashENS_20_Prime_rehash_policyENS_17_Hashtable_traitsILb1ELb0ELb1EEELb1EEixERS8_>
  4045c4:	aa0003e1 	mov	x1, x0
  4045c8:	aa1403e0 	mov	x0, x20
  4045cc:	94001af1 	bl	40b190 <_ZNSt8__detail9_Map_baseIiSt4pairIKiiESaIS3_ENS_10_Select1stESt8equal_toIiESt4hashIiENS_18_Mod_range_hashingENS_20_Default_ranged_hashENS_20_Prime_rehash_policyENS_17_Hashtable_traitsILb0ELb0ELb1EEELb1EE2atERS2_>
  4045d0:	aa0003e2 	mov	x2, x0
  4045d4:	aa1703e1 	mov	x1, x23
  4045d8:	aa1603e0 	mov	x0, x22
  4045dc:	b9400057 	ldr	w23, [x2]
  4045e0:	94001d1c 	bl	40ba50 <_ZNSt8__detail9_Map_baseINSt7__cxx1112basic_stringIcSt11char_traitsIcESaIcEEESt4pairIKS6_iESaIS9_ENS_10_Select1stESt8equal_toIS6_ESt4hashIS6_ENS_18_Mod_range_hashingENS_20_Default_ranged_hashENS_20_Prime_rehash_policyENS_17_Hashtable_traitsILb1ELb0ELb1EEELb1EEixERS8_>
  4045e4:	aa0003e1 	mov	x1, x0
  4045e8:	aa1403e0 	mov	x0, x20
  4045ec:	94001ae9 	bl	40b190 <_ZNSt8__detail9_Map_baseIiSt4pairIKiiESaIS3_ENS_10_Select1stESt8equal_toIiESt4hashIiENS_18_Mod_range_hashingENS_20_Default_ranged_hashENS_20_Prime_rehash_policyENS_17_Hashtable_traitsILb0ELb0ELb1EEELb1EE2atERS2_>
  4045f0:	b9400000 	ldr	w0, [x0]
  4045f4:	f9400a63 	ldr	x3, [x19, #16]
  4045f8:	6b0002ff 	cmp	w23, w0
  4045fc:	5400028d 	b.le	40464c <_ZSt25__unguarded_linear_insertIN9__gnu_cxx17__normal_iteratorIPNSt7__cxx1112basic_stringIcSt11char_traitsIcESaIcEEESt6vectorIS7_SaIS7_EEEENS0_5__ops14_Val_comp_iterIZN7segment5orderEvEUlRKS7_SH_E_EEEvT_T0_+0x12c>
  404600:	a97f0a60 	ldp	x0, x2, [x19, #-16]
  404604:	eb13001f 	cmp	x0, x19
  404608:	54fffba1 	b.ne	40457c <_ZSt25__unguarded_linear_insertIN9__gnu_cxx17__normal_iteratorIPNSt7__cxx1112basic_stringIcSt11char_traitsIcESaIcEEESt6vectorIS7_SaIS7_EEEENS0_5__ops14_Val_comp_iterIZN7segment5orderEvEUlRKS7_SH_E_EEEvT_T0_+0x5c>  // b.any
  40460c:	b4000102 	cbz	x2, 40462c <_ZSt25__unguarded_linear_insertIN9__gnu_cxx17__normal_iteratorIPNSt7__cxx1112basic_stringIcSt11char_traitsIcESaIcEEESt6vectorIS7_SaIS7_EEEENS0_5__ops14_Val_comp_iterIZN7segment5orderEvEUlRKS7_SH_E_EEEvT_T0_+0x10c>
  404610:	f100045f 	cmp	x2, #0x1
  404614:	540005a0 	b.eq	4046c8 <_ZSt25__unguarded_linear_insertIN9__gnu_cxx17__normal_iteratorIPNSt7__cxx1112basic_stringIcSt11char_traitsIcESaIcEEESt6vectorIS7_SaIS7_EEEENS0_5__ops14_Val_comp_iterIZN7segment5orderEvEUlRKS7_SH_E_EEEvT_T0_+0x1a8>  // b.none
  404618:	aa0303e0 	mov	x0, x3
  40461c:	aa1303e1 	mov	x1, x19
  404620:	97fff5f8 	bl	401e00 <memcpy@plt>
  404624:	f85f8262 	ldur	x2, [x19, #-8]
  404628:	f9400a63 	ldr	x3, [x19, #16]
  40462c:	f9000e62 	str	x2, [x19, #24]
  404630:	3822687f 	strb	wzr, [x3, x2]
  404634:	f85f0263 	ldur	x3, [x19, #-16]
  404638:	17ffffda 	b	4045a0 <_ZSt25__unguarded_linear_insertIN9__gnu_cxx17__normal_iteratorIPNSt7__cxx1112basic_stringIcSt11char_traitsIcESaIcEEESt6vectorIS7_SaIS7_EEEENS0_5__ops14_Val_comp_iterIZN7segment5orderEvEUlRKS7_SH_E_EEEvT_T0_+0x80>
  40463c:	f9001261 	str	x1, [x19, #32]
  404640:	aa1303e3 	mov	x3, x19
  404644:	f81f0273 	stur	x19, [x19, #-16]
  404648:	17ffffd6 	b	4045a0 <_ZSt25__unguarded_linear_insertIN9__gnu_cxx17__normal_iteratorIPNSt7__cxx1112basic_stringIcSt11char_traitsIcESaIcEEESt6vectorIS7_SaIS7_EEEENS0_5__ops14_Val_comp_iterIZN7segment5orderEvEUlRKS7_SH_E_EEEvT_T0_+0x80>
  40464c:	a9440be1 	ldp	x1, x2, [sp, #64]
  404650:	910143e0 	add	x0, sp, #0x50
  404654:	eb00003f 	cmp	x1, x0
  404658:	54000480 	b.eq	4046e8 <_ZSt25__unguarded_linear_insertIN9__gnu_cxx17__normal_iteratorIPNSt7__cxx1112basic_stringIcSt11char_traitsIcESaIcEEESt6vectorIS7_SaIS7_EEEENS0_5__ops14_Val_comp_iterIZN7segment5orderEvEUlRKS7_SH_E_EEEvT_T0_+0x1c8>  // b.none
  40465c:	a9000b01 	stp	x1, x2, [x24]
  404660:	f9402be0 	ldr	x0, [sp, #80]
  404664:	eb0302bf 	cmp	x21, x3
  404668:	54000280 	b.eq	4046b8 <_ZSt25__unguarded_linear_insertIN9__gnu_cxx17__normal_iteratorIPNSt7__cxx1112basic_stringIcSt11char_traitsIcESaIcEEESt6vectorIS7_SaIS7_EEEENS0_5__ops14_Val_comp_iterIZN7segment5orderEvEUlRKS7_SH_E_EEEvT_T0_+0x198>  // b.none
  40466c:	f9400b01 	ldr	x1, [x24, #16]
  404670:	f9000b00 	str	x0, [x24, #16]
  404674:	b4000243 	cbz	x3, 4046bc <_ZSt25__unguarded_linear_insertIN9__gnu_cxx17__normal_iteratorIPNSt7__cxx1112basic_stringIcSt11char_traitsIcESaIcEEESt6vectorIS7_SaIS7_EEEENS0_5__ops14_Val_comp_iterIZN7segment5orderEvEUlRKS7_SH_E_EEEvT_T0_+0x19c>
  404678:	f90023e3 	str	x3, [sp, #64]
  40467c:	f9002be1 	str	x1, [sp, #80]
  404680:	f90027ff 	str	xzr, [sp, #72]
  404684:	910143e1 	add	x1, sp, #0x50
  404688:	3900007f 	strb	wzr, [x3]
  40468c:	f94023e0 	ldr	x0, [sp, #64]
  404690:	eb01001f 	cmp	x0, x1
  404694:	54000080 	b.eq	4046a4 <_ZSt25__unguarded_linear_insertIN9__gnu_cxx17__normal_iteratorIPNSt7__cxx1112basic_stringIcSt11char_traitsIcESaIcEEESt6vectorIS7_SaIS7_EEEENS0_5__ops14_Val_comp_iterIZN7segment5orderEvEUlRKS7_SH_E_EEEvT_T0_+0x184>  // b.none
  404698:	f9402be1 	ldr	x1, [sp, #80]
  40469c:	91000421 	add	x1, x1, #0x1
  4046a0:	97fff63c 	bl	401f90 <_ZdlPvm@plt>
  4046a4:	a94153f3 	ldp	x19, x20, [sp, #16]
  4046a8:	a9425bf5 	ldp	x21, x22, [sp, #32]
  4046ac:	a94363f7 	ldp	x23, x24, [sp, #48]
  4046b0:	a8c67bfd 	ldp	x29, x30, [sp], #96
  4046b4:	d65f03c0 	ret
  4046b8:	f9000b00 	str	x0, [x24, #16]
  4046bc:	910143e3 	add	x3, sp, #0x50
  4046c0:	f90023e3 	str	x3, [sp, #64]
  4046c4:	17ffffef 	b	404680 <_ZSt25__unguarded_linear_insertIN9__gnu_cxx17__normal_iteratorIPNSt7__cxx1112basic_stringIcSt11char_traitsIcESaIcEEESt6vectorIS7_SaIS7_EEEENS0_5__ops14_Val_comp_iterIZN7segment5orderEvEUlRKS7_SH_E_EEEvT_T0_+0x160>
  4046c8:	39400260 	ldrb	w0, [x19]
  4046cc:	39000060 	strb	w0, [x3]
  4046d0:	f85f8262 	ldur	x2, [x19, #-8]
  4046d4:	f9400a63 	ldr	x3, [x19, #16]
  4046d8:	17ffffd5 	b	40462c <_ZSt25__unguarded_linear_insertIN9__gnu_cxx17__normal_iteratorIPNSt7__cxx1112basic_stringIcSt11char_traitsIcESaIcEEESt6vectorIS7_SaIS7_EEEENS0_5__ops14_Val_comp_iterIZN7segment5orderEvEUlRKS7_SH_E_EEEvT_T0_+0x10c>
  4046dc:	a9411404 	ldp	x4, x5, [x0, #16]
  4046e0:	a90517e4 	stp	x4, x5, [sp, #80]
  4046e4:	17ffff9d 	b	404558 <_ZSt25__unguarded_linear_insertIN9__gnu_cxx17__normal_iteratorIPNSt7__cxx1112basic_stringIcSt11char_traitsIcESaIcEEESt6vectorIS7_SaIS7_EEEENS0_5__ops14_Val_comp_iterIZN7segment5orderEvEUlRKS7_SH_E_EEEvT_T0_+0x38>
  4046e8:	b40000e2 	cbz	x2, 404704 <_ZSt25__unguarded_linear_insertIN9__gnu_cxx17__normal_iteratorIPNSt7__cxx1112basic_stringIcSt11char_traitsIcESaIcEEESt6vectorIS7_SaIS7_EEEENS0_5__ops14_Val_comp_iterIZN7segment5orderEvEUlRKS7_SH_E_EEEvT_T0_+0x1e4>
  4046ec:	f100045f 	cmp	x2, #0x1
  4046f0:	54000120 	b.eq	404714 <_ZSt25__unguarded_linear_insertIN9__gnu_cxx17__normal_iteratorIPNSt7__cxx1112basic_stringIcSt11char_traitsIcESaIcEEESt6vectorIS7_SaIS7_EEEENS0_5__ops14_Val_comp_iterIZN7segment5orderEvEUlRKS7_SH_E_EEEvT_T0_+0x1f4>  // b.none
  4046f4:	aa0303e0 	mov	x0, x3
  4046f8:	97fff5c2 	bl	401e00 <memcpy@plt>
  4046fc:	f9400303 	ldr	x3, [x24]
  404700:	f94027e2 	ldr	x2, [sp, #72]
  404704:	f9000702 	str	x2, [x24, #8]
  404708:	3822687f 	strb	wzr, [x3, x2]
  40470c:	f94023e3 	ldr	x3, [sp, #64]
  404710:	17ffffdc 	b	404680 <_ZSt25__unguarded_linear_insertIN9__gnu_cxx17__normal_iteratorIPNSt7__cxx1112basic_stringIcSt11char_traitsIcESaIcEEESt6vectorIS7_SaIS7_EEEENS0_5__ops14_Val_comp_iterIZN7segment5orderEvEUlRKS7_SH_E_EEEvT_T0_+0x160>
  404714:	394143e0 	ldrb	w0, [sp, #80]
  404718:	39000060 	strb	w0, [x3]
  40471c:	f9400303 	ldr	x3, [x24]
  404720:	f94027e2 	ldr	x2, [sp, #72]
  404724:	17fffff8 	b	404704 <_ZSt25__unguarded_linear_insertIN9__gnu_cxx17__normal_iteratorIPNSt7__cxx1112basic_stringIcSt11char_traitsIcESaIcEEESt6vectorIS7_SaIS7_EEEENS0_5__ops14_Val_comp_iterIZN7segment5orderEvEUlRKS7_SH_E_EEEvT_T0_+0x1e4>
  404728:	aa0003f3 	mov	x19, x0
  40472c:	910103e0 	add	x0, sp, #0x40
  404730:	97fff62c 	bl	401fe0 <_ZNSt7__cxx1112basic_stringIcSt11char_traitsIcESaIcEE10_M_disposeEv@plt>
  404734:	aa1303e0 	mov	x0, x19
  404738:	97fff67a 	bl	402120 <_Unwind_Resume@plt>
  40473c:	d503201f 	nop

0000000000404740 <_ZSt16__insertion_sortIN9__gnu_cxx17__normal_iteratorIPNSt7__cxx1112basic_stringIcSt11char_traitsIcESaIcEEESt6vectorIS7_SaIS7_EEEENS0_5__ops15_Iter_comp_iterIZN7segment5orderEvEUlRKS7_SH_E_EEEvT_SK_T0_>:
  404740:	eb01001f 	cmp	x0, x1
  404744:	54001420 	b.eq	4049c8 <_ZSt16__insertion_sortIN9__gnu_cxx17__normal_iteratorIPNSt7__cxx1112basic_stringIcSt11char_traitsIcESaIcEEESt6vectorIS7_SaIS7_EEEENS0_5__ops15_Iter_comp_iterIZN7segment5orderEvEUlRKS7_SH_E_EEEvT_SK_T0_+0x288>  // b.none
  404748:	a9b77bfd 	stp	x29, x30, [sp, #-144]!
  40474c:	910003fd 	mov	x29, sp
  404750:	a9025bf5 	stp	x21, x22, [sp, #32]
  404754:	aa0003f6 	mov	x22, x0
  404758:	a9046bf9 	stp	x25, x26, [sp, #64]
  40475c:	aa0103fa 	mov	x26, x1
  404760:	a90573fb 	stp	x27, x28, [sp, #80]
  404764:	9100801c 	add	x28, x0, #0x20
  404768:	eb01039f 	cmp	x28, x1
  40476c:	54000d80 	b.eq	40491c <_ZSt16__insertion_sortIN9__gnu_cxx17__normal_iteratorIPNSt7__cxx1112basic_stringIcSt11char_traitsIcESaIcEEESt6vectorIS7_SaIS7_EEEENS0_5__ops15_Iter_comp_iterIZN7segment5orderEvEUlRKS7_SH_E_EEEvT_SK_T0_+0x1dc>  // b.none
  404770:	aa0203fb 	mov	x27, x2
  404774:	91010059 	add	x25, x2, #0x40
  404778:	a90363f7 	stp	x23, x24, [sp, #48]
  40477c:	9101e058 	add	x24, x2, #0x78
  404780:	910203f7 	add	x23, sp, #0x80
  404784:	91004000 	add	x0, x0, #0x10
  404788:	a90153f3 	stp	x19, x20, [sp, #16]
  40478c:	f90037e0 	str	x0, [sp, #104]
  404790:	aa1c03e1 	mov	x1, x28
  404794:	aa1903e0 	mov	x0, x25
  404798:	94001cae 	bl	40ba50 <_ZNSt8__detail9_Map_baseINSt7__cxx1112basic_stringIcSt11char_traitsIcESaIcEEESt4pairIKS6_iESaIS9_ENS_10_Select1stESt8equal_toIS6_ESt4hashIS6_ENS_18_Mod_range_hashingENS_20_Default_ranged_hashENS_20_Prime_rehash_policyENS_17_Hashtable_traitsILb1ELb0ELb1EEELb1EEixERS8_>
  40479c:	aa0003e1 	mov	x1, x0
  4047a0:	aa1803e0 	mov	x0, x24
  4047a4:	94001a7b 	bl	40b190 <_ZNSt8__detail9_Map_baseIiSt4pairIKiiESaIS3_ENS_10_Select1stESt8equal_toIiESt4hashIiENS_18_Mod_range_hashingENS_20_Default_ranged_hashENS_20_Prime_rehash_policyENS_17_Hashtable_traitsILb0ELb0ELb1EEELb1EE2atERS2_>
  4047a8:	aa0003e2 	mov	x2, x0
  4047ac:	aa1603e1 	mov	x1, x22
  4047b0:	aa1903e0 	mov	x0, x25
  4047b4:	b9400053 	ldr	w19, [x2]
  4047b8:	94001ca6 	bl	40ba50 <_ZNSt8__detail9_Map_baseINSt7__cxx1112basic_stringIcSt11char_traitsIcESaIcEEESt4pairIKS6_iESaIS9_ENS_10_Select1stESt8equal_toIS6_ESt4hashIS6_ENS_18_Mod_range_hashingENS_20_Default_ranged_hashENS_20_Prime_rehash_policyENS_17_Hashtable_traitsILb1ELb0ELb1EEELb1EEixERS8_>
  4047bc:	aa0003e1 	mov	x1, x0
  4047c0:	aa1803e0 	mov	x0, x24
  4047c4:	94001a73 	bl	40b190 <_ZNSt8__detail9_Map_baseIiSt4pairIKiiESaIS3_ENS_10_Select1stESt8equal_toIiESt4hashIiENS_18_Mod_range_hashingENS_20_Default_ranged_hashENS_20_Prime_rehash_policyENS_17_Hashtable_traitsILb0ELb0ELb1EEELb1EE2atERS2_>
  4047c8:	b9400000 	ldr	w0, [x0]
  4047cc:	aa1c03e1 	mov	x1, x28
  4047d0:	9100839c 	add	x28, x28, #0x20
  4047d4:	6b00027f 	cmp	w19, w0
  4047d8:	54000b6d 	b.le	404944 <_ZSt16__insertion_sortIN9__gnu_cxx17__normal_iteratorIPNSt7__cxx1112basic_stringIcSt11char_traitsIcESaIcEEESt6vectorIS7_SaIS7_EEEENS0_5__ops15_Iter_comp_iterIZN7segment5orderEvEUlRKS7_SH_E_EEEvT_SK_T0_+0x204>
  4047dc:	f85e0382 	ldur	x2, [x28, #-32]
  4047e0:	d1004380 	sub	x0, x28, #0x10
  4047e4:	f9003bf7 	str	x23, [sp, #112]
  4047e8:	eb00005f 	cmp	x2, x0
  4047ec:	54000ba0 	b.eq	404960 <_ZSt16__insertion_sortIN9__gnu_cxx17__normal_iteratorIPNSt7__cxx1112basic_stringIcSt11char_traitsIcESaIcEEESt6vectorIS7_SaIS7_EEEENS0_5__ops15_Iter_comp_iterIZN7segment5orderEvEUlRKS7_SH_E_EEEvT_SK_T0_+0x220>  // b.none
  4047f0:	f85f0384 	ldur	x4, [x28, #-16]
  4047f4:	f9003be2 	str	x2, [sp, #112]
  4047f8:	f90043e4 	str	x4, [sp, #128]
  4047fc:	cb160021 	sub	x1, x1, x22
  404800:	381f039f 	sturb	wzr, [x28, #-16]
  404804:	f85e8382 	ldur	x2, [x28, #-24]
  404808:	a93e7f80 	stp	x0, xzr, [x28, #-32]
  40480c:	9345fc35 	asr	x21, x1, #5
  404810:	f9003fe2 	str	x2, [sp, #120]
  404814:	f100003f 	cmp	x1, #0x0
  404818:	540004ed 	b.le	4048b4 <_ZSt16__insertion_sortIN9__gnu_cxx17__normal_iteratorIPNSt7__cxx1112basic_stringIcSt11char_traitsIcESaIcEEESt6vectorIS7_SaIS7_EEEENS0_5__ops15_Iter_comp_iterIZN7segment5orderEvEUlRKS7_SH_E_EEEvT_SK_T0_+0x174>
  40481c:	d100c393 	sub	x19, x28, #0x30
  404820:	14000012 	b	404868 <_ZSt16__insertion_sortIN9__gnu_cxx17__normal_iteratorIPNSt7__cxx1112basic_stringIcSt11char_traitsIcESaIcEEESt6vectorIS7_SaIS7_EEEENS0_5__ops15_Iter_comp_iterIZN7segment5orderEvEUlRKS7_SH_E_EEEvT_SK_T0_+0x128>
  404824:	91008261 	add	x1, x19, #0x20
  404828:	eb01001f 	cmp	x0, x1
  40482c:	54000820 	b.eq	404930 <_ZSt16__insertion_sortIN9__gnu_cxx17__normal_iteratorIPNSt7__cxx1112basic_stringIcSt11char_traitsIcESaIcEEESt6vectorIS7_SaIS7_EEEENS0_5__ops15_Iter_comp_iterIZN7segment5orderEvEUlRKS7_SH_E_EEEvT_SK_T0_+0x1f0>  // b.none
  404830:	f9400264 	ldr	x4, [x19]
  404834:	a9010a74 	stp	x20, x2, [x19, #16]
  404838:	f9401261 	ldr	x1, [x19, #32]
  40483c:	f9001264 	str	x4, [x19, #32]
  404840:	b40007e0 	cbz	x0, 40493c <_ZSt16__insertion_sortIN9__gnu_cxx17__normal_iteratorIPNSt7__cxx1112basic_stringIcSt11char_traitsIcESaIcEEESt6vectorIS7_SaIS7_EEEENS0_5__ops15_Iter_comp_iterIZN7segment5orderEvEUlRKS7_SH_E_EEEvT_SK_T0_+0x1fc>
  404844:	f81f0260 	stur	x0, [x19, #-16]
  404848:	f9000261 	str	x1, [x19]
  40484c:	f85f0260 	ldur	x0, [x19, #-16]
  404850:	f81f827f 	stur	xzr, [x19, #-8]
  404854:	f10006b5 	subs	x21, x21, #0x1
  404858:	d1008273 	sub	x19, x19, #0x20
  40485c:	3900001f 	strb	wzr, [x0]
  404860:	54000280 	b.eq	4048b0 <_ZSt16__insertion_sortIN9__gnu_cxx17__normal_iteratorIPNSt7__cxx1112basic_stringIcSt11char_traitsIcESaIcEEESt6vectorIS7_SaIS7_EEEENS0_5__ops15_Iter_comp_iterIZN7segment5orderEvEUlRKS7_SH_E_EEEvT_SK_T0_+0x170>  // b.none
  404864:	f9400a60 	ldr	x0, [x19, #16]
  404868:	a97f0a74 	ldp	x20, x2, [x19, #-16]
  40486c:	eb14027f 	cmp	x19, x20
  404870:	54fffda1 	b.ne	404824 <_ZSt16__insertion_sortIN9__gnu_cxx17__normal_iteratorIPNSt7__cxx1112basic_stringIcSt11char_traitsIcESaIcEEESt6vectorIS7_SaIS7_EEEENS0_5__ops15_Iter_comp_iterIZN7segment5orderEvEUlRKS7_SH_E_EEEvT_SK_T0_+0xe4>  // b.any
  404874:	b40000a2 	cbz	x2, 404888 <_ZSt16__insertion_sortIN9__gnu_cxx17__normal_iteratorIPNSt7__cxx1112basic_stringIcSt11char_traitsIcESaIcEEESt6vectorIS7_SaIS7_EEEENS0_5__ops15_Iter_comp_iterIZN7segment5orderEvEUlRKS7_SH_E_EEEvT_SK_T0_+0x148>
  404878:	f100045f 	cmp	x2, #0x1
  40487c:	540006c0 	b.eq	404954 <_ZSt16__insertion_sortIN9__gnu_cxx17__normal_iteratorIPNSt7__cxx1112basic_stringIcSt11char_traitsIcESaIcEEESt6vectorIS7_SaIS7_EEEENS0_5__ops15_Iter_comp_iterIZN7segment5orderEvEUlRKS7_SH_E_EEEvT_SK_T0_+0x214>  // b.none
  404880:	aa1303e1 	mov	x1, x19
  404884:	97fff55f 	bl	401e00 <memcpy@plt>
  404888:	f85f8280 	ldur	x0, [x20, #-8]
  40488c:	f9000e80 	str	x0, [x20, #24]
  404890:	f9400a81 	ldr	x1, [x20, #16]
  404894:	f10006b5 	subs	x21, x21, #0x1
  404898:	d1008273 	sub	x19, x19, #0x20
  40489c:	3820683f 	strb	wzr, [x1, x0]
  4048a0:	f9000e7f 	str	xzr, [x19, #24]
  4048a4:	f9400a60 	ldr	x0, [x19, #16]
  4048a8:	3900001f 	strb	wzr, [x0]
  4048ac:	54fffdc1 	b.ne	404864 <_ZSt16__insertion_sortIN9__gnu_cxx17__normal_iteratorIPNSt7__cxx1112basic_stringIcSt11char_traitsIcESaIcEEESt6vectorIS7_SaIS7_EEEENS0_5__ops15_Iter_comp_iterIZN7segment5orderEvEUlRKS7_SH_E_EEEvT_SK_T0_+0x124>  // b.any
  4048b0:	f9403fe2 	ldr	x2, [sp, #120]
  4048b4:	f9403be1 	ldr	x1, [sp, #112]
  4048b8:	f94002c0 	ldr	x0, [x22]
  4048bc:	eb17003f 	cmp	x1, x23
  4048c0:	54000560 	b.eq	40496c <_ZSt16__insertion_sortIN9__gnu_cxx17__normal_iteratorIPNSt7__cxx1112basic_stringIcSt11char_traitsIcESaIcEEESt6vectorIS7_SaIS7_EEEENS0_5__ops15_Iter_comp_iterIZN7segment5orderEvEUlRKS7_SH_E_EEEvT_SK_T0_+0x22c>  // b.none
  4048c4:	f94037e3 	ldr	x3, [sp, #104]
  4048c8:	a9000ac1 	stp	x1, x2, [x22]
  4048cc:	f94043e4 	ldr	x4, [sp, #128]
  4048d0:	eb03001f 	cmp	x0, x3
  4048d4:	54000620 	b.eq	404998 <_ZSt16__insertion_sortIN9__gnu_cxx17__normal_iteratorIPNSt7__cxx1112basic_stringIcSt11char_traitsIcESaIcEEESt6vectorIS7_SaIS7_EEEENS0_5__ops15_Iter_comp_iterIZN7segment5orderEvEUlRKS7_SH_E_EEEvT_SK_T0_+0x258>  // b.none
  4048d8:	f9400ac1 	ldr	x1, [x22, #16]
  4048dc:	f9000ac4 	str	x4, [x22, #16]
  4048e0:	b40005e0 	cbz	x0, 40499c <_ZSt16__insertion_sortIN9__gnu_cxx17__normal_iteratorIPNSt7__cxx1112basic_stringIcSt11char_traitsIcESaIcEEESt6vectorIS7_SaIS7_EEEENS0_5__ops15_Iter_comp_iterIZN7segment5orderEvEUlRKS7_SH_E_EEEvT_SK_T0_+0x25c>
  4048e4:	f9003be0 	str	x0, [sp, #112]
  4048e8:	f90043e1 	str	x1, [sp, #128]
  4048ec:	f9003fff 	str	xzr, [sp, #120]
  4048f0:	3900001f 	strb	wzr, [x0]
  4048f4:	f9403be0 	ldr	x0, [sp, #112]
  4048f8:	eb17001f 	cmp	x0, x23
  4048fc:	54000080 	b.eq	40490c <_ZSt16__insertion_sortIN9__gnu_cxx17__normal_iteratorIPNSt7__cxx1112basic_stringIcSt11char_traitsIcESaIcEEESt6vectorIS7_SaIS7_EEEENS0_5__ops15_Iter_comp_iterIZN7segment5orderEvEUlRKS7_SH_E_EEEvT_SK_T0_+0x1cc>  // b.none
  404900:	f94043e1 	ldr	x1, [sp, #128]
  404904:	91000421 	add	x1, x1, #0x1
  404908:	97fff5a2 	bl	401f90 <_ZdlPvm@plt>
  40490c:	eb1c035f 	cmp	x26, x28
  404910:	54fff401 	b.ne	404790 <_ZSt16__insertion_sortIN9__gnu_cxx17__normal_iteratorIPNSt7__cxx1112basic_stringIcSt11char_traitsIcESaIcEEESt6vectorIS7_SaIS7_EEEENS0_5__ops15_Iter_comp_iterIZN7segment5orderEvEUlRKS7_SH_E_EEEvT_SK_T0_+0x50>  // b.any
  404914:	a94153f3 	ldp	x19, x20, [sp, #16]
  404918:	a94363f7 	ldp	x23, x24, [sp, #48]
  40491c:	a9425bf5 	ldp	x21, x22, [sp, #32]
  404920:	a9446bf9 	ldp	x25, x26, [sp, #64]
  404924:	a94573fb 	ldp	x27, x28, [sp, #80]
  404928:	a8c97bfd 	ldp	x29, x30, [sp], #144
  40492c:	d65f03c0 	ret
  404930:	f9400260 	ldr	x0, [x19]
  404934:	a9010a74 	stp	x20, x2, [x19, #16]
  404938:	f9001260 	str	x0, [x19, #32]
  40493c:	f81f0273 	stur	x19, [x19, #-16]
  404940:	17ffffc3 	b	40484c <_ZSt16__insertion_sortIN9__gnu_cxx17__normal_iteratorIPNSt7__cxx1112basic_stringIcSt11char_traitsIcESaIcEEESt6vectorIS7_SaIS7_EEEENS0_5__ops15_Iter_comp_iterIZN7segment5orderEvEUlRKS7_SH_E_EEEvT_SK_T0_+0x10c>
  404944:	aa0103e0 	mov	x0, x1
  404948:	aa1b03e1 	mov	x1, x27
  40494c:	97fffef5 	bl	404520 <_ZSt25__unguarded_linear_insertIN9__gnu_cxx17__normal_iteratorIPNSt7__cxx1112basic_stringIcSt11char_traitsIcESaIcEEESt6vectorIS7_SaIS7_EEEENS0_5__ops14_Val_comp_iterIZN7segment5orderEvEUlRKS7_SH_E_EEEvT_T0_>
  404950:	17ffffef 	b	40490c <_ZSt16__insertion_sortIN9__gnu_cxx17__normal_iteratorIPNSt7__cxx1112basic_stringIcSt11char_traitsIcESaIcEEESt6vectorIS7_SaIS7_EEEENS0_5__ops15_Iter_comp_iterIZN7segment5orderEvEUlRKS7_SH_E_EEEvT_SK_T0_+0x1cc>
  404954:	39400261 	ldrb	w1, [x19]
  404958:	39000001 	strb	w1, [x0]
  40495c:	17ffffcb 	b	404888 <_ZSt16__insertion_sortIN9__gnu_cxx17__normal_iteratorIPNSt7__cxx1112basic_stringIcSt11char_traitsIcESaIcEEESt6vectorIS7_SaIS7_EEEENS0_5__ops15_Iter_comp_iterIZN7segment5orderEvEUlRKS7_SH_E_EEEvT_SK_T0_+0x148>
  404960:	a97f1784 	ldp	x4, x5, [x28, #-16]
  404964:	a90817e4 	stp	x4, x5, [sp, #128]
  404968:	17ffffa5 	b	4047fc <_ZSt16__insertion_sortIN9__gnu_cxx17__normal_iteratorIPNSt7__cxx1112basic_stringIcSt11char_traitsIcESaIcEEESt6vectorIS7_SaIS7_EEEENS0_5__ops15_Iter_comp_iterIZN7segment5orderEvEUlRKS7_SH_E_EEEvT_SK_T0_+0xbc>
  40496c:	b40000e2 	cbz	x2, 404988 <_ZSt16__insertion_sortIN9__gnu_cxx17__normal_iteratorIPNSt7__cxx1112basic_stringIcSt11char_traitsIcESaIcEEESt6vectorIS7_SaIS7_EEEENS0_5__ops15_Iter_comp_iterIZN7segment5orderEvEUlRKS7_SH_E_EEEvT_SK_T0_+0x248>
  404970:	f100045f 	cmp	x2, #0x1
  404974:	540001a0 	b.eq	4049a8 <_ZSt16__insertion_sortIN9__gnu_cxx17__normal_iteratorIPNSt7__cxx1112basic_stringIcSt11char_traitsIcESaIcEEESt6vectorIS7_SaIS7_EEEENS0_5__ops15_Iter_comp_iterIZN7segment5orderEvEUlRKS7_SH_E_EEEvT_SK_T0_+0x268>  // b.none
  404978:	aa1703e1 	mov	x1, x23
  40497c:	97fff521 	bl	401e00 <memcpy@plt>
  404980:	f94002c0 	ldr	x0, [x22]
  404984:	f9403fe2 	ldr	x2, [sp, #120]
  404988:	f90006c2 	str	x2, [x22, #8]
  40498c:	3822681f 	strb	wzr, [x0, x2]
  404990:	f9403be0 	ldr	x0, [sp, #112]
  404994:	17ffffd6 	b	4048ec <_ZSt16__insertion_sortIN9__gnu_cxx17__normal_iteratorIPNSt7__cxx1112basic_stringIcSt11char_traitsIcESaIcEEESt6vectorIS7_SaIS7_EEEENS0_5__ops15_Iter_comp_iterIZN7segment5orderEvEUlRKS7_SH_E_EEEvT_SK_T0_+0x1ac>
  404998:	f9000ac4 	str	x4, [x22, #16]
  40499c:	aa1703e0 	mov	x0, x23
  4049a0:	f9003bf7 	str	x23, [sp, #112]
  4049a4:	17ffffd2 	b	4048ec <_ZSt16__insertion_sortIN9__gnu_cxx17__normal_iteratorIPNSt7__cxx1112basic_stringIcSt11char_traitsIcESaIcEEESt6vectorIS7_SaIS7_EEEENS0_5__ops15_Iter_comp_iterIZN7segment5orderEvEUlRKS7_SH_E_EEEvT_SK_T0_+0x1ac>
  4049a8:	394203e1 	ldrb	w1, [sp, #128]
  4049ac:	39000001 	strb	w1, [x0]
  4049b0:	f94002c0 	ldr	x0, [x22]
  4049b4:	f9403fe2 	ldr	x2, [sp, #120]
  4049b8:	f90006c2 	str	x2, [x22, #8]
  4049bc:	3822681f 	strb	wzr, [x0, x2]
  4049c0:	f9403be0 	ldr	x0, [sp, #112]
  4049c4:	17ffffca 	b	4048ec <_ZSt16__insertion_sortIN9__gnu_cxx17__normal_iteratorIPNSt7__cxx1112basic_stringIcSt11char_traitsIcESaIcEEESt6vectorIS7_SaIS7_EEEENS0_5__ops15_Iter_comp_iterIZN7segment5orderEvEUlRKS7_SH_E_EEEvT_SK_T0_+0x1ac>
  4049c8:	d65f03c0 	ret
  4049cc:	d503201f 	nop

00000000004049d0 <_ZSt13__adjust_heapIN9__gnu_cxx17__normal_iteratorIPNSt7__cxx1112basic_stringIcSt11char_traitsIcESaIcEEESt6vectorIS7_SaIS7_EEEElS7_NS0_5__ops15_Iter_comp_iterIZN7segment5orderEvEUlRKS7_SH_E_EEEvT_T0_SL_T1_T2_>:
  4049d0:	a9b47bfd 	stp	x29, x30, [sp, #-192]!
  4049d4:	910003fd 	mov	x29, sp
  4049d8:	a90573fb 	stp	x27, x28, [sp, #80]
  4049dc:	d100045b 	sub	x27, x2, #0x1
  4049e0:	8b5bff7b 	add	x27, x27, x27, lsr #63
  4049e4:	a90153f3 	stp	x19, x20, [sp, #16]
  4049e8:	aa0003f4 	mov	x20, x0
  4049ec:	9341ff60 	asr	x0, x27, #1
  4049f0:	a9025bf5 	stp	x21, x22, [sp, #32]
  4049f4:	a90363f7 	stp	x23, x24, [sp, #48]
  4049f8:	a9046bf9 	stp	x25, x26, [sp, #64]
  4049fc:	a90703e1 	stp	x1, x0, [sp, #112]
  404a00:	a9080be3 	stp	x3, x2, [sp, #128]
  404a04:	f9004be4 	str	x4, [sp, #144]
  404a08:	eb00003f 	cmp	x1, x0
  404a0c:	5400216a 	b.ge	404e38 <_ZSt13__adjust_heapIN9__gnu_cxx17__normal_iteratorIPNSt7__cxx1112basic_stringIcSt11char_traitsIcESaIcEEESt6vectorIS7_SaIS7_EEEElS7_NS0_5__ops15_Iter_comp_iterIZN7segment5orderEvEUlRKS7_SH_E_EEEvT_T0_SL_T1_T2_+0x468>  // b.tcont
  404a10:	8b011697 	add	x23, x20, x1, lsl #5
  404a14:	aa0103f5 	mov	x21, x1
  404a18:	910042e0 	add	x0, x23, #0x10
  404a1c:	91010099 	add	x25, x4, #0x40
  404a20:	9101e098 	add	x24, x4, #0x78
  404a24:	f90037e0 	str	x0, [sp, #104]
  404a28:	14000012 	b	404a70 <_ZSt13__adjust_heapIN9__gnu_cxx17__normal_iteratorIPNSt7__cxx1112basic_stringIcSt11char_traitsIcESaIcEEESt6vectorIS7_SaIS7_EEEElS7_NS0_5__ops15_Iter_comp_iterIZN7segment5orderEvEUlRKS7_SH_E_EEEvT_T0_SL_T1_T2_+0xa0>
  404a2c:	f94037e5 	ldr	x5, [sp, #104]
  404a30:	eb05009f 	cmp	x4, x5
  404a34:	54001380 	b.eq	404ca4 <_ZSt13__adjust_heapIN9__gnu_cxx17__normal_iteratorIPNSt7__cxx1112basic_stringIcSt11char_traitsIcESaIcEEESt6vectorIS7_SaIS7_EEEElS7_NS0_5__ops15_Iter_comp_iterIZN7segment5orderEvEUlRKS7_SH_E_EEEvT_T0_SL_T1_T2_+0x2d4>  // b.none
  404a38:	f9400b86 	ldr	x6, [x28, #16]
  404a3c:	f8366a80 	str	x0, [x20, x22]
  404a40:	f9000782 	str	x2, [x28, #8]
  404a44:	f9400860 	ldr	x0, [x3, #16]
  404a48:	f9000b80 	str	x0, [x28, #16]
  404a4c:	b4001344 	cbz	x4, 404cb4 <_ZSt13__adjust_heapIN9__gnu_cxx17__normal_iteratorIPNSt7__cxx1112basic_stringIcSt11char_traitsIcESaIcEEESt6vectorIS7_SaIS7_EEEElS7_NS0_5__ops15_Iter_comp_iterIZN7segment5orderEvEUlRKS7_SH_E_EEEvT_T0_SL_T1_T2_+0x2e4>
  404a50:	f9000064 	str	x4, [x3]
  404a54:	f9000866 	str	x6, [x3, #16]
  404a58:	f9403fe0 	ldr	x0, [sp, #120]
  404a5c:	f900047f 	str	xzr, [x3, #8]
  404a60:	3900009f 	strb	wzr, [x4]
  404a64:	eb0002bf 	cmp	x21, x0
  404a68:	540006aa 	b.ge	404b3c <_ZSt13__adjust_heapIN9__gnu_cxx17__normal_iteratorIPNSt7__cxx1112basic_stringIcSt11char_traitsIcESaIcEEESt6vectorIS7_SaIS7_EEEElS7_NS0_5__ops15_Iter_comp_iterIZN7segment5orderEvEUlRKS7_SH_E_EEEvT_T0_SL_T1_T2_+0x16c>  // b.tcont
  404a6c:	f90037e1 	str	x1, [sp, #104]
  404a70:	910006b3 	add	x19, x21, #0x1
  404a74:	aa1903e0 	mov	x0, x25
  404a78:	d37beab6 	lsl	x22, x21, #5
  404a7c:	8b131a9a 	add	x26, x20, x19, lsl #6
  404a80:	d37ffa73 	lsl	x19, x19, #1
  404a84:	aa1a03e1 	mov	x1, x26
  404a88:	94001bf2 	bl	40ba50 <_ZNSt8__detail9_Map_baseINSt7__cxx1112basic_stringIcSt11char_traitsIcESaIcEEESt4pairIKS6_iESaIS9_ENS_10_Select1stESt8equal_toIS6_ESt4hashIS6_ENS_18_Mod_range_hashingENS_20_Default_ranged_hashENS_20_Prime_rehash_policyENS_17_Hashtable_traitsILb1ELb0ELb1EEELb1EEixERS8_>
  404a8c:	d1000675 	sub	x21, x19, #0x1
  404a90:	aa0003e1 	mov	x1, x0
  404a94:	aa1803e0 	mov	x0, x24
  404a98:	940019be 	bl	40b190 <_ZNSt8__detail9_Map_baseIiSt4pairIKiiESaIS3_ENS_10_Select1stESt8equal_toIiESt4hashIiENS_18_Mod_range_hashingENS_20_Default_ranged_hashENS_20_Prime_rehash_policyENS_17_Hashtable_traitsILb0ELb0ELb1EEELb1EE2atERS2_>
  404a9c:	aa0003e4 	mov	x4, x0
  404aa0:	8b15169b 	add	x27, x20, x21, lsl #5
  404aa4:	aa1b03e1 	mov	x1, x27
  404aa8:	aa1903e0 	mov	x0, x25
  404aac:	8b16029c 	add	x28, x20, x22
  404ab0:	b9400097 	ldr	w23, [x4]
  404ab4:	94001be7 	bl	40ba50 <_ZNSt8__detail9_Map_baseINSt7__cxx1112basic_stringIcSt11char_traitsIcESaIcEEESt4pairIKS6_iESaIS9_ENS_10_Select1stESt8equal_toIS6_ESt4hashIS6_ENS_18_Mod_range_hashingENS_20_Default_ranged_hashENS_20_Prime_rehash_policyENS_17_Hashtable_traitsILb1ELb0ELb1EEELb1EEixERS8_>
  404ab8:	aa0003e1 	mov	x1, x0
  404abc:	aa1803e0 	mov	x0, x24
  404ac0:	940019b4 	bl	40b190 <_ZNSt8__detail9_Map_baseIiSt4pairIKiiESaIS3_ENS_10_Select1stESt8equal_toIiESt4hashIiENS_18_Mod_range_hashingENS_20_Default_ranged_hashENS_20_Prime_rehash_policyENS_17_Hashtable_traitsILb0ELb0ELb1EEELb1EE2atERS2_>
  404ac4:	b9400000 	ldr	w0, [x0]
  404ac8:	f8766a84 	ldr	x4, [x20, x22]
  404acc:	6b0002ff 	cmp	w23, w0
  404ad0:	9a9bd343 	csel	x3, x26, x27, le
  404ad4:	9a95d275 	csel	x21, x19, x21, le
  404ad8:	aa0303e1 	mov	x1, x3
  404adc:	aa1503f3 	mov	x19, x21
  404ae0:	f9400462 	ldr	x2, [x3, #8]
  404ae4:	f8410420 	ldr	x0, [x1], #16
  404ae8:	eb01001f 	cmp	x0, x1
  404aec:	54fffa01 	b.ne	404a2c <_ZSt13__adjust_heapIN9__gnu_cxx17__normal_iteratorIPNSt7__cxx1112basic_stringIcSt11char_traitsIcESaIcEEESt6vectorIS7_SaIS7_EEEElS7_NS0_5__ops15_Iter_comp_iterIZN7segment5orderEvEUlRKS7_SH_E_EEEvT_T0_SL_T1_T2_+0x5c>  // b.any
  404af0:	b4000162 	cbz	x2, 404b1c <_ZSt13__adjust_heapIN9__gnu_cxx17__normal_iteratorIPNSt7__cxx1112basic_stringIcSt11char_traitsIcESaIcEEESt6vectorIS7_SaIS7_EEEElS7_NS0_5__ops15_Iter_comp_iterIZN7segment5orderEvEUlRKS7_SH_E_EEEvT_T0_SL_T1_T2_+0x14c>
  404af4:	f100045f 	cmp	x2, #0x1
  404af8:	54001460 	b.eq	404d84 <_ZSt13__adjust_heapIN9__gnu_cxx17__normal_iteratorIPNSt7__cxx1112basic_stringIcSt11char_traitsIcESaIcEEESt6vectorIS7_SaIS7_EEEElS7_NS0_5__ops15_Iter_comp_iterIZN7segment5orderEvEUlRKS7_SH_E_EEEvT_T0_SL_T1_T2_+0x3b4>  // b.none
  404afc:	aa0403e0 	mov	x0, x4
  404b00:	f90037e1 	str	x1, [sp, #104]
  404b04:	f9004fe3 	str	x3, [sp, #152]
  404b08:	97fff4be 	bl	401e00 <memcpy@plt>
  404b0c:	f9404fe3 	ldr	x3, [sp, #152]
  404b10:	f8766a84 	ldr	x4, [x20, x22]
  404b14:	f9400462 	ldr	x2, [x3, #8]
  404b18:	f94037e1 	ldr	x1, [sp, #104]
  404b1c:	f9000782 	str	x2, [x28, #8]
  404b20:	3822689f 	strb	wzr, [x4, x2]
  404b24:	f9403fe0 	ldr	x0, [sp, #120]
  404b28:	f900047f 	str	xzr, [x3, #8]
  404b2c:	f9400064 	ldr	x4, [x3]
  404b30:	3900009f 	strb	wzr, [x4]
  404b34:	eb0002bf 	cmp	x21, x0
  404b38:	54fff9ab 	b.lt	404a6c <_ZSt13__adjust_heapIN9__gnu_cxx17__normal_iteratorIPNSt7__cxx1112basic_stringIcSt11char_traitsIcESaIcEEESt6vectorIS7_SaIS7_EEEElS7_NS0_5__ops15_Iter_comp_iterIZN7segment5orderEvEUlRKS7_SH_E_EEEvT_T0_SL_T1_T2_+0x9c>  // b.tstop
  404b3c:	f94047e0 	ldr	x0, [sp, #136]
  404b40:	370000a0 	tbnz	w0, #0, 404b54 <_ZSt13__adjust_heapIN9__gnu_cxx17__normal_iteratorIPNSt7__cxx1112basic_stringIcSt11char_traitsIcESaIcEEESt6vectorIS7_SaIS7_EEEElS7_NS0_5__ops15_Iter_comp_iterIZN7segment5orderEvEUlRKS7_SH_E_EEEvT_T0_SL_T1_T2_+0x184>
  404b44:	d1000800 	sub	x0, x0, #0x2
  404b48:	8b40fc00 	add	x0, x0, x0, lsr #63
  404b4c:	eb80067f 	cmp	x19, x0, asr #1
  404b50:	54001400 	b.eq	404dd0 <_ZSt13__adjust_heapIN9__gnu_cxx17__normal_iteratorIPNSt7__cxx1112basic_stringIcSt11char_traitsIcESaIcEEESt6vectorIS7_SaIS7_EEEElS7_NS0_5__ops15_Iter_comp_iterIZN7segment5orderEvEUlRKS7_SH_E_EEEvT_T0_SL_T1_T2_+0x400>  // b.none
  404b54:	f94043e0 	ldr	x0, [sp, #128]
  404b58:	9102c3e1 	add	x1, sp, #0xb0
  404b5c:	f90053e1 	str	x1, [sp, #160]
  404b60:	f8410401 	ldr	x1, [x0], #16
  404b64:	eb00003f 	cmp	x1, x0
  404b68:	54001180 	b.eq	404d98 <_ZSt13__adjust_heapIN9__gnu_cxx17__normal_iteratorIPNSt7__cxx1112basic_stringIcSt11char_traitsIcESaIcEEESt6vectorIS7_SaIS7_EEEElS7_NS0_5__ops15_Iter_comp_iterIZN7segment5orderEvEUlRKS7_SH_E_EEEvT_T0_SL_T1_T2_+0x3c8>  // b.none
  404b6c:	f94043e2 	ldr	x2, [sp, #128]
  404b70:	f90053e1 	str	x1, [sp, #160]
  404b74:	f9400842 	ldr	x2, [x2, #16]
  404b78:	f9005be2 	str	x2, [sp, #176]
  404b7c:	f94043e1 	ldr	x1, [sp, #128]
  404b80:	d1000675 	sub	x21, x19, #0x1
  404b84:	8b55feb5 	add	x21, x21, x21, lsr #63
  404b88:	f9000020 	str	x0, [x1]
  404b8c:	f9403be0 	ldr	x0, [sp, #112]
  404b90:	3900403f 	strb	wzr, [x1, #16]
  404b94:	f9400422 	ldr	x2, [x1, #8]
  404b98:	f900043f 	str	xzr, [x1, #8]
  404b9c:	f90057e2 	str	x2, [sp, #168]
  404ba0:	9341feb5 	asr	x21, x21, #1
  404ba4:	eb00027f 	cmp	x19, x0
  404ba8:	540014cd 	b.le	404e40 <_ZSt13__adjust_heapIN9__gnu_cxx17__normal_iteratorIPNSt7__cxx1112basic_stringIcSt11char_traitsIcESaIcEEESt6vectorIS7_SaIS7_EEEElS7_NS0_5__ops15_Iter_comp_iterIZN7segment5orderEvEUlRKS7_SH_E_EEEvT_T0_SL_T1_T2_+0x470>
  404bac:	f9404be0 	ldr	x0, [sp, #144]
  404bb0:	91010017 	add	x23, x0, #0x40
  404bb4:	9101e018 	add	x24, x0, #0x78
  404bb8:	14000014 	b	404c08 <_ZSt13__adjust_heapIN9__gnu_cxx17__normal_iteratorIPNSt7__cxx1112basic_stringIcSt11char_traitsIcESaIcEEESt6vectorIS7_SaIS7_EEEElS7_NS0_5__ops15_Iter_comp_iterIZN7segment5orderEvEUlRKS7_SH_E_EEEvT_T0_SL_T1_T2_+0x238>
  404bbc:	eb04001f 	cmp	x0, x4
  404bc0:	54000800 	b.eq	404cc0 <_ZSt13__adjust_heapIN9__gnu_cxx17__normal_iteratorIPNSt7__cxx1112basic_stringIcSt11char_traitsIcESaIcEEESt6vectorIS7_SaIS7_EEEElS7_NS0_5__ops15_Iter_comp_iterIZN7segment5orderEvEUlRKS7_SH_E_EEEvT_T0_SL_T1_T2_+0x2f0>  // b.none
  404bc4:	f9400b21 	ldr	x1, [x25, #16]
  404bc8:	f8336a83 	str	x3, [x20, x19]
  404bcc:	f9000722 	str	x2, [x25, #8]
  404bd0:	f9400ac2 	ldr	x2, [x22, #16]
  404bd4:	f9000b22 	str	x2, [x25, #16]
  404bd8:	b40007c0 	cbz	x0, 404cd0 <_ZSt13__adjust_heapIN9__gnu_cxx17__normal_iteratorIPNSt7__cxx1112basic_stringIcSt11char_traitsIcESaIcEEESt6vectorIS7_SaIS7_EEEElS7_NS0_5__ops15_Iter_comp_iterIZN7segment5orderEvEUlRKS7_SH_E_EEEvT_T0_SL_T1_T2_+0x300>
  404bdc:	f83b6a80 	str	x0, [x20, x27]
  404be0:	f9000ac1 	str	x1, [x22, #16]
  404be4:	d10006a2 	sub	x2, x21, #0x1
  404be8:	f90006df 	str	xzr, [x22, #8]
  404bec:	3900001f 	strb	wzr, [x0]
  404bf0:	aa1503f3 	mov	x19, x21
  404bf4:	f9403be0 	ldr	x0, [sp, #112]
  404bf8:	8b42fc42 	add	x2, x2, x2, lsr #63
  404bfc:	9341fc55 	asr	x21, x2, #1
  404c00:	eb13001f 	cmp	x0, x19
  404c04:	540006ca 	b.ge	404cdc <_ZSt13__adjust_heapIN9__gnu_cxx17__normal_iteratorIPNSt7__cxx1112basic_stringIcSt11char_traitsIcESaIcEEESt6vectorIS7_SaIS7_EEEElS7_NS0_5__ops15_Iter_comp_iterIZN7segment5orderEvEUlRKS7_SH_E_EEEvT_T0_SL_T1_T2_+0x30c>  // b.tcont
  404c08:	d37beabb 	lsl	x27, x21, #5
  404c0c:	aa1703e0 	mov	x0, x23
  404c10:	8b1b0296 	add	x22, x20, x27
  404c14:	aa1603e1 	mov	x1, x22
  404c18:	94001b8e 	bl	40ba50 <_ZNSt8__detail9_Map_baseINSt7__cxx1112basic_stringIcSt11char_traitsIcESaIcEEESt4pairIKS6_iESaIS9_ENS_10_Select1stESt8equal_toIS6_ESt4hashIS6_ENS_18_Mod_range_hashingENS_20_Default_ranged_hashENS_20_Prime_rehash_policyENS_17_Hashtable_traitsILb1ELb0ELb1EEELb1EEixERS8_>
  404c1c:	aa0003e1 	mov	x1, x0
  404c20:	aa1803e0 	mov	x0, x24
  404c24:	9400195b 	bl	40b190 <_ZNSt8__detail9_Map_baseIiSt4pairIKiiESaIS3_ENS_10_Select1stESt8equal_toIiESt4hashIiENS_18_Mod_range_hashingENS_20_Default_ranged_hashENS_20_Prime_rehash_policyENS_17_Hashtable_traitsILb0ELb0ELb1EEELb1EE2atERS2_>
  404c28:	aa0003e2 	mov	x2, x0
  404c2c:	910283e1 	add	x1, sp, #0xa0
  404c30:	aa1703e0 	mov	x0, x23
  404c34:	b940005c 	ldr	w28, [x2]
  404c38:	94001b86 	bl	40ba50 <_ZNSt8__detail9_Map_baseINSt7__cxx1112basic_stringIcSt11char_traitsIcESaIcEEESt4pairIKS6_iESaIS9_ENS_10_Select1stESt8equal_toIS6_ESt4hashIS6_ENS_18_Mod_range_hashingENS_20_Default_ranged_hashENS_20_Prime_rehash_policyENS_17_Hashtable_traitsILb1ELb0ELb1EEELb1EEixERS8_>
  404c3c:	aa0003e1 	mov	x1, x0
  404c40:	aa1803e0 	mov	x0, x24
  404c44:	94001953 	bl	40b190 <_ZNSt8__detail9_Map_baseIiSt4pairIKiiESaIS3_ENS_10_Select1stESt8equal_toIiESt4hashIiENS_18_Mod_range_hashingENS_20_Default_ranged_hashENS_20_Prime_rehash_policyENS_17_Hashtable_traitsILb0ELb0ELb1EEELb1EE2atERS2_>
  404c48:	d37bea73 	lsl	x19, x19, #5
  404c4c:	b9400001 	ldr	w1, [x0]
  404c50:	8b130299 	add	x25, x20, x19
  404c54:	91004324 	add	x4, x25, #0x10
  404c58:	f8736a80 	ldr	x0, [x20, x19]
  404c5c:	6b01039f 	cmp	w28, w1
  404c60:	5400042d 	b.le	404ce4 <_ZSt13__adjust_heapIN9__gnu_cxx17__normal_iteratorIPNSt7__cxx1112basic_stringIcSt11char_traitsIcESaIcEEESt6vectorIS7_SaIS7_EEEElS7_NS0_5__ops15_Iter_comp_iterIZN7segment5orderEvEUlRKS7_SH_E_EEEvT_T0_SL_T1_T2_+0x314>
  404c64:	f87b6a83 	ldr	x3, [x20, x27]
  404c68:	910042dc 	add	x28, x22, #0x10
  404c6c:	f94006c2 	ldr	x2, [x22, #8]
  404c70:	eb1c007f 	cmp	x3, x28
  404c74:	54fffa41 	b.ne	404bbc <_ZSt13__adjust_heapIN9__gnu_cxx17__normal_iteratorIPNSt7__cxx1112basic_stringIcSt11char_traitsIcESaIcEEESt6vectorIS7_SaIS7_EEEElS7_NS0_5__ops15_Iter_comp_iterIZN7segment5orderEvEUlRKS7_SH_E_EEEvT_T0_SL_T1_T2_+0x1ec>  // b.any
  404c78:	b40000e2 	cbz	x2, 404c94 <_ZSt13__adjust_heapIN9__gnu_cxx17__normal_iteratorIPNSt7__cxx1112basic_stringIcSt11char_traitsIcESaIcEEESt6vectorIS7_SaIS7_EEEElS7_NS0_5__ops15_Iter_comp_iterIZN7segment5orderEvEUlRKS7_SH_E_EEEvT_T0_SL_T1_T2_+0x2c4>
  404c7c:	f100045f 	cmp	x2, #0x1
  404c80:	54000780 	b.eq	404d70 <_ZSt13__adjust_heapIN9__gnu_cxx17__normal_iteratorIPNSt7__cxx1112basic_stringIcSt11char_traitsIcESaIcEEESt6vectorIS7_SaIS7_EEEElS7_NS0_5__ops15_Iter_comp_iterIZN7segment5orderEvEUlRKS7_SH_E_EEEvT_T0_SL_T1_T2_+0x3a0>  // b.none
  404c84:	aa1c03e1 	mov	x1, x28
  404c88:	97fff45e 	bl	401e00 <memcpy@plt>
  404c8c:	f8736a80 	ldr	x0, [x20, x19]
  404c90:	f94006c2 	ldr	x2, [x22, #8]
  404c94:	f9000722 	str	x2, [x25, #8]
  404c98:	3822681f 	strb	wzr, [x0, x2]
  404c9c:	f87b6a80 	ldr	x0, [x20, x27]
  404ca0:	17ffffd1 	b	404be4 <_ZSt13__adjust_heapIN9__gnu_cxx17__normal_iteratorIPNSt7__cxx1112basic_stringIcSt11char_traitsIcESaIcEEESt6vectorIS7_SaIS7_EEEElS7_NS0_5__ops15_Iter_comp_iterIZN7segment5orderEvEUlRKS7_SH_E_EEEvT_T0_SL_T1_T2_+0x214>
  404ca4:	f8366a80 	str	x0, [x20, x22]
  404ca8:	f9000782 	str	x2, [x28, #8]
  404cac:	f9400860 	ldr	x0, [x3, #16]
  404cb0:	f9000b80 	str	x0, [x28, #16]
  404cb4:	aa0103e4 	mov	x4, x1
  404cb8:	f9000061 	str	x1, [x3]
  404cbc:	17ffff67 	b	404a58 <_ZSt13__adjust_heapIN9__gnu_cxx17__normal_iteratorIPNSt7__cxx1112basic_stringIcSt11char_traitsIcESaIcEEESt6vectorIS7_SaIS7_EEEElS7_NS0_5__ops15_Iter_comp_iterIZN7segment5orderEvEUlRKS7_SH_E_EEEvT_T0_SL_T1_T2_+0x88>
  404cc0:	f8336a83 	str	x3, [x20, x19]
  404cc4:	f9000722 	str	x2, [x25, #8]
  404cc8:	f9400ac0 	ldr	x0, [x22, #16]
  404ccc:	f9000b20 	str	x0, [x25, #16]
  404cd0:	aa1c03e0 	mov	x0, x28
  404cd4:	f83b6a9c 	str	x28, [x20, x27]
  404cd8:	17ffffc3 	b	404be4 <_ZSt13__adjust_heapIN9__gnu_cxx17__normal_iteratorIPNSt7__cxx1112basic_stringIcSt11char_traitsIcESaIcEEESt6vectorIS7_SaIS7_EEEElS7_NS0_5__ops15_Iter_comp_iterIZN7segment5orderEvEUlRKS7_SH_E_EEEvT_T0_SL_T1_T2_+0x214>
  404cdc:	aa1c03e4 	mov	x4, x28
  404ce0:	aa1603f9 	mov	x25, x22
  404ce4:	f94057e2 	ldr	x2, [sp, #168]
  404ce8:	9102c3e3 	add	x3, sp, #0xb0
  404cec:	f94053e1 	ldr	x1, [sp, #160]
  404cf0:	f9400320 	ldr	x0, [x25]
  404cf4:	eb03003f 	cmp	x1, x3
  404cf8:	54000580 	b.eq	404da8 <_ZSt13__adjust_heapIN9__gnu_cxx17__normal_iteratorIPNSt7__cxx1112basic_stringIcSt11char_traitsIcESaIcEEESt6vectorIS7_SaIS7_EEEElS7_NS0_5__ops15_Iter_comp_iterIZN7segment5orderEvEUlRKS7_SH_E_EEEvT_T0_SL_T1_T2_+0x3d8>  // b.none
  404cfc:	a9000b21 	stp	x1, x2, [x25]
  404d00:	f9405be3 	ldr	x3, [sp, #176]
  404d04:	eb04001f 	cmp	x0, x4
  404d08:	540002c0 	b.eq	404d60 <_ZSt13__adjust_heapIN9__gnu_cxx17__normal_iteratorIPNSt7__cxx1112basic_stringIcSt11char_traitsIcESaIcEEESt6vectorIS7_SaIS7_EEEElS7_NS0_5__ops15_Iter_comp_iterIZN7segment5orderEvEUlRKS7_SH_E_EEEvT_T0_SL_T1_T2_+0x390>  // b.none
  404d0c:	f9400b21 	ldr	x1, [x25, #16]
  404d10:	f9000b23 	str	x3, [x25, #16]
  404d14:	b4000280 	cbz	x0, 404d64 <_ZSt13__adjust_heapIN9__gnu_cxx17__normal_iteratorIPNSt7__cxx1112basic_stringIcSt11char_traitsIcESaIcEEESt6vectorIS7_SaIS7_EEEElS7_NS0_5__ops15_Iter_comp_iterIZN7segment5orderEvEUlRKS7_SH_E_EEEvT_T0_SL_T1_T2_+0x394>
  404d18:	f90053e0 	str	x0, [sp, #160]
  404d1c:	f9005be1 	str	x1, [sp, #176]
  404d20:	f90057ff 	str	xzr, [sp, #168]
  404d24:	9102c3e1 	add	x1, sp, #0xb0
  404d28:	3900001f 	strb	wzr, [x0]
  404d2c:	f94053e0 	ldr	x0, [sp, #160]
  404d30:	eb01001f 	cmp	x0, x1
  404d34:	54000080 	b.eq	404d44 <_ZSt13__adjust_heapIN9__gnu_cxx17__normal_iteratorIPNSt7__cxx1112basic_stringIcSt11char_traitsIcESaIcEEESt6vectorIS7_SaIS7_EEEElS7_NS0_5__ops15_Iter_comp_iterIZN7segment5orderEvEUlRKS7_SH_E_EEEvT_T0_SL_T1_T2_+0x374>  // b.none
  404d38:	f9405be1 	ldr	x1, [sp, #176]
  404d3c:	91000421 	add	x1, x1, #0x1
  404d40:	97fff494 	bl	401f90 <_ZdlPvm@plt>
  404d44:	a94153f3 	ldp	x19, x20, [sp, #16]
  404d48:	a9425bf5 	ldp	x21, x22, [sp, #32]
  404d4c:	a94363f7 	ldp	x23, x24, [sp, #48]
  404d50:	a9446bf9 	ldp	x25, x26, [sp, #64]
  404d54:	a94573fb 	ldp	x27, x28, [sp, #80]
  404d58:	a8cc7bfd 	ldp	x29, x30, [sp], #192
  404d5c:	d65f03c0 	ret
  404d60:	f9000b23 	str	x3, [x25, #16]
  404d64:	9102c3e0 	add	x0, sp, #0xb0
  404d68:	f90053e0 	str	x0, [sp, #160]
  404d6c:	17ffffed 	b	404d20 <_ZSt13__adjust_heapIN9__gnu_cxx17__normal_iteratorIPNSt7__cxx1112basic_stringIcSt11char_traitsIcESaIcEEESt6vectorIS7_SaIS7_EEEElS7_NS0_5__ops15_Iter_comp_iterIZN7segment5orderEvEUlRKS7_SH_E_EEEvT_T0_SL_T1_T2_+0x350>
  404d70:	394042c1 	ldrb	w1, [x22, #16]
  404d74:	39000001 	strb	w1, [x0]
  404d78:	f8736a80 	ldr	x0, [x20, x19]
  404d7c:	f94006c2 	ldr	x2, [x22, #8]
  404d80:	17ffffc5 	b	404c94 <_ZSt13__adjust_heapIN9__gnu_cxx17__normal_iteratorIPNSt7__cxx1112basic_stringIcSt11char_traitsIcESaIcEEESt6vectorIS7_SaIS7_EEEElS7_NS0_5__ops15_Iter_comp_iterIZN7segment5orderEvEUlRKS7_SH_E_EEEvT_T0_SL_T1_T2_+0x2c4>
  404d84:	39404060 	ldrb	w0, [x3, #16]
  404d88:	39000080 	strb	w0, [x4]
  404d8c:	f8766a84 	ldr	x4, [x20, x22]
  404d90:	f9400462 	ldr	x2, [x3, #8]
  404d94:	17ffff62 	b	404b1c <_ZSt13__adjust_heapIN9__gnu_cxx17__normal_iteratorIPNSt7__cxx1112basic_stringIcSt11char_traitsIcESaIcEEESt6vectorIS7_SaIS7_EEEElS7_NS0_5__ops15_Iter_comp_iterIZN7segment5orderEvEUlRKS7_SH_E_EEEvT_T0_SL_T1_T2_+0x14c>
  404d98:	f94043e1 	ldr	x1, [sp, #128]
  404d9c:	a9410c22 	ldp	x2, x3, [x1, #16]
  404da0:	a90b0fe2 	stp	x2, x3, [sp, #176]
  404da4:	17ffff76 	b	404b7c <_ZSt13__adjust_heapIN9__gnu_cxx17__normal_iteratorIPNSt7__cxx1112basic_stringIcSt11char_traitsIcESaIcEEESt6vectorIS7_SaIS7_EEEElS7_NS0_5__ops15_Iter_comp_iterIZN7segment5orderEvEUlRKS7_SH_E_EEEvT_T0_SL_T1_T2_+0x1ac>
  404da8:	b40000c2 	cbz	x2, 404dc0 <_ZSt13__adjust_heapIN9__gnu_cxx17__normal_iteratorIPNSt7__cxx1112basic_stringIcSt11char_traitsIcESaIcEEESt6vectorIS7_SaIS7_EEEElS7_NS0_5__ops15_Iter_comp_iterIZN7segment5orderEvEUlRKS7_SH_E_EEEvT_T0_SL_T1_T2_+0x3f0>
  404dac:	f100045f 	cmp	x2, #0x1
  404db0:	540004e0 	b.eq	404e4c <_ZSt13__adjust_heapIN9__gnu_cxx17__normal_iteratorIPNSt7__cxx1112basic_stringIcSt11char_traitsIcESaIcEEESt6vectorIS7_SaIS7_EEEElS7_NS0_5__ops15_Iter_comp_iterIZN7segment5orderEvEUlRKS7_SH_E_EEEvT_T0_SL_T1_T2_+0x47c>  // b.none
  404db4:	97fff413 	bl	401e00 <memcpy@plt>
  404db8:	f9400320 	ldr	x0, [x25]
  404dbc:	f94057e2 	ldr	x2, [sp, #168]
  404dc0:	f9000722 	str	x2, [x25, #8]
  404dc4:	3822681f 	strb	wzr, [x0, x2]
  404dc8:	f94053e0 	ldr	x0, [sp, #160]
  404dcc:	17ffffd5 	b	404d20 <_ZSt13__adjust_heapIN9__gnu_cxx17__normal_iteratorIPNSt7__cxx1112basic_stringIcSt11char_traitsIcESaIcEEESt6vectorIS7_SaIS7_EEEElS7_NS0_5__ops15_Iter_comp_iterIZN7segment5orderEvEUlRKS7_SH_E_EEEvT_T0_SL_T1_T2_+0x350>
  404dd0:	d37ffa60 	lsl	x0, x19, #1
  404dd4:	d37bea78 	lsl	x24, x19, #5
  404dd8:	91000413 	add	x19, x0, #0x1
  404ddc:	8b180297 	add	x23, x20, x24
  404de0:	d37bea76 	lsl	x22, x19, #5
  404de4:	8b160295 	add	x21, x20, x22
  404de8:	910042a3 	add	x3, x21, #0x10
  404dec:	f8766a81 	ldr	x1, [x20, x22]
  404df0:	f8786a80 	ldr	x0, [x20, x24]
  404df4:	f94006a2 	ldr	x2, [x21, #8]
  404df8:	eb03003f 	cmp	x1, x3
  404dfc:	54000400 	b.eq	404e7c <_ZSt13__adjust_heapIN9__gnu_cxx17__normal_iteratorIPNSt7__cxx1112basic_stringIcSt11char_traitsIcESaIcEEESt6vectorIS7_SaIS7_EEEElS7_NS0_5__ops15_Iter_comp_iterIZN7segment5orderEvEUlRKS7_SH_E_EEEvT_T0_SL_T1_T2_+0x4ac>  // b.none
  404e00:	910042e4 	add	x4, x23, #0x10
  404e04:	eb04001f 	cmp	x0, x4
  404e08:	540002c0 	b.eq	404e60 <_ZSt13__adjust_heapIN9__gnu_cxx17__normal_iteratorIPNSt7__cxx1112basic_stringIcSt11char_traitsIcESaIcEEESt6vectorIS7_SaIS7_EEEElS7_NS0_5__ops15_Iter_comp_iterIZN7segment5orderEvEUlRKS7_SH_E_EEEvT_T0_SL_T1_T2_+0x490>  // b.none
  404e0c:	f9400ae4 	ldr	x4, [x23, #16]
  404e10:	f8386a81 	str	x1, [x20, x24]
  404e14:	f90006e2 	str	x2, [x23, #8]
  404e18:	f9400aa1 	ldr	x1, [x21, #16]
  404e1c:	f9000ae1 	str	x1, [x23, #16]
  404e20:	b4000280 	cbz	x0, 404e70 <_ZSt13__adjust_heapIN9__gnu_cxx17__normal_iteratorIPNSt7__cxx1112basic_stringIcSt11char_traitsIcESaIcEEESt6vectorIS7_SaIS7_EEEElS7_NS0_5__ops15_Iter_comp_iterIZN7segment5orderEvEUlRKS7_SH_E_EEEvT_T0_SL_T1_T2_+0x4a0>
  404e24:	f8366a80 	str	x0, [x20, x22]
  404e28:	f9000aa4 	str	x4, [x21, #16]
  404e2c:	f90006bf 	str	xzr, [x21, #8]
  404e30:	3900001f 	strb	wzr, [x0]
  404e34:	17ffff48 	b	404b54 <_ZSt13__adjust_heapIN9__gnu_cxx17__normal_iteratorIPNSt7__cxx1112basic_stringIcSt11char_traitsIcESaIcEEESt6vectorIS7_SaIS7_EEEElS7_NS0_5__ops15_Iter_comp_iterIZN7segment5orderEvEUlRKS7_SH_E_EEEvT_T0_SL_T1_T2_+0x184>
  404e38:	f9403bf3 	ldr	x19, [sp, #112]
  404e3c:	17ffff40 	b	404b3c <_ZSt13__adjust_heapIN9__gnu_cxx17__normal_iteratorIPNSt7__cxx1112basic_stringIcSt11char_traitsIcESaIcEEESt6vectorIS7_SaIS7_EEEElS7_NS0_5__ops15_Iter_comp_iterIZN7segment5orderEvEUlRKS7_SH_E_EEEvT_T0_SL_T1_T2_+0x16c>
  404e40:	8b131699 	add	x25, x20, x19, lsl #5
  404e44:	91004324 	add	x4, x25, #0x10
  404e48:	17ffffa8 	b	404ce8 <_ZSt13__adjust_heapIN9__gnu_cxx17__normal_iteratorIPNSt7__cxx1112basic_stringIcSt11char_traitsIcESaIcEEESt6vectorIS7_SaIS7_EEEElS7_NS0_5__ops15_Iter_comp_iterIZN7segment5orderEvEUlRKS7_SH_E_EEEvT_T0_SL_T1_T2_+0x318>
  404e4c:	3942c3e1 	ldrb	w1, [sp, #176]
  404e50:	39000001 	strb	w1, [x0]
  404e54:	f9400320 	ldr	x0, [x25]
  404e58:	f94057e2 	ldr	x2, [sp, #168]
  404e5c:	17ffffd9 	b	404dc0 <_ZSt13__adjust_heapIN9__gnu_cxx17__normal_iteratorIPNSt7__cxx1112basic_stringIcSt11char_traitsIcESaIcEEESt6vectorIS7_SaIS7_EEEElS7_NS0_5__ops15_Iter_comp_iterIZN7segment5orderEvEUlRKS7_SH_E_EEEvT_T0_SL_T1_T2_+0x3f0>
  404e60:	f8386a81 	str	x1, [x20, x24]
  404e64:	f90006e2 	str	x2, [x23, #8]
  404e68:	f9400aa0 	ldr	x0, [x21, #16]
  404e6c:	f9000ae0 	str	x0, [x23, #16]
  404e70:	aa0303e0 	mov	x0, x3
  404e74:	f8366a83 	str	x3, [x20, x22]
  404e78:	17ffffed 	b	404e2c <_ZSt13__adjust_heapIN9__gnu_cxx17__normal_iteratorIPNSt7__cxx1112basic_stringIcSt11char_traitsIcESaIcEEESt6vectorIS7_SaIS7_EEEElS7_NS0_5__ops15_Iter_comp_iterIZN7segment5orderEvEUlRKS7_SH_E_EEEvT_T0_SL_T1_T2_+0x45c>
  404e7c:	b40000c2 	cbz	x2, 404e94 <_ZSt13__adjust_heapIN9__gnu_cxx17__normal_iteratorIPNSt7__cxx1112basic_stringIcSt11char_traitsIcESaIcEEESt6vectorIS7_SaIS7_EEEElS7_NS0_5__ops15_Iter_comp_iterIZN7segment5orderEvEUlRKS7_SH_E_EEEvT_T0_SL_T1_T2_+0x4c4>
  404e80:	f100045f 	cmp	x2, #0x1
  404e84:	54000100 	b.eq	404ea4 <_ZSt13__adjust_heapIN9__gnu_cxx17__normal_iteratorIPNSt7__cxx1112basic_stringIcSt11char_traitsIcESaIcEEESt6vectorIS7_SaIS7_EEEElS7_NS0_5__ops15_Iter_comp_iterIZN7segment5orderEvEUlRKS7_SH_E_EEEvT_T0_SL_T1_T2_+0x4d4>  // b.none
  404e88:	97fff3de 	bl	401e00 <memcpy@plt>
  404e8c:	f8786a80 	ldr	x0, [x20, x24]
  404e90:	f94006a2 	ldr	x2, [x21, #8]
  404e94:	f90006e2 	str	x2, [x23, #8]
  404e98:	3822681f 	strb	wzr, [x0, x2]
  404e9c:	f8766a80 	ldr	x0, [x20, x22]
  404ea0:	17ffffe3 	b	404e2c <_ZSt13__adjust_heapIN9__gnu_cxx17__normal_iteratorIPNSt7__cxx1112basic_stringIcSt11char_traitsIcESaIcEEESt6vectorIS7_SaIS7_EEEElS7_NS0_5__ops15_Iter_comp_iterIZN7segment5orderEvEUlRKS7_SH_E_EEEvT_T0_SL_T1_T2_+0x45c>
  404ea4:	394042a1 	ldrb	w1, [x21, #16]
  404ea8:	39000001 	strb	w1, [x0]
  404eac:	f8786a80 	ldr	x0, [x20, x24]
  404eb0:	f94006a2 	ldr	x2, [x21, #8]
  404eb4:	17fffff8 	b	404e94 <_ZSt13__adjust_heapIN9__gnu_cxx17__normal_iteratorIPNSt7__cxx1112basic_stringIcSt11char_traitsIcESaIcEEESt6vectorIS7_SaIS7_EEEElS7_NS0_5__ops15_Iter_comp_iterIZN7segment5orderEvEUlRKS7_SH_E_EEEvT_T0_SL_T1_T2_+0x4c4>
  404eb8:	aa0003f3 	mov	x19, x0
  404ebc:	910283e0 	add	x0, sp, #0xa0
  404ec0:	97fff448 	bl	401fe0 <_ZNSt7__cxx1112basic_stringIcSt11char_traitsIcESaIcEE10_M_disposeEv@plt>
  404ec4:	aa1303e0 	mov	x0, x19
  404ec8:	97fff496 	bl	402120 <_Unwind_Resume@plt>
  404ecc:	d503201f 	nop

0000000000404ed0 <_ZSt16__introsort_loopIN9__gnu_cxx17__normal_iteratorIPNSt7__cxx1112basic_stringIcSt11char_traitsIcESaIcEEESt6vectorIS7_SaIS7_EEEElNS0_5__ops15_Iter_comp_iterIZN7segment5orderEvEUlRKS7_SH_E_EEEvT_SK_T0_T1_>:
  404ed0:	a9b57bfd 	stp	x29, x30, [sp, #-176]!
  404ed4:	910003fd 	mov	x29, sp
  404ed8:	a90153f3 	stp	x19, x20, [sp, #16]
  404edc:	aa0003f4 	mov	x20, x0
  404ee0:	cb000020 	sub	x0, x1, x0
  404ee4:	f90037e2 	str	x2, [sp, #104]
  404ee8:	f108001f 	cmp	x0, #0x200
  404eec:	54001a2d 	b.le	405230 <_ZSt16__introsort_loopIN9__gnu_cxx17__normal_iteratorIPNSt7__cxx1112basic_stringIcSt11char_traitsIcESaIcEEESt6vectorIS7_SaIS7_EEEElNS0_5__ops15_Iter_comp_iterIZN7segment5orderEvEUlRKS7_SH_E_EEEvT_SK_T0_T1_+0x360>
  404ef0:	a9025bf5 	stp	x21, x22, [sp, #32]
  404ef4:	aa0103f3 	mov	x19, x1
  404ef8:	a90363f7 	stp	x23, x24, [sp, #48]
  404efc:	aa0303f7 	mov	x23, x3
  404f00:	a9046bf9 	stp	x25, x26, [sp, #64]
  404f04:	b4001ba2 	cbz	x2, 405278 <_ZSt16__introsort_loopIN9__gnu_cxx17__normal_iteratorIPNSt7__cxx1112basic_stringIcSt11char_traitsIcESaIcEEESt6vectorIS7_SaIS7_EEEElNS0_5__ops15_Iter_comp_iterIZN7segment5orderEvEUlRKS7_SH_E_EEEvT_SK_T0_T1_+0x3a8>
  404f08:	91010076 	add	x22, x3, #0x40
  404f0c:	9101e075 	add	x21, x3, #0x78
  404f10:	a90573fb 	stp	x27, x28, [sp, #80]
  404f14:	9100829b 	add	x27, x20, #0x20
  404f18:	cb140278 	sub	x24, x19, x20
  404f1c:	aa1b03e1 	mov	x1, x27
  404f20:	aa1603e0 	mov	x0, x22
  404f24:	d37fff02 	lsr	x2, x24, #63
  404f28:	d100827a 	sub	x26, x19, #0x20
  404f2c:	8b981458 	add	x24, x2, x24, asr #5
  404f30:	94001ac8 	bl	40ba50 <_ZNSt8__detail9_Map_baseINSt7__cxx1112basic_stringIcSt11char_traitsIcESaIcEEESt4pairIKS6_iESaIS9_ENS_10_Select1stESt8equal_toIS6_ESt4hashIS6_ENS_18_Mod_range_hashingENS_20_Default_ranged_hashENS_20_Prime_rehash_policyENS_17_Hashtable_traitsILb1ELb0ELb1EEELb1EEixERS8_>
  404f34:	9341ff18 	asr	x24, x24, #1
  404f38:	aa0003e1 	mov	x1, x0
  404f3c:	aa1503e0 	mov	x0, x21
  404f40:	94001894 	bl	40b190 <_ZNSt8__detail9_Map_baseIiSt4pairIKiiESaIS3_ENS_10_Select1stESt8equal_toIiESt4hashIiENS_18_Mod_range_hashingENS_20_Default_ranged_hashENS_20_Prime_rehash_policyENS_17_Hashtable_traitsILb0ELb0ELb1EEELb1EE2atERS2_>
  404f44:	aa0003e2 	mov	x2, x0
  404f48:	8b181698 	add	x24, x20, x24, lsl #5
  404f4c:	aa1603e0 	mov	x0, x22
  404f50:	aa1803e1 	mov	x1, x24
  404f54:	b940005c 	ldr	w28, [x2]
  404f58:	94001abe 	bl	40ba50 <_ZNSt8__detail9_Map_baseINSt7__cxx1112basic_stringIcSt11char_traitsIcESaIcEEESt4pairIKS6_iESaIS9_ENS_10_Select1stESt8equal_toIS6_ESt4hashIS6_ENS_18_Mod_range_hashingENS_20_Default_ranged_hashENS_20_Prime_rehash_policyENS_17_Hashtable_traitsILb1ELb0ELb1EEELb1EEixERS8_>
  404f5c:	aa0003e1 	mov	x1, x0
  404f60:	aa1503e0 	mov	x0, x21
  404f64:	9400188b 	bl	40b190 <_ZNSt8__detail9_Map_baseIiSt4pairIKiiESaIS3_ENS_10_Select1stESt8equal_toIiESt4hashIiENS_18_Mod_range_hashingENS_20_Default_ranged_hashENS_20_Prime_rehash_policyENS_17_Hashtable_traitsILb0ELb0ELb1EEELb1EE2atERS2_>
  404f68:	b9400000 	ldr	w0, [x0]
  404f6c:	6b00039f 	cmp	w28, w0
  404f70:	5400100d 	b.le	405170 <_ZSt16__introsort_loopIN9__gnu_cxx17__normal_iteratorIPNSt7__cxx1112basic_stringIcSt11char_traitsIcESaIcEEESt6vectorIS7_SaIS7_EEEElNS0_5__ops15_Iter_comp_iterIZN7segment5orderEvEUlRKS7_SH_E_EEEvT_SK_T0_T1_+0x2a0>
  404f74:	aa1803e1 	mov	x1, x24
  404f78:	aa1603e0 	mov	x0, x22
  404f7c:	94001ab5 	bl	40ba50 <_ZNSt8__detail9_Map_baseINSt7__cxx1112basic_stringIcSt11char_traitsIcESaIcEEESt4pairIKS6_iESaIS9_ENS_10_Select1stESt8equal_toIS6_ESt4hashIS6_ENS_18_Mod_range_hashingENS_20_Default_ranged_hashENS_20_Prime_rehash_policyENS_17_Hashtable_traitsILb1ELb0ELb1EEELb1EEixERS8_>
  404f80:	aa0003e1 	mov	x1, x0
  404f84:	aa1503e0 	mov	x0, x21
  404f88:	94001882 	bl	40b190 <_ZNSt8__detail9_Map_baseIiSt4pairIKiiESaIS3_ENS_10_Select1stESt8equal_toIiESt4hashIiENS_18_Mod_range_hashingENS_20_Default_ranged_hashENS_20_Prime_rehash_policyENS_17_Hashtable_traitsILb0ELb0ELb1EEELb1EE2atERS2_>
  404f8c:	aa0003e2 	mov	x2, x0
  404f90:	aa1a03e1 	mov	x1, x26
  404f94:	aa1603e0 	mov	x0, x22
  404f98:	b940005c 	ldr	w28, [x2]
  404f9c:	94001aad 	bl	40ba50 <_ZNSt8__detail9_Map_baseINSt7__cxx1112basic_stringIcSt11char_traitsIcESaIcEEESt4pairIKS6_iESaIS9_ENS_10_Select1stESt8equal_toIS6_ESt4hashIS6_ENS_18_Mod_range_hashingENS_20_Default_ranged_hashENS_20_Prime_rehash_policyENS_17_Hashtable_traitsILb1ELb0ELb1EEELb1EEixERS8_>
  404fa0:	aa0003e1 	mov	x1, x0
  404fa4:	aa1503e0 	mov	x0, x21
  404fa8:	9400187a 	bl	40b190 <_ZNSt8__detail9_Map_baseIiSt4pairIKiiESaIS3_ENS_10_Select1stESt8equal_toIiESt4hashIiENS_18_Mod_range_hashingENS_20_Default_ranged_hashENS_20_Prime_rehash_policyENS_17_Hashtable_traitsILb0ELb0ELb1EEELb1EE2atERS2_>
  404fac:	b9400000 	ldr	w0, [x0]
  404fb0:	6b00039f 	cmp	w28, w0
  404fb4:	540012ac 	b.gt	405208 <_ZSt16__introsort_loopIN9__gnu_cxx17__normal_iteratorIPNSt7__cxx1112basic_stringIcSt11char_traitsIcESaIcEEESt6vectorIS7_SaIS7_EEEElNS0_5__ops15_Iter_comp_iterIZN7segment5orderEvEUlRKS7_SH_E_EEEvT_SK_T0_T1_+0x338>
  404fb8:	aa1b03e1 	mov	x1, x27
  404fbc:	aa1603e0 	mov	x0, x22
  404fc0:	94001aa4 	bl	40ba50 <_ZNSt8__detail9_Map_baseINSt7__cxx1112basic_stringIcSt11char_traitsIcESaIcEEESt4pairIKS6_iESaIS9_ENS_10_Select1stESt8equal_toIS6_ESt4hashIS6_ENS_18_Mod_range_hashingENS_20_Default_ranged_hashENS_20_Prime_rehash_policyENS_17_Hashtable_traitsILb1ELb0ELb1EEELb1EEixERS8_>
  404fc4:	aa0003e1 	mov	x1, x0
  404fc8:	aa1503e0 	mov	x0, x21
  404fcc:	94001871 	bl	40b190 <_ZNSt8__detail9_Map_baseIiSt4pairIKiiESaIS3_ENS_10_Select1stESt8equal_toIiESt4hashIiENS_18_Mod_range_hashingENS_20_Default_ranged_hashENS_20_Prime_rehash_policyENS_17_Hashtable_traitsILb0ELb0ELb1EEELb1EE2atERS2_>
  404fd0:	aa0003e2 	mov	x2, x0
  404fd4:	aa1a03e1 	mov	x1, x26
  404fd8:	aa1603e0 	mov	x0, x22
  404fdc:	b9400058 	ldr	w24, [x2]
  404fe0:	94001a9c 	bl	40ba50 <_ZNSt8__detail9_Map_baseINSt7__cxx1112basic_stringIcSt11char_traitsIcESaIcEEESt4pairIKS6_iESaIS9_ENS_10_Select1stESt8equal_toIS6_ESt4hashIS6_ENS_18_Mod_range_hashingENS_20_Default_ranged_hashENS_20_Prime_rehash_policyENS_17_Hashtable_traitsILb1ELb0ELb1EEELb1EEixERS8_>
  404fe4:	aa0003e1 	mov	x1, x0
  404fe8:	aa1503e0 	mov	x0, x21
  404fec:	94001869 	bl	40b190 <_ZNSt8__detail9_Map_baseIiSt4pairIKiiESaIS3_ENS_10_Select1stESt8equal_toIiESt4hashIiENS_18_Mod_range_hashingENS_20_Default_ranged_hashENS_20_Prime_rehash_policyENS_17_Hashtable_traitsILb0ELb0ELb1EEELb1EE2atERS2_>
  404ff0:	b9400000 	ldr	w0, [x0]
  404ff4:	6b00031f 	cmp	w24, w0
  404ff8:	5400100c 	b.gt	4051f8 <_ZSt16__introsort_loopIN9__gnu_cxx17__normal_iteratorIPNSt7__cxx1112basic_stringIcSt11char_traitsIcESaIcEEESt6vectorIS7_SaIS7_EEEElNS0_5__ops15_Iter_comp_iterIZN7segment5orderEvEUlRKS7_SH_E_EEEvT_SK_T0_T1_+0x328>
  404ffc:	aa1b03e1 	mov	x1, x27
  405000:	aa1403e0 	mov	x0, x20
  405004:	97fff3cb 	bl	401f30 <_ZNSt7__cxx1112basic_stringIcSt11char_traitsIcESaIcEE4swapERS4_@plt>
  405008:	aa1b03f8 	mov	x24, x27
  40500c:	aa1303fa 	mov	x26, x19
  405010:	aa1803e1 	mov	x1, x24
  405014:	aa1603e0 	mov	x0, x22
  405018:	94001a8e 	bl	40ba50 <_ZNSt8__detail9_Map_baseINSt7__cxx1112basic_stringIcSt11char_traitsIcESaIcEEESt4pairIKS6_iESaIS9_ENS_10_Select1stESt8equal_toIS6_ESt4hashIS6_ENS_18_Mod_range_hashingENS_20_Default_ranged_hashENS_20_Prime_rehash_policyENS_17_Hashtable_traitsILb1ELb0ELb1EEELb1EEixERS8_>
  40501c:	aa0003e1 	mov	x1, x0
  405020:	aa1503e0 	mov	x0, x21
  405024:	9400185b 	bl	40b190 <_ZNSt8__detail9_Map_baseIiSt4pairIKiiESaIS3_ENS_10_Select1stESt8equal_toIiESt4hashIiENS_18_Mod_range_hashingENS_20_Default_ranged_hashENS_20_Prime_rehash_policyENS_17_Hashtable_traitsILb0ELb0ELb1EEELb1EE2atERS2_>
  405028:	aa0003e2 	mov	x2, x0
  40502c:	aa1403e1 	mov	x1, x20
  405030:	aa1603e0 	mov	x0, x22
  405034:	b940005c 	ldr	w28, [x2]
  405038:	94001a86 	bl	40ba50 <_ZNSt8__detail9_Map_baseINSt7__cxx1112basic_stringIcSt11char_traitsIcESaIcEEESt4pairIKS6_iESaIS9_ENS_10_Select1stESt8equal_toIS6_ESt4hashIS6_ENS_18_Mod_range_hashingENS_20_Default_ranged_hashENS_20_Prime_rehash_policyENS_17_Hashtable_traitsILb1ELb0ELb1EEELb1EEixERS8_>
  40503c:	aa0003e1 	mov	x1, x0
  405040:	aa1503e0 	mov	x0, x21
  405044:	94001853 	bl	40b190 <_ZNSt8__detail9_Map_baseIiSt4pairIKiiESaIS3_ENS_10_Select1stESt8equal_toIiESt4hashIiENS_18_Mod_range_hashingENS_20_Default_ranged_hashENS_20_Prime_rehash_policyENS_17_Hashtable_traitsILb0ELb0ELb1EEELb1EE2atERS2_>
  405048:	b9400000 	ldr	w0, [x0]
  40504c:	6b00039f 	cmp	w28, w0
  405050:	540008cc 	b.gt	405168 <_ZSt16__introsort_loopIN9__gnu_cxx17__normal_iteratorIPNSt7__cxx1112basic_stringIcSt11char_traitsIcESaIcEEESt6vectorIS7_SaIS7_EEEElNS0_5__ops15_Iter_comp_iterIZN7segment5orderEvEUlRKS7_SH_E_EEEvT_SK_T0_T1_+0x298>
  405054:	d1008359 	sub	x25, x26, #0x20
  405058:	aa1403e1 	mov	x1, x20
  40505c:	aa1603e0 	mov	x0, x22
  405060:	94001a7c 	bl	40ba50 <_ZNSt8__detail9_Map_baseINSt7__cxx1112basic_stringIcSt11char_traitsIcESaIcEEESt4pairIKS6_iESaIS9_ENS_10_Select1stESt8equal_toIS6_ESt4hashIS6_ENS_18_Mod_range_hashingENS_20_Default_ranged_hashENS_20_Prime_rehash_policyENS_17_Hashtable_traitsILb1ELb0ELb1EEELb1EEixERS8_>
  405064:	b9400008 	ldr	w8, [x0]
  405068:	a9400ea1 	ldp	x1, x3, [x21]
  40506c:	aa1903fa 	mov	x26, x25
  405070:	93407d00 	sxtw	x0, w8
  405074:	9ac30804 	udiv	x4, x0, x3
  405078:	9b038084 	msub	x4, x4, x3, x0
  40507c:	f8647825 	ldr	x5, [x1, x4, lsl #3]
  405080:	b4000cc5 	cbz	x5, 405218 <_ZSt16__introsort_loopIN9__gnu_cxx17__normal_iteratorIPNSt7__cxx1112basic_stringIcSt11char_traitsIcESaIcEEESt6vectorIS7_SaIS7_EEEElNS0_5__ops15_Iter_comp_iterIZN7segment5orderEvEUlRKS7_SH_E_EEEvT_SK_T0_T1_+0x348>
  405084:	f94000a0 	ldr	x0, [x5]
  405088:	b9400801 	ldr	w1, [x0, #8]
  40508c:	6b08003f 	cmp	w1, w8
  405090:	540001a0 	b.eq	4050c4 <_ZSt16__introsort_loopIN9__gnu_cxx17__normal_iteratorIPNSt7__cxx1112basic_stringIcSt11char_traitsIcESaIcEEESt6vectorIS7_SaIS7_EEEElNS0_5__ops15_Iter_comp_iterIZN7segment5orderEvEUlRKS7_SH_E_EEEvT_SK_T0_T1_+0x1f4>  // b.none
  405094:	f9400002 	ldr	x2, [x0]
  405098:	b4000c02 	cbz	x2, 405218 <_ZSt16__introsort_loopIN9__gnu_cxx17__normal_iteratorIPNSt7__cxx1112basic_stringIcSt11char_traitsIcESaIcEEESt6vectorIS7_SaIS7_EEEElNS0_5__ops15_Iter_comp_iterIZN7segment5orderEvEUlRKS7_SH_E_EEEvT_SK_T0_T1_+0x348>
  40509c:	b9400841 	ldr	w1, [x2, #8]
  4050a0:	aa0003e5 	mov	x5, x0
  4050a4:	93407c26 	sxtw	x6, w1
  4050a8:	9ac308c0 	udiv	x0, x6, x3
  4050ac:	9b039800 	msub	x0, x0, x3, x6
  4050b0:	eb00009f 	cmp	x4, x0
  4050b4:	54000b21 	b.ne	405218 <_ZSt16__introsort_loopIN9__gnu_cxx17__normal_iteratorIPNSt7__cxx1112basic_stringIcSt11char_traitsIcESaIcEEESt6vectorIS7_SaIS7_EEEElNS0_5__ops15_Iter_comp_iterIZN7segment5orderEvEUlRKS7_SH_E_EEEvT_SK_T0_T1_+0x348>  // b.any
  4050b8:	aa0203e0 	mov	x0, x2
  4050bc:	6b08003f 	cmp	w1, w8
  4050c0:	54fffea1 	b.ne	405094 <_ZSt16__introsort_loopIN9__gnu_cxx17__normal_iteratorIPNSt7__cxx1112basic_stringIcSt11char_traitsIcESaIcEEESt6vectorIS7_SaIS7_EEEElNS0_5__ops15_Iter_comp_iterIZN7segment5orderEvEUlRKS7_SH_E_EEEvT_SK_T0_T1_+0x1c4>  // b.any
  4050c4:	f94000a2 	ldr	x2, [x5]
  4050c8:	b4000a82 	cbz	x2, 405218 <_ZSt16__introsort_loopIN9__gnu_cxx17__normal_iteratorIPNSt7__cxx1112basic_stringIcSt11char_traitsIcESaIcEEESt6vectorIS7_SaIS7_EEEElNS0_5__ops15_Iter_comp_iterIZN7segment5orderEvEUlRKS7_SH_E_EEEvT_SK_T0_T1_+0x348>
  4050cc:	aa1903e1 	mov	x1, x25
  4050d0:	b9400c5c 	ldr	w28, [x2, #12]
  4050d4:	aa1603e0 	mov	x0, x22
  4050d8:	94001a5e 	bl	40ba50 <_ZNSt8__detail9_Map_baseINSt7__cxx1112basic_stringIcSt11char_traitsIcESaIcEEESt4pairIKS6_iESaIS9_ENS_10_Select1stESt8equal_toIS6_ESt4hashIS6_ENS_18_Mod_range_hashingENS_20_Default_ranged_hashENS_20_Prime_rehash_policyENS_17_Hashtable_traitsILb1ELb0ELb1EEELb1EEixERS8_>
  4050dc:	b9400008 	ldr	w8, [x0]
  4050e0:	a9400ea1 	ldp	x1, x3, [x21]
  4050e4:	93407d00 	sxtw	x0, w8
  4050e8:	9ac30804 	udiv	x4, x0, x3
  4050ec:	9b038084 	msub	x4, x4, x3, x0
  4050f0:	f8647825 	ldr	x5, [x1, x4, lsl #3]
  4050f4:	b4000925 	cbz	x5, 405218 <_ZSt16__introsort_loopIN9__gnu_cxx17__normal_iteratorIPNSt7__cxx1112basic_stringIcSt11char_traitsIcESaIcEEESt6vectorIS7_SaIS7_EEEElNS0_5__ops15_Iter_comp_iterIZN7segment5orderEvEUlRKS7_SH_E_EEEvT_SK_T0_T1_+0x348>
  4050f8:	f94000a0 	ldr	x0, [x5]
  4050fc:	b9400801 	ldr	w1, [x0, #8]
  405100:	6b08003f 	cmp	w1, w8
  405104:	540001a0 	b.eq	405138 <_ZSt16__introsort_loopIN9__gnu_cxx17__normal_iteratorIPNSt7__cxx1112basic_stringIcSt11char_traitsIcESaIcEEESt6vectorIS7_SaIS7_EEEElNS0_5__ops15_Iter_comp_iterIZN7segment5orderEvEUlRKS7_SH_E_EEEvT_SK_T0_T1_+0x268>  // b.none
  405108:	f9400002 	ldr	x2, [x0]
  40510c:	b4000862 	cbz	x2, 405218 <_ZSt16__introsort_loopIN9__gnu_cxx17__normal_iteratorIPNSt7__cxx1112basic_stringIcSt11char_traitsIcESaIcEEESt6vectorIS7_SaIS7_EEEElNS0_5__ops15_Iter_comp_iterIZN7segment5orderEvEUlRKS7_SH_E_EEEvT_SK_T0_T1_+0x348>
  405110:	b9400841 	ldr	w1, [x2, #8]
  405114:	aa0003e5 	mov	x5, x0
  405118:	93407c26 	sxtw	x6, w1
  40511c:	9ac308c0 	udiv	x0, x6, x3
  405120:	9b039800 	msub	x0, x0, x3, x6
  405124:	eb00009f 	cmp	x4, x0
  405128:	54000781 	b.ne	405218 <_ZSt16__introsort_loopIN9__gnu_cxx17__normal_iteratorIPNSt7__cxx1112basic_stringIcSt11char_traitsIcESaIcEEESt6vectorIS7_SaIS7_EEEElNS0_5__ops15_Iter_comp_iterIZN7segment5orderEvEUlRKS7_SH_E_EEEvT_SK_T0_T1_+0x348>  // b.any
  40512c:	aa0203e0 	mov	x0, x2
  405130:	6b08003f 	cmp	w1, w8
  405134:	54fffea1 	b.ne	405108 <_ZSt16__introsort_loopIN9__gnu_cxx17__normal_iteratorIPNSt7__cxx1112basic_stringIcSt11char_traitsIcESaIcEEESt6vectorIS7_SaIS7_EEEElNS0_5__ops15_Iter_comp_iterIZN7segment5orderEvEUlRKS7_SH_E_EEEvT_SK_T0_T1_+0x238>  // b.any
  405138:	f94000a0 	ldr	x0, [x5]
  40513c:	b40006e0 	cbz	x0, 405218 <_ZSt16__introsort_loopIN9__gnu_cxx17__normal_iteratorIPNSt7__cxx1112basic_stringIcSt11char_traitsIcESaIcEEESt6vectorIS7_SaIS7_EEEElNS0_5__ops15_Iter_comp_iterIZN7segment5orderEvEUlRKS7_SH_E_EEEvT_SK_T0_T1_+0x348>
  405140:	b9400c00 	ldr	w0, [x0, #12]
  405144:	d1008339 	sub	x25, x25, #0x20
  405148:	6b00039f 	cmp	w28, w0
  40514c:	54fff86c 	b.gt	405058 <_ZSt16__introsort_loopIN9__gnu_cxx17__normal_iteratorIPNSt7__cxx1112basic_stringIcSt11char_traitsIcESaIcEEESt6vectorIS7_SaIS7_EEEElNS0_5__ops15_Iter_comp_iterIZN7segment5orderEvEUlRKS7_SH_E_EEEvT_SK_T0_T1_+0x188>
  405150:	eb1a031f 	cmp	x24, x26
  405154:	54000742 	b.cs	40523c <_ZSt16__introsort_loopIN9__gnu_cxx17__normal_iteratorIPNSt7__cxx1112basic_stringIcSt11char_traitsIcESaIcEEESt6vectorIS7_SaIS7_EEEElNS0_5__ops15_Iter_comp_iterIZN7segment5orderEvEUlRKS7_SH_E_EEEvT_SK_T0_T1_+0x36c>  // b.hs, b.nlast
  405158:	aa1a03e1 	mov	x1, x26
  40515c:	aa1803e0 	mov	x0, x24
  405160:	97fff374 	bl	401f30 <_ZNSt7__cxx1112basic_stringIcSt11char_traitsIcESaIcEE4swapERS4_@plt>
  405164:	d503201f 	nop
  405168:	91008318 	add	x24, x24, #0x20
  40516c:	17ffffa9 	b	405010 <_ZSt16__introsort_loopIN9__gnu_cxx17__normal_iteratorIPNSt7__cxx1112basic_stringIcSt11char_traitsIcESaIcEEESt6vectorIS7_SaIS7_EEEElNS0_5__ops15_Iter_comp_iterIZN7segment5orderEvEUlRKS7_SH_E_EEEvT_SK_T0_T1_+0x140>
  405170:	aa1b03e1 	mov	x1, x27
  405174:	aa1603e0 	mov	x0, x22
  405178:	94001a36 	bl	40ba50 <_ZNSt8__detail9_Map_baseINSt7__cxx1112basic_stringIcSt11char_traitsIcESaIcEEESt4pairIKS6_iESaIS9_ENS_10_Select1stESt8equal_toIS6_ESt4hashIS6_ENS_18_Mod_range_hashingENS_20_Default_ranged_hashENS_20_Prime_rehash_policyENS_17_Hashtable_traitsILb1ELb0ELb1EEELb1EEixERS8_>
  40517c:	aa0003e1 	mov	x1, x0
  405180:	aa1503e0 	mov	x0, x21
  405184:	94001803 	bl	40b190 <_ZNSt8__detail9_Map_baseIiSt4pairIKiiESaIS3_ENS_10_Select1stESt8equal_toIiESt4hashIiENS_18_Mod_range_hashingENS_20_Default_ranged_hashENS_20_Prime_rehash_policyENS_17_Hashtable_traitsILb0ELb0ELb1EEELb1EE2atERS2_>
  405188:	aa0003e2 	mov	x2, x0
  40518c:	aa1a03e1 	mov	x1, x26
  405190:	aa1603e0 	mov	x0, x22
  405194:	b940005c 	ldr	w28, [x2]
  405198:	94001a2e 	bl	40ba50 <_ZNSt8__detail9_Map_baseINSt7__cxx1112basic_stringIcSt11char_traitsIcESaIcEEESt4pairIKS6_iESaIS9_ENS_10_Select1stESt8equal_toIS6_ESt4hashIS6_ENS_18_Mod_range_hashingENS_20_Default_ranged_hashENS_20_Prime_rehash_policyENS_17_Hashtable_traitsILb1ELb0ELb1EEELb1EEixERS8_>
  40519c:	aa0003e1 	mov	x1, x0
  4051a0:	aa1503e0 	mov	x0, x21
  4051a4:	940017fb 	bl	40b190 <_ZNSt8__detail9_Map_baseIiSt4pairIKiiESaIS3_ENS_10_Select1stESt8equal_toIiESt4hashIiENS_18_Mod_range_hashingENS_20_Default_ranged_hashENS_20_Prime_rehash_policyENS_17_Hashtable_traitsILb0ELb0ELb1EEELb1EE2atERS2_>
  4051a8:	b9400000 	ldr	w0, [x0]
  4051ac:	6b00039f 	cmp	w28, w0
  4051b0:	54fff26c 	b.gt	404ffc <_ZSt16__introsort_loopIN9__gnu_cxx17__normal_iteratorIPNSt7__cxx1112basic_stringIcSt11char_traitsIcESaIcEEESt6vectorIS7_SaIS7_EEEElNS0_5__ops15_Iter_comp_iterIZN7segment5orderEvEUlRKS7_SH_E_EEEvT_SK_T0_T1_+0x12c>
  4051b4:	aa1803e1 	mov	x1, x24
  4051b8:	aa1603e0 	mov	x0, x22
  4051bc:	94001a25 	bl	40ba50 <_ZNSt8__detail9_Map_baseINSt7__cxx1112basic_stringIcSt11char_traitsIcESaIcEEESt4pairIKS6_iESaIS9_ENS_10_Select1stESt8equal_toIS6_ESt4hashIS6_ENS_18_Mod_range_hashingENS_20_Default_ranged_hashENS_20_Prime_rehash_policyENS_17_Hashtable_traitsILb1ELb0ELb1EEELb1EEixERS8_>
  4051c0:	aa0003e1 	mov	x1, x0
  4051c4:	aa1503e0 	mov	x0, x21
  4051c8:	940017f2 	bl	40b190 <_ZNSt8__detail9_Map_baseIiSt4pairIKiiESaIS3_ENS_10_Select1stESt8equal_toIiESt4hashIiENS_18_Mod_range_hashingENS_20_Default_ranged_hashENS_20_Prime_rehash_policyENS_17_Hashtable_traitsILb0ELb0ELb1EEELb1EE2atERS2_>
  4051cc:	aa0003e2 	mov	x2, x0
  4051d0:	aa1a03e1 	mov	x1, x26
  4051d4:	aa1603e0 	mov	x0, x22
  4051d8:	b940005c 	ldr	w28, [x2]
  4051dc:	94001a1d 	bl	40ba50 <_ZNSt8__detail9_Map_baseINSt7__cxx1112basic_stringIcSt11char_traitsIcESaIcEEESt4pairIKS6_iESaIS9_ENS_10_Select1stESt8equal_toIS6_ESt4hashIS6_ENS_18_Mod_range_hashingENS_20_Default_ranged_hashENS_20_Prime_rehash_policyENS_17_Hashtable_traitsILb1ELb0ELb1EEELb1EEixERS8_>
  4051e0:	aa0003e1 	mov	x1, x0
  4051e4:	aa1503e0 	mov	x0, x21
  4051e8:	940017ea 	bl	40b190 <_ZNSt8__detail9_Map_baseIiSt4pairIKiiESaIS3_ENS_10_Select1stESt8equal_toIiESt4hashIiENS_18_Mod_range_hashingENS_20_Default_ranged_hashENS_20_Prime_rehash_policyENS_17_Hashtable_traitsILb0ELb0ELb1EEELb1EE2atERS2_>
  4051ec:	b9400000 	ldr	w0, [x0]
  4051f0:	6b00039f 	cmp	w28, w0
  4051f4:	540000ad 	b.le	405208 <_ZSt16__introsort_loopIN9__gnu_cxx17__normal_iteratorIPNSt7__cxx1112basic_stringIcSt11char_traitsIcESaIcEEESt6vectorIS7_SaIS7_EEEElNS0_5__ops15_Iter_comp_iterIZN7segment5orderEvEUlRKS7_SH_E_EEEvT_SK_T0_T1_+0x338>
  4051f8:	aa1a03e1 	mov	x1, x26
  4051fc:	aa1403e0 	mov	x0, x20
  405200:	97fff34c 	bl	401f30 <_ZNSt7__cxx1112basic_stringIcSt11char_traitsIcESaIcEE4swapERS4_@plt>
  405204:	17ffff81 	b	405008 <_ZSt16__introsort_loopIN9__gnu_cxx17__normal_iteratorIPNSt7__cxx1112basic_stringIcSt11char_traitsIcESaIcEEESt6vectorIS7_SaIS7_EEEElNS0_5__ops15_Iter_comp_iterIZN7segment5orderEvEUlRKS7_SH_E_EEEvT_SK_T0_T1_+0x138>
  405208:	aa1803e1 	mov	x1, x24
  40520c:	aa1403e0 	mov	x0, x20
  405210:	97fff348 	bl	401f30 <_ZNSt7__cxx1112basic_stringIcSt11char_traitsIcESaIcEE4swapERS4_@plt>
  405214:	17ffff7d 	b	405008 <_ZSt16__introsort_loopIN9__gnu_cxx17__normal_iteratorIPNSt7__cxx1112basic_stringIcSt11char_traitsIcESaIcEEESt6vectorIS7_SaIS7_EEEElNS0_5__ops15_Iter_comp_iterIZN7segment5orderEvEUlRKS7_SH_E_EEEvT_SK_T0_T1_+0x138>
  405218:	b0000060 	adrp	x0, 412000 <_Z19MD5Hash_simdversionPKNSt7__cxx1112basic_stringIcSt11char_traitsIcESaIcEEEP12__Uint32x4_t+0x1000>
  40521c:	9139a000 	add	x0, x0, #0xe68
  405220:	97fff394 	bl	402070 <_ZSt20__throw_out_of_rangePKc@plt>
  405224:	a9425bf5 	ldp	x21, x22, [sp, #32]
  405228:	a94363f7 	ldp	x23, x24, [sp, #48]
  40522c:	a9446bf9 	ldp	x25, x26, [sp, #64]
  405230:	a94153f3 	ldp	x19, x20, [sp, #16]
  405234:	a8cb7bfd 	ldp	x29, x30, [sp], #176
  405238:	d65f03c0 	ret
  40523c:	f94037e0 	ldr	x0, [sp, #104]
  405240:	aa1303e1 	mov	x1, x19
  405244:	aa1703e3 	mov	x3, x23
  405248:	d1000400 	sub	x0, x0, #0x1
  40524c:	f90037e0 	str	x0, [sp, #104]
  405250:	aa0003e2 	mov	x2, x0
  405254:	aa1803e0 	mov	x0, x24
  405258:	97ffff1e 	bl	404ed0 <_ZSt16__introsort_loopIN9__gnu_cxx17__normal_iteratorIPNSt7__cxx1112basic_stringIcSt11char_traitsIcESaIcEEESt6vectorIS7_SaIS7_EEEElNS0_5__ops15_Iter_comp_iterIZN7segment5orderEvEUlRKS7_SH_E_EEEvT_SK_T0_T1_>
  40525c:	cb140300 	sub	x0, x24, x20
  405260:	f108001f 	cmp	x0, #0x200
  405264:	540014ad 	b.le	4054f8 <_ZSt16__introsort_loopIN9__gnu_cxx17__normal_iteratorIPNSt7__cxx1112basic_stringIcSt11char_traitsIcESaIcEEESt6vectorIS7_SaIS7_EEEElNS0_5__ops15_Iter_comp_iterIZN7segment5orderEvEUlRKS7_SH_E_EEEvT_SK_T0_T1_+0x628>
  405268:	f94037e1 	ldr	x1, [sp, #104]
  40526c:	aa1803f3 	mov	x19, x24
  405270:	b5ffe541 	cbnz	x1, 404f18 <_ZSt16__introsort_loopIN9__gnu_cxx17__normal_iteratorIPNSt7__cxx1112basic_stringIcSt11char_traitsIcESaIcEEESt6vectorIS7_SaIS7_EEEElNS0_5__ops15_Iter_comp_iterIZN7segment5orderEvEUlRKS7_SH_E_EEEvT_SK_T0_T1_+0x48>
  405274:	a94573fb 	ldp	x27, x28, [sp, #80]
  405278:	9345fc18 	asr	x24, x0, #5
  40527c:	d1000b16 	sub	x22, x24, #0x2
  405280:	910283fa 	add	x26, sp, #0xa0
  405284:	910203f9 	add	x25, sp, #0x80
  405288:	9341fed6 	asr	x22, x22, #1
  40528c:	8b161695 	add	x21, x20, x22, lsl #5
  405290:	910042b5 	add	x21, x21, #0x10
  405294:	f85f02a0 	ldur	x0, [x21, #-16]
  405298:	eb15001f 	cmp	x0, x21
  40529c:	540004c0 	b.eq	405334 <_ZSt16__introsort_loopIN9__gnu_cxx17__normal_iteratorIPNSt7__cxx1112basic_stringIcSt11char_traitsIcESaIcEEESt6vectorIS7_SaIS7_EEEElNS0_5__ops15_Iter_comp_iterIZN7segment5orderEvEUlRKS7_SH_E_EEEvT_SK_T0_T1_+0x464>  // b.none
  4052a0:	a97f86a5 	ldp	x5, x1, [x21, #-8]
  4052a4:	a93f7eb5 	stp	x21, xzr, [x21, #-16]
  4052a8:	390002bf 	strb	wzr, [x21]
  4052ac:	f9003be0 	str	x0, [sp, #112]
  4052b0:	f90043e1 	str	x1, [sp, #128]
  4052b4:	f9004bfa 	str	x26, [sp, #144]
  4052b8:	eb19001f 	cmp	x0, x25
  4052bc:	54000480 	b.eq	40534c <_ZSt16__introsort_loopIN9__gnu_cxx17__normal_iteratorIPNSt7__cxx1112basic_stringIcSt11char_traitsIcESaIcEEESt6vectorIS7_SaIS7_EEEElNS0_5__ops15_Iter_comp_iterIZN7segment5orderEvEUlRKS7_SH_E_EEEvT_SK_T0_T1_+0x47c>  // b.none
  4052c0:	f9004be0 	str	x0, [sp, #144]
  4052c4:	f90053e1 	str	x1, [sp, #160]
  4052c8:	aa1703e4 	mov	x4, x23
  4052cc:	910243e3 	add	x3, sp, #0x90
  4052d0:	aa1803e2 	mov	x2, x24
  4052d4:	aa1603e1 	mov	x1, x22
  4052d8:	aa1403e0 	mov	x0, x20
  4052dc:	a9077ff9 	stp	x25, xzr, [sp, #112]
  4052e0:	390203ff 	strb	wzr, [sp, #128]
  4052e4:	f9004fe5 	str	x5, [sp, #152]
  4052e8:	97fffdba 	bl	4049d0 <_ZSt13__adjust_heapIN9__gnu_cxx17__normal_iteratorIPNSt7__cxx1112basic_stringIcSt11char_traitsIcESaIcEEESt6vectorIS7_SaIS7_EEEElS7_NS0_5__ops15_Iter_comp_iterIZN7segment5orderEvEUlRKS7_SH_E_EEEvT_T0_SL_T1_T2_>
  4052ec:	f9404be0 	ldr	x0, [sp, #144]
  4052f0:	eb1a001f 	cmp	x0, x26
  4052f4:	54000080 	b.eq	405304 <_ZSt16__introsort_loopIN9__gnu_cxx17__normal_iteratorIPNSt7__cxx1112basic_stringIcSt11char_traitsIcESaIcEEESt6vectorIS7_SaIS7_EEEElNS0_5__ops15_Iter_comp_iterIZN7segment5orderEvEUlRKS7_SH_E_EEEvT_SK_T0_T1_+0x434>  // b.none
  4052f8:	f94053e1 	ldr	x1, [sp, #160]
  4052fc:	91000421 	add	x1, x1, #0x1
  405300:	97fff324 	bl	401f90 <_ZdlPvm@plt>
  405304:	f9403be0 	ldr	x0, [sp, #112]
  405308:	b4000296 	cbz	x22, 405358 <_ZSt16__introsort_loopIN9__gnu_cxx17__normal_iteratorIPNSt7__cxx1112basic_stringIcSt11char_traitsIcESaIcEEESt6vectorIS7_SaIS7_EEEElNS0_5__ops15_Iter_comp_iterIZN7segment5orderEvEUlRKS7_SH_E_EEEvT_SK_T0_T1_+0x488>
  40530c:	d10006d6 	sub	x22, x22, #0x1
  405310:	eb19001f 	cmp	x0, x25
  405314:	54000080 	b.eq	405324 <_ZSt16__introsort_loopIN9__gnu_cxx17__normal_iteratorIPNSt7__cxx1112basic_stringIcSt11char_traitsIcESaIcEEESt6vectorIS7_SaIS7_EEEElNS0_5__ops15_Iter_comp_iterIZN7segment5orderEvEUlRKS7_SH_E_EEEvT_SK_T0_T1_+0x454>  // b.none
  405318:	f94043e1 	ldr	x1, [sp, #128]
  40531c:	91000421 	add	x1, x1, #0x1
  405320:	97fff31c 	bl	401f90 <_ZdlPvm@plt>
  405324:	f85d02a0 	ldur	x0, [x21, #-48]
  405328:	d10082b5 	sub	x21, x21, #0x20
  40532c:	eb15001f 	cmp	x0, x21
  405330:	54fffb81 	b.ne	4052a0 <_ZSt16__introsort_loopIN9__gnu_cxx17__normal_iteratorIPNSt7__cxx1112basic_stringIcSt11char_traitsIcESaIcEEESt6vectorIS7_SaIS7_EEEElNS0_5__ops15_Iter_comp_iterIZN7segment5orderEvEUlRKS7_SH_E_EEEvT_SK_T0_T1_+0x3d0>  // b.any
  405334:	a94006a0 	ldp	x0, x1, [x21]
  405338:	390002bf 	strb	wzr, [x21]
  40533c:	a90807e0 	stp	x0, x1, [sp, #128]
  405340:	f9004bfa 	str	x26, [sp, #144]
  405344:	f85f82a5 	ldur	x5, [x21, #-8]
  405348:	f81f82bf 	stur	xzr, [x21, #-8]
  40534c:	a94807e0 	ldp	x0, x1, [sp, #128]
  405350:	a90a07e0 	stp	x0, x1, [sp, #160]
  405354:	17ffffdd 	b	4052c8 <_ZSt16__introsort_loopIN9__gnu_cxx17__normal_iteratorIPNSt7__cxx1112basic_stringIcSt11char_traitsIcESaIcEEESt6vectorIS7_SaIS7_EEEElNS0_5__ops15_Iter_comp_iterIZN7segment5orderEvEUlRKS7_SH_E_EEEvT_SK_T0_T1_+0x3f8>
  405358:	910203e1 	add	x1, sp, #0x80
  40535c:	eb01001f 	cmp	x0, x1
  405360:	54000080 	b.eq	405370 <_ZSt16__introsort_loopIN9__gnu_cxx17__normal_iteratorIPNSt7__cxx1112basic_stringIcSt11char_traitsIcESaIcEEESt6vectorIS7_SaIS7_EEEElNS0_5__ops15_Iter_comp_iterIZN7segment5orderEvEUlRKS7_SH_E_EEEvT_SK_T0_T1_+0x4a0>  // b.none
  405364:	f94043e1 	ldr	x1, [sp, #128]
  405368:	91000421 	add	x1, x1, #0x1
  40536c:	97fff309 	bl	401f90 <_ZdlPvm@plt>
  405370:	d1004273 	sub	x19, x19, #0x10
  405374:	91004298 	add	x24, x20, #0x10
  405378:	910203f6 	add	x22, sp, #0x80
  40537c:	910283f9 	add	x25, sp, #0xa0
  405380:	14000035 	b	405454 <_ZSt16__introsort_loopIN9__gnu_cxx17__normal_iteratorIPNSt7__cxx1112basic_stringIcSt11char_traitsIcESaIcEEESt6vectorIS7_SaIS7_EEEElNS0_5__ops15_Iter_comp_iterIZN7segment5orderEvEUlRKS7_SH_E_EEEvT_SK_T0_T1_+0x584>
  405384:	f81f0273 	stur	x19, [x19, #-16]
  405388:	f9400261 	ldr	x1, [x19]
  40538c:	3900027f 	strb	wzr, [x19]
  405390:	f9003be0 	str	x0, [sp, #112]
  405394:	f85f8260 	ldur	x0, [x19, #-8]
  405398:	f9003fe0 	str	x0, [sp, #120]
  40539c:	f9400280 	ldr	x0, [x20]
  4053a0:	f81f827f 	stur	xzr, [x19, #-8]
  4053a4:	f90043e1 	str	x1, [sp, #128]
  4053a8:	eb18001f 	cmp	x0, x24
  4053ac:	54000720 	b.eq	405490 <_ZSt16__introsort_loopIN9__gnu_cxx17__normal_iteratorIPNSt7__cxx1112basic_stringIcSt11char_traitsIcESaIcEEESt6vectorIS7_SaIS7_EEEElNS0_5__ops15_Iter_comp_iterIZN7segment5orderEvEUlRKS7_SH_E_EEEvT_SK_T0_T1_+0x5c0>  // b.none
  4053b0:	f9400681 	ldr	x1, [x20, #8]
  4053b4:	a93f0660 	stp	x0, x1, [x19, #-16]
  4053b8:	aa1803e0 	mov	x0, x24
  4053bc:	f9400a81 	ldr	x1, [x20, #16]
  4053c0:	f9000261 	str	x1, [x19]
  4053c4:	f9000298 	str	x24, [x20]
  4053c8:	cb1402b5 	sub	x21, x21, x20
  4053cc:	f900069f 	str	xzr, [x20, #8]
  4053d0:	3900001f 	strb	wzr, [x0]
  4053d4:	9345fea2 	asr	x2, x21, #5
  4053d8:	f9004bf9 	str	x25, [sp, #144]
  4053dc:	f9403be0 	ldr	x0, [sp, #112]
  4053e0:	eb16001f 	cmp	x0, x22
  4053e4:	540007c0 	b.eq	4054dc <_ZSt16__introsort_loopIN9__gnu_cxx17__normal_iteratorIPNSt7__cxx1112basic_stringIcSt11char_traitsIcESaIcEEESt6vectorIS7_SaIS7_EEEElNS0_5__ops15_Iter_comp_iterIZN7segment5orderEvEUlRKS7_SH_E_EEEvT_SK_T0_T1_+0x60c>  // b.none
  4053e8:	f94043e1 	ldr	x1, [sp, #128]
  4053ec:	f9004be0 	str	x0, [sp, #144]
  4053f0:	f90053e1 	str	x1, [sp, #160]
  4053f4:	f9403fe5 	ldr	x5, [sp, #120]
  4053f8:	aa1703e4 	mov	x4, x23
  4053fc:	910243e3 	add	x3, sp, #0x90
  405400:	aa1403e0 	mov	x0, x20
  405404:	d2800001 	mov	x1, #0x0                   	// #0
  405408:	a9077ff6 	stp	x22, xzr, [sp, #112]
  40540c:	390203ff 	strb	wzr, [sp, #128]
  405410:	f9004fe5 	str	x5, [sp, #152]
  405414:	97fffd6f 	bl	4049d0 <_ZSt13__adjust_heapIN9__gnu_cxx17__normal_iteratorIPNSt7__cxx1112basic_stringIcSt11char_traitsIcESaIcEEESt6vectorIS7_SaIS7_EEEElS7_NS0_5__ops15_Iter_comp_iterIZN7segment5orderEvEUlRKS7_SH_E_EEEvT_T0_SL_T1_T2_>
  405418:	f9404be0 	ldr	x0, [sp, #144]
  40541c:	eb19001f 	cmp	x0, x25
  405420:	54000080 	b.eq	405430 <_ZSt16__introsort_loopIN9__gnu_cxx17__normal_iteratorIPNSt7__cxx1112basic_stringIcSt11char_traitsIcESaIcEEESt6vectorIS7_SaIS7_EEEElNS0_5__ops15_Iter_comp_iterIZN7segment5orderEvEUlRKS7_SH_E_EEEvT_SK_T0_T1_+0x560>  // b.none
  405424:	f94053e1 	ldr	x1, [sp, #160]
  405428:	91000421 	add	x1, x1, #0x1
  40542c:	97fff2d9 	bl	401f90 <_ZdlPvm@plt>
  405430:	f9403be0 	ldr	x0, [sp, #112]
  405434:	eb16001f 	cmp	x0, x22
  405438:	54000080 	b.eq	405448 <_ZSt16__introsort_loopIN9__gnu_cxx17__normal_iteratorIPNSt7__cxx1112basic_stringIcSt11char_traitsIcESaIcEEESt6vectorIS7_SaIS7_EEEElNS0_5__ops15_Iter_comp_iterIZN7segment5orderEvEUlRKS7_SH_E_EEEvT_SK_T0_T1_+0x578>  // b.none
  40543c:	f94043e1 	ldr	x1, [sp, #128]
  405440:	91000421 	add	x1, x1, #0x1
  405444:	97fff2d3 	bl	401f90 <_ZdlPvm@plt>
  405448:	d1008273 	sub	x19, x19, #0x20
  40544c:	f10082bf 	cmp	x21, #0x20
  405450:	54ffeead 	b.le	405224 <_ZSt16__introsort_loopIN9__gnu_cxx17__normal_iteratorIPNSt7__cxx1112basic_stringIcSt11char_traitsIcESaIcEEESt6vectorIS7_SaIS7_EEEElNS0_5__ops15_Iter_comp_iterIZN7segment5orderEvEUlRKS7_SH_E_EEEvT_SK_T0_T1_+0x354>
  405454:	f85f0260 	ldur	x0, [x19, #-16]
  405458:	f9003bf6 	str	x22, [sp, #112]
  40545c:	d1004275 	sub	x21, x19, #0x10
  405460:	eb13001f 	cmp	x0, x19
  405464:	54fff901 	b.ne	405384 <_ZSt16__introsort_loopIN9__gnu_cxx17__normal_iteratorIPNSt7__cxx1112basic_stringIcSt11char_traitsIcESaIcEEESt6vectorIS7_SaIS7_EEEElNS0_5__ops15_Iter_comp_iterIZN7segment5orderEvEUlRKS7_SH_E_EEEvT_SK_T0_T1_+0x4b4>  // b.any
  405468:	a9400660 	ldp	x0, x1, [x19]
  40546c:	f81f0273 	stur	x19, [x19, #-16]
  405470:	3900027f 	strb	wzr, [x19]
  405474:	a90807e0 	stp	x0, x1, [sp, #128]
  405478:	f85f8260 	ldur	x0, [x19, #-8]
  40547c:	f9003fe0 	str	x0, [sp, #120]
  405480:	f9400280 	ldr	x0, [x20]
  405484:	f81f827f 	stur	xzr, [x19, #-8]
  405488:	eb18001f 	cmp	x0, x24
  40548c:	54fff921 	b.ne	4053b0 <_ZSt16__introsort_loopIN9__gnu_cxx17__normal_iteratorIPNSt7__cxx1112basic_stringIcSt11char_traitsIcESaIcEEESt6vectorIS7_SaIS7_EEEElNS0_5__ops15_Iter_comp_iterIZN7segment5orderEvEUlRKS7_SH_E_EEEvT_SK_T0_T1_+0x4e0>  // b.any
  405490:	f9400682 	ldr	x2, [x20, #8]
  405494:	b40000e2 	cbz	x2, 4054b0 <_ZSt16__introsort_loopIN9__gnu_cxx17__normal_iteratorIPNSt7__cxx1112basic_stringIcSt11char_traitsIcESaIcEEESt6vectorIS7_SaIS7_EEEElNS0_5__ops15_Iter_comp_iterIZN7segment5orderEvEUlRKS7_SH_E_EEEvT_SK_T0_T1_+0x5e0>
  405498:	f100045f 	cmp	x2, #0x1
  40549c:	54000260 	b.eq	4054e8 <_ZSt16__introsort_loopIN9__gnu_cxx17__normal_iteratorIPNSt7__cxx1112basic_stringIcSt11char_traitsIcESaIcEEESt6vectorIS7_SaIS7_EEEElNS0_5__ops15_Iter_comp_iterIZN7segment5orderEvEUlRKS7_SH_E_EEEvT_SK_T0_T1_+0x618>  // b.none
  4054a0:	aa1803e1 	mov	x1, x24
  4054a4:	aa1303e0 	mov	x0, x19
  4054a8:	97fff256 	bl	401e00 <memcpy@plt>
  4054ac:	f9400682 	ldr	x2, [x20, #8]
  4054b0:	f81f8262 	stur	x2, [x19, #-8]
  4054b4:	38226a7f 	strb	wzr, [x19, x2]
  4054b8:	cb1402b5 	sub	x21, x21, x20
  4054bc:	f900069f 	str	xzr, [x20, #8]
  4054c0:	f9400280 	ldr	x0, [x20]
  4054c4:	9345fea2 	asr	x2, x21, #5
  4054c8:	3900001f 	strb	wzr, [x0]
  4054cc:	f9004bf9 	str	x25, [sp, #144]
  4054d0:	f9403be0 	ldr	x0, [sp, #112]
  4054d4:	eb16001f 	cmp	x0, x22
  4054d8:	54fff881 	b.ne	4053e8 <_ZSt16__introsort_loopIN9__gnu_cxx17__normal_iteratorIPNSt7__cxx1112basic_stringIcSt11char_traitsIcESaIcEEESt6vectorIS7_SaIS7_EEEElNS0_5__ops15_Iter_comp_iterIZN7segment5orderEvEUlRKS7_SH_E_EEEvT_SK_T0_T1_+0x518>  // b.any
  4054dc:	a94807e0 	ldp	x0, x1, [sp, #128]
  4054e0:	a90a07e0 	stp	x0, x1, [sp, #160]
  4054e4:	17ffffc4 	b	4053f4 <_ZSt16__introsort_loopIN9__gnu_cxx17__normal_iteratorIPNSt7__cxx1112basic_stringIcSt11char_traitsIcESaIcEEESt6vectorIS7_SaIS7_EEEElNS0_5__ops15_Iter_comp_iterIZN7segment5orderEvEUlRKS7_SH_E_EEEvT_SK_T0_T1_+0x524>
  4054e8:	39404280 	ldrb	w0, [x20, #16]
  4054ec:	39000260 	strb	w0, [x19]
  4054f0:	f9400682 	ldr	x2, [x20, #8]
  4054f4:	17ffffef 	b	4054b0 <_ZSt16__introsort_loopIN9__gnu_cxx17__normal_iteratorIPNSt7__cxx1112basic_stringIcSt11char_traitsIcESaIcEEESt6vectorIS7_SaIS7_EEEElNS0_5__ops15_Iter_comp_iterIZN7segment5orderEvEUlRKS7_SH_E_EEEvT_SK_T0_T1_+0x5e0>
  4054f8:	a9425bf5 	ldp	x21, x22, [sp, #32]
  4054fc:	a94363f7 	ldp	x23, x24, [sp, #48]
  405500:	a9446bf9 	ldp	x25, x26, [sp, #64]
  405504:	a94573fb 	ldp	x27, x28, [sp, #80]
  405508:	17ffff4a 	b	405230 <_ZSt16__introsort_loopIN9__gnu_cxx17__normal_iteratorIPNSt7__cxx1112basic_stringIcSt11char_traitsIcESaIcEEESt6vectorIS7_SaIS7_EEEElNS0_5__ops15_Iter_comp_iterIZN7segment5orderEvEUlRKS7_SH_E_EEEvT_SK_T0_T1_+0x360>
  40550c:	aa0003f3 	mov	x19, x0
  405510:	910243e0 	add	x0, sp, #0x90
  405514:	a90573fb 	stp	x27, x28, [sp, #80]
  405518:	97fff2b2 	bl	401fe0 <_ZNSt7__cxx1112basic_stringIcSt11char_traitsIcESaIcEE10_M_disposeEv@plt>
  40551c:	9101c3e0 	add	x0, sp, #0x70
  405520:	97fff2b0 	bl	401fe0 <_ZNSt7__cxx1112basic_stringIcSt11char_traitsIcESaIcEE10_M_disposeEv@plt>
  405524:	aa1303e0 	mov	x0, x19
  405528:	97fff2fe 	bl	402120 <_Unwind_Resume@plt>
  40552c:	17fffff8 	b	40550c <_ZSt16__introsort_loopIN9__gnu_cxx17__normal_iteratorIPNSt7__cxx1112basic_stringIcSt11char_traitsIcESaIcEEESt6vectorIS7_SaIS7_EEEElNS0_5__ops15_Iter_comp_iterIZN7segment5orderEvEUlRKS7_SH_E_EEEvT_SK_T0_T1_+0x63c>

0000000000405530 <_ZN7segment5orderEv>:
  405530:	a9b87bfd 	stp	x29, x30, [sp, #-128]!
  405534:	910003fd 	mov	x29, sp
  405538:	a9025bf5 	stp	x21, x22, [sp, #32]
  40553c:	91010016 	add	x22, x0, #0x40
  405540:	91002015 	add	x21, x0, #0x8
  405544:	a90153f3 	stp	x19, x20, [sp, #16]
  405548:	aa0003f4 	mov	x20, x0
  40554c:	f9400ad3 	ldr	x19, [x22, #16]
  405550:	a90363f7 	stp	x23, x24, [sp, #48]
  405554:	910163f8 	add	x24, sp, #0x58
  405558:	a9046bf9 	stp	x25, x26, [sp, #64]
  40555c:	91004319 	add	x25, x24, #0x10
  405560:	b5000273 	cbnz	x19, 4055ac <_ZN7segment5orderEv+0x7c>
  405564:	14000023 	b	4055f0 <_ZN7segment5orderEv+0xc0>
  405568:	91004001 	add	x1, x0, #0x10
  40556c:	f94033e2 	ldr	x2, [sp, #96]
  405570:	f9000001 	str	x1, [x0]
  405574:	f9402fe1 	ldr	x1, [sp, #88]
  405578:	8b020022 	add	x2, x1, x2
  40557c:	97fffa32 	bl	403e44 <_ZNSt7__cxx1112basic_stringIcSt11char_traitsIcESaIcEE12_M_constructIPcEEvT_S7_St20forward_iterator_tag.isra.0>
  405580:	f94006a0 	ldr	x0, [x21, #8]
  405584:	91008000 	add	x0, x0, #0x20
  405588:	f90006a0 	str	x0, [x21, #8]
  40558c:	f9402fe0 	ldr	x0, [sp, #88]
  405590:	eb19001f 	cmp	x0, x25
  405594:	54000080 	b.eq	4055a4 <_ZN7segment5orderEv+0x74>  // b.none
  405598:	f94037e1 	ldr	x1, [sp, #104]
  40559c:	91000421 	add	x1, x1, #0x1
  4055a0:	97fff27c 	bl	401f90 <_ZdlPvm@plt>
  4055a4:	f9400273 	ldr	x19, [x19]
  4055a8:	b4000253 	cbz	x19, 4055f0 <_ZN7segment5orderEv+0xc0>
  4055ac:	f9400a62 	ldr	x2, [x19, #16]
  4055b0:	f9002ff9 	str	x25, [sp, #88]
  4055b4:	aa1803e0 	mov	x0, x24
  4055b8:	91002277 	add	x23, x19, #0x8
  4055bc:	f9400661 	ldr	x1, [x19, #8]
  4055c0:	8b020022 	add	x2, x1, x2
  4055c4:	97fffa20 	bl	403e44 <_ZNSt7__cxx1112basic_stringIcSt11char_traitsIcESaIcEE12_M_constructIPcEEvT_S7_St20forward_iterator_tag.isra.0>
  4055c8:	a94086a0 	ldp	x0, x1, [x21, #8]
  4055cc:	b94022e2 	ldr	w2, [x23, #32]
  4055d0:	b9007be2 	str	w2, [sp, #120]
  4055d4:	eb01001f 	cmp	x0, x1
  4055d8:	54fffc81 	b.ne	405568 <_ZN7segment5orderEv+0x38>  // b.any
  4055dc:	aa0003e1 	mov	x1, x0
  4055e0:	aa1803e2 	mov	x2, x24
  4055e4:	aa1503e0 	mov	x0, x21
  4055e8:	94001666 	bl	40af80 <_ZNSt6vectorINSt7__cxx1112basic_stringIcSt11char_traitsIcESaIcEEESaIS5_EE17_M_realloc_insertIJRS5_EEEvN9__gnu_cxx17__normal_iteratorIPS5_S7_EEDpOT_>
  4055ec:	17ffffe8 	b	40558c <_ZN7segment5orderEv+0x5c>
  4055f0:	a940d693 	ldp	x19, x21, [x20, #8]
  4055f4:	eb1302bf 	cmp	x21, x19
  4055f8:	54000680 	b.eq	4056c8 <_ZN7segment5orderEv+0x198>  // b.none
  4055fc:	cb1302b7 	sub	x23, x21, x19
  405600:	528007e2 	mov	w2, #0x3f                  	// #63
  405604:	aa1403e3 	mov	x3, x20
  405608:	aa1503e1 	mov	x1, x21
  40560c:	9345fee4 	asr	x4, x23, #5
  405610:	aa1303e0 	mov	x0, x19
  405614:	dac01084 	clz	x4, x4
  405618:	4b040042 	sub	w2, w2, w4
  40561c:	937f7c42 	sbfiz	x2, x2, #1, #32
  405620:	97fffe2c 	bl	404ed0 <_ZSt16__introsort_loopIN9__gnu_cxx17__normal_iteratorIPNSt7__cxx1112basic_stringIcSt11char_traitsIcESaIcEEESt6vectorIS7_SaIS7_EEEElNS0_5__ops15_Iter_comp_iterIZN7segment5orderEvEUlRKS7_SH_E_EEEvT_SK_T0_T1_>
  405624:	f10802ff 	cmp	x23, #0x200
  405628:	540005cc 	b.gt	4056e0 <_ZN7segment5orderEv+0x1b0>
  40562c:	aa1503e1 	mov	x1, x21
  405630:	aa1303e0 	mov	x0, x19
  405634:	aa1403e2 	mov	x2, x20
  405638:	97fffc42 	bl	404740 <_ZSt16__insertion_sortIN9__gnu_cxx17__normal_iteratorIPNSt7__cxx1112basic_stringIcSt11char_traitsIcESaIcEEESt6vectorIS7_SaIS7_EEEENS0_5__ops15_Iter_comp_iterIZN7segment5orderEvEUlRKS7_SH_E_EEEvT_SK_T0_>
  40563c:	a940e295 	ldp	x21, x24, [x20, #8]
  405640:	eb15031f 	cmp	x24, x21
  405644:	54000420 	b.eq	4056c8 <_ZN7segment5orderEv+0x198>  // b.none
  405648:	91008293 	add	x19, x20, #0x20
  40564c:	9101e297 	add	x23, x20, #0x78
  405650:	14000011 	b	405694 <_ZN7segment5orderEv+0x164>
  405654:	b9400000 	ldr	w0, [x0]
  405658:	b8004420 	str	w0, [x1], #4
  40565c:	f9000661 	str	x1, [x19, #8]
  405660:	aa1503e1 	mov	x1, x21
  405664:	aa1603e0 	mov	x0, x22
  405668:	940018fa 	bl	40ba50 <_ZNSt8__detail9_Map_baseINSt7__cxx1112basic_stringIcSt11char_traitsIcESaIcEEESt4pairIKS6_iESaIS9_ENS_10_Select1stESt8equal_toIS6_ESt4hashIS6_ENS_18_Mod_range_hashingENS_20_Default_ranged_hashENS_20_Prime_rehash_policyENS_17_Hashtable_traitsILb1ELb0ELb1EEELb1EEixERS8_>
  40566c:	aa0003e1 	mov	x1, x0
  405670:	aa1703e0 	mov	x0, x23
  405674:	940016c7 	bl	40b190 <_ZNSt8__detail9_Map_baseIiSt4pairIKiiESaIS3_ENS_10_Select1stESt8equal_toIiESt4hashIiENS_18_Mod_range_hashingENS_20_Default_ranged_hashENS_20_Prime_rehash_policyENS_17_Hashtable_traitsILb0ELb0ELb1EEELb1EE2atERS2_>
  405678:	b9403a81 	ldr	w1, [x20, #56]
  40567c:	910082b5 	add	x21, x21, #0x20
  405680:	b9400000 	ldr	w0, [x0]
  405684:	0b000021 	add	w1, w1, w0
  405688:	b9003a81 	str	w1, [x20, #56]
  40568c:	eb15031f 	cmp	x24, x21
  405690:	54000460 	b.eq	40571c <_ZN7segment5orderEv+0x1ec>  // b.none
  405694:	aa1503e1 	mov	x1, x21
  405698:	aa1603e0 	mov	x0, x22
  40569c:	940018ed 	bl	40ba50 <_ZNSt8__detail9_Map_baseINSt7__cxx1112basic_stringIcSt11char_traitsIcESaIcEEESt4pairIKS6_iESaIS9_ENS_10_Select1stESt8equal_toIS6_ESt4hashIS6_ENS_18_Mod_range_hashingENS_20_Default_ranged_hashENS_20_Prime_rehash_policyENS_17_Hashtable_traitsILb1ELb0ELb1EEELb1EEixERS8_>
  4056a0:	aa0003e1 	mov	x1, x0
  4056a4:	aa1703e0 	mov	x0, x23
  4056a8:	940016ba 	bl	40b190 <_ZNSt8__detail9_Map_baseIiSt4pairIKiiESaIS3_ENS_10_Select1stESt8equal_toIiESt4hashIiENS_18_Mod_range_hashingENS_20_Default_ranged_hashENS_20_Prime_rehash_policyENS_17_Hashtable_traitsILb0ELb0ELb1EEELb1EE2atERS2_>
  4056ac:	a9408a61 	ldp	x1, x2, [x19, #8]
  4056b0:	eb02003f 	cmp	x1, x2
  4056b4:	54fffd01 	b.ne	405654 <_ZN7segment5orderEv+0x124>  // b.any
  4056b8:	aa0003e2 	mov	x2, x0
  4056bc:	aa1303e0 	mov	x0, x19
  4056c0:	940016d8 	bl	40b220 <_ZNSt6vectorIiSaIiEE17_M_realloc_insertIJRiEEEvN9__gnu_cxx17__normal_iteratorIPiS1_EEDpOT_>
  4056c4:	17ffffe7 	b	405660 <_ZN7segment5orderEv+0x130>
  4056c8:	a94153f3 	ldp	x19, x20, [sp, #16]
  4056cc:	a9425bf5 	ldp	x21, x22, [sp, #32]
  4056d0:	a94363f7 	ldp	x23, x24, [sp, #48]
  4056d4:	a9446bf9 	ldp	x25, x26, [sp, #64]
  4056d8:	a8c87bfd 	ldp	x29, x30, [sp], #128
  4056dc:	d65f03c0 	ret
  4056e0:	91080261 	add	x1, x19, #0x200
  4056e4:	aa1303e0 	mov	x0, x19
  4056e8:	aa1403e2 	mov	x2, x20
  4056ec:	aa0103f3 	mov	x19, x1
  4056f0:	97fffc14 	bl	404740 <_ZSt16__insertion_sortIN9__gnu_cxx17__normal_iteratorIPNSt7__cxx1112basic_stringIcSt11char_traitsIcESaIcEEESt6vectorIS7_SaIS7_EEEENS0_5__ops15_Iter_comp_iterIZN7segment5orderEvEUlRKS7_SH_E_EEEvT_SK_T0_>
  4056f4:	eb1302bf 	cmp	x21, x19
  4056f8:	54fffa20 	b.eq	40563c <_ZN7segment5orderEv+0x10c>  // b.none
  4056fc:	d503201f 	nop
  405700:	aa1303e0 	mov	x0, x19
  405704:	aa1403e1 	mov	x1, x20
  405708:	91008273 	add	x19, x19, #0x20
  40570c:	97fffb85 	bl	404520 <_ZSt25__unguarded_linear_insertIN9__gnu_cxx17__normal_iteratorIPNSt7__cxx1112basic_stringIcSt11char_traitsIcESaIcEEESt6vectorIS7_SaIS7_EEEENS0_5__ops14_Val_comp_iterIZN7segment5orderEvEUlRKS7_SH_E_EEEvT_T0_>
  405710:	eb1302bf 	cmp	x21, x19
  405714:	54ffff61 	b.ne	405700 <_ZN7segment5orderEv+0x1d0>  // b.any
  405718:	17ffffc9 	b	40563c <_ZN7segment5orderEv+0x10c>
  40571c:	a940ea95 	ldp	x21, x26, [x20, #8]
  405720:	eb15035f 	cmp	x26, x21
  405724:	54fffd20 	b.eq	4056c8 <_ZN7segment5orderEv+0x198>  // b.none
  405728:	910163f8 	add	x24, sp, #0x58
  40572c:	91004319 	add	x25, x24, #0x10
  405730:	14000018 	b	405790 <_ZN7segment5orderEv+0x260>
  405734:	b9400000 	ldr	w0, [x0]
  405738:	b8004420 	str	w0, [x1], #4
  40573c:	f9000661 	str	x1, [x19, #8]
  405740:	aa1803e1 	mov	x1, x24
  405744:	aa1603e0 	mov	x0, x22
  405748:	940018c2 	bl	40ba50 <_ZNSt8__detail9_Map_baseINSt7__cxx1112basic_stringIcSt11char_traitsIcESaIcEEESt4pairIKS6_iESaIS9_ENS_10_Select1stESt8equal_toIS6_ESt4hashIS6_ENS_18_Mod_range_hashingENS_20_Default_ranged_hashENS_20_Prime_rehash_policyENS_17_Hashtable_traitsILb1ELb0ELb1EEELb1EEixERS8_>
  40574c:	aa0003e1 	mov	x1, x0
  405750:	aa1703e0 	mov	x0, x23
  405754:	9400168f 	bl	40b190 <_ZNSt8__detail9_Map_baseIiSt4pairIKiiESaIS3_ENS_10_Select1stESt8equal_toIiESt4hashIiENS_18_Mod_range_hashingENS_20_Default_ranged_hashENS_20_Prime_rehash_policyENS_17_Hashtable_traitsILb0ELb0ELb1EEELb1EE2atERS2_>
  405758:	b9400000 	ldr	w0, [x0]
  40575c:	b9403a81 	ldr	w1, [x20, #56]
  405760:	f9402fe2 	ldr	x2, [sp, #88]
  405764:	0b000021 	add	w1, w1, w0
  405768:	b9003a81 	str	w1, [x20, #56]
  40576c:	eb19005f 	cmp	x2, x25
  405770:	540000a0 	b.eq	405784 <_ZN7segment5orderEv+0x254>  // b.none
  405774:	f94037e1 	ldr	x1, [sp, #104]
  405778:	aa0203e0 	mov	x0, x2
  40577c:	91000421 	add	x1, x1, #0x1
  405780:	97fff204 	bl	401f90 <_ZdlPvm@plt>
  405784:	910082b5 	add	x21, x21, #0x20
  405788:	eb15035f 	cmp	x26, x21
  40578c:	54fff9e0 	b.eq	4056c8 <_ZN7segment5orderEv+0x198>  // b.none
  405790:	f94006a2 	ldr	x2, [x21, #8]
  405794:	f9002ff9 	str	x25, [sp, #88]
  405798:	aa1803e0 	mov	x0, x24
  40579c:	f94002a1 	ldr	x1, [x21]
  4057a0:	8b020022 	add	x2, x1, x2
  4057a4:	97fff9a8 	bl	403e44 <_ZNSt7__cxx1112basic_stringIcSt11char_traitsIcESaIcEE12_M_constructIPcEEvT_S7_St20forward_iterator_tag.isra.0>
  4057a8:	aa1803e1 	mov	x1, x24
  4057ac:	aa1603e0 	mov	x0, x22
  4057b0:	940018a8 	bl	40ba50 <_ZNSt8__detail9_Map_baseINSt7__cxx1112basic_stringIcSt11char_traitsIcESaIcEEESt4pairIKS6_iESaIS9_ENS_10_Select1stESt8equal_toIS6_ESt4hashIS6_ENS_18_Mod_range_hashingENS_20_Default_ranged_hashENS_20_Prime_rehash_policyENS_17_Hashtable_traitsILb1ELb0ELb1EEELb1EEixERS8_>
  4057b4:	aa0003e1 	mov	x1, x0
  4057b8:	aa1703e0 	mov	x0, x23
  4057bc:	94001675 	bl	40b190 <_ZNSt8__detail9_Map_baseIiSt4pairIKiiESaIS3_ENS_10_Select1stESt8equal_toIiESt4hashIiENS_18_Mod_range_hashingENS_20_Default_ranged_hashENS_20_Prime_rehash_policyENS_17_Hashtable_traitsILb0ELb0ELb1EEELb1EE2atERS2_>
  4057c0:	a9408a61 	ldp	x1, x2, [x19, #8]
  4057c4:	eb02003f 	cmp	x1, x2
  4057c8:	54fffb61 	b.ne	405734 <_ZN7segment5orderEv+0x204>  // b.any
  4057cc:	aa0003e2 	mov	x2, x0
  4057d0:	aa1303e0 	mov	x0, x19
  4057d4:	94001693 	bl	40b220 <_ZNSt6vectorIiSaIiEE17_M_realloc_insertIJRiEEEvN9__gnu_cxx17__normal_iteratorIPiS1_EEDpOT_>
  4057d8:	17ffffda 	b	405740 <_ZN7segment5orderEv+0x210>
  4057dc:	aa0003f3 	mov	x19, x0
  4057e0:	aa1803e0 	mov	x0, x24
  4057e4:	97fff1ff 	bl	401fe0 <_ZNSt7__cxx1112basic_stringIcSt11char_traitsIcESaIcEE10_M_disposeEv@plt>
  4057e8:	aa1303e0 	mov	x0, x19
  4057ec:	97fff24d 	bl	402120 <_Unwind_Resume@plt>
  4057f0:	17fffffb 	b	4057dc <_ZN7segment5orderEv+0x2ac>

00000000004057f4 <_ZNSt10_HashtableIiSt4pairIKiiESaIS2_ENSt8__detail10_Select1stESt8equal_toIiESt4hashIiENS4_18_Mod_range_hashingENS4_20_Default_ranged_hashENS4_20_Prime_rehash_policyENS4_17_Hashtable_traitsILb0ELb0ELb1EEEE21_M_insert_unique_nodeERS1_mmPNS4_10_Hash_nodeIS2_Lb0EEEm.isra.0>:
  4057f4:	a9bc7bfd 	stp	x29, x30, [sp, #-64]!
  4057f8:	910003fd 	mov	x29, sp
  4057fc:	a90153f3 	stp	x19, x20, [sp, #16]
  405800:	aa0103f4 	mov	x20, x1
  405804:	aa0003f3 	mov	x19, x0
  405808:	a9025bf5 	stp	x21, x22, [sp, #32]
  40580c:	aa0303f5 	mov	x21, x3
  405810:	aa0203f6 	mov	x22, x2
  405814:	aa0403e3 	mov	x3, x4
  405818:	91008000 	add	x0, x0, #0x20
  40581c:	f85e8001 	ldur	x1, [x0, #-24]
  405820:	f85f8002 	ldur	x2, [x0, #-8]
  405824:	f9400404 	ldr	x4, [x0, #8]
  405828:	f9001fe4 	str	x4, [sp, #56]
  40582c:	97fff205 	bl	402040 <_ZNKSt8__detail20_Prime_rehash_policy14_M_need_rehashEmmm@plt>
  405830:	72001c1f 	tst	w0, #0xff
  405834:	54000221 	b.ne	405878 <_ZNSt10_HashtableIiSt4pairIKiiESaIS2_ENSt8__detail10_Select1stESt8equal_toIiESt4hashIiENS4_18_Mod_range_hashingENS4_20_Default_ranged_hashENS4_20_Prime_rehash_policyENS4_17_Hashtable_traitsILb0ELb0ELb1EEEE21_M_insert_unique_nodeERS1_mmPNS4_10_Hash_nodeIS2_Lb0EEEm.isra.0+0x84>  // b.any
  405838:	f9400260 	ldr	x0, [x19]
  40583c:	d37df282 	lsl	x2, x20, #3
  405840:	f8747801 	ldr	x1, [x0, x20, lsl #3]
  405844:	b40002e1 	cbz	x1, 4058a0 <_ZNSt10_HashtableIiSt4pairIKiiESaIS2_ENSt8__detail10_Select1stESt8equal_toIiESt4hashIiENS4_18_Mod_range_hashingENS4_20_Default_ranged_hashENS4_20_Prime_rehash_policyENS4_17_Hashtable_traitsILb0ELb0ELb1EEEE21_M_insert_unique_nodeERS1_mmPNS4_10_Hash_nodeIS2_Lb0EEEm.isra.0+0xac>
  405848:	f9400021 	ldr	x1, [x1]
  40584c:	f90002a1 	str	x1, [x21]
  405850:	f9400e61 	ldr	x1, [x19, #24]
  405854:	f8747800 	ldr	x0, [x0, x20, lsl #3]
  405858:	91000421 	add	x1, x1, #0x1
  40585c:	f9000015 	str	x21, [x0]
  405860:	aa1503e0 	mov	x0, x21
  405864:	a9425bf5 	ldp	x21, x22, [sp, #32]
  405868:	f9000e61 	str	x1, [x19, #24]
  40586c:	a94153f3 	ldp	x19, x20, [sp, #16]
  405870:	a8c47bfd 	ldp	x29, x30, [sp], #64
  405874:	d65f03c0 	ret
  405878:	9100e3e2 	add	x2, sp, #0x38
  40587c:	aa1303e0 	mov	x0, x19
  405880:	940018e0 	bl	40bc00 <_ZNSt10_HashtableIiSt4pairIKiiESaIS2_ENSt8__detail10_Select1stESt8equal_toIiESt4hashIiENS4_18_Mod_range_hashingENS4_20_Default_ranged_hashENS4_20_Prime_rehash_policyENS4_17_Hashtable_traitsILb0ELb0ELb1EEEE9_M_rehashEmRKm>
  405884:	f9400660 	ldr	x0, [x19, #8]
  405888:	9ac00ad4 	udiv	x20, x22, x0
  40588c:	9b00da94 	msub	x20, x20, x0, x22
  405890:	f9400260 	ldr	x0, [x19]
  405894:	d37df282 	lsl	x2, x20, #3
  405898:	f8747801 	ldr	x1, [x0, x20, lsl #3]
  40589c:	b5fffd61 	cbnz	x1, 405848 <_ZNSt10_HashtableIiSt4pairIKiiESaIS2_ENSt8__detail10_Select1stESt8equal_toIiESt4hashIiENS4_18_Mod_range_hashingENS4_20_Default_ranged_hashENS4_20_Prime_rehash_policyENS4_17_Hashtable_traitsILb0ELb0ELb1EEEE21_M_insert_unique_nodeERS1_mmPNS4_10_Hash_nodeIS2_Lb0EEEm.isra.0+0x54>
  4058a0:	f9400a61 	ldr	x1, [x19, #16]
  4058a4:	f90002a1 	str	x1, [x21]
  4058a8:	f9000a75 	str	x21, [x19, #16]
  4058ac:	f94002a1 	ldr	x1, [x21]
  4058b0:	b40000c1 	cbz	x1, 4058c8 <_ZNSt10_HashtableIiSt4pairIKiiESaIS2_ENSt8__detail10_Select1stESt8equal_toIiESt4hashIiENS4_18_Mod_range_hashingENS4_20_Default_ranged_hashENS4_20_Prime_rehash_policyENS4_17_Hashtable_traitsILb0ELb0ELb1EEEE21_M_insert_unique_nodeERS1_mmPNS4_10_Hash_nodeIS2_Lb0EEEm.isra.0+0xd4>
  4058b4:	b9800824 	ldrsw	x4, [x1, #8]
  4058b8:	f9400663 	ldr	x3, [x19, #8]
  4058bc:	9ac30881 	udiv	x1, x4, x3
  4058c0:	9b039021 	msub	x1, x1, x3, x4
  4058c4:	f8217815 	str	x21, [x0, x1, lsl #3]
  4058c8:	91004261 	add	x1, x19, #0x10
  4058cc:	f8226801 	str	x1, [x0, x2]
  4058d0:	f9400e61 	ldr	x1, [x19, #24]
  4058d4:	aa1503e0 	mov	x0, x21
  4058d8:	a9425bf5 	ldp	x21, x22, [sp, #32]
  4058dc:	91000421 	add	x1, x1, #0x1
  4058e0:	f9000e61 	str	x1, [x19, #24]
  4058e4:	a94153f3 	ldp	x19, x20, [sp, #16]
  4058e8:	a8c47bfd 	ldp	x29, x30, [sp], #64
  4058ec:	d65f03c0 	ret

00000000004058f0 <_ZN7segment6insertENSt7__cxx1112basic_stringIcSt11char_traitsIcESaIcEEE>:
  4058f0:	a9bd7bfd 	stp	x29, x30, [sp, #-48]!
  4058f4:	d28d20e2 	mov	x2, #0x6907                	// #26887
  4058f8:	f2b8e1e2 	movk	x2, #0xc70f, lsl #16
  4058fc:	910003fd 	mov	x29, sp
  405900:	a90153f3 	stp	x19, x20, [sp, #16]
  405904:	aa0103f3 	mov	x19, x1
  405908:	91010014 	add	x20, x0, #0x40
  40590c:	a9025bf5 	stp	x21, x22, [sp, #32]
  405910:	9101e015 	add	x21, x0, #0x78
  405914:	a9400420 	ldp	x0, x1, [x1]
  405918:	97fff13e 	bl	401e10 <_ZSt11_Hash_bytesPKvmm@plt>
  40591c:	aa0003e3 	mov	x3, x0
  405920:	f9400681 	ldr	x1, [x20, #8]
  405924:	aa1403e0 	mov	x0, x20
  405928:	aa1303e2 	mov	x2, x19
  40592c:	9ac10864 	udiv	x4, x3, x1
  405930:	9b018c81 	msub	x1, x4, x1, x3
  405934:	940017c7 	bl	40b850 <_ZNKSt10_HashtableINSt7__cxx1112basic_stringIcSt11char_traitsIcESaIcEEESt4pairIKS5_iESaIS8_ENSt8__detail10_Select1stESt8equal_toIS5_ESt4hashIS5_ENSA_18_Mod_range_hashingENSA_20_Default_ranged_hashENSA_20_Prime_rehash_policyENSA_17_Hashtable_traitsILb1ELb0ELb1EEEE19_M_find_before_nodeEmRS7_m>
  405938:	aa1303e1 	mov	x1, x19
  40593c:	b40001e0 	cbz	x0, 405978 <_ZN7segment6insertENSt7__cxx1112basic_stringIcSt11char_traitsIcESaIcEEE+0x88>
  405940:	f9400000 	ldr	x0, [x0]
  405944:	b40001a0 	cbz	x0, 405978 <_ZN7segment6insertENSt7__cxx1112basic_stringIcSt11char_traitsIcESaIcEEE+0x88>
  405948:	aa1403e0 	mov	x0, x20
  40594c:	94001841 	bl	40ba50 <_ZNSt8__detail9_Map_baseINSt7__cxx1112basic_stringIcSt11char_traitsIcESaIcEEESt4pairIKS6_iESaIS9_ENS_10_Select1stESt8equal_toIS6_ESt4hashIS6_ENS_18_Mod_range_hashingENS_20_Default_ranged_hashENS_20_Prime_rehash_policyENS_17_Hashtable_traitsILb1ELb0ELb1EEELb1EEixERS8_>
  405950:	aa0003e1 	mov	x1, x0
  405954:	aa1503e0 	mov	x0, x21
  405958:	94001932 	bl	40be20 <_ZNSt8__detail9_Map_baseIiSt4pairIKiiESaIS3_ENS_10_Select1stESt8equal_toIiESt4hashIiENS_18_Mod_range_hashingENS_20_Default_ranged_hashENS_20_Prime_rehash_policyENS_17_Hashtable_traitsILb0ELb0ELb1EEELb1EEixERS2_>
  40595c:	b9400001 	ldr	w1, [x0]
  405960:	a94153f3 	ldp	x19, x20, [sp, #16]
  405964:	11000421 	add	w1, w1, #0x1
  405968:	b9000001 	str	w1, [x0]
  40596c:	a9425bf5 	ldp	x21, x22, [sp, #32]
  405970:	a8c37bfd 	ldp	x29, x30, [sp], #48
  405974:	d65f03c0 	ret
  405978:	aa1403e0 	mov	x0, x20
  40597c:	f9400e96 	ldr	x22, [x20, #24]
  405980:	94001834 	bl	40ba50 <_ZNSt8__detail9_Map_baseINSt7__cxx1112basic_stringIcSt11char_traitsIcESaIcEEESt4pairIKS6_iESaIS9_ENS_10_Select1stESt8equal_toIS6_ESt4hashIS6_ENS_18_Mod_range_hashingENS_20_Default_ranged_hashENS_20_Prime_rehash_policyENS_17_Hashtable_traitsILb1ELb0ELb1EEELb1EEixERS8_>
  405984:	aa0003e2 	mov	x2, x0
  405988:	aa1303e1 	mov	x1, x19
  40598c:	aa1403e0 	mov	x0, x20
  405990:	b9000056 	str	w22, [x2]
  405994:	9400182f 	bl	40ba50 <_ZNSt8__detail9_Map_baseINSt7__cxx1112basic_stringIcSt11char_traitsIcESaIcEEESt4pairIKS6_iESaIS9_ENS_10_Select1stESt8equal_toIS6_ESt4hashIS6_ENS_18_Mod_range_hashingENS_20_Default_ranged_hashENS_20_Prime_rehash_policyENS_17_Hashtable_traitsILb1ELb0ELb1EEELb1EEixERS8_>
  405998:	aa0003e1 	mov	x1, x0
  40599c:	aa1503e0 	mov	x0, x21
  4059a0:	94001920 	bl	40be20 <_ZNSt8__detail9_Map_baseIiSt4pairIKiiESaIS3_ENS_10_Select1stESt8equal_toIiESt4hashIiENS_18_Mod_range_hashingENS_20_Default_ranged_hashENS_20_Prime_rehash_policyENS_17_Hashtable_traitsILb0ELb0ELb1EEELb1EEixERS2_>
  4059a4:	52800021 	mov	w1, #0x1                   	// #1
  4059a8:	b9000001 	str	w1, [x0]
  4059ac:	a94153f3 	ldp	x19, x20, [sp, #16]
  4059b0:	a9425bf5 	ldp	x21, x22, [sp, #32]
  4059b4:	a8c37bfd 	ldp	x29, x30, [sp], #48
  4059b8:	d65f03c0 	ret
  4059bc:	d503201f 	nop

00000000004059c0 <_ZN7segment11PrintValuesEv>:
  4059c0:	a9b87bfd 	stp	x29, x30, [sp, #-128]!
  4059c4:	910003fd 	mov	x29, sp
  4059c8:	a90153f3 	stp	x19, x20, [sp, #16]
  4059cc:	a9046bf9 	stp	x25, x26, [sp, #64]
  4059d0:	a940e814 	ldp	x20, x26, [x0, #8]
  4059d4:	eb1a029f 	cmp	x20, x26
  4059d8:	540008e0 	b.eq	405af4 <_ZN7segment11PrintValuesEv+0x134>  // b.none
  4059dc:	b0000079 	adrp	x25, 412000 <_Z19MD5Hash_simdversionPKNSt7__cxx1112basic_stringIcSt11char_traitsIcESaIcEEEP12__Uint32x4_t+0x1000>
  4059e0:	9134e339 	add	x25, x25, #0xd38
  4059e4:	a9025bf5 	stp	x21, x22, [sp, #32]
  4059e8:	aa0003f6 	mov	x22, x0
  4059ec:	a90363f7 	stp	x23, x24, [sp, #48]
  4059f0:	f0000158 	adrp	x24, 430000 <_Znam@GLIBCXX_3.4>
  4059f4:	9101c3f7 	add	x23, sp, #0x70
  4059f8:	91080318 	add	x24, x24, #0x200
  4059fc:	f9002bfb 	str	x27, [sp, #80]
  405a00:	d0fffffb 	adrp	x27, 403000 <main+0xe40>
  405a04:	9119437b 	add	x27, x27, #0x650
  405a08:	1400000e 	b	405a40 <_ZN7segment11PrintValuesEv+0x80>
  405a0c:	39410ea1 	ldrb	w1, [x21, #67]
  405a10:	aa1303e0 	mov	x0, x19
  405a14:	97fff0f3 	bl	401de0 <_ZNSo3putEc@plt>
  405a18:	97fff13e 	bl	401f10 <_ZNSo5flushEv@plt>
  405a1c:	f94033e0 	ldr	x0, [sp, #96]
  405a20:	eb17001f 	cmp	x0, x23
  405a24:	54000080 	b.eq	405a34 <_ZN7segment11PrintValuesEv+0x74>  // b.none
  405a28:	f9403be1 	ldr	x1, [sp, #112]
  405a2c:	91000421 	add	x1, x1, #0x1
  405a30:	97fff158 	bl	401f90 <_ZdlPvm@plt>
  405a34:	91008294 	add	x20, x20, #0x20
  405a38:	eb14035f 	cmp	x26, x20
  405a3c:	54000560 	b.eq	405ae8 <_ZN7segment11PrintValuesEv+0x128>  // b.none
  405a40:	f9400682 	ldr	x2, [x20, #8]
  405a44:	f90033f7 	str	x23, [sp, #96]
  405a48:	910183e0 	add	x0, sp, #0x60
  405a4c:	f9400281 	ldr	x1, [x20]
  405a50:	8b020022 	add	x2, x1, x2
  405a54:	97fff8fc 	bl	403e44 <_ZNSt7__cxx1112basic_stringIcSt11char_traitsIcESaIcEE12_M_constructIPcEEvT_S7_St20forward_iterator_tag.isra.0>
  405a58:	a9460be1 	ldp	x1, x2, [sp, #96]
  405a5c:	aa1803e0 	mov	x0, x24
  405a60:	97fff158 	bl	401fc0 <_ZSt16__ostream_insertIcSt11char_traitsIcEERSt13basic_ostreamIT_T0_ES6_PKS3_l@plt>
  405a64:	aa0003f3 	mov	x19, x0
  405a68:	aa1903e1 	mov	x1, x25
  405a6c:	d28000c2 	mov	x2, #0x6                   	// #6
  405a70:	97fff154 	bl	401fc0 <_ZSt16__ostream_insertIcSt11char_traitsIcEERSt13basic_ostreamIT_T0_ES6_PKS3_l@plt>
  405a74:	910183e1 	add	x1, sp, #0x60
  405a78:	910102c0 	add	x0, x22, #0x40
  405a7c:	940017f5 	bl	40ba50 <_ZNSt8__detail9_Map_baseINSt7__cxx1112basic_stringIcSt11char_traitsIcESaIcEEESt4pairIKS6_iESaIS9_ENS_10_Select1stESt8equal_toIS6_ESt4hashIS6_ENS_18_Mod_range_hashingENS_20_Default_ranged_hashENS_20_Prime_rehash_policyENS_17_Hashtable_traitsILb1ELb0ELb1EEELb1EEixERS8_>
  405a80:	aa0003e1 	mov	x1, x0
  405a84:	9101e2c0 	add	x0, x22, #0x78
  405a88:	940018e6 	bl	40be20 <_ZNSt8__detail9_Map_baseIiSt4pairIKiiESaIS3_ENS_10_Select1stESt8equal_toIiESt4hashIiENS_18_Mod_range_hashingENS_20_Default_ranged_hashENS_20_Prime_rehash_policyENS_17_Hashtable_traitsILb0ELb0ELb1EEELb1EEixERS2_>
  405a8c:	aa0003e1 	mov	x1, x0
  405a90:	aa1303e0 	mov	x0, x19
  405a94:	b9400021 	ldr	w1, [x1]
  405a98:	97fff19e 	bl	402110 <_ZNSolsEi@plt>
  405a9c:	aa0003f3 	mov	x19, x0
  405aa0:	f9400000 	ldr	x0, [x0]
  405aa4:	f85e8001 	ldur	x1, [x0, #-24]
  405aa8:	8b010261 	add	x1, x19, x1
  405aac:	f9407835 	ldr	x21, [x1, #240]
  405ab0:	b40002b5 	cbz	x21, 405b04 <_ZN7segment11PrintValuesEv+0x144>
  405ab4:	3940e2a0 	ldrb	w0, [x21, #56]
  405ab8:	35fffaa0 	cbnz	w0, 405a0c <_ZN7segment11PrintValuesEv+0x4c>
  405abc:	aa1503e0 	mov	x0, x21
  405ac0:	97fff144 	bl	401fd0 <_ZNKSt5ctypeIcE13_M_widen_initEv@plt>
  405ac4:	f94002a0 	ldr	x0, [x21]
  405ac8:	52800141 	mov	w1, #0xa                   	// #10
  405acc:	f9401802 	ldr	x2, [x0, #48]
  405ad0:	eb1b005f 	cmp	x2, x27
  405ad4:	54fff9e0 	b.eq	405a10 <_ZN7segment11PrintValuesEv+0x50>  // b.none
  405ad8:	aa1503e0 	mov	x0, x21
  405adc:	d63f0040 	blr	x2
  405ae0:	12001c01 	and	w1, w0, #0xff
  405ae4:	17ffffcb 	b	405a10 <_ZN7segment11PrintValuesEv+0x50>
  405ae8:	a9425bf5 	ldp	x21, x22, [sp, #32]
  405aec:	a94363f7 	ldp	x23, x24, [sp, #48]
  405af0:	f9402bfb 	ldr	x27, [sp, #80]
  405af4:	a94153f3 	ldp	x19, x20, [sp, #16]
  405af8:	a9446bf9 	ldp	x25, x26, [sp, #64]
  405afc:	a8c87bfd 	ldp	x29, x30, [sp], #128
  405b00:	d65f03c0 	ret
  405b04:	97fff13f 	bl	402000 <_ZSt16__throw_bad_castv@plt>
  405b08:	aa0003f3 	mov	x19, x0
  405b0c:	910183e0 	add	x0, sp, #0x60
  405b10:	97fff134 	bl	401fe0 <_ZNSt7__cxx1112basic_stringIcSt11char_traitsIcESaIcEE10_M_disposeEv@plt>
  405b14:	aa1303e0 	mov	x0, x19
  405b18:	97fff182 	bl	402120 <_Unwind_Resume@plt>
  405b1c:	d503201f 	nop

0000000000405b20 <_ZN5model5printEv>:
  405b20:	a9a87bfd 	stp	x29, x30, [sp, #-384]!
  405b24:	f0000141 	adrp	x1, 430000 <_Znam@GLIBCXX_3.4>
  405b28:	d28001a2 	mov	x2, #0xd                   	// #13
  405b2c:	910003fd 	mov	x29, sp
  405b30:	a90153f3 	stp	x19, x20, [sp, #16]
  405b34:	91080034 	add	x20, x1, #0x200
  405b38:	b0000061 	adrp	x1, 412000 <_Z19MD5Hash_simdversionPKNSt7__cxx1112basic_stringIcSt11char_traitsIcESaIcEEEP12__Uint32x4_t+0x1000>
  405b3c:	91350021 	add	x1, x1, #0xd40
  405b40:	a9025bf5 	stp	x21, x22, [sp, #32]
  405b44:	a90363f7 	stp	x23, x24, [sp, #48]
  405b48:	a9046bf9 	stp	x25, x26, [sp, #64]
  405b4c:	a90573fb 	stp	x27, x28, [sp, #80]
  405b50:	f90033e0 	str	x0, [sp, #96]
  405b54:	aa1403e0 	mov	x0, x20
  405b58:	97fff11a 	bl	401fc0 <_ZSt16__ostream_insertIcSt11char_traitsIcEERSt13basic_ostreamIT_T0_ES6_PKS3_l@plt>
  405b5c:	f0000140 	adrp	x0, 430000 <_Znam@GLIBCXX_3.4>
  405b60:	f9410000 	ldr	x0, [x0, #512]
  405b64:	f85e8000 	ldur	x0, [x0, #-24]
  405b68:	8b000280 	add	x0, x20, x0
  405b6c:	f9407813 	ldr	x19, [x0, #240]
  405b70:	b4005253 	cbz	x19, 4065b8 <_ZN5model5printEv+0xa98>
  405b74:	3940e260 	ldrb	w0, [x19, #56]
  405b78:	34004ea0 	cbz	w0, 40654c <_ZN5model5printEv+0xa2c>
  405b7c:	39410e61 	ldrb	w1, [x19, #67]
  405b80:	f94033f3 	ldr	x19, [sp, #96]
  405b84:	aa1403e0 	mov	x0, x20
  405b88:	97fff096 	bl	401de0 <_ZNSo3putEc@plt>
  405b8c:	9100627a 	add	x26, x19, #0x18
  405b90:	97fff0e0 	bl	401f10 <_ZNSo5flushEv@plt>
  405b94:	f9400e63 	ldr	x3, [x19, #24]
  405b98:	b90073ff 	str	wzr, [sp, #112]
  405b9c:	f9400740 	ldr	x0, [x26, #8]
  405ba0:	d2800001 	mov	x1, #0x0                   	// #0
  405ba4:	eb00007f 	cmp	x3, x0
  405ba8:	54000da0 	b.eq	405d5c <_ZN5model5printEv+0x23c>  // b.none
  405bac:	d291747b 	mov	x27, #0x8ba3                	// #35747
  405bb0:	9105e3f8 	add	x24, sp, #0x178
  405bb4:	f2b745db 	movk	x27, #0xba2e, lsl #16
  405bb8:	f2d45d1b 	movk	x27, #0xa2e8, lsl #32
  405bbc:	f2e5d17b 	movk	x27, #0x2e8b, lsl #48
  405bc0:	8b010420 	add	x0, x1, x1, lsl #1
  405bc4:	910343e2 	add	x2, sp, #0xd0
  405bc8:	910443f7 	add	x23, sp, #0x110
  405bcc:	9101c056 	add	x22, x2, #0x70
  405bd0:	d37ef400 	lsl	x0, x0, #2
  405bd4:	cb010000 	sub	x0, x0, x1
  405bd8:	8b000c61 	add	x1, x3, x0, lsl #3
  405bdc:	f8607873 	ldr	x19, [x3, x0, lsl #3]
  405be0:	f9400435 	ldr	x21, [x1, #8]
  405be4:	eb15027f 	cmp	x19, x21
  405be8:	54000760 	b.eq	405cd4 <_ZN5model5printEv+0x1b4>  // b.none
  405bec:	d503201f 	nop
  405bf0:	aa1303e1 	mov	x1, x19
  405bf4:	910343e0 	add	x0, sp, #0xd0
  405bf8:	940011fa 	bl	40a3e0 <_ZN7segmentC1ERKS_>
  405bfc:	910343e0 	add	x0, sp, #0xd0
  405c00:	97fff93d 	bl	4040f4 <_ZN7segment8PrintSegEv>
  405c04:	f940affc 	ldr	x28, [sp, #344]
  405c08:	b40000fc 	cbz	x28, 405c24 <_ZN5model5printEv+0x104>
  405c0c:	d503201f 	nop
  405c10:	aa1c03e0 	mov	x0, x28
  405c14:	d2800201 	mov	x1, #0x10                  	// #16
  405c18:	f940039c 	ldr	x28, [x28]
  405c1c:	97fff0dd 	bl	401f90 <_ZdlPvm@plt>
  405c20:	b5ffff9c 	cbnz	x28, 405c10 <_ZN5model5printEv+0xf0>
  405c24:	a9548be0 	ldp	x0, x2, [sp, #328]
  405c28:	52800001 	mov	w1, #0x0                   	// #0
  405c2c:	d37df042 	lsl	x2, x2, #3
  405c30:	97fff0b0 	bl	401ef0 <memset@plt>
  405c34:	a95487e0 	ldp	x0, x1, [sp, #328]
  405c38:	a915ffff 	stp	xzr, xzr, [sp, #344]
  405c3c:	eb18001f 	cmp	x0, x24
  405c40:	54000060 	b.eq	405c4c <_ZN5model5printEv+0x12c>  // b.none
  405c44:	d37df021 	lsl	x1, x1, #3
  405c48:	97fff0d2 	bl	401f90 <_ZdlPvm@plt>
  405c4c:	aa1703e0 	mov	x0, x23
  405c50:	9400111c 	bl	40a0c0 <_ZNSt10_HashtableINSt7__cxx1112basic_stringIcSt11char_traitsIcESaIcEEESt4pairIKS5_iESaIS8_ENSt8__detail10_Select1stESt8equal_toIS5_ESt4hashIS5_ENSA_18_Mod_range_hashingENSA_20_Default_ranged_hashENSA_20_Prime_rehash_policyENSA_17_Hashtable_traitsILb1ELb0ELb1EEEE5clearEv>
  405c54:	a95107e0 	ldp	x0, x1, [sp, #272]
  405c58:	eb16001f 	cmp	x0, x22
  405c5c:	54000060 	b.eq	405c68 <_ZN5model5printEv+0x148>  // b.none
  405c60:	d37df021 	lsl	x1, x1, #3
  405c64:	97fff0cb 	bl	401f90 <_ZdlPvm@plt>
  405c68:	f9407be0 	ldr	x0, [sp, #240]
  405c6c:	b4000080 	cbz	x0, 405c7c <_ZN5model5printEv+0x15c>
  405c70:	f94083e1 	ldr	x1, [sp, #256]
  405c74:	cb000021 	sub	x1, x1, x0
  405c78:	97fff0c6 	bl	401f90 <_ZdlPvm@plt>
  405c7c:	a94de7fc 	ldp	x28, x25, [sp, #216]
  405c80:	eb19039f 	cmp	x28, x25
  405c84:	54000180 	b.eq	405cb4 <_ZN5model5printEv+0x194>  // b.none
  405c88:	aa1c03e1 	mov	x1, x28
  405c8c:	f8410420 	ldr	x0, [x1], #16
  405c90:	eb01001f 	cmp	x0, x1
  405c94:	54000080 	b.eq	405ca4 <_ZN5model5printEv+0x184>  // b.none
  405c98:	f9400b81 	ldr	x1, [x28, #16]
  405c9c:	91000421 	add	x1, x1, #0x1
  405ca0:	97fff0bc 	bl	401f90 <_ZdlPvm@plt>
  405ca4:	9100839c 	add	x28, x28, #0x20
  405ca8:	eb1c033f 	cmp	x25, x28
  405cac:	54fffee1 	b.ne	405c88 <_ZN5model5printEv+0x168>  // b.any
  405cb0:	f9406ff9 	ldr	x25, [sp, #216]
  405cb4:	b40000b9 	cbz	x25, 405cc8 <_ZN5model5printEv+0x1a8>
  405cb8:	f94077e1 	ldr	x1, [sp, #232]
  405cbc:	aa1903e0 	mov	x0, x25
  405cc0:	cb190021 	sub	x1, x1, x25
  405cc4:	97fff0b3 	bl	401f90 <_ZdlPvm@plt>
  405cc8:	9102c273 	add	x19, x19, #0xb0
  405ccc:	eb1302bf 	cmp	x21, x19
  405cd0:	54fff901 	b.ne	405bf0 <_ZN5model5printEv+0xd0>  // b.any
  405cd4:	d28000c2 	mov	x2, #0x6                   	// #6
  405cd8:	b0000073 	adrp	x19, 412000 <_Z19MD5Hash_simdversionPKNSt7__cxx1112basic_stringIcSt11char_traitsIcESaIcEEEP12__Uint32x4_t+0x1000>
  405cdc:	aa1403e0 	mov	x0, x20
  405ce0:	9134e261 	add	x1, x19, #0xd38
  405ce4:	97fff0b7 	bl	401fc0 <_ZSt16__ostream_insertIcSt11char_traitsIcEERSt13basic_ostreamIT_T0_ES6_PKS3_l@plt>
  405ce8:	f94033e0 	ldr	x0, [sp, #96]
  405cec:	9101c3e1 	add	x1, sp, #0x70
  405cf0:	9101e000 	add	x0, x0, #0x78
  405cf4:	9400184b 	bl	40be20 <_ZNSt8__detail9_Map_baseIiSt4pairIKiiESaIS3_ENS_10_Select1stESt8equal_toIiESt4hashIiENS_18_Mod_range_hashingENS_20_Default_ranged_hashENS_20_Prime_rehash_policyENS_17_Hashtable_traitsILb0ELb0ELb1EEELb1EEixERS2_>
  405cf8:	aa0003e1 	mov	x1, x0
  405cfc:	aa1403e0 	mov	x0, x20
  405d00:	b9400021 	ldr	w1, [x1]
  405d04:	97fff103 	bl	402110 <_ZNSolsEi@plt>
  405d08:	f9400280 	ldr	x0, [x20]
  405d0c:	f85e8000 	ldur	x0, [x0, #-24]
  405d10:	8b000280 	add	x0, x20, x0
  405d14:	f9407813 	ldr	x19, [x0, #240]
  405d18:	b4004513 	cbz	x19, 4065b8 <_ZN5model5printEv+0xa98>
  405d1c:	3940e260 	ldrb	w0, [x19, #56]
  405d20:	34002c60 	cbz	w0, 4062ac <_ZN5model5printEv+0x78c>
  405d24:	39410e61 	ldrb	w1, [x19, #67]
  405d28:	aa1403e0 	mov	x0, x20
  405d2c:	97fff02d 	bl	401de0 <_ZNSo3putEc@plt>
  405d30:	97fff078 	bl	401f10 <_ZNSo5flushEv@plt>
  405d34:	a9400343 	ldp	x3, x0, [x26]
  405d38:	b94073e2 	ldr	w2, [sp, #112]
  405d3c:	11000442 	add	w2, w2, #0x1
  405d40:	b90073e2 	str	w2, [sp, #112]
  405d44:	cb030000 	sub	x0, x0, x3
  405d48:	93407c41 	sxtw	x1, w2
  405d4c:	9343fc00 	asr	x0, x0, #3
  405d50:	9b1b7c00 	mul	x0, x0, x27
  405d54:	eb00003f 	cmp	x1, x0
  405d58:	54fff343 	b.cc	405bc0 <_ZN5model5printEv+0xa0>  // b.lo, b.ul, b.last
  405d5c:	f94033e0 	ldr	x0, [sp, #96]
  405d60:	9105e3f8 	add	x24, sp, #0x178
  405d64:	9101e3fb 	add	x27, sp, #0x78
  405d68:	a955801a 	ldp	x26, x0, [x0, #344]
  405d6c:	f90037e0 	str	x0, [sp, #104]
  405d70:	eb1a001f 	cmp	x0, x26
  405d74:	54001f40 	b.eq	40615c <_ZN5model5printEv+0x63c>  // b.none
  405d78:	aa1b03e0 	mov	x0, x27
  405d7c:	aa1a03e1 	mov	x1, x26
  405d80:	940012b4 	bl	40a850 <_ZN2PTC1ERKS_>
  405d84:	910443f6 	add	x22, sp, #0x110
  405d88:	a947d7f3 	ldp	x19, x21, [sp, #120]
  405d8c:	910343e0 	add	x0, sp, #0xd0
  405d90:	9101c017 	add	x23, x0, #0x70
  405d94:	eb15027f 	cmp	x19, x21
  405d98:	54000760 	b.eq	405e84 <_ZN5model5printEv+0x364>  // b.none
  405d9c:	d503201f 	nop
  405da0:	aa1303e1 	mov	x1, x19
  405da4:	910343e0 	add	x0, sp, #0xd0
  405da8:	9400118e 	bl	40a3e0 <_ZN7segmentC1ERKS_>
  405dac:	910343e0 	add	x0, sp, #0xd0
  405db0:	97fff8d1 	bl	4040f4 <_ZN7segment8PrintSegEv>
  405db4:	f940aff9 	ldr	x25, [sp, #344]
  405db8:	b40000f9 	cbz	x25, 405dd4 <_ZN5model5printEv+0x2b4>
  405dbc:	d503201f 	nop
  405dc0:	aa1903e0 	mov	x0, x25
  405dc4:	d2800201 	mov	x1, #0x10                  	// #16
  405dc8:	f9400339 	ldr	x25, [x25]
  405dcc:	97fff071 	bl	401f90 <_ZdlPvm@plt>
  405dd0:	b5ffff99 	cbnz	x25, 405dc0 <_ZN5model5printEv+0x2a0>
  405dd4:	a9548be0 	ldp	x0, x2, [sp, #328]
  405dd8:	52800001 	mov	w1, #0x0                   	// #0
  405ddc:	d37df042 	lsl	x2, x2, #3
  405de0:	97fff044 	bl	401ef0 <memset@plt>
  405de4:	a95487e0 	ldp	x0, x1, [sp, #328]
  405de8:	a915ffff 	stp	xzr, xzr, [sp, #344]
  405dec:	eb18001f 	cmp	x0, x24
  405df0:	54000060 	b.eq	405dfc <_ZN5model5printEv+0x2dc>  // b.none
  405df4:	d37df021 	lsl	x1, x1, #3
  405df8:	97fff066 	bl	401f90 <_ZdlPvm@plt>
  405dfc:	aa1603e0 	mov	x0, x22
  405e00:	940010b0 	bl	40a0c0 <_ZNSt10_HashtableINSt7__cxx1112basic_stringIcSt11char_traitsIcESaIcEEESt4pairIKS5_iESaIS8_ENSt8__detail10_Select1stESt8equal_toIS5_ESt4hashIS5_ENSA_18_Mod_range_hashingENSA_20_Default_ranged_hashENSA_20_Prime_rehash_policyENSA_17_Hashtable_traitsILb1ELb0ELb1EEEE5clearEv>
  405e04:	a95107e0 	ldp	x0, x1, [sp, #272]
  405e08:	eb17001f 	cmp	x0, x23
  405e0c:	54000060 	b.eq	405e18 <_ZN5model5printEv+0x2f8>  // b.none
  405e10:	d37df021 	lsl	x1, x1, #3
  405e14:	97fff05f 	bl	401f90 <_ZdlPvm@plt>
  405e18:	f9407be0 	ldr	x0, [sp, #240]
  405e1c:	b4000080 	cbz	x0, 405e2c <_ZN5model5printEv+0x30c>
  405e20:	f94083e1 	ldr	x1, [sp, #256]
  405e24:	cb000021 	sub	x1, x1, x0
  405e28:	97fff05a 	bl	401f90 <_ZdlPvm@plt>
  405e2c:	a94df3f9 	ldp	x25, x28, [sp, #216]
  405e30:	eb1c033f 	cmp	x25, x28
  405e34:	54000180 	b.eq	405e64 <_ZN5model5printEv+0x344>  // b.none
  405e38:	aa1903e1 	mov	x1, x25
  405e3c:	f8410420 	ldr	x0, [x1], #16
  405e40:	eb01001f 	cmp	x0, x1
  405e44:	54000080 	b.eq	405e54 <_ZN5model5printEv+0x334>  // b.none
  405e48:	f9400b21 	ldr	x1, [x25, #16]
  405e4c:	91000421 	add	x1, x1, #0x1
  405e50:	97fff050 	bl	401f90 <_ZdlPvm@plt>
  405e54:	91008339 	add	x25, x25, #0x20
  405e58:	eb19039f 	cmp	x28, x25
  405e5c:	54fffee1 	b.ne	405e38 <_ZN5model5printEv+0x318>  // b.any
  405e60:	f9406ffc 	ldr	x28, [sp, #216]
  405e64:	b40000bc 	cbz	x28, 405e78 <_ZN5model5printEv+0x358>
  405e68:	f94077e1 	ldr	x1, [sp, #232]
  405e6c:	aa1c03e0 	mov	x0, x28
  405e70:	cb1c0021 	sub	x1, x1, x28
  405e74:	97fff047 	bl	401f90 <_ZdlPvm@plt>
  405e78:	9102c273 	add	x19, x19, #0xb0
  405e7c:	eb1302bf 	cmp	x21, x19
  405e80:	54fff901 	b.ne	405da0 <_ZN5model5printEv+0x280>  // b.any
  405e84:	b0000073 	adrp	x19, 412000 <_Z19MD5Hash_simdversionPKNSt7__cxx1112basic_stringIcSt11char_traitsIcESaIcEEEP12__Uint32x4_t+0x1000>
  405e88:	aa1403e0 	mov	x0, x20
  405e8c:	9134e261 	add	x1, x19, #0xd38
  405e90:	d28000c2 	mov	x2, #0x6                   	// #6
  405e94:	97fff04b 	bl	401fc0 <_ZSt16__ostream_insertIcSt11char_traitsIcEERSt13basic_ostreamIT_T0_ES6_PKS3_l@plt>
  405e98:	aa1b03e1 	mov	x1, x27
  405e9c:	910343e0 	add	x0, sp, #0xd0
  405ea0:	9400126c 	bl	40a850 <_ZN2PTC1ERKS_>
  405ea4:	f94033ee 	ldr	x14, [sp, #96]
  405ea8:	910343e1 	add	x1, sp, #0xd0
  405eac:	aa0e03e0 	mov	x0, x14
  405eb0:	97fff81c 	bl	403f20 <_ZN5model6FindPTE2PT>
  405eb4:	2a0003e2 	mov	w2, w0
  405eb8:	9101d3e1 	add	x1, sp, #0x74
  405ebc:	9101e1c0 	add	x0, x14, #0x78
  405ec0:	b90077e2 	str	w2, [sp, #116]
  405ec4:	9400179b 	bl	40bd30 <_ZNSt8__detail9_Map_baseIiSt4pairIKiiESaIS3_ENS_10_Select1stESt8equal_toIiESt4hashIiENS_18_Mod_range_hashingENS_20_Default_ranged_hashENS_20_Prime_rehash_policyENS_17_Hashtable_traitsILb0ELb0ELb1EEELb1EEixEOi>
  405ec8:	aa0003e1 	mov	x1, x0
  405ecc:	aa1403e0 	mov	x0, x20
  405ed0:	b9400021 	ldr	w1, [x1]
  405ed4:	97fff08f 	bl	402110 <_ZNSolsEi@plt>
  405ed8:	f94087e0 	ldr	x0, [sp, #264]
  405edc:	b4000080 	cbz	x0, 405eec <_ZN5model5printEv+0x3cc>
  405ee0:	f9408fe1 	ldr	x1, [sp, #280]
  405ee4:	cb000021 	sub	x1, x1, x0
  405ee8:	97fff02a 	bl	401f90 <_ZdlPvm@plt>
  405eec:	f9407be0 	ldr	x0, [sp, #240]
  405ef0:	b4000080 	cbz	x0, 405f00 <_ZN5model5printEv+0x3e0>
  405ef4:	f94083e1 	ldr	x1, [sp, #256]
  405ef8:	cb000021 	sub	x1, x1, x0
  405efc:	97fff025 	bl	401f90 <_ZdlPvm@plt>
  405f00:	a94d5bf5 	ldp	x21, x22, [sp, #208]
  405f04:	eb1602bf 	cmp	x21, x22
  405f08:	54000700 	b.eq	405fe8 <_ZN5model5printEv+0x4c8>  // b.none
  405f0c:	d503201f 	nop
  405f10:	f94046b3 	ldr	x19, [x21, #136]
  405f14:	b40000d3 	cbz	x19, 405f2c <_ZN5model5printEv+0x40c>
  405f18:	aa1303e0 	mov	x0, x19
  405f1c:	d2800201 	mov	x1, #0x10                  	// #16
  405f20:	f9400273 	ldr	x19, [x19]
  405f24:	97fff01b 	bl	401f90 <_ZdlPvm@plt>
  405f28:	b5ffff93 	cbnz	x19, 405f18 <_ZN5model5printEv+0x3f8>
  405f2c:	a9478aa0 	ldp	x0, x2, [x21, #120]
  405f30:	52800001 	mov	w1, #0x0                   	// #0
  405f34:	d37df042 	lsl	x2, x2, #3
  405f38:	97ffefee 	bl	401ef0 <memset@plt>
  405f3c:	a94786a0 	ldp	x0, x1, [x21, #120]
  405f40:	9102a2a2 	add	x2, x21, #0xa8
  405f44:	a908febf 	stp	xzr, xzr, [x21, #136]
  405f48:	eb02001f 	cmp	x0, x2
  405f4c:	54000060 	b.eq	405f58 <_ZN5model5printEv+0x438>  // b.none
  405f50:	d37df021 	lsl	x1, x1, #3
  405f54:	97fff00f 	bl	401f90 <_ZdlPvm@plt>
  405f58:	910102a0 	add	x0, x21, #0x40
  405f5c:	94001059 	bl	40a0c0 <_ZNSt10_HashtableINSt7__cxx1112basic_stringIcSt11char_traitsIcESaIcEEESt4pairIKS5_iESaIS8_ENSt8__detail10_Select1stESt8equal_toIS5_ESt4hashIS5_ENSA_18_Mod_range_hashingENSA_20_Default_ranged_hashENSA_20_Prime_rehash_policyENSA_17_Hashtable_traitsILb1ELb0ELb1EEEE5clearEv>
  405f60:	a94406a0 	ldp	x0, x1, [x21, #64]
  405f64:	9101c2a2 	add	x2, x21, #0x70
  405f68:	eb02001f 	cmp	x0, x2
  405f6c:	54000060 	b.eq	405f78 <_ZN5model5printEv+0x458>  // b.none
  405f70:	d37df021 	lsl	x1, x1, #3
  405f74:	97fff007 	bl	401f90 <_ZdlPvm@plt>
  405f78:	f94012a0 	ldr	x0, [x21, #32]
  405f7c:	b4000080 	cbz	x0, 405f8c <_ZN5model5printEv+0x46c>
  405f80:	f9401aa1 	ldr	x1, [x21, #48]
  405f84:	cb000021 	sub	x1, x1, x0
  405f88:	97fff002 	bl	401f90 <_ZdlPvm@plt>
  405f8c:	a940deb3 	ldp	x19, x23, [x21, #8]
  405f90:	eb17027f 	cmp	x19, x23
  405f94:	54000180 	b.eq	405fc4 <_ZN5model5printEv+0x4a4>  // b.none
  405f98:	aa1303e1 	mov	x1, x19
  405f9c:	f8410420 	ldr	x0, [x1], #16
  405fa0:	eb01001f 	cmp	x0, x1
  405fa4:	54000080 	b.eq	405fb4 <_ZN5model5printEv+0x494>  // b.none
  405fa8:	f9400a61 	ldr	x1, [x19, #16]
  405fac:	91000421 	add	x1, x1, #0x1
  405fb0:	97ffeff8 	bl	401f90 <_ZdlPvm@plt>
  405fb4:	91008273 	add	x19, x19, #0x20
  405fb8:	eb1302ff 	cmp	x23, x19
  405fbc:	54fffee1 	b.ne	405f98 <_ZN5model5printEv+0x478>  // b.any
  405fc0:	f94006b7 	ldr	x23, [x21, #8]
  405fc4:	b40000b7 	cbz	x23, 405fd8 <_ZN5model5printEv+0x4b8>
  405fc8:	f9400ea1 	ldr	x1, [x21, #24]
  405fcc:	aa1703e0 	mov	x0, x23
  405fd0:	cb170021 	sub	x1, x1, x23
  405fd4:	97ffefef 	bl	401f90 <_ZdlPvm@plt>
  405fd8:	9102c2b5 	add	x21, x21, #0xb0
  405fdc:	eb1502df 	cmp	x22, x21
  405fe0:	54fff981 	b.ne	405f10 <_ZN5model5printEv+0x3f0>  // b.any
  405fe4:	f9406bf6 	ldr	x22, [sp, #208]
  405fe8:	b40000b6 	cbz	x22, 405ffc <_ZN5model5printEv+0x4dc>
  405fec:	f94073e1 	ldr	x1, [sp, #224]
  405ff0:	aa1603e0 	mov	x0, x22
  405ff4:	cb160021 	sub	x1, x1, x22
  405ff8:	97ffefe6 	bl	401f90 <_ZdlPvm@plt>
  405ffc:	f9400280 	ldr	x0, [x20]
  406000:	f85e8000 	ldur	x0, [x0, #-24]
  406004:	8b000280 	add	x0, x20, x0
  406008:	f9407813 	ldr	x19, [x0, #240]
  40600c:	b4002d53 	cbz	x19, 4065b4 <_ZN5model5printEv+0xa94>
  406010:	3940e260 	ldrb	w0, [x19, #56]
  406014:	34001660 	cbz	w0, 4062e0 <_ZN5model5printEv+0x7c0>
  406018:	39410e61 	ldrb	w1, [x19, #67]
  40601c:	aa1403e0 	mov	x0, x20
  406020:	97ffef70 	bl	401de0 <_ZNSo3putEc@plt>
  406024:	97ffefbb 	bl	401f10 <_ZNSo5flushEv@plt>
  406028:	f9405be0 	ldr	x0, [sp, #176]
  40602c:	b4000080 	cbz	x0, 40603c <_ZN5model5printEv+0x51c>
  406030:	f94063e1 	ldr	x1, [sp, #192]
  406034:	cb000021 	sub	x1, x1, x0
  406038:	97ffefd6 	bl	401f90 <_ZdlPvm@plt>
  40603c:	f9404fe0 	ldr	x0, [sp, #152]
  406040:	b4000080 	cbz	x0, 406050 <_ZN5model5printEv+0x530>
  406044:	f94057e1 	ldr	x1, [sp, #168]
  406048:	cb000021 	sub	x1, x1, x0
  40604c:	97ffefd1 	bl	401f90 <_ZdlPvm@plt>
  406050:	a947dbf5 	ldp	x21, x22, [sp, #120]
  406054:	eb1602bf 	cmp	x21, x22
  406058:	54000700 	b.eq	406138 <_ZN5model5printEv+0x618>  // b.none
  40605c:	d503201f 	nop
  406060:	f94046b3 	ldr	x19, [x21, #136]
  406064:	b40000d3 	cbz	x19, 40607c <_ZN5model5printEv+0x55c>
  406068:	aa1303e0 	mov	x0, x19
  40606c:	d2800201 	mov	x1, #0x10                  	// #16
  406070:	f9400273 	ldr	x19, [x19]
  406074:	97ffefc7 	bl	401f90 <_ZdlPvm@plt>
  406078:	b5ffff93 	cbnz	x19, 406068 <_ZN5model5printEv+0x548>
  40607c:	a9478aa0 	ldp	x0, x2, [x21, #120]
  406080:	52800001 	mov	w1, #0x0                   	// #0
  406084:	d37df042 	lsl	x2, x2, #3
  406088:	97ffef9a 	bl	401ef0 <memset@plt>
  40608c:	a94786a0 	ldp	x0, x1, [x21, #120]
  406090:	9102a2a2 	add	x2, x21, #0xa8
  406094:	a908febf 	stp	xzr, xzr, [x21, #136]
  406098:	eb02001f 	cmp	x0, x2
  40609c:	54000060 	b.eq	4060a8 <_ZN5model5printEv+0x588>  // b.none
  4060a0:	d37df021 	lsl	x1, x1, #3
  4060a4:	97ffefbb 	bl	401f90 <_ZdlPvm@plt>
  4060a8:	910102a0 	add	x0, x21, #0x40
  4060ac:	94001005 	bl	40a0c0 <_ZNSt10_HashtableINSt7__cxx1112basic_stringIcSt11char_traitsIcESaIcEEESt4pairIKS5_iESaIS8_ENSt8__detail10_Select1stESt8equal_toIS5_ESt4hashIS5_ENSA_18_Mod_range_hashingENSA_20_Default_ranged_hashENSA_20_Prime_rehash_policyENSA_17_Hashtable_traitsILb1ELb0ELb1EEEE5clearEv>
  4060b0:	a94406a0 	ldp	x0, x1, [x21, #64]
  4060b4:	9101c2a2 	add	x2, x21, #0x70
  4060b8:	eb02001f 	cmp	x0, x2
  4060bc:	54000060 	b.eq	4060c8 <_ZN5model5printEv+0x5a8>  // b.none
  4060c0:	d37df021 	lsl	x1, x1, #3
  4060c4:	97ffefb3 	bl	401f90 <_ZdlPvm@plt>
  4060c8:	f94012a0 	ldr	x0, [x21, #32]
  4060cc:	b4000080 	cbz	x0, 4060dc <_ZN5model5printEv+0x5bc>
  4060d0:	f9401aa1 	ldr	x1, [x21, #48]
  4060d4:	cb000021 	sub	x1, x1, x0
  4060d8:	97ffefae 	bl	401f90 <_ZdlPvm@plt>
  4060dc:	a940deb3 	ldp	x19, x23, [x21, #8]
  4060e0:	eb17027f 	cmp	x19, x23
  4060e4:	54000180 	b.eq	406114 <_ZN5model5printEv+0x5f4>  // b.none
  4060e8:	aa1303e1 	mov	x1, x19
  4060ec:	f8410420 	ldr	x0, [x1], #16
  4060f0:	eb01001f 	cmp	x0, x1
  4060f4:	54000080 	b.eq	406104 <_ZN5model5printEv+0x5e4>  // b.none
  4060f8:	f9400a61 	ldr	x1, [x19, #16]
  4060fc:	91000421 	add	x1, x1, #0x1
  406100:	97ffefa4 	bl	401f90 <_ZdlPvm@plt>
  406104:	91008273 	add	x19, x19, #0x20
  406108:	eb1302ff 	cmp	x23, x19
  40610c:	54fffee1 	b.ne	4060e8 <_ZN5model5printEv+0x5c8>  // b.any
  406110:	f94006b7 	ldr	x23, [x21, #8]
  406114:	b40000b7 	cbz	x23, 406128 <_ZN5model5printEv+0x608>
  406118:	f9400ea1 	ldr	x1, [x21, #24]
  40611c:	aa1703e0 	mov	x0, x23
  406120:	cb170021 	sub	x1, x1, x23
  406124:	97ffef9b 	bl	401f90 <_ZdlPvm@plt>
  406128:	9102c2b5 	add	x21, x21, #0xb0
  40612c:	eb1502df 	cmp	x22, x21
  406130:	54fff981 	b.ne	406060 <_ZN5model5printEv+0x540>  // b.any
  406134:	f9403ff6 	ldr	x22, [sp, #120]
  406138:	b40000b6 	cbz	x22, 40614c <_ZN5model5printEv+0x62c>
  40613c:	f94047e1 	ldr	x1, [sp, #136]
  406140:	aa1603e0 	mov	x0, x22
  406144:	cb160021 	sub	x1, x1, x22
  406148:	97ffef92 	bl	401f90 <_ZdlPvm@plt>
  40614c:	f94037e0 	ldr	x0, [sp, #104]
  406150:	9101635a 	add	x26, x26, #0x58
  406154:	eb1a001f 	cmp	x0, x26
  406158:	54ffe101 	b.ne	405d78 <_ZN5model5printEv+0x258>  // b.any
  40615c:	aa1403e0 	mov	x0, x20
  406160:	90000061 	adrp	x1, 412000 <_Z19MD5Hash_simdversionPKNSt7__cxx1112basic_stringIcSt11char_traitsIcESaIcEEEP12__Uint32x4_t+0x1000>
  406164:	d2800122 	mov	x2, #0x9                   	// #9
  406168:	91354021 	add	x1, x1, #0xd50
  40616c:	97ffef95 	bl	401fc0 <_ZSt16__ostream_insertIcSt11char_traitsIcEERSt13basic_ostreamIT_T0_ES6_PKS3_l@plt>
  406170:	d0000140 	adrp	x0, 430000 <_Znam@GLIBCXX_3.4>
  406174:	f9410000 	ldr	x0, [x0, #512]
  406178:	f85e8000 	ldur	x0, [x0, #-24]
  40617c:	8b000280 	add	x0, x20, x0
  406180:	f9407813 	ldr	x19, [x0, #240]
  406184:	b40021b3 	cbz	x19, 4065b8 <_ZN5model5printEv+0xa98>
  406188:	3940e260 	ldrb	w0, [x19, #56]
  40618c:	34001fa0 	cbz	w0, 406580 <_ZN5model5printEv+0xa60>
  406190:	39410e61 	ldrb	w1, [x19, #67]
  406194:	f94033f3 	ldr	x19, [sp, #96]
  406198:	aa1403e0 	mov	x0, x20
  40619c:	97ffef11 	bl	401de0 <_ZNSo3putEc@plt>
  4061a0:	9100c275 	add	x21, x19, #0x30
  4061a4:	97ffef5b 	bl	401f10 <_ZNSo5flushEv@plt>
  4061a8:	f9401a64 	ldr	x4, [x19, #48]
  4061ac:	b90077ff 	str	wzr, [sp, #116]
  4061b0:	f94006a0 	ldr	x0, [x21, #8]
  4061b4:	eb04001f 	cmp	x0, x4
  4061b8:	54000ae0 	b.eq	406314 <_ZN5model5printEv+0x7f4>  // b.none
  4061bc:	d2917476 	mov	x22, #0x8ba3                	// #35747
  4061c0:	90000073 	adrp	x19, 412000 <_Z19MD5Hash_simdversionPKNSt7__cxx1112basic_stringIcSt11char_traitsIcESaIcEEEP12__Uint32x4_t+0x1000>
  4061c4:	f94033e0 	ldr	x0, [sp, #96]
  4061c8:	f2b745d6 	movk	x22, #0xba2e, lsl #16
  4061cc:	f2d45d16 	movk	x22, #0xa2e8, lsl #32
  4061d0:	b0fffff8 	adrp	x24, 403000 <main+0xe40>
  4061d4:	9134e273 	add	x19, x19, #0xd38
  4061d8:	91194318 	add	x24, x24, #0x650
  4061dc:	9102c017 	add	x23, x0, #0xb0
  4061e0:	d2800002 	mov	x2, #0x0                   	// #0
  4061e4:	f2e5d176 	movk	x22, #0x2e8b, lsl #48
  4061e8:	1400000f 	b	406224 <_ZN5model5printEv+0x704>
  4061ec:	39410f41 	ldrb	w1, [x26, #67]
  4061f0:	aa1403e0 	mov	x0, x20
  4061f4:	97ffeefb 	bl	401de0 <_ZNSo3putEc@plt>
  4061f8:	97ffef46 	bl	401f10 <_ZNSo5flushEv@plt>
  4061fc:	a94006a4 	ldp	x4, x1, [x21]
  406200:	b94077e3 	ldr	w3, [sp, #116]
  406204:	11000463 	add	w3, w3, #0x1
  406208:	b90077e3 	str	w3, [sp, #116]
  40620c:	cb040021 	sub	x1, x1, x4
  406210:	93407c62 	sxtw	x2, w3
  406214:	9344fc21 	asr	x1, x1, #4
  406218:	9b167c21 	mul	x1, x1, x22
  40621c:	eb01005f 	cmp	x2, x1
  406220:	540007a2 	b.cs	406314 <_ZN5model5printEv+0x7f4>  // b.hs, b.nlast
  406224:	8b020440 	add	x0, x2, x2, lsl #1
  406228:	d37ef400 	lsl	x0, x0, #2
  40622c:	cb020000 	sub	x0, x0, x2
  406230:	8b001080 	add	x0, x4, x0, lsl #4
  406234:	97fff7b0 	bl	4040f4 <_ZN7segment8PrintSegEv>
  406238:	d28000c2 	mov	x2, #0x6                   	// #6
  40623c:	aa1303e1 	mov	x1, x19
  406240:	aa1403e0 	mov	x0, x20
  406244:	97ffef5f 	bl	401fc0 <_ZSt16__ostream_insertIcSt11char_traitsIcEERSt13basic_ostreamIT_T0_ES6_PKS3_l@plt>
  406248:	9101d3e1 	add	x1, sp, #0x74
  40624c:	aa1703e0 	mov	x0, x23
  406250:	940016f4 	bl	40be20 <_ZNSt8__detail9_Map_baseIiSt4pairIKiiESaIS3_ENS_10_Select1stESt8equal_toIiESt4hashIiENS_18_Mod_range_hashingENS_20_Default_ranged_hashENS_20_Prime_rehash_policyENS_17_Hashtable_traitsILb0ELb0ELb1EEELb1EEixERS2_>
  406254:	aa0003e1 	mov	x1, x0
  406258:	aa1403e0 	mov	x0, x20
  40625c:	b9400021 	ldr	w1, [x1]
  406260:	97ffefac 	bl	402110 <_ZNSolsEi@plt>
  406264:	f9400280 	ldr	x0, [x20]
  406268:	f85e8000 	ldur	x0, [x0, #-24]
  40626c:	8b000280 	add	x0, x20, x0
  406270:	f940781a 	ldr	x26, [x0, #240]
  406274:	b4001a3a 	cbz	x26, 4065b8 <_ZN5model5printEv+0xa98>
  406278:	3940e340 	ldrb	w0, [x26, #56]
  40627c:	35fffb80 	cbnz	w0, 4061ec <_ZN5model5printEv+0x6cc>
  406280:	aa1a03e0 	mov	x0, x26
  406284:	97ffef53 	bl	401fd0 <_ZNKSt5ctypeIcE13_M_widen_initEv@plt>
  406288:	f9400340 	ldr	x0, [x26]
  40628c:	52800141 	mov	w1, #0xa                   	// #10
  406290:	f9401802 	ldr	x2, [x0, #48]
  406294:	eb18005f 	cmp	x2, x24
  406298:	54fffac0 	b.eq	4061f0 <_ZN5model5printEv+0x6d0>  // b.none
  40629c:	aa1a03e0 	mov	x0, x26
  4062a0:	d63f0040 	blr	x2
  4062a4:	12001c01 	and	w1, w0, #0xff
  4062a8:	17ffffd2 	b	4061f0 <_ZN5model5printEv+0x6d0>
  4062ac:	aa1303e0 	mov	x0, x19
  4062b0:	97ffef48 	bl	401fd0 <_ZNKSt5ctypeIcE13_M_widen_initEv@plt>
  4062b4:	f9400262 	ldr	x2, [x19]
  4062b8:	b0ffffe0 	adrp	x0, 403000 <main+0xe40>
  4062bc:	91194000 	add	x0, x0, #0x650
  4062c0:	52800141 	mov	w1, #0xa                   	// #10
  4062c4:	f9401842 	ldr	x2, [x2, #48]
  4062c8:	eb00005f 	cmp	x2, x0
  4062cc:	54ffd2e0 	b.eq	405d28 <_ZN5model5printEv+0x208>  // b.none
  4062d0:	aa1303e0 	mov	x0, x19
  4062d4:	d63f0040 	blr	x2
  4062d8:	12001c01 	and	w1, w0, #0xff
  4062dc:	17fffe93 	b	405d28 <_ZN5model5printEv+0x208>
  4062e0:	aa1303e0 	mov	x0, x19
  4062e4:	97ffef3b 	bl	401fd0 <_ZNKSt5ctypeIcE13_M_widen_initEv@plt>
  4062e8:	f9400262 	ldr	x2, [x19]
  4062ec:	b0ffffe0 	adrp	x0, 403000 <main+0xe40>
  4062f0:	91194000 	add	x0, x0, #0x650
  4062f4:	52800141 	mov	w1, #0xa                   	// #10
  4062f8:	f9401842 	ldr	x2, [x2, #48]
  4062fc:	eb00005f 	cmp	x2, x0
  406300:	54ffe8e0 	b.eq	40601c <_ZN5model5printEv+0x4fc>  // b.none
  406304:	aa1303e0 	mov	x0, x19
  406308:	d63f0040 	blr	x2
  40630c:	12001c01 	and	w1, w0, #0xff
  406310:	17ffff43 	b	40601c <_ZN5model5printEv+0x4fc>
  406314:	f94033e0 	ldr	x0, [sp, #96]
  406318:	b9007bff 	str	wzr, [sp, #120]
  40631c:	91012015 	add	x21, x0, #0x48
  406320:	f9402404 	ldr	x4, [x0, #72]
  406324:	f94006a0 	ldr	x0, [x21, #8]
  406328:	eb04001f 	cmp	x0, x4
  40632c:	540007c0 	b.eq	406424 <_ZN5model5printEv+0x904>  // b.none
  406330:	d2917476 	mov	x22, #0x8ba3                	// #35747
  406334:	90000073 	adrp	x19, 412000 <_Z19MD5Hash_simdversionPKNSt7__cxx1112basic_stringIcSt11char_traitsIcESaIcEEEP12__Uint32x4_t+0x1000>
  406338:	f94033e0 	ldr	x0, [sp, #96]
  40633c:	f2b745d6 	movk	x22, #0xba2e, lsl #16
  406340:	f2d45d16 	movk	x22, #0xa2e8, lsl #32
  406344:	b0fffff8 	adrp	x24, 403000 <main+0xe40>
  406348:	9134e273 	add	x19, x19, #0xd38
  40634c:	91194318 	add	x24, x24, #0x650
  406350:	9101e3fb 	add	x27, sp, #0x78
  406354:	9103a017 	add	x23, x0, #0xe8
  406358:	d2800002 	mov	x2, #0x0                   	// #0
  40635c:	f2e5d176 	movk	x22, #0x2e8b, lsl #48
  406360:	1400000f 	b	40639c <_ZN5model5printEv+0x87c>
  406364:	39410f41 	ldrb	w1, [x26, #67]
  406368:	aa1403e0 	mov	x0, x20
  40636c:	97ffee9d 	bl	401de0 <_ZNSo3putEc@plt>
  406370:	97ffeee8 	bl	401f10 <_ZNSo5flushEv@plt>
  406374:	a94006a4 	ldp	x4, x1, [x21]
  406378:	b9407be3 	ldr	w3, [sp, #120]
  40637c:	11000463 	add	w3, w3, #0x1
  406380:	b9007be3 	str	w3, [sp, #120]
  406384:	cb040021 	sub	x1, x1, x4
  406388:	93407c62 	sxtw	x2, w3
  40638c:	9344fc21 	asr	x1, x1, #4
  406390:	9b167c21 	mul	x1, x1, x22
  406394:	eb01005f 	cmp	x2, x1
  406398:	54000462 	b.cs	406424 <_ZN5model5printEv+0x904>  // b.hs, b.nlast
  40639c:	8b020440 	add	x0, x2, x2, lsl #1
  4063a0:	d37ef400 	lsl	x0, x0, #2
  4063a4:	cb020000 	sub	x0, x0, x2
  4063a8:	8b001080 	add	x0, x4, x0, lsl #4
  4063ac:	97fff752 	bl	4040f4 <_ZN7segment8PrintSegEv>
  4063b0:	d28000c2 	mov	x2, #0x6                   	// #6
  4063b4:	aa1303e1 	mov	x1, x19
  4063b8:	aa1403e0 	mov	x0, x20
  4063bc:	97ffef01 	bl	401fc0 <_ZSt16__ostream_insertIcSt11char_traitsIcEERSt13basic_ostreamIT_T0_ES6_PKS3_l@plt>
  4063c0:	aa1b03e1 	mov	x1, x27
  4063c4:	aa1703e0 	mov	x0, x23
  4063c8:	94001696 	bl	40be20 <_ZNSt8__detail9_Map_baseIiSt4pairIKiiESaIS3_ENS_10_Select1stESt8equal_toIiESt4hashIiENS_18_Mod_range_hashingENS_20_Default_ranged_hashENS_20_Prime_rehash_policyENS_17_Hashtable_traitsILb0ELb0ELb1EEELb1EEixERS2_>
  4063cc:	aa0003e1 	mov	x1, x0
  4063d0:	aa1403e0 	mov	x0, x20
  4063d4:	b9400021 	ldr	w1, [x1]
  4063d8:	97ffef4e 	bl	402110 <_ZNSolsEi@plt>
  4063dc:	f9400280 	ldr	x0, [x20]
  4063e0:	f85e8000 	ldur	x0, [x0, #-24]
  4063e4:	8b000280 	add	x0, x20, x0
  4063e8:	f940781a 	ldr	x26, [x0, #240]
  4063ec:	b4000e7a 	cbz	x26, 4065b8 <_ZN5model5printEv+0xa98>
  4063f0:	3940e340 	ldrb	w0, [x26, #56]
  4063f4:	35fffb80 	cbnz	w0, 406364 <_ZN5model5printEv+0x844>
  4063f8:	aa1a03e0 	mov	x0, x26
  4063fc:	97ffeef5 	bl	401fd0 <_ZNKSt5ctypeIcE13_M_widen_initEv@plt>
  406400:	f9400340 	ldr	x0, [x26]
  406404:	52800141 	mov	w1, #0xa                   	// #10
  406408:	f9401802 	ldr	x2, [x0, #48]
  40640c:	eb18005f 	cmp	x2, x24
  406410:	54fffac0 	b.eq	406368 <_ZN5model5printEv+0x848>  // b.none
  406414:	aa1a03e0 	mov	x0, x26
  406418:	d63f0040 	blr	x2
  40641c:	12001c01 	and	w1, w0, #0xff
  406420:	17ffffd2 	b	406368 <_ZN5model5printEv+0x848>
  406424:	f94033e0 	ldr	x0, [sp, #96]
  406428:	b900d3ff 	str	wzr, [sp, #208]
  40642c:	91018015 	add	x21, x0, #0x60
  406430:	f9403004 	ldr	x4, [x0, #96]
  406434:	f94006a0 	ldr	x0, [x21, #8]
  406438:	eb04001f 	cmp	x0, x4
  40643c:	540007a0 	b.eq	406530 <_ZN5model5printEv+0xa10>  // b.none
  406440:	d2917476 	mov	x22, #0x8ba3                	// #35747
  406444:	90000073 	adrp	x19, 412000 <_Z19MD5Hash_simdversionPKNSt7__cxx1112basic_stringIcSt11char_traitsIcESaIcEEEP12__Uint32x4_t+0x1000>
  406448:	f94033e0 	ldr	x0, [sp, #96]
  40644c:	f2b745d6 	movk	x22, #0xba2e, lsl #16
  406450:	f2d45d16 	movk	x22, #0xa2e8, lsl #32
  406454:	b0fffff7 	adrp	x23, 403000 <main+0xe40>
  406458:	9134e273 	add	x19, x19, #0xd38
  40645c:	911942f7 	add	x23, x23, #0x650
  406460:	91048019 	add	x25, x0, #0x120
  406464:	d2800002 	mov	x2, #0x0                   	// #0
  406468:	f2e5d176 	movk	x22, #0x2e8b, lsl #48
  40646c:	1400000f 	b	4064a8 <_ZN5model5printEv+0x988>
  406470:	39410f01 	ldrb	w1, [x24, #67]
  406474:	aa1403e0 	mov	x0, x20
  406478:	97ffee5a 	bl	401de0 <_ZNSo3putEc@plt>
  40647c:	97ffeea5 	bl	401f10 <_ZNSo5flushEv@plt>
  406480:	a94006a4 	ldp	x4, x1, [x21]
  406484:	b940d3e3 	ldr	w3, [sp, #208]
  406488:	11000463 	add	w3, w3, #0x1
  40648c:	b900d3e3 	str	w3, [sp, #208]
  406490:	cb040021 	sub	x1, x1, x4
  406494:	93407c62 	sxtw	x2, w3
  406498:	9344fc21 	asr	x1, x1, #4
  40649c:	9b167c21 	mul	x1, x1, x22
  4064a0:	eb01005f 	cmp	x2, x1
  4064a4:	54000462 	b.cs	406530 <_ZN5model5printEv+0xa10>  // b.hs, b.nlast
  4064a8:	8b020440 	add	x0, x2, x2, lsl #1
  4064ac:	d37ef400 	lsl	x0, x0, #2
  4064b0:	cb020000 	sub	x0, x0, x2
  4064b4:	8b001080 	add	x0, x4, x0, lsl #4
  4064b8:	97fff70f 	bl	4040f4 <_ZN7segment8PrintSegEv>
  4064bc:	d28000c2 	mov	x2, #0x6                   	// #6
  4064c0:	aa1303e1 	mov	x1, x19
  4064c4:	aa1403e0 	mov	x0, x20
  4064c8:	97ffeebe 	bl	401fc0 <_ZSt16__ostream_insertIcSt11char_traitsIcEERSt13basic_ostreamIT_T0_ES6_PKS3_l@plt>
  4064cc:	910343e1 	add	x1, sp, #0xd0
  4064d0:	aa1903e0 	mov	x0, x25
  4064d4:	94001653 	bl	40be20 <_ZNSt8__detail9_Map_baseIiSt4pairIKiiESaIS3_ENS_10_Select1stESt8equal_toIiESt4hashIiENS_18_Mod_range_hashingENS_20_Default_ranged_hashENS_20_Prime_rehash_policyENS_17_Hashtable_traitsILb0ELb0ELb1EEELb1EEixERS2_>
  4064d8:	aa0003e1 	mov	x1, x0
  4064dc:	aa1403e0 	mov	x0, x20
  4064e0:	b9400021 	ldr	w1, [x1]
  4064e4:	97ffef0b 	bl	402110 <_ZNSolsEi@plt>
  4064e8:	f9400280 	ldr	x0, [x20]
  4064ec:	f85e8000 	ldur	x0, [x0, #-24]
  4064f0:	8b000280 	add	x0, x20, x0
  4064f4:	f9407818 	ldr	x24, [x0, #240]
  4064f8:	b4000618 	cbz	x24, 4065b8 <_ZN5model5printEv+0xa98>
  4064fc:	3940e300 	ldrb	w0, [x24, #56]
  406500:	35fffb80 	cbnz	w0, 406470 <_ZN5model5printEv+0x950>
  406504:	aa1803e0 	mov	x0, x24
  406508:	97ffeeb2 	bl	401fd0 <_ZNKSt5ctypeIcE13_M_widen_initEv@plt>
  40650c:	f9400300 	ldr	x0, [x24]
  406510:	52800141 	mov	w1, #0xa                   	// #10
  406514:	f9401802 	ldr	x2, [x0, #48]
  406518:	eb17005f 	cmp	x2, x23
  40651c:	54fffac0 	b.eq	406474 <_ZN5model5printEv+0x954>  // b.none
  406520:	aa1803e0 	mov	x0, x24
  406524:	d63f0040 	blr	x2
  406528:	12001c01 	and	w1, w0, #0xff
  40652c:	17ffffd2 	b	406474 <_ZN5model5printEv+0x954>
  406530:	a94153f3 	ldp	x19, x20, [sp, #16]
  406534:	a9425bf5 	ldp	x21, x22, [sp, #32]
  406538:	a94363f7 	ldp	x23, x24, [sp, #48]
  40653c:	a9446bf9 	ldp	x25, x26, [sp, #64]
  406540:	a94573fb 	ldp	x27, x28, [sp, #80]
  406544:	a8d87bfd 	ldp	x29, x30, [sp], #384
  406548:	d65f03c0 	ret
  40654c:	aa1303e0 	mov	x0, x19
  406550:	97ffeea0 	bl	401fd0 <_ZNKSt5ctypeIcE13_M_widen_initEv@plt>
  406554:	f9400262 	ldr	x2, [x19]
  406558:	b0ffffe0 	adrp	x0, 403000 <main+0xe40>
  40655c:	91194000 	add	x0, x0, #0x650
  406560:	52800141 	mov	w1, #0xa                   	// #10
  406564:	f9401842 	ldr	x2, [x2, #48]
  406568:	eb00005f 	cmp	x2, x0
  40656c:	54ffb0a0 	b.eq	405b80 <_ZN5model5printEv+0x60>  // b.none
  406570:	aa1303e0 	mov	x0, x19
  406574:	d63f0040 	blr	x2
  406578:	12001c01 	and	w1, w0, #0xff
  40657c:	17fffd81 	b	405b80 <_ZN5model5printEv+0x60>
  406580:	aa1303e0 	mov	x0, x19
  406584:	97ffee93 	bl	401fd0 <_ZNKSt5ctypeIcE13_M_widen_initEv@plt>
  406588:	f9400262 	ldr	x2, [x19]
  40658c:	b0ffffe0 	adrp	x0, 403000 <main+0xe40>
  406590:	91194000 	add	x0, x0, #0x650
  406594:	52800141 	mov	w1, #0xa                   	// #10
  406598:	f9401842 	ldr	x2, [x2, #48]
  40659c:	eb00005f 	cmp	x2, x0
  4065a0:	54ffdfa0 	b.eq	406194 <_ZN5model5printEv+0x674>  // b.none
  4065a4:	aa1303e0 	mov	x0, x19
  4065a8:	d63f0040 	blr	x2
  4065ac:	12001c01 	and	w1, w0, #0xff
  4065b0:	17fffef9 	b	406194 <_ZN5model5printEv+0x674>
  4065b4:	97ffee93 	bl	402000 <_ZSt16__throw_bad_castv@plt>
  4065b8:	97ffee92 	bl	402000 <_ZSt16__throw_bad_castv@plt>
  4065bc:	aa0003f3 	mov	x19, x0
  4065c0:	910343e0 	add	x0, sp, #0xd0
  4065c4:	94000f27 	bl	40a260 <_ZN2PTD1Ev>
  4065c8:	aa1b03e0 	mov	x0, x27
  4065cc:	94000f25 	bl	40a260 <_ZN2PTD1Ev>
  4065d0:	aa1303e0 	mov	x0, x19
  4065d4:	97ffeed3 	bl	402120 <_Unwind_Resume@plt>
  4065d8:	aa0003f3 	mov	x19, x0
  4065dc:	910343e0 	add	x0, sp, #0xd0
  4065e0:	94000ed8 	bl	40a140 <_ZN7segmentD1Ev>
  4065e4:	aa1303e0 	mov	x0, x19
  4065e8:	97ffeece 	bl	402120 <_Unwind_Resume@plt>
  4065ec:	aa0003f3 	mov	x19, x0
  4065f0:	910343e0 	add	x0, sp, #0xd0
  4065f4:	94000ed3 	bl	40a140 <_ZN7segmentD1Ev>
  4065f8:	17fffff4 	b	4065c8 <_ZN5model5printEv+0xaa8>
  4065fc:	aa0003f3 	mov	x19, x0
  406600:	17fffff2 	b	4065c8 <_ZN5model5printEv+0xaa8>

0000000000406604 <_ZN5model5parseENSt7__cxx1112basic_stringIcSt11char_traitsIcESaIcEEE>:
  406604:	d13803ff 	sub	sp, sp, #0xe00
  406608:	910223e2 	add	x2, sp, #0x88
  40660c:	a9007bfd 	stp	x29, x30, [sp]
  406610:	910003fd 	mov	x29, sp
  406614:	a90153f3 	stp	x19, x20, [sp, #16]
  406618:	a90363f7 	stp	x23, x24, [sp, #48]
  40661c:	910263f7 	add	x23, sp, #0x98
  406620:	a9406033 	ldp	x19, x24, [x1]
  406624:	a9025bf5 	stp	x21, x22, [sp, #32]
  406628:	aa0003f6 	mov	x22, x0
  40662c:	a9046bf9 	stp	x25, x26, [sp, #64]
  406630:	a90573fb 	stp	x27, x28, [sp, #80]
  406634:	8b180278 	add	x24, x19, x24
  406638:	a907ffe2 	stp	x2, xzr, [sp, #120]
  40663c:	390223ff 	strb	wzr, [sp, #136]
  406640:	a909ffff 	stp	xzr, xzr, [sp, #152]
  406644:	f90057ff 	str	xzr, [sp, #168]
  406648:	b900b3ff 	str	wzr, [sp, #176]
  40664c:	a90bffff 	stp	xzr, xzr, [sp, #184]
  406650:	a90cffff 	stp	xzr, xzr, [sp, #200]
  406654:	a90dffff 	stp	xzr, xzr, [sp, #216]
  406658:	eb18027f 	cmp	x19, x24
  40665c:	54002d20 	b.eq	406c00 <_ZN5model5parseENSt7__cxx1112basic_stringIcSt11char_traitsIcESaIcEEE+0x5fc>  // b.none
  406660:	9124a3e0 	add	x0, sp, #0x928
  406664:	913443f9 	add	x25, sp, #0xd10
  406668:	910263f7 	add	x23, sp, #0x98
  40666c:	d2800014 	mov	x20, #0x0                   	// #0
  406670:	5280001b 	mov	w27, #0x0                   	// #0
  406674:	f90037e0 	str	x0, [sp, #104]
  406678:	14000019 	b	4066dc <_ZN5model5parseENSt7__cxx1112basic_stringIcSt11char_traitsIcESaIcEEE+0xd8>
  40667c:	7100077f 	cmp	w27, #0x1
  406680:	540000a0 	b.eq	406694 <_ZN5model5parseENSt7__cxx1112basic_stringIcSt11char_traitsIcESaIcEEE+0x90>  // b.none
  406684:	71000b7f 	cmp	w27, #0x2
  406688:	54003ba0 	b.eq	406dfc <_ZN5model5parseENSt7__cxx1112basic_stringIcSt11char_traitsIcESaIcEEE+0x7f8>  // b.none
  40668c:	71000f7f 	cmp	w27, #0x3
  406690:	54006600 	b.eq	407350 <_ZN5model5parseENSt7__cxx1112basic_stringIcSt11char_traitsIcESaIcEEE+0xd4c>  // b.none
  406694:	f9403fe2 	ldr	x2, [sp, #120]
  406698:	910223e1 	add	x1, sp, #0x88
  40669c:	f94047e0 	ldr	x0, [sp, #136]
  4066a0:	eb01005f 	cmp	x2, x1
  4066a4:	d28001e3 	mov	x3, #0xf                   	// #15
  4066a8:	9100069c 	add	x28, x20, #0x1
  4066ac:	9a831000 	csel	x0, x0, x3, ne  // ne = any
  4066b0:	eb00039f 	cmp	x28, x0
  4066b4:	54003748 	b.hi	406d9c <_ZN5model5parseENSt7__cxx1112basic_stringIcSt11char_traitsIcESaIcEEE+0x798>  // b.pmore
  4066b8:	38346855 	strb	w21, [x2, x20]
  4066bc:	5280003b 	mov	w27, #0x1                   	// #1
  4066c0:	f90043fc 	str	x28, [sp, #128]
  4066c4:	f9403fe0 	ldr	x0, [sp, #120]
  4066c8:	383c681f 	strb	wzr, [x0, x28]
  4066cc:	91000673 	add	x19, x19, #0x1
  4066d0:	f94043f4 	ldr	x20, [sp, #128]
  4066d4:	eb13031f 	cmp	x24, x19
  4066d8:	54000400 	b.eq	406758 <_ZN5model5parseENSt7__cxx1112basic_stringIcSt11char_traitsIcESaIcEEE+0x154>  // b.none
  4066dc:	39400275 	ldrb	w21, [x19]
  4066e0:	2a1503e0 	mov	w0, w21
  4066e4:	97ffee4b 	bl	402010 <isalpha@plt>
  4066e8:	35fffca0 	cbnz	w0, 40667c <_ZN5model5parseENSt7__cxx1112basic_stringIcSt11char_traitsIcESaIcEEE+0x78>
  4066ec:	5100c2a0 	sub	w0, w21, #0x30
  4066f0:	7100241f 	cmp	w0, #0x9
  4066f4:	540032a8 	b.hi	406d48 <_ZN5model5parseENSt7__cxx1112basic_stringIcSt11char_traitsIcESaIcEEE+0x744>  // b.pmore
  4066f8:	71000b7f 	cmp	w27, #0x2
  4066fc:	540000a0 	b.eq	406710 <_ZN5model5parseENSt7__cxx1112basic_stringIcSt11char_traitsIcESaIcEEE+0x10c>  // b.none
  406700:	7100077f 	cmp	w27, #0x1
  406704:	54009460 	b.eq	407990 <_ZN5model5parseENSt7__cxx1112basic_stringIcSt11char_traitsIcESaIcEEE+0x138c>  // b.none
  406708:	71000f7f 	cmp	w27, #0x3
  40670c:	5400dd20 	b.eq	4082b0 <_ZN5model5parseENSt7__cxx1112basic_stringIcSt11char_traitsIcESaIcEEE+0x1cac>  // b.none
  406710:	f9403fe2 	ldr	x2, [sp, #120]
  406714:	910223e1 	add	x1, sp, #0x88
  406718:	f94047e0 	ldr	x0, [sp, #136]
  40671c:	eb01005f 	cmp	x2, x1
  406720:	d28001e3 	mov	x3, #0xf                   	// #15
  406724:	9100069c 	add	x28, x20, #0x1
  406728:	9a831000 	csel	x0, x0, x3, ne  // ne = any
  40672c:	eb00039f 	cmp	x28, x0
  406730:	54003468 	b.hi	406dbc <_ZN5model5parseENSt7__cxx1112basic_stringIcSt11char_traitsIcESaIcEEE+0x7b8>  // b.pmore
  406734:	38346855 	strb	w21, [x2, x20]
  406738:	91000673 	add	x19, x19, #0x1
  40673c:	f90043fc 	str	x28, [sp, #128]
  406740:	5280005b 	mov	w27, #0x2                   	// #2
  406744:	f9403fe0 	ldr	x0, [sp, #120]
  406748:	383c681f 	strb	wzr, [x0, x28]
  40674c:	f94043f4 	ldr	x20, [sp, #128]
  406750:	eb13031f 	cmp	x24, x19
  406754:	54fffc41 	b.ne	4066dc <_ZN5model5parseENSt7__cxx1112basic_stringIcSt11char_traitsIcESaIcEEE+0xd8>  // b.any
  406758:	b4002554 	cbz	x20, 406c00 <_ZN5model5parseENSt7__cxx1112basic_stringIcSt11char_traitsIcESaIcEEE+0x5fc>
  40675c:	1e2e1000 	fmov	s0, #1.000000000000000000e+00
  406760:	7100077f 	cmp	w27, #0x1
  406764:	540115a0 	b.eq	408a18 <_ZN5model5parseENSt7__cxx1112basic_stringIcSt11char_traitsIcESaIcEEE+0x2414>  // b.none
  406768:	71000b7f 	cmp	w27, #0x2
  40676c:	540104e0 	b.eq	408808 <_ZN5model5parseENSt7__cxx1112basic_stringIcSt11char_traitsIcESaIcEEE+0x2204>  // b.none
  406770:	52800065 	mov	w5, #0x3                   	// #3
  406774:	b90bf3e5 	str	w5, [sp, #3056]
  406778:	912fe3e5 	add	x5, sp, #0xbf8
  40677c:	9130c3e6 	add	x6, sp, #0xc30
  406780:	b90bf7f4 	str	w20, [sp, #3060]
  406784:	912fc3f8 	add	x24, sp, #0xbf0
  406788:	913163e7 	add	x7, sp, #0xc58
  40678c:	d2800022 	mov	x2, #0x1                   	// #1
  406790:	a9007cbf 	stp	xzr, xzr, [x5]
  406794:	9101c304 	add	x4, x24, #0x70
  406798:	9102a303 	add	x3, x24, #0xa8
  40679c:	a9017cbf 	stp	xzr, xzr, [x5, #16]
  4067a0:	913283f5 	add	x21, sp, #0xca0
  4067a4:	aa1803e1 	mov	x1, x24
  4067a8:	f9060fff 	str	xzr, [sp, #3096]
  4067ac:	aa1503e0 	mov	x0, x21
  4067b0:	f90613ff 	str	xzr, [sp, #3104]
  4067b4:	b90c2bff 	str	wzr, [sp, #3112]
  4067b8:	a90008c4 	stp	x4, x2, [x6]
  4067bc:	a9017cdf 	stp	xzr, xzr, [x6, #16]
  4067c0:	bd0c53e0 	str	s0, [sp, #3152]
  4067c4:	a9007cff 	stp	xzr, xzr, [x7]
  4067c8:	a90108e3 	stp	x3, x2, [x7, #16]
  4067cc:	f9063fff 	str	xzr, [sp, #3192]
  4067d0:	f90643ff 	str	xzr, [sp, #3200]
  4067d4:	bd0c8be0 	str	s0, [sp, #3208]
  4067d8:	f9064bff 	str	xzr, [sp, #3216]
  4067dc:	f9064fff 	str	xzr, [sp, #3224]
  4067e0:	94000f00 	bl	40a3e0 <_ZN7segmentC1ERKS_>
  4067e4:	f94032c1 	ldr	x1, [x22, #96]
  4067e8:	d2917460 	mov	x0, #0x8ba3                	// #35747
  4067ec:	f94036c3 	ldr	x3, [x22, #104]
  4067f0:	f2b745c0 	movk	x0, #0xba2e, lsl #16
  4067f4:	f2d45d00 	movk	x0, #0xa2e8, lsl #32
  4067f8:	910182dc 	add	x28, x22, #0x60
  4067fc:	cb010063 	sub	x3, x3, x1
  406800:	f2e5d160 	movk	x0, #0x2e8b, lsl #48
  406804:	9344fc63 	asr	x3, x3, #4
  406808:	9b007c63 	mul	x3, x3, x0
  40680c:	b40133e3 	cbz	x3, 408e88 <_ZN5model5parseENSt7__cxx1112basic_stringIcSt11char_traitsIcESaIcEEE+0x2884>
  406810:	b94ca7e4 	ldr	w4, [sp, #3236]
  406814:	91001021 	add	x1, x1, #0x4
  406818:	d2800000 	mov	x0, #0x0                   	// #0
  40681c:	14000005 	b	406830 <_ZN5model5parseENSt7__cxx1112basic_stringIcSt11char_traitsIcESaIcEEE+0x22c>
  406820:	91000400 	add	x0, x0, #0x1
  406824:	9102c021 	add	x1, x1, #0xb0
  406828:	eb00007f 	cmp	x3, x0
  40682c:	540132e0 	b.eq	408e88 <_ZN5model5parseENSt7__cxx1112basic_stringIcSt11char_traitsIcESaIcEEE+0x2884>  // b.none
  406830:	b9400022 	ldr	w2, [x1]
  406834:	2a0003f4 	mov	w20, w0
  406838:	6b04005f 	cmp	w2, w4
  40683c:	54ffff21 	b.ne	406820 <_ZN5model5parseENSt7__cxx1112basic_stringIcSt11char_traitsIcESaIcEEE+0x21c>  // b.any
  406840:	f94697f3 	ldr	x19, [sp, #3368]
  406844:	b40000d3 	cbz	x19, 40685c <_ZN5model5parseENSt7__cxx1112basic_stringIcSt11char_traitsIcESaIcEEE+0x258>
  406848:	aa1303e0 	mov	x0, x19
  40684c:	d2800201 	mov	x1, #0x10                  	// #16
  406850:	f9400273 	ldr	x19, [x19]
  406854:	97ffedcf 	bl	401f90 <_ZdlPvm@plt>
  406858:	b5ffff93 	cbnz	x19, 406848 <_ZN5model5parseENSt7__cxx1112basic_stringIcSt11char_traitsIcESaIcEEE+0x244>
  40685c:	f9468fe0 	ldr	x0, [sp, #3352]
  406860:	52800001 	mov	w1, #0x0                   	// #0
  406864:	f94693e2 	ldr	x2, [sp, #3360]
  406868:	d37df042 	lsl	x2, x2, #3
  40686c:	97ffeda1 	bl	401ef0 <memset@plt>
  406870:	f9468fe0 	ldr	x0, [sp, #3352]
  406874:	9102a2a2 	add	x2, x21, #0xa8
  406878:	f90697ff 	str	xzr, [sp, #3368]
  40687c:	f9069bff 	str	xzr, [sp, #3376]
  406880:	f94693e1 	ldr	x1, [sp, #3360]
  406884:	eb02001f 	cmp	x0, x2
  406888:	54000060 	b.eq	406894 <_ZN5model5parseENSt7__cxx1112basic_stringIcSt11char_traitsIcESaIcEEE+0x290>  // b.none
  40688c:	d37df021 	lsl	x1, x1, #3
  406890:	97ffedc0 	bl	401f90 <_ZdlPvm@plt>
  406894:	910102a0 	add	x0, x21, #0x40
  406898:	94000e0a 	bl	40a0c0 <_ZNSt10_HashtableINSt7__cxx1112basic_stringIcSt11char_traitsIcESaIcEEESt4pairIKS5_iESaIS8_ENSt8__detail10_Select1stESt8equal_toIS5_ESt4hashIS5_ENSA_18_Mod_range_hashingENSA_20_Default_ranged_hashENSA_20_Prime_rehash_policyENSA_17_Hashtable_traitsILb1ELb0ELb1EEEE5clearEv>
  40689c:	f94673e0 	ldr	x0, [sp, #3296]
  4068a0:	9101c2a2 	add	x2, x21, #0x70
  4068a4:	f94677e1 	ldr	x1, [sp, #3304]
  4068a8:	eb02001f 	cmp	x0, x2
  4068ac:	54000060 	b.eq	4068b8 <_ZN5model5parseENSt7__cxx1112basic_stringIcSt11char_traitsIcESaIcEEE+0x2b4>  // b.none
  4068b0:	d37df021 	lsl	x1, x1, #3
  4068b4:	97ffedb7 	bl	401f90 <_ZdlPvm@plt>
  4068b8:	f94663e0 	ldr	x0, [sp, #3264]
  4068bc:	b4000080 	cbz	x0, 4068cc <_ZN5model5parseENSt7__cxx1112basic_stringIcSt11char_traitsIcESaIcEEE+0x2c8>
  4068c0:	f9466be1 	ldr	x1, [sp, #3280]
  4068c4:	cb000021 	sub	x1, x1, x0
  4068c8:	97ffedb2 	bl	401f90 <_ZdlPvm@plt>
  4068cc:	f94657f3 	ldr	x19, [sp, #3240]
  4068d0:	f9465bf9 	ldr	x25, [sp, #3248]
  4068d4:	eb19027f 	cmp	x19, x25
  4068d8:	540001a0 	b.eq	40690c <_ZN5model5parseENSt7__cxx1112basic_stringIcSt11char_traitsIcESaIcEEE+0x308>  // b.none
  4068dc:	d503201f 	nop
  4068e0:	aa1303e1 	mov	x1, x19
  4068e4:	f8410420 	ldr	x0, [x1], #16
  4068e8:	eb01001f 	cmp	x0, x1
  4068ec:	54000080 	b.eq	4068fc <_ZN5model5parseENSt7__cxx1112basic_stringIcSt11char_traitsIcESaIcEEE+0x2f8>  // b.none
  4068f0:	f9400a61 	ldr	x1, [x19, #16]
  4068f4:	91000421 	add	x1, x1, #0x1
  4068f8:	97ffeda6 	bl	401f90 <_ZdlPvm@plt>
  4068fc:	91008273 	add	x19, x19, #0x20
  406900:	eb13033f 	cmp	x25, x19
  406904:	54fffee1 	b.ne	4068e0 <_ZN5model5parseENSt7__cxx1112basic_stringIcSt11char_traitsIcESaIcEEE+0x2dc>  // b.any
  406908:	f94657f9 	ldr	x25, [sp, #3240]
  40690c:	b40000b9 	cbz	x25, 406920 <_ZN5model5parseENSt7__cxx1112basic_stringIcSt11char_traitsIcESaIcEEE+0x31c>
  406910:	f9465fe1 	ldr	x1, [sp, #3256]
  406914:	aa1903e0 	mov	x0, x25
  406918:	cb190021 	sub	x1, x1, x25
  40691c:	97ffed9d 	bl	401f90 <_ZdlPvm@plt>
  406920:	3100069f 	cmn	w20, #0x1
  406924:	54013160 	b.eq	408f50 <_ZN5model5parseENSt7__cxx1112basic_stringIcSt11char_traitsIcESaIcEEE+0x294c>  // b.none
  406928:	913543f4 	add	x20, sp, #0xd50
  40692c:	aa1803e1 	mov	x1, x24
  406930:	aa1403e0 	mov	x0, x20
  406934:	94000eab 	bl	40a3e0 <_ZN7segmentC1ERKS_>
  406938:	f9400783 	ldr	x3, [x28, #8]
  40693c:	d2917460 	mov	x0, #0x8ba3                	// #35747
  406940:	f94032c1 	ldr	x1, [x22, #96]
  406944:	f2b745c0 	movk	x0, #0xba2e, lsl #16
  406948:	f2d45d00 	movk	x0, #0xa2e8, lsl #32
  40694c:	cb010063 	sub	x3, x3, x1
  406950:	f2e5d160 	movk	x0, #0x2e8b, lsl #48
  406954:	9344fc63 	asr	x3, x3, #4
  406958:	9b007c63 	mul	x3, x3, x0
  40695c:	b4012f63 	cbz	x3, 408f48 <_ZN5model5parseENSt7__cxx1112basic_stringIcSt11char_traitsIcESaIcEEE+0x2944>
  406960:	b94d57e5 	ldr	w5, [sp, #3412]
  406964:	91001021 	add	x1, x1, #0x4
  406968:	d2800000 	mov	x0, #0x0                   	// #0
  40696c:	14000005 	b	406980 <_ZN5model5parseENSt7__cxx1112basic_stringIcSt11char_traitsIcESaIcEEE+0x37c>
  406970:	91000400 	add	x0, x0, #0x1
  406974:	9102c021 	add	x1, x1, #0xb0
  406978:	eb00007f 	cmp	x3, x0
  40697c:	54012e60 	b.eq	408f48 <_ZN5model5parseENSt7__cxx1112basic_stringIcSt11char_traitsIcESaIcEEE+0x2944>  // b.none
  406980:	b9400022 	ldr	w2, [x1]
  406984:	2a0003e4 	mov	w4, w0
  406988:	6b05005f 	cmp	w2, w5
  40698c:	54ffff21 	b.ne	406970 <_ZN5model5parseENSt7__cxx1112basic_stringIcSt11char_traitsIcESaIcEEE+0x36c>  // b.any
  406990:	aa1403e0 	mov	x0, x20
  406994:	b90ca3e4 	str	w4, [sp, #3232]
  406998:	94000dea 	bl	40a140 <_ZN7segmentD1Ev>
  40699c:	aa1503e1 	mov	x1, x21
  4069a0:	910482c0 	add	x0, x22, #0x120
  4069a4:	9400151f 	bl	40be20 <_ZNSt8__detail9_Map_baseIiSt4pairIKiiESaIS3_ENS_10_Select1stESt8equal_toIiESt4hashIiENS_18_Mod_range_hashingENS_20_Default_ranged_hashENS_20_Prime_rehash_policyENS_17_Hashtable_traitsILb0ELb0ELb1EEELb1EEixERS2_>
  4069a8:	aa0003e3 	mov	x3, x0
  4069ac:	91004284 	add	x4, x20, #0x10
  4069b0:	f94032c6 	ldr	x6, [x22, #96]
  4069b4:	52801607 	mov	w7, #0xb0                  	// #176
  4069b8:	b9400065 	ldr	w5, [x3]
  4069bc:	aa1403e0 	mov	x0, x20
  4069c0:	a9478be1 	ldp	x1, x2, [sp, #120]
  4069c4:	110004a5 	add	w5, w5, #0x1
  4069c8:	b9000065 	str	w5, [x3]
  4069cc:	f906abe4 	str	x4, [sp, #3408]
  4069d0:	b94ca3f3 	ldr	w19, [sp, #3232]
  4069d4:	8b020022 	add	x2, x1, x2
  4069d8:	9b271a73 	smaddl	x19, w19, w7, x6
  4069dc:	97fff51a 	bl	403e44 <_ZNSt7__cxx1112basic_stringIcSt11char_traitsIcESaIcEE12_M_constructIPcEEvT_S7_St20forward_iterator_tag.isra.0>
  4069e0:	aa1403e1 	mov	x1, x20
  4069e4:	aa1303e0 	mov	x0, x19
  4069e8:	97fffbc2 	bl	4058f0 <_ZN7segment6insertENSt7__cxx1112basic_stringIcSt11char_traitsIcESaIcEEE>
  4069ec:	f946abe0 	ldr	x0, [sp, #3408]
  4069f0:	91004281 	add	x1, x20, #0x10
  4069f4:	eb01001f 	cmp	x0, x1
  4069f8:	54000080 	b.eq	406a08 <_ZN5model5parseENSt7__cxx1112basic_stringIcSt11char_traitsIcESaIcEEE+0x404>  // b.none
  4069fc:	f946b3e1 	ldr	x1, [sp, #3424]
  406a00:	91000421 	add	x1, x1, #0x1
  406a04:	97ffed63 	bl	401f90 <_ZdlPvm@plt>
  406a08:	f9403fe2 	ldr	x2, [sp, #120]
  406a0c:	f90043ff 	str	xzr, [sp, #128]
  406a10:	aa1803e1 	mov	x1, x24
  406a14:	aa1403e0 	mov	x0, x20
  406a18:	3900005f 	strb	wzr, [x2]
  406a1c:	94000e71 	bl	40a3e0 <_ZN7segmentC1ERKS_>
  406a20:	a94a07e0 	ldp	x0, x1, [sp, #160]
  406a24:	eb01001f 	cmp	x0, x1
  406a28:	54013440 	b.eq	4090b0 <_ZN5model5parseENSt7__cxx1112basic_stringIcSt11char_traitsIcESaIcEEE+0x2aac>  // b.none
  406a2c:	aa1403e1 	mov	x1, x20
  406a30:	94000e6c 	bl	40a3e0 <_ZN7segmentC1ERKS_>
  406a34:	f94053e0 	ldr	x0, [sp, #160]
  406a38:	9102c000 	add	x0, x0, #0xb0
  406a3c:	f90053e0 	str	x0, [sp, #160]
  406a40:	f946eff3 	ldr	x19, [sp, #3544]
  406a44:	b40000d3 	cbz	x19, 406a5c <_ZN5model5parseENSt7__cxx1112basic_stringIcSt11char_traitsIcESaIcEEE+0x458>
  406a48:	aa1303e0 	mov	x0, x19
  406a4c:	d2800201 	mov	x1, #0x10                  	// #16
  406a50:	f9400273 	ldr	x19, [x19]
  406a54:	97ffed4f 	bl	401f90 <_ZdlPvm@plt>
  406a58:	b5ffff93 	cbnz	x19, 406a48 <_ZN5model5parseENSt7__cxx1112basic_stringIcSt11char_traitsIcESaIcEEE+0x444>
  406a5c:	f946e7e0 	ldr	x0, [sp, #3528]
  406a60:	52800001 	mov	w1, #0x0                   	// #0
  406a64:	f946ebe2 	ldr	x2, [sp, #3536]
  406a68:	d37df042 	lsl	x2, x2, #3
  406a6c:	97ffed21 	bl	401ef0 <memset@plt>
  406a70:	f946e7e0 	ldr	x0, [sp, #3528]
  406a74:	9102a282 	add	x2, x20, #0xa8
  406a78:	f906efff 	str	xzr, [sp, #3544]
  406a7c:	f906f3ff 	str	xzr, [sp, #3552]
  406a80:	f946ebe1 	ldr	x1, [sp, #3536]
  406a84:	eb02001f 	cmp	x0, x2
  406a88:	54000060 	b.eq	406a94 <_ZN5model5parseENSt7__cxx1112basic_stringIcSt11char_traitsIcESaIcEEE+0x490>  // b.none
  406a8c:	d37df021 	lsl	x1, x1, #3
  406a90:	97ffed40 	bl	401f90 <_ZdlPvm@plt>
  406a94:	91010280 	add	x0, x20, #0x40
  406a98:	94000d8a 	bl	40a0c0 <_ZNSt10_HashtableINSt7__cxx1112basic_stringIcSt11char_traitsIcESaIcEEESt4pairIKS5_iESaIS8_ENSt8__detail10_Select1stESt8equal_toIS5_ESt4hashIS5_ENSA_18_Mod_range_hashingENSA_20_Default_ranged_hashENSA_20_Prime_rehash_policyENSA_17_Hashtable_traitsILb1ELb0ELb1EEEE5clearEv>
  406a9c:	f946cbe0 	ldr	x0, [sp, #3472]
  406aa0:	9101c294 	add	x20, x20, #0x70
  406aa4:	f946cfe1 	ldr	x1, [sp, #3480]
  406aa8:	eb14001f 	cmp	x0, x20
  406aac:	54000060 	b.eq	406ab8 <_ZN5model5parseENSt7__cxx1112basic_stringIcSt11char_traitsIcESaIcEEE+0x4b4>  // b.none
  406ab0:	d37df021 	lsl	x1, x1, #3
  406ab4:	97ffed37 	bl	401f90 <_ZdlPvm@plt>
  406ab8:	f946bbe0 	ldr	x0, [sp, #3440]
  406abc:	b4000080 	cbz	x0, 406acc <_ZN5model5parseENSt7__cxx1112basic_stringIcSt11char_traitsIcESaIcEEE+0x4c8>
  406ac0:	f946c3e1 	ldr	x1, [sp, #3456]
  406ac4:	cb000021 	sub	x1, x1, x0
  406ac8:	97ffed32 	bl	401f90 <_ZdlPvm@plt>
  406acc:	f946aff3 	ldr	x19, [sp, #3416]
  406ad0:	f946b3f4 	ldr	x20, [sp, #3424]
  406ad4:	eb14027f 	cmp	x19, x20
  406ad8:	540001a0 	b.eq	406b0c <_ZN5model5parseENSt7__cxx1112basic_stringIcSt11char_traitsIcESaIcEEE+0x508>  // b.none
  406adc:	d503201f 	nop
  406ae0:	aa1303e1 	mov	x1, x19
  406ae4:	f8410420 	ldr	x0, [x1], #16
  406ae8:	eb01001f 	cmp	x0, x1
  406aec:	54000080 	b.eq	406afc <_ZN5model5parseENSt7__cxx1112basic_stringIcSt11char_traitsIcESaIcEEE+0x4f8>  // b.none
  406af0:	f9400a61 	ldr	x1, [x19, #16]
  406af4:	91000421 	add	x1, x1, #0x1
  406af8:	97ffed26 	bl	401f90 <_ZdlPvm@plt>
  406afc:	91008273 	add	x19, x19, #0x20
  406b00:	eb13029f 	cmp	x20, x19
  406b04:	54fffee1 	b.ne	406ae0 <_ZN5model5parseENSt7__cxx1112basic_stringIcSt11char_traitsIcESaIcEEE+0x4dc>  // b.any
  406b08:	f946aff4 	ldr	x20, [sp, #3416]
  406b0c:	b40000b4 	cbz	x20, 406b20 <_ZN5model5parseENSt7__cxx1112basic_stringIcSt11char_traitsIcESaIcEEE+0x51c>
  406b10:	f946b7e1 	ldr	x1, [sp, #3432]
  406b14:	aa1403e0 	mov	x0, x20
  406b18:	cb140021 	sub	x1, x1, x20
  406b1c:	97ffed1d 	bl	401f90 <_ZdlPvm@plt>
  406b20:	f9463ff3 	ldr	x19, [sp, #3192]
  406b24:	b40000d3 	cbz	x19, 406b3c <_ZN5model5parseENSt7__cxx1112basic_stringIcSt11char_traitsIcESaIcEEE+0x538>
  406b28:	aa1303e0 	mov	x0, x19
  406b2c:	d2800201 	mov	x1, #0x10                  	// #16
  406b30:	f9400273 	ldr	x19, [x19]
  406b34:	97ffed17 	bl	401f90 <_ZdlPvm@plt>
  406b38:	b5ffff93 	cbnz	x19, 406b28 <_ZN5model5parseENSt7__cxx1112basic_stringIcSt11char_traitsIcESaIcEEE+0x524>
  406b3c:	f94637e0 	ldr	x0, [sp, #3176]
  406b40:	52800001 	mov	w1, #0x0                   	// #0
  406b44:	f9463be2 	ldr	x2, [sp, #3184]
  406b48:	d37df042 	lsl	x2, x2, #3
  406b4c:	97ffece9 	bl	401ef0 <memset@plt>
  406b50:	f94637e0 	ldr	x0, [sp, #3176]
  406b54:	9102a302 	add	x2, x24, #0xa8
  406b58:	f9063fff 	str	xzr, [sp, #3192]
  406b5c:	f90643ff 	str	xzr, [sp, #3200]
  406b60:	f9463be1 	ldr	x1, [sp, #3184]
  406b64:	eb02001f 	cmp	x0, x2
  406b68:	54000060 	b.eq	406b74 <_ZN5model5parseENSt7__cxx1112basic_stringIcSt11char_traitsIcESaIcEEE+0x570>  // b.none
  406b6c:	d37df021 	lsl	x1, x1, #3
  406b70:	97ffed08 	bl	401f90 <_ZdlPvm@plt>
  406b74:	91010300 	add	x0, x24, #0x40
  406b78:	94000d52 	bl	40a0c0 <_ZNSt10_HashtableINSt7__cxx1112basic_stringIcSt11char_traitsIcESaIcEEESt4pairIKS5_iESaIS8_ENSt8__detail10_Select1stESt8equal_toIS5_ESt4hashIS5_ENSA_18_Mod_range_hashingENSA_20_Default_ranged_hashENSA_20_Prime_rehash_policyENSA_17_Hashtable_traitsILb1ELb0ELb1EEEE5clearEv>
  406b7c:	f9461be0 	ldr	x0, [sp, #3120]
  406b80:	9101c318 	add	x24, x24, #0x70
  406b84:	f9461fe1 	ldr	x1, [sp, #3128]
  406b88:	eb18001f 	cmp	x0, x24
  406b8c:	54000060 	b.eq	406b98 <_ZN5model5parseENSt7__cxx1112basic_stringIcSt11char_traitsIcESaIcEEE+0x594>  // b.none
  406b90:	d37df021 	lsl	x1, x1, #3
  406b94:	97ffecff 	bl	401f90 <_ZdlPvm@plt>
  406b98:	f9460be0 	ldr	x0, [sp, #3088]
  406b9c:	b4000080 	cbz	x0, 406bac <_ZN5model5parseENSt7__cxx1112basic_stringIcSt11char_traitsIcESaIcEEE+0x5a8>
  406ba0:	f94613e1 	ldr	x1, [sp, #3104]
  406ba4:	cb000021 	sub	x1, x1, x0
  406ba8:	97ffecfa 	bl	401f90 <_ZdlPvm@plt>
  406bac:	f945fff3 	ldr	x19, [sp, #3064]
  406bb0:	f94603f4 	ldr	x20, [sp, #3072]
  406bb4:	eb14027f 	cmp	x19, x20
  406bb8:	540001a0 	b.eq	406bec <_ZN5model5parseENSt7__cxx1112basic_stringIcSt11char_traitsIcESaIcEEE+0x5e8>  // b.none
  406bbc:	d503201f 	nop
  406bc0:	aa1303e1 	mov	x1, x19
  406bc4:	f8410420 	ldr	x0, [x1], #16
  406bc8:	eb01001f 	cmp	x0, x1
  406bcc:	54000080 	b.eq	406bdc <_ZN5model5parseENSt7__cxx1112basic_stringIcSt11char_traitsIcESaIcEEE+0x5d8>  // b.none
  406bd0:	f9400a61 	ldr	x1, [x19, #16]
  406bd4:	91000421 	add	x1, x1, #0x1
  406bd8:	97ffecee 	bl	401f90 <_ZdlPvm@plt>
  406bdc:	91008273 	add	x19, x19, #0x20
  406be0:	eb13029f 	cmp	x20, x19
  406be4:	54fffee1 	b.ne	406bc0 <_ZN5model5parseENSt7__cxx1112basic_stringIcSt11char_traitsIcESaIcEEE+0x5bc>  // b.any
  406be8:	f945fff4 	ldr	x20, [sp, #3064]
  406bec:	b40000b4 	cbz	x20, 406c00 <_ZN5model5parseENSt7__cxx1112basic_stringIcSt11char_traitsIcESaIcEEE+0x5fc>
  406bf0:	f94607e1 	ldr	x1, [sp, #3080]
  406bf4:	aa1403e0 	mov	x0, x20
  406bf8:	cb140021 	sub	x1, x1, x20
  406bfc:	97ffece5 	bl	401f90 <_ZdlPvm@plt>
  406c00:	b94012c2 	ldr	w2, [x22, #16]
  406c04:	9103c3e0 	add	x0, sp, #0xf0
  406c08:	aa1703e1 	mov	x1, x23
  406c0c:	11000442 	add	w2, w2, #0x1
  406c10:	b90012c2 	str	w2, [x22, #16]
  406c14:	94000f0f 	bl	40a850 <_ZN2PTC1ERKS_>
  406c18:	9103c3e1 	add	x1, sp, #0xf0
  406c1c:	aa1603e0 	mov	x0, x22
  406c20:	97fff4c0 	bl	403f20 <_ZN5model6FindPTE2PT>
  406c24:	2a0003f3 	mov	w19, w0
  406c28:	9103c3e0 	add	x0, sp, #0xf0
  406c2c:	94000d8d 	bl	40a260 <_ZN2PTD1Ev>
  406c30:	3100067f 	cmn	w19, #0x1
  406c34:	54006881 	b.ne	407944 <_ZN5model5parseENSt7__cxx1112basic_stringIcSt11char_traitsIcESaIcEEE+0x1340>  // b.any
  406c38:	a9498fe2 	ldp	x2, x3, [sp, #152]
  406c3c:	d2800013 	mov	x19, #0x0                   	// #0
  406c40:	eb03005f 	cmp	x2, x3
  406c44:	540003a0 	b.eq	406cb8 <_ZN5model5parseENSt7__cxx1112basic_stringIcSt11char_traitsIcESaIcEEE+0x6b4>  // b.none
  406c48:	d2917474 	mov	x20, #0x8ba3                	// #35747
  406c4c:	910082f5 	add	x21, x23, #0x20
  406c50:	f2b745d4 	movk	x20, #0xba2e, lsl #16
  406c54:	f2d45d14 	movk	x20, #0xa2e8, lsl #32
  406c58:	f2e5d174 	movk	x20, #0x2e8b, lsl #48
  406c5c:	14000009 	b	406c80 <_ZN5model5parseENSt7__cxx1112basic_stringIcSt11char_traitsIcESaIcEEE+0x67c>
  406c60:	b800443f 	str	wzr, [x1], #4
  406c64:	91000673 	add	x19, x19, #0x1
  406c68:	f90063e1 	str	x1, [sp, #192]
  406c6c:	cb020061 	sub	x1, x3, x2
  406c70:	9344fc21 	asr	x1, x1, #4
  406c74:	9b147c21 	mul	x1, x1, x20
  406c78:	eb13003f 	cmp	x1, x19
  406c7c:	540001e9 	b.ls	406cb8 <_ZN5model5parseENSt7__cxx1112basic_stringIcSt11char_traitsIcESaIcEEE+0x6b4>  // b.plast
  406c80:	a94c03e1 	ldp	x1, x0, [sp, #192]
  406c84:	b90d53ff 	str	wzr, [sp, #3408]
  406c88:	eb00003f 	cmp	x1, x0
  406c8c:	54fffea1 	b.ne	406c60 <_ZN5model5parseENSt7__cxx1112basic_stringIcSt11char_traitsIcESaIcEEE+0x65c>  // b.any
  406c90:	913543e2 	add	x2, sp, #0xd50
  406c94:	aa1503e0 	mov	x0, x21
  406c98:	940011ae 	bl	40b350 <_ZNSt6vectorIiSaIiEE17_M_realloc_insertIJiEEEvN9__gnu_cxx17__normal_iteratorIPiS1_EEDpOT_>
  406c9c:	a9498fe2 	ldp	x2, x3, [sp, #152]
  406ca0:	91000673 	add	x19, x19, #0x1
  406ca4:	cb020061 	sub	x1, x3, x2
  406ca8:	9344fc21 	asr	x1, x1, #4
  406cac:	9b147c21 	mul	x1, x1, x20
  406cb0:	eb13003f 	cmp	x1, x19
  406cb4:	54fffe68 	b.hi	406c80 <_ZN5model5parseENSt7__cxx1112basic_stringIcSt11char_traitsIcESaIcEEE+0x67c>  // b.pmore
  406cb8:	aa1603f3 	mov	x19, x22
  406cbc:	b94002c0 	ldr	w0, [x22]
  406cc0:	11000400 	add	w0, w0, #0x1
  406cc4:	b90d53e0 	str	w0, [sp, #3408]
  406cc8:	b8018660 	str	w0, [x19], #24
  406ccc:	f9400660 	ldr	x0, [x19, #8]
  406cd0:	f9400a61 	ldr	x1, [x19, #16]
  406cd4:	eb01001f 	cmp	x0, x1
  406cd8:	5400e960 	b.eq	408a04 <_ZN5model5parseENSt7__cxx1112basic_stringIcSt11char_traitsIcESaIcEEE+0x2400>  // b.none
  406cdc:	aa1703e1 	mov	x1, x23
  406ce0:	94000edc 	bl	40a850 <_ZN2PTC1ERKS_>
  406ce4:	f9400660 	ldr	x0, [x19, #8]
  406ce8:	91016000 	add	x0, x0, #0x58
  406cec:	f9000660 	str	x0, [x19, #8]
  406cf0:	9101e2c0 	add	x0, x22, #0x78
  406cf4:	913543e1 	add	x1, sp, #0xd50
  406cf8:	9400144a 	bl	40be20 <_ZNSt8__detail9_Map_baseIiSt4pairIKiiESaIS3_ENS_10_Select1stESt8equal_toIiESt4hashIiENS_18_Mod_range_hashingENS_20_Default_ranged_hashENS_20_Prime_rehash_policyENS_17_Hashtable_traitsILb0ELb0ELb1EEELb1EEixERS2_>
  406cfc:	52800021 	mov	w1, #0x1                   	// #1
  406d00:	b9000001 	str	w1, [x0]
  406d04:	f9403fe0 	ldr	x0, [sp, #120]
  406d08:	910223e1 	add	x1, sp, #0x88
  406d0c:	eb01001f 	cmp	x0, x1
  406d10:	54000080 	b.eq	406d20 <_ZN5model5parseENSt7__cxx1112basic_stringIcSt11char_traitsIcESaIcEEE+0x71c>  // b.none
  406d14:	f94047e1 	ldr	x1, [sp, #136]
  406d18:	91000421 	add	x1, x1, #0x1
  406d1c:	97ffec9d 	bl	401f90 <_ZdlPvm@plt>
  406d20:	aa1703e0 	mov	x0, x23
  406d24:	94000d4f 	bl	40a260 <_ZN2PTD1Ev>
  406d28:	a9407bfd 	ldp	x29, x30, [sp]
  406d2c:	a94153f3 	ldp	x19, x20, [sp, #16]
  406d30:	a9425bf5 	ldp	x21, x22, [sp, #32]
  406d34:	a94363f7 	ldp	x23, x24, [sp, #48]
  406d38:	a9446bf9 	ldp	x25, x26, [sp, #64]
  406d3c:	a94573fb 	ldp	x27, x28, [sp, #80]
  406d40:	913803ff 	add	sp, sp, #0xe00
  406d44:	d65f03c0 	ret
  406d48:	71000f7f 	cmp	w27, #0x3
  406d4c:	540000a0 	b.eq	406d60 <_ZN5model5parseENSt7__cxx1112basic_stringIcSt11char_traitsIcESaIcEEE+0x75c>  // b.none
  406d50:	7100077f 	cmp	w27, #0x1
  406d54:	54008660 	b.eq	407e20 <_ZN5model5parseENSt7__cxx1112basic_stringIcSt11char_traitsIcESaIcEEE+0x181c>  // b.none
  406d58:	71000b7f 	cmp	w27, #0x2
  406d5c:	5400c120 	b.eq	408580 <_ZN5model5parseENSt7__cxx1112basic_stringIcSt11char_traitsIcESaIcEEE+0x1f7c>  // b.none
  406d60:	f9403fe2 	ldr	x2, [sp, #120]
  406d64:	910223e1 	add	x1, sp, #0x88
  406d68:	f94047e0 	ldr	x0, [sp, #136]
  406d6c:	eb01005f 	cmp	x2, x1
  406d70:	d28001e3 	mov	x3, #0xf                   	// #15
  406d74:	9100069c 	add	x28, x20, #0x1
  406d78:	9a831000 	csel	x0, x0, x3, ne  // ne = any
  406d7c:	eb00039f 	cmp	x28, x0
  406d80:	540002e8 	b.hi	406ddc <_ZN5model5parseENSt7__cxx1112basic_stringIcSt11char_traitsIcESaIcEEE+0x7d8>  // b.pmore
  406d84:	38346855 	strb	w21, [x2, x20]
  406d88:	5280007b 	mov	w27, #0x3                   	// #3
  406d8c:	f90043fc 	str	x28, [sp, #128]
  406d90:	f9403fe0 	ldr	x0, [sp, #120]
  406d94:	383c681f 	strb	wzr, [x0, x28]
  406d98:	17fffe4d 	b	4066cc <_ZN5model5parseENSt7__cxx1112basic_stringIcSt11char_traitsIcESaIcEEE+0xc8>
  406d9c:	aa1403e1 	mov	x1, x20
  406da0:	9101e3e0 	add	x0, sp, #0x78
  406da4:	d2800024 	mov	x4, #0x1                   	// #1
  406da8:	d2800003 	mov	x3, #0x0                   	// #0
  406dac:	d2800002 	mov	x2, #0x0                   	// #0
  406db0:	97ffece4 	bl	402140 <_ZNSt7__cxx1112basic_stringIcSt11char_traitsIcESaIcEE9_M_mutateEmmPKcm@plt>
  406db4:	f9403fe2 	ldr	x2, [sp, #120]
  406db8:	17fffe40 	b	4066b8 <_ZN5model5parseENSt7__cxx1112basic_stringIcSt11char_traitsIcESaIcEEE+0xb4>
  406dbc:	aa1403e1 	mov	x1, x20
  406dc0:	9101e3e0 	add	x0, sp, #0x78
  406dc4:	d2800024 	mov	x4, #0x1                   	// #1
  406dc8:	d2800003 	mov	x3, #0x0                   	// #0
  406dcc:	d2800002 	mov	x2, #0x0                   	// #0
  406dd0:	97ffecdc 	bl	402140 <_ZNSt7__cxx1112basic_stringIcSt11char_traitsIcESaIcEE9_M_mutateEmmPKcm@plt>
  406dd4:	f9403fe2 	ldr	x2, [sp, #120]
  406dd8:	17fffe57 	b	406734 <_ZN5model5parseENSt7__cxx1112basic_stringIcSt11char_traitsIcESaIcEEE+0x130>
  406ddc:	aa1403e1 	mov	x1, x20
  406de0:	9101e3e0 	add	x0, sp, #0x78
  406de4:	d2800024 	mov	x4, #0x1                   	// #1
  406de8:	d2800003 	mov	x3, #0x0                   	// #0
  406dec:	d2800002 	mov	x2, #0x0                   	// #0
  406df0:	97ffecd4 	bl	402140 <_ZNSt7__cxx1112basic_stringIcSt11char_traitsIcESaIcEE9_M_mutateEmmPKcm@plt>
  406df4:	f9403fe2 	ldr	x2, [sp, #120]
  406df8:	17ffffe3 	b	406d84 <_ZN5model5parseENSt7__cxx1112basic_stringIcSt11char_traitsIcESaIcEEE+0x780>
  406dfc:	9132a3e9 	add	x9, sp, #0xca8
  406e00:	913383ea 	add	x10, sp, #0xce0
  406e04:	b90ca3fb 	str	w27, [sp, #3232]
  406e08:	913423eb 	add	x11, sp, #0xd08
  406e0c:	b90ca7f4 	str	w20, [sp, #3236]
  406e10:	1e2e1000 	fmov	s0, #1.000000000000000000e+00
  406e14:	a9007d3f 	stp	xzr, xzr, [x9]
  406e18:	d2800023 	mov	x3, #0x1                   	// #1
  406e1c:	913523e4 	add	x4, sp, #0xd48
  406e20:	a9017d3f 	stp	xzr, xzr, [x9, #16]
  406e24:	910683e0 	add	x0, sp, #0x1a0
  406e28:	913283e1 	add	x1, sp, #0xca0
  406e2c:	f90667ff 	str	xzr, [sp, #3272]
  406e30:	f9066bff 	str	xzr, [sp, #3280]
  406e34:	b90cdbff 	str	wzr, [sp, #3288]
  406e38:	a9000d59 	stp	x25, x3, [x10]
  406e3c:	a9017d5f 	stp	xzr, xzr, [x10, #16]
  406e40:	bd0d03e0 	str	s0, [sp, #3328]
  406e44:	a9007d7f 	stp	xzr, xzr, [x11]
  406e48:	a9010d64 	stp	x4, x3, [x11, #16]
  406e4c:	f90697ff 	str	xzr, [sp, #3368]
  406e50:	f9069bff 	str	xzr, [sp, #3376]
  406e54:	bd0d3be0 	str	s0, [sp, #3384]
  406e58:	f906a3ff 	str	xzr, [sp, #3392]
  406e5c:	f906a7ff 	str	xzr, [sp, #3400]
  406e60:	94000d60 	bl	40a3e0 <_ZN7segmentC1ERKS_>
  406e64:	f94026c1 	ldr	x1, [x22, #72]
  406e68:	d2917460 	mov	x0, #0x8ba3                	// #35747
  406e6c:	f9402ac3 	ldr	x3, [x22, #80]
  406e70:	f2b745c0 	movk	x0, #0xba2e, lsl #16
  406e74:	f2d45d00 	movk	x0, #0xa2e8, lsl #32
  406e78:	910122dc 	add	x28, x22, #0x48
  406e7c:	cb010063 	sub	x3, x3, x1
  406e80:	f2e5d160 	movk	x0, #0x2e8b, lsl #48
  406e84:	9344fc63 	asr	x3, x3, #4
  406e88:	9b007c63 	mul	x3, x3, x0
  406e8c:	b40057e3 	cbz	x3, 407988 <_ZN5model5parseENSt7__cxx1112basic_stringIcSt11char_traitsIcESaIcEEE+0x1384>
  406e90:	b941a7e4 	ldr	w4, [sp, #420]
  406e94:	91001021 	add	x1, x1, #0x4
  406e98:	d2800000 	mov	x0, #0x0                   	// #0
  406e9c:	14000005 	b	406eb0 <_ZN5model5parseENSt7__cxx1112basic_stringIcSt11char_traitsIcESaIcEEE+0x8ac>
  406ea0:	91000400 	add	x0, x0, #0x1
  406ea4:	9102c021 	add	x1, x1, #0xb0
  406ea8:	eb00007f 	cmp	x3, x0
  406eac:	540056e0 	b.eq	407988 <_ZN5model5parseENSt7__cxx1112basic_stringIcSt11char_traitsIcESaIcEEE+0x1384>  // b.none
  406eb0:	b9400022 	ldr	w2, [x1]
  406eb4:	2a0003f4 	mov	w20, w0
  406eb8:	6b04005f 	cmp	w2, w4
  406ebc:	54ffff21 	b.ne	406ea0 <_ZN5model5parseENSt7__cxx1112basic_stringIcSt11char_traitsIcESaIcEEE+0x89c>  // b.any
  406ec0:	f94117fa 	ldr	x26, [sp, #552]
  406ec4:	b40000da 	cbz	x26, 406edc <_ZN5model5parseENSt7__cxx1112basic_stringIcSt11char_traitsIcESaIcEEE+0x8d8>
  406ec8:	aa1a03e0 	mov	x0, x26
  406ecc:	d2800201 	mov	x1, #0x10                  	// #16
  406ed0:	f940035a 	ldr	x26, [x26]
  406ed4:	97ffec2f 	bl	401f90 <_ZdlPvm@plt>
  406ed8:	b5ffff9a 	cbnz	x26, 406ec8 <_ZN5model5parseENSt7__cxx1112basic_stringIcSt11char_traitsIcESaIcEEE+0x8c4>
  406edc:	f9410fe0 	ldr	x0, [sp, #536]
  406ee0:	52800001 	mov	w1, #0x0                   	// #0
  406ee4:	f94113e2 	ldr	x2, [sp, #544]
  406ee8:	d37df042 	lsl	x2, x2, #3
  406eec:	97ffec01 	bl	401ef0 <memset@plt>
  406ef0:	f9410fe0 	ldr	x0, [sp, #536]
  406ef4:	910923e2 	add	x2, sp, #0x248
  406ef8:	f90117ff 	str	xzr, [sp, #552]
  406efc:	f9011bff 	str	xzr, [sp, #560]
  406f00:	f94113e1 	ldr	x1, [sp, #544]
  406f04:	eb02001f 	cmp	x0, x2
  406f08:	54000060 	b.eq	406f14 <_ZN5model5parseENSt7__cxx1112basic_stringIcSt11char_traitsIcESaIcEEE+0x910>  // b.none
  406f0c:	d37df021 	lsl	x1, x1, #3
  406f10:	97ffec20 	bl	401f90 <_ZdlPvm@plt>
  406f14:	910783e0 	add	x0, sp, #0x1e0
  406f18:	94000c6a 	bl	40a0c0 <_ZNSt10_HashtableINSt7__cxx1112basic_stringIcSt11char_traitsIcESaIcEEESt4pairIKS5_iESaIS8_ENSt8__detail10_Select1stESt8equal_toIS5_ESt4hashIS5_ENSA_18_Mod_range_hashingENSA_20_Default_ranged_hashENSA_20_Prime_rehash_policyENSA_17_Hashtable_traitsILb1ELb0ELb1EEEE5clearEv>
  406f1c:	a95e07e0 	ldp	x0, x1, [sp, #480]
  406f20:	910843e2 	add	x2, sp, #0x210
  406f24:	eb02001f 	cmp	x0, x2
  406f28:	54000060 	b.eq	406f34 <_ZN5model5parseENSt7__cxx1112basic_stringIcSt11char_traitsIcESaIcEEE+0x930>  // b.none
  406f2c:	d37df021 	lsl	x1, x1, #3
  406f30:	97ffec18 	bl	401f90 <_ZdlPvm@plt>
  406f34:	f940e3e0 	ldr	x0, [sp, #448]
  406f38:	b4000080 	cbz	x0, 406f48 <_ZN5model5parseENSt7__cxx1112basic_stringIcSt11char_traitsIcESaIcEEE+0x944>
  406f3c:	f940ebe1 	ldr	x1, [sp, #464]
  406f40:	cb000021 	sub	x1, x1, x0
  406f44:	97ffec13 	bl	401f90 <_ZdlPvm@plt>
  406f48:	a95aeffa 	ldp	x26, x27, [sp, #424]
  406f4c:	eb1b035f 	cmp	x26, x27
  406f50:	540001a0 	b.eq	406f84 <_ZN5model5parseENSt7__cxx1112basic_stringIcSt11char_traitsIcESaIcEEE+0x980>  // b.none
  406f54:	d503201f 	nop
  406f58:	aa1a03e1 	mov	x1, x26
  406f5c:	f8410420 	ldr	x0, [x1], #16
  406f60:	eb01001f 	cmp	x0, x1
  406f64:	54000080 	b.eq	406f74 <_ZN5model5parseENSt7__cxx1112basic_stringIcSt11char_traitsIcESaIcEEE+0x970>  // b.none
  406f68:	f9400b41 	ldr	x1, [x26, #16]
  406f6c:	91000421 	add	x1, x1, #0x1
  406f70:	97ffec08 	bl	401f90 <_ZdlPvm@plt>
  406f74:	9100835a 	add	x26, x26, #0x20
  406f78:	eb1a037f 	cmp	x27, x26
  406f7c:	54fffee1 	b.ne	406f58 <_ZN5model5parseENSt7__cxx1112basic_stringIcSt11char_traitsIcESaIcEEE+0x954>  // b.any
  406f80:	f940d7fb 	ldr	x27, [sp, #424]
  406f84:	b40000bb 	cbz	x27, 406f98 <_ZN5model5parseENSt7__cxx1112basic_stringIcSt11char_traitsIcESaIcEEE+0x994>
  406f88:	f940dfe1 	ldr	x1, [sp, #440]
  406f8c:	aa1b03e0 	mov	x0, x27
  406f90:	cb1b0021 	sub	x1, x1, x27
  406f94:	97ffebff 	bl	401f90 <_ZdlPvm@plt>
  406f98:	3100069f 	cmn	w20, #0x1
  406f9c:	54004820 	b.eq	4078a0 <_ZN5model5parseENSt7__cxx1112basic_stringIcSt11char_traitsIcESaIcEEE+0x129c>  // b.none
  406fa0:	913283e1 	add	x1, sp, #0xca0
  406fa4:	910943e0 	add	x0, sp, #0x250
  406fa8:	94000d0e 	bl	40a3e0 <_ZN7segmentC1ERKS_>
  406fac:	f9400783 	ldr	x3, [x28, #8]
  406fb0:	d2917460 	mov	x0, #0x8ba3                	// #35747
  406fb4:	f94026c1 	ldr	x1, [x22, #72]
  406fb8:	f2b745c0 	movk	x0, #0xba2e, lsl #16
  406fbc:	f2d45d00 	movk	x0, #0xa2e8, lsl #32
  406fc0:	cb010063 	sub	x3, x3, x1
  406fc4:	f2e5d160 	movk	x0, #0x2e8b, lsl #48
  406fc8:	9344fc63 	asr	x3, x3, #4
  406fcc:	9b007c63 	mul	x3, x3, x0
  406fd0:	b400c183 	cbz	x3, 408800 <_ZN5model5parseENSt7__cxx1112basic_stringIcSt11char_traitsIcESaIcEEE+0x21fc>
  406fd4:	b94257e5 	ldr	w5, [sp, #596]
  406fd8:	91001021 	add	x1, x1, #0x4
  406fdc:	d2800000 	mov	x0, #0x0                   	// #0
  406fe0:	14000005 	b	406ff4 <_ZN5model5parseENSt7__cxx1112basic_stringIcSt11char_traitsIcESaIcEEE+0x9f0>
  406fe4:	91000400 	add	x0, x0, #0x1
  406fe8:	9102c021 	add	x1, x1, #0xb0
  406fec:	eb00007f 	cmp	x3, x0
  406ff0:	5400c080 	b.eq	408800 <_ZN5model5parseENSt7__cxx1112basic_stringIcSt11char_traitsIcESaIcEEE+0x21fc>  // b.none
  406ff4:	b9400022 	ldr	w2, [x1]
  406ff8:	2a0003e4 	mov	w4, w0
  406ffc:	6b05005f 	cmp	w2, w5
  407000:	54ffff21 	b.ne	406fe4 <_ZN5model5parseENSt7__cxx1112basic_stringIcSt11char_traitsIcESaIcEEE+0x9e0>  // b.any
  407004:	f9416ff4 	ldr	x20, [sp, #728]
  407008:	b90bf3e4 	str	w4, [sp, #3056]
  40700c:	b40000d4 	cbz	x20, 407024 <_ZN5model5parseENSt7__cxx1112basic_stringIcSt11char_traitsIcESaIcEEE+0xa20>
  407010:	aa1403e0 	mov	x0, x20
  407014:	d2800201 	mov	x1, #0x10                  	// #16
  407018:	f9400294 	ldr	x20, [x20]
  40701c:	97ffebdd 	bl	401f90 <_ZdlPvm@plt>
  407020:	b5ffff94 	cbnz	x20, 407010 <_ZN5model5parseENSt7__cxx1112basic_stringIcSt11char_traitsIcESaIcEEE+0xa0c>
  407024:	f94167e0 	ldr	x0, [sp, #712]
  407028:	52800001 	mov	w1, #0x0                   	// #0
  40702c:	f9416be2 	ldr	x2, [sp, #720]
  407030:	d37df042 	lsl	x2, x2, #3
  407034:	97ffebaf 	bl	401ef0 <memset@plt>
  407038:	f94167e0 	ldr	x0, [sp, #712]
  40703c:	910be3e2 	add	x2, sp, #0x2f8
  407040:	f9016fff 	str	xzr, [sp, #728]
  407044:	f90173ff 	str	xzr, [sp, #736]
  407048:	f9416be1 	ldr	x1, [sp, #720]
  40704c:	eb02001f 	cmp	x0, x2
  407050:	54000060 	b.eq	40705c <_ZN5model5parseENSt7__cxx1112basic_stringIcSt11char_traitsIcESaIcEEE+0xa58>  // b.none
  407054:	d37df021 	lsl	x1, x1, #3
  407058:	97ffebce 	bl	401f90 <_ZdlPvm@plt>
  40705c:	910a43e0 	add	x0, sp, #0x290
  407060:	94000c18 	bl	40a0c0 <_ZNSt10_HashtableINSt7__cxx1112basic_stringIcSt11char_traitsIcESaIcEEESt4pairIKS5_iESaIS8_ENSt8__detail10_Select1stESt8equal_toIS5_ESt4hashIS5_ENSA_18_Mod_range_hashingENSA_20_Default_ranged_hashENSA_20_Prime_rehash_policyENSA_17_Hashtable_traitsILb1ELb0ELb1EEEE5clearEv>
  407064:	f9414be0 	ldr	x0, [sp, #656]
  407068:	910b03e2 	add	x2, sp, #0x2c0
  40706c:	f9414fe1 	ldr	x1, [sp, #664]
  407070:	eb02001f 	cmp	x0, x2
  407074:	54000060 	b.eq	407080 <_ZN5model5parseENSt7__cxx1112basic_stringIcSt11char_traitsIcESaIcEEE+0xa7c>  // b.none
  407078:	d37df021 	lsl	x1, x1, #3
  40707c:	97ffebc5 	bl	401f90 <_ZdlPvm@plt>
  407080:	f9413be0 	ldr	x0, [sp, #624]
  407084:	b4000080 	cbz	x0, 407094 <_ZN5model5parseENSt7__cxx1112basic_stringIcSt11char_traitsIcESaIcEEE+0xa90>
  407088:	f94143e1 	ldr	x1, [sp, #640]
  40708c:	cb000021 	sub	x1, x1, x0
  407090:	97ffebc0 	bl	401f90 <_ZdlPvm@plt>
  407094:	f9412ff4 	ldr	x20, [sp, #600]
  407098:	f94133fc 	ldr	x28, [sp, #608]
  40709c:	eb1c029f 	cmp	x20, x28
  4070a0:	540001a0 	b.eq	4070d4 <_ZN5model5parseENSt7__cxx1112basic_stringIcSt11char_traitsIcESaIcEEE+0xad0>  // b.none
  4070a4:	d503201f 	nop
  4070a8:	aa1403e1 	mov	x1, x20
  4070ac:	f8410420 	ldr	x0, [x1], #16
  4070b0:	eb01001f 	cmp	x0, x1
  4070b4:	54000080 	b.eq	4070c4 <_ZN5model5parseENSt7__cxx1112basic_stringIcSt11char_traitsIcESaIcEEE+0xac0>  // b.none
  4070b8:	f9400a81 	ldr	x1, [x20, #16]
  4070bc:	91000421 	add	x1, x1, #0x1
  4070c0:	97ffebb4 	bl	401f90 <_ZdlPvm@plt>
  4070c4:	91008294 	add	x20, x20, #0x20
  4070c8:	eb14039f 	cmp	x28, x20
  4070cc:	54fffee1 	b.ne	4070a8 <_ZN5model5parseENSt7__cxx1112basic_stringIcSt11char_traitsIcESaIcEEE+0xaa4>  // b.any
  4070d0:	f9412ffc 	ldr	x28, [sp, #600]
  4070d4:	b40000bc 	cbz	x28, 4070e8 <_ZN5model5parseENSt7__cxx1112basic_stringIcSt11char_traitsIcESaIcEEE+0xae4>
  4070d8:	f94137e1 	ldr	x1, [sp, #616]
  4070dc:	aa1c03e0 	mov	x0, x28
  4070e0:	cb1c0021 	sub	x1, x1, x28
  4070e4:	97ffebab 	bl	401f90 <_ZdlPvm@plt>
  4070e8:	912fc3e1 	add	x1, sp, #0xbf0
  4070ec:	9103a2c0 	add	x0, x22, #0xe8
  4070f0:	9400134c 	bl	40be20 <_ZNSt8__detail9_Map_baseIiSt4pairIKiiESaIS3_ENS_10_Select1stESt8equal_toIiESt4hashIiENS_18_Mod_range_hashingENS_20_Default_ranged_hashENS_20_Prime_rehash_policyENS_17_Hashtable_traitsILb0ELb0ELb1EEELb1EEixERS2_>
  4070f4:	aa0003e3 	mov	x3, x0
  4070f8:	913543f4 	add	x20, sp, #0xd50
  4070fc:	f94026c5 	ldr	x5, [x22, #72]
  407100:	91004287 	add	x7, x20, #0x10
  407104:	b9400064 	ldr	w4, [x3]
  407108:	52801606 	mov	w6, #0xb0                  	// #176
  40710c:	a9478be1 	ldp	x1, x2, [sp, #120]
  407110:	11000484 	add	w4, w4, #0x1
  407114:	b9000064 	str	w4, [x3]
  407118:	aa1403e0 	mov	x0, x20
  40711c:	f906abe7 	str	x7, [sp, #3408]
  407120:	b94bf3fc 	ldr	w28, [sp, #3056]
  407124:	8b020022 	add	x2, x1, x2
  407128:	9b26179c 	smaddl	x28, w28, w6, x5
  40712c:	97fff346 	bl	403e44 <_ZNSt7__cxx1112basic_stringIcSt11char_traitsIcESaIcEE12_M_constructIPcEEvT_S7_St20forward_iterator_tag.isra.0>
  407130:	aa1403e1 	mov	x1, x20
  407134:	aa1c03e0 	mov	x0, x28
  407138:	97fff9ee 	bl	4058f0 <_ZN7segment6insertENSt7__cxx1112basic_stringIcSt11char_traitsIcESaIcEEE>
  40713c:	f946abe0 	ldr	x0, [sp, #3408]
  407140:	91004281 	add	x1, x20, #0x10
  407144:	eb01001f 	cmp	x0, x1
  407148:	54000080 	b.eq	407158 <_ZN5model5parseENSt7__cxx1112basic_stringIcSt11char_traitsIcESaIcEEE+0xb54>  // b.none
  40714c:	f946b3e1 	ldr	x1, [sp, #3424]
  407150:	91000421 	add	x1, x1, #0x1
  407154:	97ffeb8f 	bl	401f90 <_ZdlPvm@plt>
  407158:	f9403fe2 	ldr	x2, [sp, #120]
  40715c:	f90043ff 	str	xzr, [sp, #128]
  407160:	913283e1 	add	x1, sp, #0xca0
  407164:	aa1403e0 	mov	x0, x20
  407168:	3900005f 	strb	wzr, [x2]
  40716c:	94000c9d 	bl	40a3e0 <_ZN7segmentC1ERKS_>
  407170:	a94a07e0 	ldp	x0, x1, [sp, #160]
  407174:	eb01001f 	cmp	x0, x1
  407178:	5400e7e0 	b.eq	408e74 <_ZN5model5parseENSt7__cxx1112basic_stringIcSt11char_traitsIcESaIcEEE+0x2870>  // b.none
  40717c:	aa1403e1 	mov	x1, x20
  407180:	94000c98 	bl	40a3e0 <_ZN7segmentC1ERKS_>
  407184:	f94053e0 	ldr	x0, [sp, #160]
  407188:	9102c000 	add	x0, x0, #0xb0
  40718c:	f90053e0 	str	x0, [sp, #160]
  407190:	f946effc 	ldr	x28, [sp, #3544]
  407194:	b40000dc 	cbz	x28, 4071ac <_ZN5model5parseENSt7__cxx1112basic_stringIcSt11char_traitsIcESaIcEEE+0xba8>
  407198:	aa1c03e0 	mov	x0, x28
  40719c:	d2800201 	mov	x1, #0x10                  	// #16
  4071a0:	f940039c 	ldr	x28, [x28]
  4071a4:	97ffeb7b 	bl	401f90 <_ZdlPvm@plt>
  4071a8:	b5ffff9c 	cbnz	x28, 407198 <_ZN5model5parseENSt7__cxx1112basic_stringIcSt11char_traitsIcESaIcEEE+0xb94>
  4071ac:	f946e7e0 	ldr	x0, [sp, #3528]
  4071b0:	52800001 	mov	w1, #0x0                   	// #0
  4071b4:	f946ebe2 	ldr	x2, [sp, #3536]
  4071b8:	d37df042 	lsl	x2, x2, #3
  4071bc:	97ffeb4d 	bl	401ef0 <memset@plt>
  4071c0:	f946e7e0 	ldr	x0, [sp, #3528]
  4071c4:	9102a282 	add	x2, x20, #0xa8
  4071c8:	f906efff 	str	xzr, [sp, #3544]
  4071cc:	f906f3ff 	str	xzr, [sp, #3552]
  4071d0:	f946ebe1 	ldr	x1, [sp, #3536]
  4071d4:	eb02001f 	cmp	x0, x2
  4071d8:	54000060 	b.eq	4071e4 <_ZN5model5parseENSt7__cxx1112basic_stringIcSt11char_traitsIcESaIcEEE+0xbe0>  // b.none
  4071dc:	d37df021 	lsl	x1, x1, #3
  4071e0:	97ffeb6c 	bl	401f90 <_ZdlPvm@plt>
  4071e4:	91010280 	add	x0, x20, #0x40
  4071e8:	94000bb6 	bl	40a0c0 <_ZNSt10_HashtableINSt7__cxx1112basic_stringIcSt11char_traitsIcESaIcEEESt4pairIKS5_iESaIS8_ENSt8__detail10_Select1stESt8equal_toIS5_ESt4hashIS5_ENSA_18_Mod_range_hashingENSA_20_Default_ranged_hashENSA_20_Prime_rehash_policyENSA_17_Hashtable_traitsILb1ELb0ELb1EEEE5clearEv>
  4071ec:	f946cbe0 	ldr	x0, [sp, #3472]
  4071f0:	9101c294 	add	x20, x20, #0x70
  4071f4:	f946cfe1 	ldr	x1, [sp, #3480]
  4071f8:	eb14001f 	cmp	x0, x20
  4071fc:	54000060 	b.eq	407208 <_ZN5model5parseENSt7__cxx1112basic_stringIcSt11char_traitsIcESaIcEEE+0xc04>  // b.none
  407200:	d37df021 	lsl	x1, x1, #3
  407204:	97ffeb63 	bl	401f90 <_ZdlPvm@plt>
  407208:	f946bbe0 	ldr	x0, [sp, #3440]
  40720c:	b4000080 	cbz	x0, 40721c <_ZN5model5parseENSt7__cxx1112basic_stringIcSt11char_traitsIcESaIcEEE+0xc18>
  407210:	f946c3e1 	ldr	x1, [sp, #3456]
  407214:	cb000021 	sub	x1, x1, x0
  407218:	97ffeb5e 	bl	401f90 <_ZdlPvm@plt>
  40721c:	f946aff4 	ldr	x20, [sp, #3416]
  407220:	f946b3fc 	ldr	x28, [sp, #3424]
  407224:	eb1c029f 	cmp	x20, x28
  407228:	540001a0 	b.eq	40725c <_ZN5model5parseENSt7__cxx1112basic_stringIcSt11char_traitsIcESaIcEEE+0xc58>  // b.none
  40722c:	d503201f 	nop
  407230:	aa1403e1 	mov	x1, x20
  407234:	f8410420 	ldr	x0, [x1], #16
  407238:	eb01001f 	cmp	x0, x1
  40723c:	54000080 	b.eq	40724c <_ZN5model5parseENSt7__cxx1112basic_stringIcSt11char_traitsIcESaIcEEE+0xc48>  // b.none
  407240:	f9400a81 	ldr	x1, [x20, #16]
  407244:	91000421 	add	x1, x1, #0x1
  407248:	97ffeb52 	bl	401f90 <_ZdlPvm@plt>
  40724c:	91008294 	add	x20, x20, #0x20
  407250:	eb14039f 	cmp	x28, x20
  407254:	54fffee1 	b.ne	407230 <_ZN5model5parseENSt7__cxx1112basic_stringIcSt11char_traitsIcESaIcEEE+0xc2c>  // b.any
  407258:	f946affc 	ldr	x28, [sp, #3416]
  40725c:	b40000bc 	cbz	x28, 407270 <_ZN5model5parseENSt7__cxx1112basic_stringIcSt11char_traitsIcESaIcEEE+0xc6c>
  407260:	f946b7e1 	ldr	x1, [sp, #3432]
  407264:	aa1c03e0 	mov	x0, x28
  407268:	cb1c0021 	sub	x1, x1, x28
  40726c:	97ffeb49 	bl	401f90 <_ZdlPvm@plt>
  407270:	f94697f4 	ldr	x20, [sp, #3368]
  407274:	b40000d4 	cbz	x20, 40728c <_ZN5model5parseENSt7__cxx1112basic_stringIcSt11char_traitsIcESaIcEEE+0xc88>
  407278:	aa1403e0 	mov	x0, x20
  40727c:	d2800201 	mov	x1, #0x10                  	// #16
  407280:	f9400294 	ldr	x20, [x20]
  407284:	97ffeb43 	bl	401f90 <_ZdlPvm@plt>
  407288:	b5ffff94 	cbnz	x20, 407278 <_ZN5model5parseENSt7__cxx1112basic_stringIcSt11char_traitsIcESaIcEEE+0xc74>
  40728c:	f9468fe0 	ldr	x0, [sp, #3352]
  407290:	52800001 	mov	w1, #0x0                   	// #0
  407294:	f94693e2 	ldr	x2, [sp, #3360]
  407298:	d37df042 	lsl	x2, x2, #3
  40729c:	97ffeb15 	bl	401ef0 <memset@plt>
  4072a0:	f9468fe0 	ldr	x0, [sp, #3352]
  4072a4:	913523e2 	add	x2, sp, #0xd48
  4072a8:	f90697ff 	str	xzr, [sp, #3368]
  4072ac:	f9069bff 	str	xzr, [sp, #3376]
  4072b0:	f94693e1 	ldr	x1, [sp, #3360]
  4072b4:	eb02001f 	cmp	x0, x2
  4072b8:	54000060 	b.eq	4072c4 <_ZN5model5parseENSt7__cxx1112basic_stringIcSt11char_traitsIcESaIcEEE+0xcc0>  // b.none
  4072bc:	d37df021 	lsl	x1, x1, #3
  4072c0:	97ffeb34 	bl	401f90 <_ZdlPvm@plt>
  4072c4:	913383e0 	add	x0, sp, #0xce0
  4072c8:	94000b7e 	bl	40a0c0 <_ZNSt10_HashtableINSt7__cxx1112basic_stringIcSt11char_traitsIcESaIcEEESt4pairIKS5_iESaIS8_ENSt8__detail10_Select1stESt8equal_toIS5_ESt4hashIS5_ENSA_18_Mod_range_hashingENSA_20_Default_ranged_hashENSA_20_Prime_rehash_policyENSA_17_Hashtable_traitsILb1ELb0ELb1EEEE5clearEv>
  4072cc:	f94673e0 	ldr	x0, [sp, #3296]
  4072d0:	f94677e1 	ldr	x1, [sp, #3304]
  4072d4:	eb19001f 	cmp	x0, x25
  4072d8:	54000060 	b.eq	4072e4 <_ZN5model5parseENSt7__cxx1112basic_stringIcSt11char_traitsIcESaIcEEE+0xce0>  // b.none
  4072dc:	d37df021 	lsl	x1, x1, #3
  4072e0:	97ffeb2c 	bl	401f90 <_ZdlPvm@plt>
  4072e4:	f94663e0 	ldr	x0, [sp, #3264]
  4072e8:	b4000080 	cbz	x0, 4072f8 <_ZN5model5parseENSt7__cxx1112basic_stringIcSt11char_traitsIcESaIcEEE+0xcf4>
  4072ec:	f9466be1 	ldr	x1, [sp, #3280]
  4072f0:	cb000021 	sub	x1, x1, x0
  4072f4:	97ffeb27 	bl	401f90 <_ZdlPvm@plt>
  4072f8:	f94657f4 	ldr	x20, [sp, #3240]
  4072fc:	f9465bfc 	ldr	x28, [sp, #3248]
  407300:	eb1c029f 	cmp	x20, x28
  407304:	54000180 	b.eq	407334 <_ZN5model5parseENSt7__cxx1112basic_stringIcSt11char_traitsIcESaIcEEE+0xd30>  // b.none
  407308:	aa1403e1 	mov	x1, x20
  40730c:	f8410420 	ldr	x0, [x1], #16
  407310:	eb01001f 	cmp	x0, x1
  407314:	54000080 	b.eq	407324 <_ZN5model5parseENSt7__cxx1112basic_stringIcSt11char_traitsIcESaIcEEE+0xd20>  // b.none
  407318:	f9400a81 	ldr	x1, [x20, #16]
  40731c:	91000421 	add	x1, x1, #0x1
  407320:	97ffeb1c 	bl	401f90 <_ZdlPvm@plt>
  407324:	91008294 	add	x20, x20, #0x20
  407328:	eb14039f 	cmp	x28, x20
  40732c:	54fffee1 	b.ne	407308 <_ZN5model5parseENSt7__cxx1112basic_stringIcSt11char_traitsIcESaIcEEE+0xd04>  // b.any
  407330:	f94657fc 	ldr	x28, [sp, #3240]
  407334:	b40000bc 	cbz	x28, 407348 <_ZN5model5parseENSt7__cxx1112basic_stringIcSt11char_traitsIcESaIcEEE+0xd44>
  407338:	f9465fe1 	ldr	x1, [sp, #3256]
  40733c:	aa1c03e0 	mov	x0, x28
  407340:	cb1c0021 	sub	x1, x1, x28
  407344:	97ffeb13 	bl	401f90 <_ZdlPvm@plt>
  407348:	f94043f4 	ldr	x20, [sp, #128]
  40734c:	17fffcd2 	b	406694 <_ZN5model5parseENSt7__cxx1112basic_stringIcSt11char_traitsIcESaIcEEE+0x90>
  407350:	9132a3e6 	add	x6, sp, #0xca8
  407354:	913383e7 	add	x7, sp, #0xce0
  407358:	b90ca3fb 	str	w27, [sp, #3232]
  40735c:	913423e8 	add	x8, sp, #0xd08
  407360:	b90ca7f4 	str	w20, [sp, #3236]
  407364:	1e2e1000 	fmov	s0, #1.000000000000000000e+00
  407368:	a9007cdf 	stp	xzr, xzr, [x6]
  40736c:	d2800023 	mov	x3, #0x1                   	// #1
  407370:	913523e4 	add	x4, sp, #0xd48
  407374:	a9017cdf 	stp	xzr, xzr, [x6, #16]
  407378:	910c03e0 	add	x0, sp, #0x300
  40737c:	913283e1 	add	x1, sp, #0xca0
  407380:	f90667ff 	str	xzr, [sp, #3272]
  407384:	f9066bff 	str	xzr, [sp, #3280]
  407388:	b90cdbff 	str	wzr, [sp, #3288]
  40738c:	a9000cf9 	stp	x25, x3, [x7]
  407390:	a9017cff 	stp	xzr, xzr, [x7, #16]
  407394:	bd0d03e0 	str	s0, [sp, #3328]
  407398:	a9007d1f 	stp	xzr, xzr, [x8]
  40739c:	a9010d04 	stp	x4, x3, [x8, #16]
  4073a0:	f90697ff 	str	xzr, [sp, #3368]
  4073a4:	f9069bff 	str	xzr, [sp, #3376]
  4073a8:	bd0d3be0 	str	s0, [sp, #3384]
  4073ac:	f906a3ff 	str	xzr, [sp, #3392]
  4073b0:	f906a7ff 	str	xzr, [sp, #3400]
  4073b4:	94000c0b 	bl	40a3e0 <_ZN7segmentC1ERKS_>
  4073b8:	f94032c1 	ldr	x1, [x22, #96]
  4073bc:	d2917460 	mov	x0, #0x8ba3                	// #35747
  4073c0:	f94036c3 	ldr	x3, [x22, #104]
  4073c4:	f2b745c0 	movk	x0, #0xba2e, lsl #16
  4073c8:	f2d45d00 	movk	x0, #0xa2e8, lsl #32
  4073cc:	910182dc 	add	x28, x22, #0x60
  4073d0:	cb010063 	sub	x3, x3, x1
  4073d4:	f2e5d160 	movk	x0, #0x2e8b, lsl #48
  4073d8:	9344fc63 	asr	x3, x3, #4
  4073dc:	9b007c63 	mul	x3, x3, x0
  4073e0:	b4002ae3 	cbz	x3, 40793c <_ZN5model5parseENSt7__cxx1112basic_stringIcSt11char_traitsIcESaIcEEE+0x1338>
  4073e4:	b94307e4 	ldr	w4, [sp, #772]
  4073e8:	91001021 	add	x1, x1, #0x4
  4073ec:	d2800000 	mov	x0, #0x0                   	// #0
  4073f0:	14000005 	b	407404 <_ZN5model5parseENSt7__cxx1112basic_stringIcSt11char_traitsIcESaIcEEE+0xe00>
  4073f4:	91000400 	add	x0, x0, #0x1
  4073f8:	9102c021 	add	x1, x1, #0xb0
  4073fc:	eb00007f 	cmp	x3, x0
  407400:	540029e0 	b.eq	40793c <_ZN5model5parseENSt7__cxx1112basic_stringIcSt11char_traitsIcESaIcEEE+0x1338>  // b.none
  407404:	b9400022 	ldr	w2, [x1]
  407408:	2a0003f4 	mov	w20, w0
  40740c:	6b04005f 	cmp	w2, w4
  407410:	54ffff21 	b.ne	4073f4 <_ZN5model5parseENSt7__cxx1112basic_stringIcSt11char_traitsIcESaIcEEE+0xdf0>  // b.any
  407414:	f941c7fb 	ldr	x27, [sp, #904]
  407418:	b40000fb 	cbz	x27, 407434 <_ZN5model5parseENSt7__cxx1112basic_stringIcSt11char_traitsIcESaIcEEE+0xe30>
  40741c:	d503201f 	nop
  407420:	aa1b03e0 	mov	x0, x27
  407424:	d2800201 	mov	x1, #0x10                  	// #16
  407428:	f940037b 	ldr	x27, [x27]
  40742c:	97ffead9 	bl	401f90 <_ZdlPvm@plt>
  407430:	b5ffff9b 	cbnz	x27, 407420 <_ZN5model5parseENSt7__cxx1112basic_stringIcSt11char_traitsIcESaIcEEE+0xe1c>
  407434:	f941bfe0 	ldr	x0, [sp, #888]
  407438:	52800001 	mov	w1, #0x0                   	// #0
  40743c:	f941c3e2 	ldr	x2, [sp, #896]
  407440:	d37df042 	lsl	x2, x2, #3
  407444:	97ffeaab 	bl	401ef0 <memset@plt>
  407448:	f941bfe0 	ldr	x0, [sp, #888]
  40744c:	910ea3e2 	add	x2, sp, #0x3a8
  407450:	f901c7ff 	str	xzr, [sp, #904]
  407454:	f901cbff 	str	xzr, [sp, #912]
  407458:	f941c3e1 	ldr	x1, [sp, #896]
  40745c:	eb02001f 	cmp	x0, x2
  407460:	54000060 	b.eq	40746c <_ZN5model5parseENSt7__cxx1112basic_stringIcSt11char_traitsIcESaIcEEE+0xe68>  // b.none
  407464:	d37df021 	lsl	x1, x1, #3
  407468:	97ffeaca 	bl	401f90 <_ZdlPvm@plt>
  40746c:	910d03e0 	add	x0, sp, #0x340
  407470:	94000b14 	bl	40a0c0 <_ZNSt10_HashtableINSt7__cxx1112basic_stringIcSt11char_traitsIcESaIcEEESt4pairIKS5_iESaIS8_ENSt8__detail10_Select1stESt8equal_toIS5_ESt4hashIS5_ENSA_18_Mod_range_hashingENSA_20_Default_ranged_hashENSA_20_Prime_rehash_policyENSA_17_Hashtable_traitsILb1ELb0ELb1EEEE5clearEv>
  407474:	f941a3e0 	ldr	x0, [sp, #832]
  407478:	910dc3e2 	add	x2, sp, #0x370
  40747c:	f941a7e1 	ldr	x1, [sp, #840]
  407480:	eb02001f 	cmp	x0, x2
  407484:	54000060 	b.eq	407490 <_ZN5model5parseENSt7__cxx1112basic_stringIcSt11char_traitsIcESaIcEEE+0xe8c>  // b.none
  407488:	d37df021 	lsl	x1, x1, #3
  40748c:	97ffeac1 	bl	401f90 <_ZdlPvm@plt>
  407490:	f94193e0 	ldr	x0, [sp, #800]
  407494:	b4000080 	cbz	x0, 4074a4 <_ZN5model5parseENSt7__cxx1112basic_stringIcSt11char_traitsIcESaIcEEE+0xea0>
  407498:	f9419be1 	ldr	x1, [sp, #816]
  40749c:	cb000021 	sub	x1, x1, x0
  4074a0:	97ffeabc 	bl	401f90 <_ZdlPvm@plt>
  4074a4:	f94187e2 	ldr	x2, [sp, #776]
  4074a8:	f9418bfb 	ldr	x27, [sp, #784]
  4074ac:	eb1b005f 	cmp	x2, x27
  4074b0:	540001e0 	b.eq	4074ec <_ZN5model5parseENSt7__cxx1112basic_stringIcSt11char_traitsIcESaIcEEE+0xee8>  // b.none
  4074b4:	d503201f 	nop
  4074b8:	aa0203e1 	mov	x1, x2
  4074bc:	f8410420 	ldr	x0, [x1], #16
  4074c0:	eb01001f 	cmp	x0, x1
  4074c4:	540000c0 	b.eq	4074dc <_ZN5model5parseENSt7__cxx1112basic_stringIcSt11char_traitsIcESaIcEEE+0xed8>  // b.none
  4074c8:	f9400841 	ldr	x1, [x2, #16]
  4074cc:	f90033e2 	str	x2, [sp, #96]
  4074d0:	91000421 	add	x1, x1, #0x1
  4074d4:	97ffeaaf 	bl	401f90 <_ZdlPvm@plt>
  4074d8:	f94033e2 	ldr	x2, [sp, #96]
  4074dc:	91008042 	add	x2, x2, #0x20
  4074e0:	eb02037f 	cmp	x27, x2
  4074e4:	54fffea1 	b.ne	4074b8 <_ZN5model5parseENSt7__cxx1112basic_stringIcSt11char_traitsIcESaIcEEE+0xeb4>  // b.any
  4074e8:	f94187fb 	ldr	x27, [sp, #776]
  4074ec:	b40000bb 	cbz	x27, 407500 <_ZN5model5parseENSt7__cxx1112basic_stringIcSt11char_traitsIcESaIcEEE+0xefc>
  4074f0:	f9418fe1 	ldr	x1, [sp, #792]
  4074f4:	aa1b03e0 	mov	x0, x27
  4074f8:	cb1b0021 	sub	x1, x1, x27
  4074fc:	97ffeaa5 	bl	401f90 <_ZdlPvm@plt>
  407500:	3100069f 	cmn	w20, #0x1
  407504:	5400cc60 	b.eq	408e90 <_ZN5model5parseENSt7__cxx1112basic_stringIcSt11char_traitsIcESaIcEEE+0x288c>  // b.none
  407508:	913283e1 	add	x1, sp, #0xca0
  40750c:	910ec3e0 	add	x0, sp, #0x3b0
  407510:	94000bb4 	bl	40a3e0 <_ZN7segmentC1ERKS_>
  407514:	f9400783 	ldr	x3, [x28, #8]
  407518:	d2917460 	mov	x0, #0x8ba3                	// #35747
  40751c:	f94032c1 	ldr	x1, [x22, #96]
  407520:	f2b745c0 	movk	x0, #0xba2e, lsl #16
  407524:	f2d45d00 	movk	x0, #0xa2e8, lsl #32
  407528:	cb010063 	sub	x3, x3, x1
  40752c:	f2e5d160 	movk	x0, #0x2e8b, lsl #48
  407530:	9344fc63 	asr	x3, x3, #4
  407534:	9b007c63 	mul	x3, x3, x0
  407538:	b400cee3 	cbz	x3, 408f14 <_ZN5model5parseENSt7__cxx1112basic_stringIcSt11char_traitsIcESaIcEEE+0x2910>
  40753c:	b943b7e5 	ldr	w5, [sp, #948]
  407540:	91001021 	add	x1, x1, #0x4
  407544:	d2800000 	mov	x0, #0x0                   	// #0
  407548:	14000005 	b	40755c <_ZN5model5parseENSt7__cxx1112basic_stringIcSt11char_traitsIcESaIcEEE+0xf58>
  40754c:	91000400 	add	x0, x0, #0x1
  407550:	9102c021 	add	x1, x1, #0xb0
  407554:	eb00007f 	cmp	x3, x0
  407558:	5400cde0 	b.eq	408f14 <_ZN5model5parseENSt7__cxx1112basic_stringIcSt11char_traitsIcESaIcEEE+0x2910>  // b.none
  40755c:	b9400022 	ldr	w2, [x1]
  407560:	2a0003e4 	mov	w4, w0
  407564:	6b05005f 	cmp	w2, w5
  407568:	54ffff21 	b.ne	40754c <_ZN5model5parseENSt7__cxx1112basic_stringIcSt11char_traitsIcESaIcEEE+0xf48>  // b.any
  40756c:	f9421ff4 	ldr	x20, [sp, #1080]
  407570:	b90bf3e4 	str	w4, [sp, #3056]
  407574:	b40000d4 	cbz	x20, 40758c <_ZN5model5parseENSt7__cxx1112basic_stringIcSt11char_traitsIcESaIcEEE+0xf88>
  407578:	aa1403e0 	mov	x0, x20
  40757c:	d2800201 	mov	x1, #0x10                  	// #16
  407580:	f9400294 	ldr	x20, [x20]
  407584:	97ffea83 	bl	401f90 <_ZdlPvm@plt>
  407588:	b5ffff94 	cbnz	x20, 407578 <_ZN5model5parseENSt7__cxx1112basic_stringIcSt11char_traitsIcESaIcEEE+0xf74>
  40758c:	f94217e0 	ldr	x0, [sp, #1064]
  407590:	52800001 	mov	w1, #0x0                   	// #0
  407594:	f9421be2 	ldr	x2, [sp, #1072]
  407598:	d37df042 	lsl	x2, x2, #3
  40759c:	97ffea55 	bl	401ef0 <memset@plt>
  4075a0:	f94217e0 	ldr	x0, [sp, #1064]
  4075a4:	911163e2 	add	x2, sp, #0x458
  4075a8:	f9021fff 	str	xzr, [sp, #1080]
  4075ac:	f90223ff 	str	xzr, [sp, #1088]
  4075b0:	f9421be1 	ldr	x1, [sp, #1072]
  4075b4:	eb02001f 	cmp	x0, x2
  4075b8:	54000060 	b.eq	4075c4 <_ZN5model5parseENSt7__cxx1112basic_stringIcSt11char_traitsIcESaIcEEE+0xfc0>  // b.none
  4075bc:	d37df021 	lsl	x1, x1, #3
  4075c0:	97ffea74 	bl	401f90 <_ZdlPvm@plt>
  4075c4:	910fc3e0 	add	x0, sp, #0x3f0
  4075c8:	94000abe 	bl	40a0c0 <_ZNSt10_HashtableINSt7__cxx1112basic_stringIcSt11char_traitsIcESaIcEEESt4pairIKS5_iESaIS8_ENSt8__detail10_Select1stESt8equal_toIS5_ESt4hashIS5_ENSA_18_Mod_range_hashingENSA_20_Default_ranged_hashENSA_20_Prime_rehash_policyENSA_17_Hashtable_traitsILb1ELb0ELb1EEEE5clearEv>
  4075cc:	f941fbe0 	ldr	x0, [sp, #1008]
  4075d0:	911083e2 	add	x2, sp, #0x420
  4075d4:	f941ffe1 	ldr	x1, [sp, #1016]
  4075d8:	eb02001f 	cmp	x0, x2
  4075dc:	54000060 	b.eq	4075e8 <_ZN5model5parseENSt7__cxx1112basic_stringIcSt11char_traitsIcESaIcEEE+0xfe4>  // b.none
  4075e0:	d37df021 	lsl	x1, x1, #3
  4075e4:	97ffea6b 	bl	401f90 <_ZdlPvm@plt>
  4075e8:	f941ebe0 	ldr	x0, [sp, #976]
  4075ec:	b4000080 	cbz	x0, 4075fc <_ZN5model5parseENSt7__cxx1112basic_stringIcSt11char_traitsIcESaIcEEE+0xff8>
  4075f0:	f941f3e1 	ldr	x1, [sp, #992]
  4075f4:	cb000021 	sub	x1, x1, x0
  4075f8:	97ffea66 	bl	401f90 <_ZdlPvm@plt>
  4075fc:	f941dff4 	ldr	x20, [sp, #952]
  407600:	f941e3fc 	ldr	x28, [sp, #960]
  407604:	eb1c029f 	cmp	x20, x28
  407608:	540001a0 	b.eq	40763c <_ZN5model5parseENSt7__cxx1112basic_stringIcSt11char_traitsIcESaIcEEE+0x1038>  // b.none
  40760c:	d503201f 	nop
  407610:	aa1403e1 	mov	x1, x20
  407614:	f8410420 	ldr	x0, [x1], #16
  407618:	eb01001f 	cmp	x0, x1
  40761c:	54000080 	b.eq	40762c <_ZN5model5parseENSt7__cxx1112basic_stringIcSt11char_traitsIcESaIcEEE+0x1028>  // b.none
  407620:	f9400a81 	ldr	x1, [x20, #16]
  407624:	91000421 	add	x1, x1, #0x1
  407628:	97ffea5a 	bl	401f90 <_ZdlPvm@plt>
  40762c:	91008294 	add	x20, x20, #0x20
  407630:	eb14039f 	cmp	x28, x20
  407634:	54fffee1 	b.ne	407610 <_ZN5model5parseENSt7__cxx1112basic_stringIcSt11char_traitsIcESaIcEEE+0x100c>  // b.any
  407638:	f941dffc 	ldr	x28, [sp, #952]
  40763c:	b40000bc 	cbz	x28, 407650 <_ZN5model5parseENSt7__cxx1112basic_stringIcSt11char_traitsIcESaIcEEE+0x104c>
  407640:	f941e7e1 	ldr	x1, [sp, #968]
  407644:	aa1c03e0 	mov	x0, x28
  407648:	cb1c0021 	sub	x1, x1, x28
  40764c:	97ffea51 	bl	401f90 <_ZdlPvm@plt>
  407650:	912fc3e1 	add	x1, sp, #0xbf0
  407654:	910482c0 	add	x0, x22, #0x120
  407658:	940011f2 	bl	40be20 <_ZNSt8__detail9_Map_baseIiSt4pairIKiiESaIS3_ENS_10_Select1stESt8equal_toIiESt4hashIiENS_18_Mod_range_hashingENS_20_Default_ranged_hashENS_20_Prime_rehash_policyENS_17_Hashtable_traitsILb0ELb0ELb1EEELb1EEixERS2_>
  40765c:	aa0003e3 	mov	x3, x0
  407660:	913543f4 	add	x20, sp, #0xd50
  407664:	f94032c5 	ldr	x5, [x22, #96]
  407668:	91004287 	add	x7, x20, #0x10
  40766c:	b9400064 	ldr	w4, [x3]
  407670:	52801606 	mov	w6, #0xb0                  	// #176
  407674:	a9478be1 	ldp	x1, x2, [sp, #120]
  407678:	11000484 	add	w4, w4, #0x1
  40767c:	b9000064 	str	w4, [x3]
  407680:	aa1403e0 	mov	x0, x20
  407684:	f906abe7 	str	x7, [sp, #3408]
  407688:	b94bf3fc 	ldr	w28, [sp, #3056]
  40768c:	8b020022 	add	x2, x1, x2
  407690:	9b26179c 	smaddl	x28, w28, w6, x5
  407694:	97fff1ec 	bl	403e44 <_ZNSt7__cxx1112basic_stringIcSt11char_traitsIcESaIcEE12_M_constructIPcEEvT_S7_St20forward_iterator_tag.isra.0>
  407698:	aa1403e1 	mov	x1, x20
  40769c:	aa1c03e0 	mov	x0, x28
  4076a0:	97fff894 	bl	4058f0 <_ZN7segment6insertENSt7__cxx1112basic_stringIcSt11char_traitsIcESaIcEEE>
  4076a4:	f946abe0 	ldr	x0, [sp, #3408]
  4076a8:	91004281 	add	x1, x20, #0x10
  4076ac:	eb01001f 	cmp	x0, x1
  4076b0:	54000080 	b.eq	4076c0 <_ZN5model5parseENSt7__cxx1112basic_stringIcSt11char_traitsIcESaIcEEE+0x10bc>  // b.none
  4076b4:	f946b3e1 	ldr	x1, [sp, #3424]
  4076b8:	91000421 	add	x1, x1, #0x1
  4076bc:	97ffea35 	bl	401f90 <_ZdlPvm@plt>
  4076c0:	f9403fe2 	ldr	x2, [sp, #120]
  4076c4:	f90043ff 	str	xzr, [sp, #128]
  4076c8:	913283e1 	add	x1, sp, #0xca0
  4076cc:	aa1403e0 	mov	x0, x20
  4076d0:	3900005f 	strb	wzr, [x2]
  4076d4:	94000b43 	bl	40a3e0 <_ZN7segmentC1ERKS_>
  4076d8:	a94a07e0 	ldp	x0, x1, [sp, #160]
  4076dc:	eb01001f 	cmp	x0, x1
  4076e0:	5400c260 	b.eq	408f2c <_ZN5model5parseENSt7__cxx1112basic_stringIcSt11char_traitsIcESaIcEEE+0x2928>  // b.none
  4076e4:	aa1403e1 	mov	x1, x20
  4076e8:	94000b3e 	bl	40a3e0 <_ZN7segmentC1ERKS_>
  4076ec:	f94053e0 	ldr	x0, [sp, #160]
  4076f0:	9102c000 	add	x0, x0, #0xb0
  4076f4:	f90053e0 	str	x0, [sp, #160]
  4076f8:	f946effc 	ldr	x28, [sp, #3544]
  4076fc:	b40000dc 	cbz	x28, 407714 <_ZN5model5parseENSt7__cxx1112basic_stringIcSt11char_traitsIcESaIcEEE+0x1110>
  407700:	aa1c03e0 	mov	x0, x28
  407704:	d2800201 	mov	x1, #0x10                  	// #16
  407708:	f940039c 	ldr	x28, [x28]
  40770c:	97ffea21 	bl	401f90 <_ZdlPvm@plt>
  407710:	b5ffff9c 	cbnz	x28, 407700 <_ZN5model5parseENSt7__cxx1112basic_stringIcSt11char_traitsIcESaIcEEE+0x10fc>
  407714:	f946e7e0 	ldr	x0, [sp, #3528]
  407718:	52800001 	mov	w1, #0x0                   	// #0
  40771c:	f946ebe2 	ldr	x2, [sp, #3536]
  407720:	d37df042 	lsl	x2, x2, #3
  407724:	97ffe9f3 	bl	401ef0 <memset@plt>
  407728:	f946e7e0 	ldr	x0, [sp, #3528]
  40772c:	9102a282 	add	x2, x20, #0xa8
  407730:	f906efff 	str	xzr, [sp, #3544]
  407734:	f906f3ff 	str	xzr, [sp, #3552]
  407738:	f946ebe1 	ldr	x1, [sp, #3536]
  40773c:	eb02001f 	cmp	x0, x2
  407740:	54000060 	b.eq	40774c <_ZN5model5parseENSt7__cxx1112basic_stringIcSt11char_traitsIcESaIcEEE+0x1148>  // b.none
  407744:	d37df021 	lsl	x1, x1, #3
  407748:	97ffea12 	bl	401f90 <_ZdlPvm@plt>
  40774c:	91010280 	add	x0, x20, #0x40
  407750:	94000a5c 	bl	40a0c0 <_ZNSt10_HashtableINSt7__cxx1112basic_stringIcSt11char_traitsIcESaIcEEESt4pairIKS5_iESaIS8_ENSt8__detail10_Select1stESt8equal_toIS5_ESt4hashIS5_ENSA_18_Mod_range_hashingENSA_20_Default_ranged_hashENSA_20_Prime_rehash_policyENSA_17_Hashtable_traitsILb1ELb0ELb1EEEE5clearEv>
  407754:	f946cbe0 	ldr	x0, [sp, #3472]
  407758:	9101c294 	add	x20, x20, #0x70
  40775c:	f946cfe1 	ldr	x1, [sp, #3480]
  407760:	eb14001f 	cmp	x0, x20
  407764:	54000060 	b.eq	407770 <_ZN5model5parseENSt7__cxx1112basic_stringIcSt11char_traitsIcESaIcEEE+0x116c>  // b.none
  407768:	d37df021 	lsl	x1, x1, #3
  40776c:	97ffea09 	bl	401f90 <_ZdlPvm@plt>
  407770:	f946bbe0 	ldr	x0, [sp, #3440]
  407774:	b4000080 	cbz	x0, 407784 <_ZN5model5parseENSt7__cxx1112basic_stringIcSt11char_traitsIcESaIcEEE+0x1180>
  407778:	f946c3e1 	ldr	x1, [sp, #3456]
  40777c:	cb000021 	sub	x1, x1, x0
  407780:	97ffea04 	bl	401f90 <_ZdlPvm@plt>
  407784:	f946aff4 	ldr	x20, [sp, #3416]
  407788:	f946b3fc 	ldr	x28, [sp, #3424]
  40778c:	eb1c029f 	cmp	x20, x28
  407790:	540001a0 	b.eq	4077c4 <_ZN5model5parseENSt7__cxx1112basic_stringIcSt11char_traitsIcESaIcEEE+0x11c0>  // b.none
  407794:	d503201f 	nop
  407798:	aa1403e1 	mov	x1, x20
  40779c:	f8410420 	ldr	x0, [x1], #16
  4077a0:	eb01001f 	cmp	x0, x1
  4077a4:	54000080 	b.eq	4077b4 <_ZN5model5parseENSt7__cxx1112basic_stringIcSt11char_traitsIcESaIcEEE+0x11b0>  // b.none
  4077a8:	f9400a81 	ldr	x1, [x20, #16]
  4077ac:	91000421 	add	x1, x1, #0x1
  4077b0:	97ffe9f8 	bl	401f90 <_ZdlPvm@plt>
  4077b4:	91008294 	add	x20, x20, #0x20
  4077b8:	eb14039f 	cmp	x28, x20
  4077bc:	54fffee1 	b.ne	407798 <_ZN5model5parseENSt7__cxx1112basic_stringIcSt11char_traitsIcESaIcEEE+0x1194>  // b.any
  4077c0:	f946affc 	ldr	x28, [sp, #3416]
  4077c4:	b40000bc 	cbz	x28, 4077d8 <_ZN5model5parseENSt7__cxx1112basic_stringIcSt11char_traitsIcESaIcEEE+0x11d4>
  4077c8:	f946b7e1 	ldr	x1, [sp, #3432]
  4077cc:	aa1c03e0 	mov	x0, x28
  4077d0:	cb1c0021 	sub	x1, x1, x28
  4077d4:	97ffe9ef 	bl	401f90 <_ZdlPvm@plt>
  4077d8:	f94697f4 	ldr	x20, [sp, #3368]
  4077dc:	b40000d4 	cbz	x20, 4077f4 <_ZN5model5parseENSt7__cxx1112basic_stringIcSt11char_traitsIcESaIcEEE+0x11f0>
  4077e0:	aa1403e0 	mov	x0, x20
  4077e4:	d2800201 	mov	x1, #0x10                  	// #16
  4077e8:	f9400294 	ldr	x20, [x20]
  4077ec:	97ffe9e9 	bl	401f90 <_ZdlPvm@plt>
  4077f0:	b5ffff94 	cbnz	x20, 4077e0 <_ZN5model5parseENSt7__cxx1112basic_stringIcSt11char_traitsIcESaIcEEE+0x11dc>
  4077f4:	f9468fe0 	ldr	x0, [sp, #3352]
  4077f8:	52800001 	mov	w1, #0x0                   	// #0
  4077fc:	f94693e2 	ldr	x2, [sp, #3360]
  407800:	d37df042 	lsl	x2, x2, #3
  407804:	97ffe9bb 	bl	401ef0 <memset@plt>
  407808:	f9468fe0 	ldr	x0, [sp, #3352]
  40780c:	913523e2 	add	x2, sp, #0xd48
  407810:	f90697ff 	str	xzr, [sp, #3368]
  407814:	f9069bff 	str	xzr, [sp, #3376]
  407818:	f94693e1 	ldr	x1, [sp, #3360]
  40781c:	eb02001f 	cmp	x0, x2
  407820:	54000060 	b.eq	40782c <_ZN5model5parseENSt7__cxx1112basic_stringIcSt11char_traitsIcESaIcEEE+0x1228>  // b.none
  407824:	d37df021 	lsl	x1, x1, #3
  407828:	97ffe9da 	bl	401f90 <_ZdlPvm@plt>
  40782c:	913383e0 	add	x0, sp, #0xce0
  407830:	94000a24 	bl	40a0c0 <_ZNSt10_HashtableINSt7__cxx1112basic_stringIcSt11char_traitsIcESaIcEEESt4pairIKS5_iESaIS8_ENSt8__detail10_Select1stESt8equal_toIS5_ESt4hashIS5_ENSA_18_Mod_range_hashingENSA_20_Default_ranged_hashENSA_20_Prime_rehash_policyENSA_17_Hashtable_traitsILb1ELb0ELb1EEEE5clearEv>
  407834:	f94673e0 	ldr	x0, [sp, #3296]
  407838:	f94677e1 	ldr	x1, [sp, #3304]
  40783c:	eb19001f 	cmp	x0, x25
  407840:	54000060 	b.eq	40784c <_ZN5model5parseENSt7__cxx1112basic_stringIcSt11char_traitsIcESaIcEEE+0x1248>  // b.none
  407844:	d37df021 	lsl	x1, x1, #3
  407848:	97ffe9d2 	bl	401f90 <_ZdlPvm@plt>
  40784c:	f94663e0 	ldr	x0, [sp, #3264]
  407850:	b4000080 	cbz	x0, 407860 <_ZN5model5parseENSt7__cxx1112basic_stringIcSt11char_traitsIcESaIcEEE+0x125c>
  407854:	f9466be1 	ldr	x1, [sp, #3280]
  407858:	cb000021 	sub	x1, x1, x0
  40785c:	97ffe9cd 	bl	401f90 <_ZdlPvm@plt>
  407860:	f94657f4 	ldr	x20, [sp, #3240]
  407864:	f9465bfc 	ldr	x28, [sp, #3248]
  407868:	eb1c029f 	cmp	x20, x28
  40786c:	54ffd640 	b.eq	407334 <_ZN5model5parseENSt7__cxx1112basic_stringIcSt11char_traitsIcESaIcEEE+0xd30>  // b.none
  407870:	aa1403e1 	mov	x1, x20
  407874:	f8410420 	ldr	x0, [x1], #16
  407878:	eb01001f 	cmp	x0, x1
  40787c:	54000080 	b.eq	40788c <_ZN5model5parseENSt7__cxx1112basic_stringIcSt11char_traitsIcESaIcEEE+0x1288>  // b.none
  407880:	f9400a81 	ldr	x1, [x20, #16]
  407884:	91000421 	add	x1, x1, #0x1
  407888:	97ffe9c2 	bl	401f90 <_ZdlPvm@plt>
  40788c:	91008294 	add	x20, x20, #0x20
  407890:	eb14039f 	cmp	x28, x20
  407894:	54fffee1 	b.ne	407870 <_ZN5model5parseENSt7__cxx1112basic_stringIcSt11char_traitsIcESaIcEEE+0x126c>  // b.any
  407898:	f94657fc 	ldr	x28, [sp, #3240]
  40789c:	17fffea6 	b	407334 <_ZN5model5parseENSt7__cxx1112basic_stringIcSt11char_traitsIcESaIcEEE+0xd30>
  4078a0:	a9408780 	ldp	x0, x1, [x28, #8]
  4078a4:	b9400ac2 	ldr	w2, [x22, #8]
  4078a8:	11000442 	add	w2, w2, #0x1
  4078ac:	b9000ac2 	str	w2, [x22, #8]
  4078b0:	b90bf3e2 	str	w2, [sp, #3056]
  4078b4:	eb01001f 	cmp	x0, x1
  4078b8:	5400ad40 	b.eq	408e60 <_ZN5model5parseENSt7__cxx1112basic_stringIcSt11char_traitsIcESaIcEEE+0x285c>  // b.none
  4078bc:	913283e1 	add	x1, sp, #0xca0
  4078c0:	94000ac8 	bl	40a3e0 <_ZN7segmentC1ERKS_>
  4078c4:	f9400780 	ldr	x0, [x28, #8]
  4078c8:	9102c000 	add	x0, x0, #0xb0
  4078cc:	f9000780 	str	x0, [x28, #8]
  4078d0:	a9478be1 	ldp	x1, x2, [sp, #120]
  4078d4:	913543f4 	add	x20, sp, #0xd50
  4078d8:	b94bf3fc 	ldr	w28, [sp, #3056]
  4078dc:	91004283 	add	x3, x20, #0x10
  4078e0:	f94026c4 	ldr	x4, [x22, #72]
  4078e4:	52801605 	mov	w5, #0xb0                  	// #176
  4078e8:	aa1403e0 	mov	x0, x20
  4078ec:	f906abe3 	str	x3, [sp, #3408]
  4078f0:	8b020022 	add	x2, x1, x2
  4078f4:	9b25139c 	smaddl	x28, w28, w5, x4
  4078f8:	97fff153 	bl	403e44 <_ZNSt7__cxx1112basic_stringIcSt11char_traitsIcESaIcEE12_M_constructIPcEEvT_S7_St20forward_iterator_tag.isra.0>
  4078fc:	aa1403e1 	mov	x1, x20
  407900:	aa1c03e0 	mov	x0, x28
  407904:	97fff7fb 	bl	4058f0 <_ZN7segment6insertENSt7__cxx1112basic_stringIcSt11char_traitsIcESaIcEEE>
  407908:	f946abe0 	ldr	x0, [sp, #3408]
  40790c:	91004281 	add	x1, x20, #0x10
  407910:	eb01001f 	cmp	x0, x1
  407914:	54000080 	b.eq	407924 <_ZN5model5parseENSt7__cxx1112basic_stringIcSt11char_traitsIcESaIcEEE+0x1320>  // b.none
  407918:	f946b3e1 	ldr	x1, [sp, #3424]
  40791c:	91000421 	add	x1, x1, #0x1
  407920:	97ffe99c 	bl	401f90 <_ZdlPvm@plt>
  407924:	912fc3e1 	add	x1, sp, #0xbf0
  407928:	9103a2c0 	add	x0, x22, #0xe8
  40792c:	9400113d 	bl	40be20 <_ZNSt8__detail9_Map_baseIiSt4pairIKiiESaIS3_ENS_10_Select1stESt8equal_toIiESt4hashIiENS_18_Mod_range_hashingENS_20_Default_ranged_hashENS_20_Prime_rehash_policyENS_17_Hashtable_traitsILb0ELb0ELb1EEELb1EEixERS2_>
  407930:	52800021 	mov	w1, #0x1                   	// #1
  407934:	b9000001 	str	w1, [x0]
  407938:	17fffe08 	b	407158 <_ZN5model5parseENSt7__cxx1112basic_stringIcSt11char_traitsIcESaIcEEE+0xb54>
  40793c:	12800014 	mov	w20, #0xffffffff            	// #-1
  407940:	17fffeb5 	b	407414 <_ZN5model5parseENSt7__cxx1112basic_stringIcSt11char_traitsIcESaIcEEE+0xe10>
  407944:	aa1703e1 	mov	x1, x23
  407948:	910523e0 	add	x0, sp, #0x148
  40794c:	94000bc1 	bl	40a850 <_ZN2PTC1ERKS_>
  407950:	910523e1 	add	x1, sp, #0x148
  407954:	aa1603e0 	mov	x0, x22
  407958:	97fff172 	bl	403f20 <_ZN5model6FindPTE2PT>
  40795c:	2a0003e1 	mov	w1, w0
  407960:	910523e0 	add	x0, sp, #0x148
  407964:	b90d53e1 	str	w1, [sp, #3408]
  407968:	94000a3e 	bl	40a260 <_ZN2PTD1Ev>
  40796c:	9101e2c0 	add	x0, x22, #0x78
  407970:	913543e1 	add	x1, sp, #0xd50
  407974:	9400112b 	bl	40be20 <_ZNSt8__detail9_Map_baseIiSt4pairIKiiESaIS3_ENS_10_Select1stESt8equal_toIiESt4hashIiENS_18_Mod_range_hashingENS_20_Default_ranged_hashENS_20_Prime_rehash_policyENS_17_Hashtable_traitsILb0ELb0ELb1EEELb1EEixERS2_>
  407978:	b9400001 	ldr	w1, [x0]
  40797c:	11000421 	add	w1, w1, #0x1
  407980:	b9000001 	str	w1, [x0]
  407984:	17fffce0 	b	406d04 <_ZN5model5parseENSt7__cxx1112basic_stringIcSt11char_traitsIcESaIcEEE+0x700>
  407988:	12800014 	mov	w20, #0xffffffff            	// #-1
  40798c:	17fffd4d 	b	406ec0 <_ZN5model5parseENSt7__cxx1112basic_stringIcSt11char_traitsIcESaIcEEE+0x8bc>
  407990:	9132a3fe 	add	x30, sp, #0xca8
  407994:	d2800022 	mov	x2, #0x1                   	// #1
  407998:	913383e4 	add	x4, sp, #0xce0
  40799c:	b90ca3e2 	str	w2, [sp, #3232]
  4079a0:	b90ca7f4 	str	w20, [sp, #3236]
  4079a4:	913423e5 	add	x5, sp, #0xd08
  4079a8:	a9007fdf 	stp	xzr, xzr, [x30]
  4079ac:	1e2e1000 	fmov	s0, #1.000000000000000000e+00
  4079b0:	913523e3 	add	x3, sp, #0xd48
  4079b4:	a9017fdf 	stp	xzr, xzr, [x30, #16]
  4079b8:	911183e0 	add	x0, sp, #0x460
  4079bc:	913283e1 	add	x1, sp, #0xca0
  4079c0:	f90667ff 	str	xzr, [sp, #3272]
  4079c4:	f9066bff 	str	xzr, [sp, #3280]
  4079c8:	b90cdbff 	str	wzr, [sp, #3288]
  4079cc:	a9000899 	stp	x25, x2, [x4]
  4079d0:	a9017c9f 	stp	xzr, xzr, [x4, #16]
  4079d4:	bd0d03e0 	str	s0, [sp, #3328]
  4079d8:	a9007cbf 	stp	xzr, xzr, [x5]
  4079dc:	a90108a3 	stp	x3, x2, [x5, #16]
  4079e0:	f90697ff 	str	xzr, [sp, #3368]
  4079e4:	f9069bff 	str	xzr, [sp, #3376]
  4079e8:	bd0d3be0 	str	s0, [sp, #3384]
  4079ec:	f906a3ff 	str	xzr, [sp, #3392]
  4079f0:	f906a7ff 	str	xzr, [sp, #3400]
  4079f4:	94000a7b 	bl	40a3e0 <_ZN7segmentC1ERKS_>
  4079f8:	f9401ac1 	ldr	x1, [x22, #48]
  4079fc:	d2917460 	mov	x0, #0x8ba3                	// #35747
  407a00:	f9401ec3 	ldr	x3, [x22, #56]
  407a04:	f2b745c0 	movk	x0, #0xba2e, lsl #16
  407a08:	f2d45d00 	movk	x0, #0xa2e8, lsl #32
  407a0c:	9100c2dc 	add	x28, x22, #0x30
  407a10:	cb010063 	sub	x3, x3, x1
  407a14:	f2e5d160 	movk	x0, #0x2e8b, lsl #48
  407a18:	9344fc63 	asr	x3, x3, #4
  407a1c:	9b007c63 	mul	x3, x3, x0
  407a20:	b400a823 	cbz	x3, 408f24 <_ZN5model5parseENSt7__cxx1112basic_stringIcSt11char_traitsIcESaIcEEE+0x2920>
  407a24:	b94467e4 	ldr	w4, [sp, #1124]
  407a28:	91001021 	add	x1, x1, #0x4
  407a2c:	d2800000 	mov	x0, #0x0                   	// #0
  407a30:	14000005 	b	407a44 <_ZN5model5parseENSt7__cxx1112basic_stringIcSt11char_traitsIcESaIcEEE+0x1440>
  407a34:	91000400 	add	x0, x0, #0x1
  407a38:	9102c021 	add	x1, x1, #0xb0
  407a3c:	eb00007f 	cmp	x3, x0
  407a40:	5400a720 	b.eq	408f24 <_ZN5model5parseENSt7__cxx1112basic_stringIcSt11char_traitsIcESaIcEEE+0x2920>  // b.none
  407a44:	b9400022 	ldr	w2, [x1]
  407a48:	2a0003f4 	mov	w20, w0
  407a4c:	6b04005f 	cmp	w2, w4
  407a50:	54ffff21 	b.ne	407a34 <_ZN5model5parseENSt7__cxx1112basic_stringIcSt11char_traitsIcESaIcEEE+0x1430>  // b.any
  407a54:	f94277fb 	ldr	x27, [sp, #1256]
  407a58:	b40000fb 	cbz	x27, 407a74 <_ZN5model5parseENSt7__cxx1112basic_stringIcSt11char_traitsIcESaIcEEE+0x1470>
  407a5c:	d503201f 	nop
  407a60:	aa1b03e0 	mov	x0, x27
  407a64:	d2800201 	mov	x1, #0x10                  	// #16
  407a68:	f940037b 	ldr	x27, [x27]
  407a6c:	97ffe949 	bl	401f90 <_ZdlPvm@plt>
  407a70:	b5ffff9b 	cbnz	x27, 407a60 <_ZN5model5parseENSt7__cxx1112basic_stringIcSt11char_traitsIcESaIcEEE+0x145c>
  407a74:	f9426fe0 	ldr	x0, [sp, #1240]
  407a78:	52800001 	mov	w1, #0x0                   	// #0
  407a7c:	f94273e2 	ldr	x2, [sp, #1248]
  407a80:	d37df042 	lsl	x2, x2, #3
  407a84:	97ffe91b 	bl	401ef0 <memset@plt>
  407a88:	f9426fe0 	ldr	x0, [sp, #1240]
  407a8c:	911423e2 	add	x2, sp, #0x508
  407a90:	f90277ff 	str	xzr, [sp, #1256]
  407a94:	f9027bff 	str	xzr, [sp, #1264]
  407a98:	f94273e1 	ldr	x1, [sp, #1248]
  407a9c:	eb02001f 	cmp	x0, x2
  407aa0:	54000060 	b.eq	407aac <_ZN5model5parseENSt7__cxx1112basic_stringIcSt11char_traitsIcESaIcEEE+0x14a8>  // b.none
  407aa4:	d37df021 	lsl	x1, x1, #3
  407aa8:	97ffe93a 	bl	401f90 <_ZdlPvm@plt>
  407aac:	911283e0 	add	x0, sp, #0x4a0
  407ab0:	94000984 	bl	40a0c0 <_ZNSt10_HashtableINSt7__cxx1112basic_stringIcSt11char_traitsIcESaIcEEESt4pairIKS5_iESaIS8_ENSt8__detail10_Select1stESt8equal_toIS5_ESt4hashIS5_ENSA_18_Mod_range_hashingENSA_20_Default_ranged_hashENSA_20_Prime_rehash_policyENSA_17_Hashtable_traitsILb1ELb0ELb1EEEE5clearEv>
  407ab4:	f94253e0 	ldr	x0, [sp, #1184]
  407ab8:	911343e2 	add	x2, sp, #0x4d0
  407abc:	f94257e1 	ldr	x1, [sp, #1192]
  407ac0:	eb02001f 	cmp	x0, x2
  407ac4:	54000060 	b.eq	407ad0 <_ZN5model5parseENSt7__cxx1112basic_stringIcSt11char_traitsIcESaIcEEE+0x14cc>  // b.none
  407ac8:	d37df021 	lsl	x1, x1, #3
  407acc:	97ffe931 	bl	401f90 <_ZdlPvm@plt>
  407ad0:	f94243e0 	ldr	x0, [sp, #1152]
  407ad4:	b4000080 	cbz	x0, 407ae4 <_ZN5model5parseENSt7__cxx1112basic_stringIcSt11char_traitsIcESaIcEEE+0x14e0>
  407ad8:	f9424be1 	ldr	x1, [sp, #1168]
  407adc:	cb000021 	sub	x1, x1, x0
  407ae0:	97ffe92c 	bl	401f90 <_ZdlPvm@plt>
  407ae4:	f94237e2 	ldr	x2, [sp, #1128]
  407ae8:	f9423bfb 	ldr	x27, [sp, #1136]
  407aec:	eb1b005f 	cmp	x2, x27
  407af0:	540001e0 	b.eq	407b2c <_ZN5model5parseENSt7__cxx1112basic_stringIcSt11char_traitsIcESaIcEEE+0x1528>  // b.none
  407af4:	d503201f 	nop
  407af8:	aa0203e1 	mov	x1, x2
  407afc:	f8410420 	ldr	x0, [x1], #16
  407b00:	eb01001f 	cmp	x0, x1
  407b04:	540000c0 	b.eq	407b1c <_ZN5model5parseENSt7__cxx1112basic_stringIcSt11char_traitsIcESaIcEEE+0x1518>  // b.none
  407b08:	f9400841 	ldr	x1, [x2, #16]
  407b0c:	f90033e2 	str	x2, [sp, #96]
  407b10:	91000421 	add	x1, x1, #0x1
  407b14:	97ffe91f 	bl	401f90 <_ZdlPvm@plt>
  407b18:	f94033e2 	ldr	x2, [sp, #96]
  407b1c:	91008042 	add	x2, x2, #0x20
  407b20:	eb02037f 	cmp	x27, x2
  407b24:	54fffea1 	b.ne	407af8 <_ZN5model5parseENSt7__cxx1112basic_stringIcSt11char_traitsIcESaIcEEE+0x14f4>  // b.any
  407b28:	f94237fb 	ldr	x27, [sp, #1128]
  407b2c:	b40000bb 	cbz	x27, 407b40 <_ZN5model5parseENSt7__cxx1112basic_stringIcSt11char_traitsIcESaIcEEE+0x153c>
  407b30:	f9423fe1 	ldr	x1, [sp, #1144]
  407b34:	aa1b03e0 	mov	x0, x27
  407b38:	cb1b0021 	sub	x1, x1, x27
  407b3c:	97ffe915 	bl	401f90 <_ZdlPvm@plt>
  407b40:	3100069f 	cmn	w20, #0x1
  407b44:	5400a7e0 	b.eq	409040 <_ZN5model5parseENSt7__cxx1112basic_stringIcSt11char_traitsIcESaIcEEE+0x2a3c>  // b.none
  407b48:	913283e1 	add	x1, sp, #0xca0
  407b4c:	911443e0 	add	x0, sp, #0x510
  407b50:	94000a24 	bl	40a3e0 <_ZN7segmentC1ERKS_>
  407b54:	f9400783 	ldr	x3, [x28, #8]
  407b58:	d2917460 	mov	x0, #0x8ba3                	// #35747
  407b5c:	f9401ac1 	ldr	x1, [x22, #48]
  407b60:	f2b745c0 	movk	x0, #0xba2e, lsl #16
  407b64:	f2d45d00 	movk	x0, #0xa2e8, lsl #32
  407b68:	cb010063 	sub	x3, x3, x1
  407b6c:	f2e5d160 	movk	x0, #0x2e8b, lsl #48
  407b70:	9344fc63 	asr	x3, x3, #4
  407b74:	9b007c63 	mul	x3, x3, x0
  407b78:	b400a603 	cbz	x3, 409038 <_ZN5model5parseENSt7__cxx1112basic_stringIcSt11char_traitsIcESaIcEEE+0x2a34>
  407b7c:	b94517e5 	ldr	w5, [sp, #1300]
  407b80:	91001021 	add	x1, x1, #0x4
  407b84:	d2800000 	mov	x0, #0x0                   	// #0
  407b88:	14000005 	b	407b9c <_ZN5model5parseENSt7__cxx1112basic_stringIcSt11char_traitsIcESaIcEEE+0x1598>
  407b8c:	91000400 	add	x0, x0, #0x1
  407b90:	9102c021 	add	x1, x1, #0xb0
  407b94:	eb00007f 	cmp	x3, x0
  407b98:	5400a500 	b.eq	409038 <_ZN5model5parseENSt7__cxx1112basic_stringIcSt11char_traitsIcESaIcEEE+0x2a34>  // b.none
  407b9c:	b9400022 	ldr	w2, [x1]
  407ba0:	2a0003e4 	mov	w4, w0
  407ba4:	6b05005f 	cmp	w2, w5
  407ba8:	54ffff21 	b.ne	407b8c <_ZN5model5parseENSt7__cxx1112basic_stringIcSt11char_traitsIcESaIcEEE+0x1588>  // b.any
  407bac:	911443e0 	add	x0, sp, #0x510
  407bb0:	b90bf3e4 	str	w4, [sp, #3056]
  407bb4:	94000963 	bl	40a140 <_ZN7segmentD1Ev>
  407bb8:	912fc3e1 	add	x1, sp, #0xbf0
  407bbc:	9102c2c0 	add	x0, x22, #0xb0
  407bc0:	94001098 	bl	40be20 <_ZNSt8__detail9_Map_baseIiSt4pairIKiiESaIS3_ENS_10_Select1stESt8equal_toIiESt4hashIiENS_18_Mod_range_hashingENS_20_Default_ranged_hashENS_20_Prime_rehash_policyENS_17_Hashtable_traitsILb0ELb0ELb1EEELb1EEixERS2_>
  407bc4:	aa0003e3 	mov	x3, x0
  407bc8:	913543f4 	add	x20, sp, #0xd50
  407bcc:	f9401ac5 	ldr	x5, [x22, #48]
  407bd0:	91004287 	add	x7, x20, #0x10
  407bd4:	b9400064 	ldr	w4, [x3]
  407bd8:	52801606 	mov	w6, #0xb0                  	// #176
  407bdc:	a9478be1 	ldp	x1, x2, [sp, #120]
  407be0:	11000484 	add	w4, w4, #0x1
  407be4:	b9000064 	str	w4, [x3]
  407be8:	aa1403e0 	mov	x0, x20
  407bec:	f906abe7 	str	x7, [sp, #3408]
  407bf0:	b94bf3fc 	ldr	w28, [sp, #3056]
  407bf4:	8b020022 	add	x2, x1, x2
  407bf8:	9b26179c 	smaddl	x28, w28, w6, x5
  407bfc:	97fff092 	bl	403e44 <_ZNSt7__cxx1112basic_stringIcSt11char_traitsIcESaIcEE12_M_constructIPcEEvT_S7_St20forward_iterator_tag.isra.0>
  407c00:	aa1403e1 	mov	x1, x20
  407c04:	aa1c03e0 	mov	x0, x28
  407c08:	97fff73a 	bl	4058f0 <_ZN7segment6insertENSt7__cxx1112basic_stringIcSt11char_traitsIcESaIcEEE>
  407c0c:	f946abe0 	ldr	x0, [sp, #3408]
  407c10:	91004281 	add	x1, x20, #0x10
  407c14:	eb01001f 	cmp	x0, x1
  407c18:	54000080 	b.eq	407c28 <_ZN5model5parseENSt7__cxx1112basic_stringIcSt11char_traitsIcESaIcEEE+0x1624>  // b.none
  407c1c:	f946b3e1 	ldr	x1, [sp, #3424]
  407c20:	91000421 	add	x1, x1, #0x1
  407c24:	97ffe8db 	bl	401f90 <_ZdlPvm@plt>
  407c28:	f9403fe2 	ldr	x2, [sp, #120]
  407c2c:	f90043ff 	str	xzr, [sp, #128]
  407c30:	913283e1 	add	x1, sp, #0xca0
  407c34:	aa1403e0 	mov	x0, x20
  407c38:	3900005f 	strb	wzr, [x2]
  407c3c:	940009e9 	bl	40a3e0 <_ZN7segmentC1ERKS_>
  407c40:	a94a07e0 	ldp	x0, x1, [sp, #160]
  407c44:	eb01001f 	cmp	x0, x1
  407c48:	5400a3e0 	b.eq	4090c4 <_ZN5model5parseENSt7__cxx1112basic_stringIcSt11char_traitsIcESaIcEEE+0x2ac0>  // b.none
  407c4c:	aa1403e1 	mov	x1, x20
  407c50:	940009e4 	bl	40a3e0 <_ZN7segmentC1ERKS_>
  407c54:	f94053e0 	ldr	x0, [sp, #160]
  407c58:	9102c000 	add	x0, x0, #0xb0
  407c5c:	f90053e0 	str	x0, [sp, #160]
  407c60:	f946effc 	ldr	x28, [sp, #3544]
  407c64:	b40000dc 	cbz	x28, 407c7c <_ZN5model5parseENSt7__cxx1112basic_stringIcSt11char_traitsIcESaIcEEE+0x1678>
  407c68:	aa1c03e0 	mov	x0, x28
  407c6c:	d2800201 	mov	x1, #0x10                  	// #16
  407c70:	f940039c 	ldr	x28, [x28]
  407c74:	97ffe8c7 	bl	401f90 <_ZdlPvm@plt>
  407c78:	b5ffff9c 	cbnz	x28, 407c68 <_ZN5model5parseENSt7__cxx1112basic_stringIcSt11char_traitsIcESaIcEEE+0x1664>
  407c7c:	f946e7e0 	ldr	x0, [sp, #3528]
  407c80:	52800001 	mov	w1, #0x0                   	// #0
  407c84:	f946ebe2 	ldr	x2, [sp, #3536]
  407c88:	d37df042 	lsl	x2, x2, #3
  407c8c:	97ffe899 	bl	401ef0 <memset@plt>
  407c90:	f946e7e0 	ldr	x0, [sp, #3528]
  407c94:	9102a282 	add	x2, x20, #0xa8
  407c98:	f906efff 	str	xzr, [sp, #3544]
  407c9c:	f906f3ff 	str	xzr, [sp, #3552]
  407ca0:	f946ebe1 	ldr	x1, [sp, #3536]
  407ca4:	eb02001f 	cmp	x0, x2
  407ca8:	54000060 	b.eq	407cb4 <_ZN5model5parseENSt7__cxx1112basic_stringIcSt11char_traitsIcESaIcEEE+0x16b0>  // b.none
  407cac:	d37df021 	lsl	x1, x1, #3
  407cb0:	97ffe8b8 	bl	401f90 <_ZdlPvm@plt>
  407cb4:	91010280 	add	x0, x20, #0x40
  407cb8:	94000902 	bl	40a0c0 <_ZNSt10_HashtableINSt7__cxx1112basic_stringIcSt11char_traitsIcESaIcEEESt4pairIKS5_iESaIS8_ENSt8__detail10_Select1stESt8equal_toIS5_ESt4hashIS5_ENSA_18_Mod_range_hashingENSA_20_Default_ranged_hashENSA_20_Prime_rehash_policyENSA_17_Hashtable_traitsILb1ELb0ELb1EEEE5clearEv>
  407cbc:	f946cbe0 	ldr	x0, [sp, #3472]
  407cc0:	9101c294 	add	x20, x20, #0x70
  407cc4:	f946cfe1 	ldr	x1, [sp, #3480]
  407cc8:	eb14001f 	cmp	x0, x20
  407ccc:	54000060 	b.eq	407cd8 <_ZN5model5parseENSt7__cxx1112basic_stringIcSt11char_traitsIcESaIcEEE+0x16d4>  // b.none
  407cd0:	d37df021 	lsl	x1, x1, #3
  407cd4:	97ffe8af 	bl	401f90 <_ZdlPvm@plt>
  407cd8:	f946bbe0 	ldr	x0, [sp, #3440]
  407cdc:	b4000080 	cbz	x0, 407cec <_ZN5model5parseENSt7__cxx1112basic_stringIcSt11char_traitsIcESaIcEEE+0x16e8>
  407ce0:	f946c3e1 	ldr	x1, [sp, #3456]
  407ce4:	cb000021 	sub	x1, x1, x0
  407ce8:	97ffe8aa 	bl	401f90 <_ZdlPvm@plt>
  407cec:	f946aff4 	ldr	x20, [sp, #3416]
  407cf0:	f946b3fc 	ldr	x28, [sp, #3424]
  407cf4:	eb1c029f 	cmp	x20, x28
  407cf8:	540001a0 	b.eq	407d2c <_ZN5model5parseENSt7__cxx1112basic_stringIcSt11char_traitsIcESaIcEEE+0x1728>  // b.none
  407cfc:	d503201f 	nop
  407d00:	aa1403e1 	mov	x1, x20
  407d04:	f8410420 	ldr	x0, [x1], #16
  407d08:	eb01001f 	cmp	x0, x1
  407d0c:	54000080 	b.eq	407d1c <_ZN5model5parseENSt7__cxx1112basic_stringIcSt11char_traitsIcESaIcEEE+0x1718>  // b.none
  407d10:	f9400a81 	ldr	x1, [x20, #16]
  407d14:	91000421 	add	x1, x1, #0x1
  407d18:	97ffe89e 	bl	401f90 <_ZdlPvm@plt>
  407d1c:	91008294 	add	x20, x20, #0x20
  407d20:	eb14039f 	cmp	x28, x20
  407d24:	54fffee1 	b.ne	407d00 <_ZN5model5parseENSt7__cxx1112basic_stringIcSt11char_traitsIcESaIcEEE+0x16fc>  // b.any
  407d28:	f946affc 	ldr	x28, [sp, #3416]
  407d2c:	b40000bc 	cbz	x28, 407d40 <_ZN5model5parseENSt7__cxx1112basic_stringIcSt11char_traitsIcESaIcEEE+0x173c>
  407d30:	f946b7e1 	ldr	x1, [sp, #3432]
  407d34:	aa1c03e0 	mov	x0, x28
  407d38:	cb1c0021 	sub	x1, x1, x28
  407d3c:	97ffe895 	bl	401f90 <_ZdlPvm@plt>
  407d40:	f94697f4 	ldr	x20, [sp, #3368]
  407d44:	b40000d4 	cbz	x20, 407d5c <_ZN5model5parseENSt7__cxx1112basic_stringIcSt11char_traitsIcESaIcEEE+0x1758>
  407d48:	aa1403e0 	mov	x0, x20
  407d4c:	d2800201 	mov	x1, #0x10                  	// #16
  407d50:	f9400294 	ldr	x20, [x20]
  407d54:	97ffe88f 	bl	401f90 <_ZdlPvm@plt>
  407d58:	b5ffff94 	cbnz	x20, 407d48 <_ZN5model5parseENSt7__cxx1112basic_stringIcSt11char_traitsIcESaIcEEE+0x1744>
  407d5c:	f9468fe0 	ldr	x0, [sp, #3352]
  407d60:	52800001 	mov	w1, #0x0                   	// #0
  407d64:	f94693e2 	ldr	x2, [sp, #3360]
  407d68:	d37df042 	lsl	x2, x2, #3
  407d6c:	97ffe861 	bl	401ef0 <memset@plt>
  407d70:	f9468fe0 	ldr	x0, [sp, #3352]
  407d74:	913523e2 	add	x2, sp, #0xd48
  407d78:	f90697ff 	str	xzr, [sp, #3368]
  407d7c:	f9069bff 	str	xzr, [sp, #3376]
  407d80:	f94693e1 	ldr	x1, [sp, #3360]
  407d84:	eb02001f 	cmp	x0, x2
  407d88:	54000060 	b.eq	407d94 <_ZN5model5parseENSt7__cxx1112basic_stringIcSt11char_traitsIcESaIcEEE+0x1790>  // b.none
  407d8c:	d37df021 	lsl	x1, x1, #3
  407d90:	97ffe880 	bl	401f90 <_ZdlPvm@plt>
  407d94:	913383e0 	add	x0, sp, #0xce0
  407d98:	940008ca 	bl	40a0c0 <_ZNSt10_HashtableINSt7__cxx1112basic_stringIcSt11char_traitsIcESaIcEEESt4pairIKS5_iESaIS8_ENSt8__detail10_Select1stESt8equal_toIS5_ESt4hashIS5_ENSA_18_Mod_range_hashingENSA_20_Default_ranged_hashENSA_20_Prime_rehash_policyENSA_17_Hashtable_traitsILb1ELb0ELb1EEEE5clearEv>
  407d9c:	f94673e0 	ldr	x0, [sp, #3296]
  407da0:	f94677e1 	ldr	x1, [sp, #3304]
  407da4:	eb19001f 	cmp	x0, x25
  407da8:	54000060 	b.eq	407db4 <_ZN5model5parseENSt7__cxx1112basic_stringIcSt11char_traitsIcESaIcEEE+0x17b0>  // b.none
  407dac:	d37df021 	lsl	x1, x1, #3
  407db0:	97ffe878 	bl	401f90 <_ZdlPvm@plt>
  407db4:	f94663e0 	ldr	x0, [sp, #3264]
  407db8:	b4000080 	cbz	x0, 407dc8 <_ZN5model5parseENSt7__cxx1112basic_stringIcSt11char_traitsIcESaIcEEE+0x17c4>
  407dbc:	f9466be1 	ldr	x1, [sp, #3280]
  407dc0:	cb000021 	sub	x1, x1, x0
  407dc4:	97ffe873 	bl	401f90 <_ZdlPvm@plt>
  407dc8:	f94657f4 	ldr	x20, [sp, #3240]
  407dcc:	f9465bfc 	ldr	x28, [sp, #3248]
  407dd0:	eb1c029f 	cmp	x20, x28
  407dd4:	54000180 	b.eq	407e04 <_ZN5model5parseENSt7__cxx1112basic_stringIcSt11char_traitsIcESaIcEEE+0x1800>  // b.none
  407dd8:	aa1403e1 	mov	x1, x20
  407ddc:	f8410420 	ldr	x0, [x1], #16
  407de0:	eb01001f 	cmp	x0, x1
  407de4:	54000080 	b.eq	407df4 <_ZN5model5parseENSt7__cxx1112basic_stringIcSt11char_traitsIcESaIcEEE+0x17f0>  // b.none
  407de8:	f9400a81 	ldr	x1, [x20, #16]
  407dec:	91000421 	add	x1, x1, #0x1
  407df0:	97ffe868 	bl	401f90 <_ZdlPvm@plt>
  407df4:	91008294 	add	x20, x20, #0x20
  407df8:	eb14039f 	cmp	x28, x20
  407dfc:	54fffee1 	b.ne	407dd8 <_ZN5model5parseENSt7__cxx1112basic_stringIcSt11char_traitsIcESaIcEEE+0x17d4>  // b.any
  407e00:	f94657fc 	ldr	x28, [sp, #3240]
  407e04:	b40000bc 	cbz	x28, 407e18 <_ZN5model5parseENSt7__cxx1112basic_stringIcSt11char_traitsIcESaIcEEE+0x1814>
  407e08:	f9465fe1 	ldr	x1, [sp, #3256]
  407e0c:	aa1c03e0 	mov	x0, x28
  407e10:	cb1c0021 	sub	x1, x1, x28
  407e14:	97ffe85f 	bl	401f90 <_ZdlPvm@plt>
  407e18:	f94043f4 	ldr	x20, [sp, #128]
  407e1c:	17fffa3d 	b	406710 <_ZN5model5parseENSt7__cxx1112basic_stringIcSt11char_traitsIcESaIcEEE+0x10c>
  407e20:	9132a3f1 	add	x17, sp, #0xca8
  407e24:	d2800022 	mov	x2, #0x1                   	// #1
  407e28:	913383f2 	add	x18, sp, #0xce0
  407e2c:	b90ca3e2 	str	w2, [sp, #3232]
  407e30:	b90ca7f4 	str	w20, [sp, #3236]
  407e34:	1e2e1000 	fmov	s0, #1.000000000000000000e+00
  407e38:	a9007e3f 	stp	xzr, xzr, [x17]
  407e3c:	913423f4 	add	x20, sp, #0xd08
  407e40:	913523e3 	add	x3, sp, #0xd48
  407e44:	a9017e3f 	stp	xzr, xzr, [x17, #16]
  407e48:	911c83e0 	add	x0, sp, #0x720
  407e4c:	913283e1 	add	x1, sp, #0xca0
  407e50:	f90667ff 	str	xzr, [sp, #3272]
  407e54:	f9066bff 	str	xzr, [sp, #3280]
  407e58:	b90cdbff 	str	wzr, [sp, #3288]
  407e5c:	a9000a59 	stp	x25, x2, [x18]
  407e60:	a9017e5f 	stp	xzr, xzr, [x18, #16]
  407e64:	bd0d03e0 	str	s0, [sp, #3328]
  407e68:	a9007e9f 	stp	xzr, xzr, [x20]
  407e6c:	a9010a83 	stp	x3, x2, [x20, #16]
  407e70:	f90697ff 	str	xzr, [sp, #3368]
  407e74:	f9069bff 	str	xzr, [sp, #3376]
  407e78:	bd0d3be0 	str	s0, [sp, #3384]
  407e7c:	f906a3ff 	str	xzr, [sp, #3392]
  407e80:	f906a7ff 	str	xzr, [sp, #3400]
  407e84:	94000957 	bl	40a3e0 <_ZN7segmentC1ERKS_>
  407e88:	f9401ac1 	ldr	x1, [x22, #48]
  407e8c:	d2917460 	mov	x0, #0x8ba3                	// #35747
  407e90:	f9401ec3 	ldr	x3, [x22, #56]
  407e94:	f2b745c0 	movk	x0, #0xba2e, lsl #16
  407e98:	f2d45d00 	movk	x0, #0xa2e8, lsl #32
  407e9c:	9100c2dc 	add	x28, x22, #0x30
  407ea0:	cb010063 	sub	x3, x3, x1
  407ea4:	f2e5d160 	movk	x0, #0x2e8b, lsl #48
  407ea8:	9344fc63 	asr	x3, x3, #4
  407eac:	9b007c63 	mul	x3, x3, x0
  407eb0:	b4008363 	cbz	x3, 408f1c <_ZN5model5parseENSt7__cxx1112basic_stringIcSt11char_traitsIcESaIcEEE+0x2918>
  407eb4:	b94727e4 	ldr	w4, [sp, #1828]
  407eb8:	91001021 	add	x1, x1, #0x4
  407ebc:	d2800000 	mov	x0, #0x0                   	// #0
  407ec0:	14000005 	b	407ed4 <_ZN5model5parseENSt7__cxx1112basic_stringIcSt11char_traitsIcESaIcEEE+0x18d0>
  407ec4:	91000400 	add	x0, x0, #0x1
  407ec8:	9102c021 	add	x1, x1, #0xb0
  407ecc:	eb03001f 	cmp	x0, x3
  407ed0:	54008260 	b.eq	408f1c <_ZN5model5parseENSt7__cxx1112basic_stringIcSt11char_traitsIcESaIcEEE+0x2918>  // b.none
  407ed4:	b9400022 	ldr	w2, [x1]
  407ed8:	2a0003f4 	mov	w20, w0
  407edc:	6b04005f 	cmp	w2, w4
  407ee0:	54ffff21 	b.ne	407ec4 <_ZN5model5parseENSt7__cxx1112basic_stringIcSt11char_traitsIcESaIcEEE+0x18c0>  // b.any
  407ee4:	f943d7fb 	ldr	x27, [sp, #1960]
  407ee8:	b40000fb 	cbz	x27, 407f04 <_ZN5model5parseENSt7__cxx1112basic_stringIcSt11char_traitsIcESaIcEEE+0x1900>
  407eec:	d503201f 	nop
  407ef0:	aa1b03e0 	mov	x0, x27
  407ef4:	d2800201 	mov	x1, #0x10                  	// #16
  407ef8:	f940037b 	ldr	x27, [x27]
  407efc:	97ffe825 	bl	401f90 <_ZdlPvm@plt>
  407f00:	b5ffff9b 	cbnz	x27, 407ef0 <_ZN5model5parseENSt7__cxx1112basic_stringIcSt11char_traitsIcESaIcEEE+0x18ec>
  407f04:	f943cfe0 	ldr	x0, [sp, #1944]
  407f08:	52800001 	mov	w1, #0x0                   	// #0
  407f0c:	f943d3e2 	ldr	x2, [sp, #1952]
  407f10:	d37df042 	lsl	x2, x2, #3
  407f14:	97ffe7f7 	bl	401ef0 <memset@plt>
  407f18:	f943cfe0 	ldr	x0, [sp, #1944]
  407f1c:	911f23e2 	add	x2, sp, #0x7c8
  407f20:	f903d7ff 	str	xzr, [sp, #1960]
  407f24:	f903dbff 	str	xzr, [sp, #1968]
  407f28:	f943d3e1 	ldr	x1, [sp, #1952]
  407f2c:	eb02001f 	cmp	x0, x2
  407f30:	54000060 	b.eq	407f3c <_ZN5model5parseENSt7__cxx1112basic_stringIcSt11char_traitsIcESaIcEEE+0x1938>  // b.none
  407f34:	d37df021 	lsl	x1, x1, #3
  407f38:	97ffe816 	bl	401f90 <_ZdlPvm@plt>
  407f3c:	911d83e0 	add	x0, sp, #0x760
  407f40:	94000860 	bl	40a0c0 <_ZNSt10_HashtableINSt7__cxx1112basic_stringIcSt11char_traitsIcESaIcEEESt4pairIKS5_iESaIS8_ENSt8__detail10_Select1stESt8equal_toIS5_ESt4hashIS5_ENSA_18_Mod_range_hashingENSA_20_Default_ranged_hashENSA_20_Prime_rehash_policyENSA_17_Hashtable_traitsILb1ELb0ELb1EEEE5clearEv>
  407f44:	f943b3e0 	ldr	x0, [sp, #1888]
  407f48:	911e43e2 	add	x2, sp, #0x790
  407f4c:	f943b7e1 	ldr	x1, [sp, #1896]
  407f50:	eb02001f 	cmp	x0, x2
  407f54:	54000060 	b.eq	407f60 <_ZN5model5parseENSt7__cxx1112basic_stringIcSt11char_traitsIcESaIcEEE+0x195c>  // b.none
  407f58:	d37df021 	lsl	x1, x1, #3
  407f5c:	97ffe80d 	bl	401f90 <_ZdlPvm@plt>
  407f60:	f943a3e0 	ldr	x0, [sp, #1856]
  407f64:	b4000080 	cbz	x0, 407f74 <_ZN5model5parseENSt7__cxx1112basic_stringIcSt11char_traitsIcESaIcEEE+0x1970>
  407f68:	f943abe1 	ldr	x1, [sp, #1872]
  407f6c:	cb000021 	sub	x1, x1, x0
  407f70:	97ffe808 	bl	401f90 <_ZdlPvm@plt>
  407f74:	f94397e2 	ldr	x2, [sp, #1832]
  407f78:	f9439bfb 	ldr	x27, [sp, #1840]
  407f7c:	eb1b005f 	cmp	x2, x27
  407f80:	540001e0 	b.eq	407fbc <_ZN5model5parseENSt7__cxx1112basic_stringIcSt11char_traitsIcESaIcEEE+0x19b8>  // b.none
  407f84:	d503201f 	nop
  407f88:	aa0203e1 	mov	x1, x2
  407f8c:	f8410420 	ldr	x0, [x1], #16
  407f90:	eb01001f 	cmp	x0, x1
  407f94:	540000c0 	b.eq	407fac <_ZN5model5parseENSt7__cxx1112basic_stringIcSt11char_traitsIcESaIcEEE+0x19a8>  // b.none
  407f98:	f9400841 	ldr	x1, [x2, #16]
  407f9c:	f90033e2 	str	x2, [sp, #96]
  407fa0:	91000421 	add	x1, x1, #0x1
  407fa4:	97ffe7fb 	bl	401f90 <_ZdlPvm@plt>
  407fa8:	f94033e2 	ldr	x2, [sp, #96]
  407fac:	91008042 	add	x2, x2, #0x20
  407fb0:	eb02037f 	cmp	x27, x2
  407fb4:	54fffea1 	b.ne	407f88 <_ZN5model5parseENSt7__cxx1112basic_stringIcSt11char_traitsIcESaIcEEE+0x1984>  // b.any
  407fb8:	f94397fb 	ldr	x27, [sp, #1832]
  407fbc:	b40000bb 	cbz	x27, 407fd0 <_ZN5model5parseENSt7__cxx1112basic_stringIcSt11char_traitsIcESaIcEEE+0x19cc>
  407fc0:	f9439fe1 	ldr	x1, [sp, #1848]
  407fc4:	aa1b03e0 	mov	x0, x27
  407fc8:	cb1b0021 	sub	x1, x1, x27
  407fcc:	97ffe7f1 	bl	401f90 <_ZdlPvm@plt>
  407fd0:	3100069f 	cmn	w20, #0x1
  407fd4:	54007fa0 	b.eq	408fc8 <_ZN5model5parseENSt7__cxx1112basic_stringIcSt11char_traitsIcESaIcEEE+0x29c4>  // b.none
  407fd8:	913283e1 	add	x1, sp, #0xca0
  407fdc:	911f43e0 	add	x0, sp, #0x7d0
  407fe0:	94000900 	bl	40a3e0 <_ZN7segmentC1ERKS_>
  407fe4:	f9400783 	ldr	x3, [x28, #8]
  407fe8:	d2917460 	mov	x0, #0x8ba3                	// #35747
  407fec:	f9401ac1 	ldr	x1, [x22, #48]
  407ff0:	f2b745c0 	movk	x0, #0xba2e, lsl #16
  407ff4:	f2d45d00 	movk	x0, #0xa2e8, lsl #32
  407ff8:	cb010063 	sub	x3, x3, x1
  407ffc:	f2e5d160 	movk	x0, #0x2e8b, lsl #48
  408000:	9344fc63 	asr	x3, x3, #4
  408004:	9b007c63 	mul	x3, x3, x0
  408008:	b4007dc3 	cbz	x3, 408fc0 <_ZN5model5parseENSt7__cxx1112basic_stringIcSt11char_traitsIcESaIcEEE+0x29bc>
  40800c:	b947d7e5 	ldr	w5, [sp, #2004]
  408010:	91001021 	add	x1, x1, #0x4
  408014:	d2800000 	mov	x0, #0x0                   	// #0
  408018:	14000005 	b	40802c <_ZN5model5parseENSt7__cxx1112basic_stringIcSt11char_traitsIcESaIcEEE+0x1a28>
  40801c:	91000400 	add	x0, x0, #0x1
  408020:	9102c021 	add	x1, x1, #0xb0
  408024:	eb03001f 	cmp	x0, x3
  408028:	54007cc0 	b.eq	408fc0 <_ZN5model5parseENSt7__cxx1112basic_stringIcSt11char_traitsIcESaIcEEE+0x29bc>  // b.none
  40802c:	b9400022 	ldr	w2, [x1]
  408030:	2a0003e4 	mov	w4, w0
  408034:	6b05005f 	cmp	w2, w5
  408038:	54ffff21 	b.ne	40801c <_ZN5model5parseENSt7__cxx1112basic_stringIcSt11char_traitsIcESaIcEEE+0x1a18>  // b.any
  40803c:	911f43e0 	add	x0, sp, #0x7d0
  408040:	b90bf3e4 	str	w4, [sp, #3056]
  408044:	9400083f 	bl	40a140 <_ZN7segmentD1Ev>
  408048:	912fc3e1 	add	x1, sp, #0xbf0
  40804c:	9102c2c0 	add	x0, x22, #0xb0
  408050:	94000f74 	bl	40be20 <_ZNSt8__detail9_Map_baseIiSt4pairIKiiESaIS3_ENS_10_Select1stESt8equal_toIiESt4hashIiENS_18_Mod_range_hashingENS_20_Default_ranged_hashENS_20_Prime_rehash_policyENS_17_Hashtable_traitsILb0ELb0ELb1EEELb1EEixERS2_>
  408054:	aa0003e3 	mov	x3, x0
  408058:	913543f4 	add	x20, sp, #0xd50
  40805c:	f9401ac5 	ldr	x5, [x22, #48]
  408060:	91004287 	add	x7, x20, #0x10
  408064:	b9400064 	ldr	w4, [x3]
  408068:	52801606 	mov	w6, #0xb0                  	// #176
  40806c:	a9478be1 	ldp	x1, x2, [sp, #120]
  408070:	11000484 	add	w4, w4, #0x1
  408074:	b9000064 	str	w4, [x3]
  408078:	aa1403e0 	mov	x0, x20
  40807c:	f906abe7 	str	x7, [sp, #3408]
  408080:	b94bf3fc 	ldr	w28, [sp, #3056]
  408084:	8b020022 	add	x2, x1, x2
  408088:	9b26179c 	smaddl	x28, w28, w6, x5
  40808c:	97ffef6e 	bl	403e44 <_ZNSt7__cxx1112basic_stringIcSt11char_traitsIcESaIcEE12_M_constructIPcEEvT_S7_St20forward_iterator_tag.isra.0>
  408090:	aa1403e1 	mov	x1, x20
  408094:	aa1c03e0 	mov	x0, x28
  408098:	97fff616 	bl	4058f0 <_ZN7segment6insertENSt7__cxx1112basic_stringIcSt11char_traitsIcESaIcEEE>
  40809c:	f946abe0 	ldr	x0, [sp, #3408]
  4080a0:	91004281 	add	x1, x20, #0x10
  4080a4:	eb01001f 	cmp	x0, x1
  4080a8:	54000080 	b.eq	4080b8 <_ZN5model5parseENSt7__cxx1112basic_stringIcSt11char_traitsIcESaIcEEE+0x1ab4>  // b.none
  4080ac:	f946b3e1 	ldr	x1, [sp, #3424]
  4080b0:	91000421 	add	x1, x1, #0x1
  4080b4:	97ffe7b7 	bl	401f90 <_ZdlPvm@plt>
  4080b8:	f9403fe2 	ldr	x2, [sp, #120]
  4080bc:	f90043ff 	str	xzr, [sp, #128]
  4080c0:	913283e1 	add	x1, sp, #0xca0
  4080c4:	aa1403e0 	mov	x0, x20
  4080c8:	3900005f 	strb	wzr, [x2]
  4080cc:	940008c5 	bl	40a3e0 <_ZN7segmentC1ERKS_>
  4080d0:	a94a07e0 	ldp	x0, x1, [sp, #160]
  4080d4:	eb01001f 	cmp	x0, x1
  4080d8:	54008000 	b.eq	4090d8 <_ZN5model5parseENSt7__cxx1112basic_stringIcSt11char_traitsIcESaIcEEE+0x2ad4>  // b.none
  4080dc:	aa1403e1 	mov	x1, x20
  4080e0:	940008c0 	bl	40a3e0 <_ZN7segmentC1ERKS_>
  4080e4:	f94053e0 	ldr	x0, [sp, #160]
  4080e8:	9102c000 	add	x0, x0, #0xb0
  4080ec:	f90053e0 	str	x0, [sp, #160]
  4080f0:	f946effc 	ldr	x28, [sp, #3544]
  4080f4:	b40000dc 	cbz	x28, 40810c <_ZN5model5parseENSt7__cxx1112basic_stringIcSt11char_traitsIcESaIcEEE+0x1b08>
  4080f8:	aa1c03e0 	mov	x0, x28
  4080fc:	d2800201 	mov	x1, #0x10                  	// #16
  408100:	f940039c 	ldr	x28, [x28]
  408104:	97ffe7a3 	bl	401f90 <_ZdlPvm@plt>
  408108:	b5ffff9c 	cbnz	x28, 4080f8 <_ZN5model5parseENSt7__cxx1112basic_stringIcSt11char_traitsIcESaIcEEE+0x1af4>
  40810c:	f946e7e0 	ldr	x0, [sp, #3528]
  408110:	52800001 	mov	w1, #0x0                   	// #0
  408114:	f946ebe2 	ldr	x2, [sp, #3536]
  408118:	d37df042 	lsl	x2, x2, #3
  40811c:	97ffe775 	bl	401ef0 <memset@plt>
  408120:	f946e7e0 	ldr	x0, [sp, #3528]
  408124:	9102a282 	add	x2, x20, #0xa8
  408128:	f906efff 	str	xzr, [sp, #3544]
  40812c:	f906f3ff 	str	xzr, [sp, #3552]
  408130:	f946ebe1 	ldr	x1, [sp, #3536]
  408134:	eb02001f 	cmp	x0, x2
  408138:	54000060 	b.eq	408144 <_ZN5model5parseENSt7__cxx1112basic_stringIcSt11char_traitsIcESaIcEEE+0x1b40>  // b.none
  40813c:	d37df021 	lsl	x1, x1, #3
  408140:	97ffe794 	bl	401f90 <_ZdlPvm@plt>
  408144:	91010280 	add	x0, x20, #0x40
  408148:	940007de 	bl	40a0c0 <_ZNSt10_HashtableINSt7__cxx1112basic_stringIcSt11char_traitsIcESaIcEEESt4pairIKS5_iESaIS8_ENSt8__detail10_Select1stESt8equal_toIS5_ESt4hashIS5_ENSA_18_Mod_range_hashingENSA_20_Default_ranged_hashENSA_20_Prime_rehash_policyENSA_17_Hashtable_traitsILb1ELb0ELb1EEEE5clearEv>
  40814c:	f946cbe0 	ldr	x0, [sp, #3472]
  408150:	9101c294 	add	x20, x20, #0x70
  408154:	f946cfe1 	ldr	x1, [sp, #3480]
  408158:	eb14001f 	cmp	x0, x20
  40815c:	54000060 	b.eq	408168 <_ZN5model5parseENSt7__cxx1112basic_stringIcSt11char_traitsIcESaIcEEE+0x1b64>  // b.none
  408160:	d37df021 	lsl	x1, x1, #3
  408164:	97ffe78b 	bl	401f90 <_ZdlPvm@plt>
  408168:	f946bbe0 	ldr	x0, [sp, #3440]
  40816c:	b4000080 	cbz	x0, 40817c <_ZN5model5parseENSt7__cxx1112basic_stringIcSt11char_traitsIcESaIcEEE+0x1b78>
  408170:	f946c3e1 	ldr	x1, [sp, #3456]
  408174:	cb000021 	sub	x1, x1, x0
  408178:	97ffe786 	bl	401f90 <_ZdlPvm@plt>
  40817c:	f946aff4 	ldr	x20, [sp, #3416]
  408180:	f946b3fc 	ldr	x28, [sp, #3424]
  408184:	eb1c029f 	cmp	x20, x28
  408188:	540001a0 	b.eq	4081bc <_ZN5model5parseENSt7__cxx1112basic_stringIcSt11char_traitsIcESaIcEEE+0x1bb8>  // b.none
  40818c:	d503201f 	nop
  408190:	aa1403e1 	mov	x1, x20
  408194:	f8410420 	ldr	x0, [x1], #16
  408198:	eb01001f 	cmp	x0, x1
  40819c:	54000080 	b.eq	4081ac <_ZN5model5parseENSt7__cxx1112basic_stringIcSt11char_traitsIcESaIcEEE+0x1ba8>  // b.none
  4081a0:	f9400a81 	ldr	x1, [x20, #16]
  4081a4:	91000421 	add	x1, x1, #0x1
  4081a8:	97ffe77a 	bl	401f90 <_ZdlPvm@plt>
  4081ac:	91008294 	add	x20, x20, #0x20
  4081b0:	eb14039f 	cmp	x28, x20
  4081b4:	54fffee1 	b.ne	408190 <_ZN5model5parseENSt7__cxx1112basic_stringIcSt11char_traitsIcESaIcEEE+0x1b8c>  // b.any
  4081b8:	f946affc 	ldr	x28, [sp, #3416]
  4081bc:	b40000bc 	cbz	x28, 4081d0 <_ZN5model5parseENSt7__cxx1112basic_stringIcSt11char_traitsIcESaIcEEE+0x1bcc>
  4081c0:	f946b7e1 	ldr	x1, [sp, #3432]
  4081c4:	aa1c03e0 	mov	x0, x28
  4081c8:	cb1c0021 	sub	x1, x1, x28
  4081cc:	97ffe771 	bl	401f90 <_ZdlPvm@plt>
  4081d0:	f94697f4 	ldr	x20, [sp, #3368]
  4081d4:	b40000d4 	cbz	x20, 4081ec <_ZN5model5parseENSt7__cxx1112basic_stringIcSt11char_traitsIcESaIcEEE+0x1be8>
  4081d8:	aa1403e0 	mov	x0, x20
  4081dc:	d2800201 	mov	x1, #0x10                  	// #16
  4081e0:	f9400294 	ldr	x20, [x20]
  4081e4:	97ffe76b 	bl	401f90 <_ZdlPvm@plt>
  4081e8:	b5ffff94 	cbnz	x20, 4081d8 <_ZN5model5parseENSt7__cxx1112basic_stringIcSt11char_traitsIcESaIcEEE+0x1bd4>
  4081ec:	f9468fe0 	ldr	x0, [sp, #3352]
  4081f0:	52800001 	mov	w1, #0x0                   	// #0
  4081f4:	f94693e2 	ldr	x2, [sp, #3360]
  4081f8:	d37df042 	lsl	x2, x2, #3
  4081fc:	97ffe73d 	bl	401ef0 <memset@plt>
  408200:	f9468fe0 	ldr	x0, [sp, #3352]
  408204:	913523e2 	add	x2, sp, #0xd48
  408208:	f90697ff 	str	xzr, [sp, #3368]
  40820c:	f9069bff 	str	xzr, [sp, #3376]
  408210:	f94693e1 	ldr	x1, [sp, #3360]
  408214:	eb02001f 	cmp	x0, x2
  408218:	54000060 	b.eq	408224 <_ZN5model5parseENSt7__cxx1112basic_stringIcSt11char_traitsIcESaIcEEE+0x1c20>  // b.none
  40821c:	d37df021 	lsl	x1, x1, #3
  408220:	97ffe75c 	bl	401f90 <_ZdlPvm@plt>
  408224:	913383e0 	add	x0, sp, #0xce0
  408228:	940007a6 	bl	40a0c0 <_ZNSt10_HashtableINSt7__cxx1112basic_stringIcSt11char_traitsIcESaIcEEESt4pairIKS5_iESaIS8_ENSt8__detail10_Select1stESt8equal_toIS5_ESt4hashIS5_ENSA_18_Mod_range_hashingENSA_20_Default_ranged_hashENSA_20_Prime_rehash_policyENSA_17_Hashtable_traitsILb1ELb0ELb1EEEE5clearEv>
  40822c:	f94673e0 	ldr	x0, [sp, #3296]
  408230:	f94677e1 	ldr	x1, [sp, #3304]
  408234:	eb19001f 	cmp	x0, x25
  408238:	54000060 	b.eq	408244 <_ZN5model5parseENSt7__cxx1112basic_stringIcSt11char_traitsIcESaIcEEE+0x1c40>  // b.none
  40823c:	d37df021 	lsl	x1, x1, #3
  408240:	97ffe754 	bl	401f90 <_ZdlPvm@plt>
  408244:	f94663e0 	ldr	x0, [sp, #3264]
  408248:	b4000080 	cbz	x0, 408258 <_ZN5model5parseENSt7__cxx1112basic_stringIcSt11char_traitsIcESaIcEEE+0x1c54>
  40824c:	f9466be1 	ldr	x1, [sp, #3280]
  408250:	cb000021 	sub	x1, x1, x0
  408254:	97ffe74f 	bl	401f90 <_ZdlPvm@plt>
  408258:	f94657f4 	ldr	x20, [sp, #3240]
  40825c:	f9465bfc 	ldr	x28, [sp, #3248]
  408260:	eb1c029f 	cmp	x20, x28
  408264:	54000180 	b.eq	408294 <_ZN5model5parseENSt7__cxx1112basic_stringIcSt11char_traitsIcESaIcEEE+0x1c90>  // b.none
  408268:	aa1403e1 	mov	x1, x20
  40826c:	f8410420 	ldr	x0, [x1], #16
  408270:	eb01001f 	cmp	x0, x1
  408274:	54000080 	b.eq	408284 <_ZN5model5parseENSt7__cxx1112basic_stringIcSt11char_traitsIcESaIcEEE+0x1c80>  // b.none
  408278:	f9400a81 	ldr	x1, [x20, #16]
  40827c:	91000421 	add	x1, x1, #0x1
  408280:	97ffe744 	bl	401f90 <_ZdlPvm@plt>
  408284:	91008294 	add	x20, x20, #0x20
  408288:	eb14039f 	cmp	x28, x20
  40828c:	54fffee1 	b.ne	408268 <_ZN5model5parseENSt7__cxx1112basic_stringIcSt11char_traitsIcESaIcEEE+0x1c64>  // b.any
  408290:	f94657fc 	ldr	x28, [sp, #3240]
  408294:	b40000bc 	cbz	x28, 4082a8 <_ZN5model5parseENSt7__cxx1112basic_stringIcSt11char_traitsIcESaIcEEE+0x1ca4>
  408298:	f9465fe1 	ldr	x1, [sp, #3256]
  40829c:	aa1c03e0 	mov	x0, x28
  4082a0:	cb1c0021 	sub	x1, x1, x28
  4082a4:	97ffe73b 	bl	401f90 <_ZdlPvm@plt>
  4082a8:	f94043f4 	ldr	x20, [sp, #128]
  4082ac:	17fffaad 	b	406d60 <_ZN5model5parseENSt7__cxx1112basic_stringIcSt11char_traitsIcESaIcEEE+0x75c>
  4082b0:	9132a3fa 	add	x26, sp, #0xca8
  4082b4:	b90ca3fb 	str	w27, [sp, #3232]
  4082b8:	913383fb 	add	x27, sp, #0xce0
  4082bc:	b90ca7f4 	str	w20, [sp, #3236]
  4082c0:	913423fc 	add	x28, sp, #0xd08
  4082c4:	1e2e1000 	fmov	s0, #1.000000000000000000e+00
  4082c8:	a9007f5f 	stp	xzr, xzr, [x26]
  4082cc:	d2800023 	mov	x3, #0x1                   	// #1
  4082d0:	913523e4 	add	x4, sp, #0xd48
  4082d4:	a9017f5f 	stp	xzr, xzr, [x26, #16]
  4082d8:	911703e0 	add	x0, sp, #0x5c0
  4082dc:	913283e1 	add	x1, sp, #0xca0
  4082e0:	f90667ff 	str	xzr, [sp, #3272]
  4082e4:	f9066bff 	str	xzr, [sp, #3280]
  4082e8:	b90cdbff 	str	wzr, [sp, #3288]
  4082ec:	a9000f79 	stp	x25, x3, [x27]
  4082f0:	a9017f7f 	stp	xzr, xzr, [x27, #16]
  4082f4:	bd0d03e0 	str	s0, [sp, #3328]
  4082f8:	a9007f9f 	stp	xzr, xzr, [x28]
  4082fc:	a9010f84 	stp	x4, x3, [x28, #16]
  408300:	f90697ff 	str	xzr, [sp, #3368]
  408304:	f9069bff 	str	xzr, [sp, #3376]
  408308:	bd0d3be0 	str	s0, [sp, #3384]
  40830c:	f906a3ff 	str	xzr, [sp, #3392]
  408310:	f906a7ff 	str	xzr, [sp, #3400]
  408314:	94000833 	bl	40a3e0 <_ZN7segmentC1ERKS_>
  408318:	f94032c0 	ldr	x0, [x22, #96]
  40831c:	d2917461 	mov	x1, #0x8ba3                	// #35747
  408320:	f94036c3 	ldr	x3, [x22, #104]
  408324:	f2b745c1 	movk	x1, #0xba2e, lsl #16
  408328:	f2d45d01 	movk	x1, #0xa2e8, lsl #32
  40832c:	910182dc 	add	x28, x22, #0x60
  408330:	cb000063 	sub	x3, x3, x0
  408334:	f2e5d161 	movk	x1, #0x2e8b, lsl #48
  408338:	9344fc63 	asr	x3, x3, #4
  40833c:	9b017c63 	mul	x3, x3, x1
  408340:	b4006d63 	cbz	x3, 4090ec <_ZN5model5parseENSt7__cxx1112basic_stringIcSt11char_traitsIcESaIcEEE+0x2ae8>
  408344:	b945c7e4 	ldr	w4, [sp, #1476]
  408348:	91001000 	add	x0, x0, #0x4
  40834c:	d2800001 	mov	x1, #0x0                   	// #0
  408350:	14000005 	b	408364 <_ZN5model5parseENSt7__cxx1112basic_stringIcSt11char_traitsIcESaIcEEE+0x1d60>
  408354:	91000421 	add	x1, x1, #0x1
  408358:	9102c000 	add	x0, x0, #0xb0
  40835c:	eb03003f 	cmp	x1, x3
  408360:	54006c60 	b.eq	4090ec <_ZN5model5parseENSt7__cxx1112basic_stringIcSt11char_traitsIcESaIcEEE+0x2ae8>  // b.none
  408364:	b9400002 	ldr	w2, [x0]
  408368:	6b04005f 	cmp	w2, w4
  40836c:	54ffff41 	b.ne	408354 <_ZN5model5parseENSt7__cxx1112basic_stringIcSt11char_traitsIcESaIcEEE+0x1d50>  // b.any
  408370:	911703e0 	add	x0, sp, #0x5c0
  408374:	94000773 	bl	40a140 <_ZN7segmentD1Ev>
  408378:	9119c3e0 	add	x0, sp, #0x670
  40837c:	913283e1 	add	x1, sp, #0xca0
  408380:	94000818 	bl	40a3e0 <_ZN7segmentC1ERKS_>
  408384:	f9400783 	ldr	x3, [x28, #8]
  408388:	d2917460 	mov	x0, #0x8ba3                	// #35747
  40838c:	f94032c1 	ldr	x1, [x22, #96]
  408390:	f2b745c0 	movk	x0, #0xba2e, lsl #16
  408394:	f2d45d00 	movk	x0, #0xa2e8, lsl #32
  408398:	cb010063 	sub	x3, x3, x1
  40839c:	f2e5d160 	movk	x0, #0x2e8b, lsl #48
  4083a0:	9344fc63 	asr	x3, x3, #4
  4083a4:	9b007c63 	mul	x3, x3, x0
  4083a8:	b4006e23 	cbz	x3, 40916c <_ZN5model5parseENSt7__cxx1112basic_stringIcSt11char_traitsIcESaIcEEE+0x2b68>
  4083ac:	b94677e5 	ldr	w5, [sp, #1652]
  4083b0:	91001021 	add	x1, x1, #0x4
  4083b4:	d2800000 	mov	x0, #0x0                   	// #0
  4083b8:	14000005 	b	4083cc <_ZN5model5parseENSt7__cxx1112basic_stringIcSt11char_traitsIcESaIcEEE+0x1dc8>
  4083bc:	91000400 	add	x0, x0, #0x1
  4083c0:	9102c021 	add	x1, x1, #0xb0
  4083c4:	eb03001f 	cmp	x0, x3
  4083c8:	54006d20 	b.eq	40916c <_ZN5model5parseENSt7__cxx1112basic_stringIcSt11char_traitsIcESaIcEEE+0x2b68>  // b.none
  4083cc:	b9400022 	ldr	w2, [x1]
  4083d0:	2a0003e4 	mov	w4, w0
  4083d4:	6b05005f 	cmp	w2, w5
  4083d8:	54ffff21 	b.ne	4083bc <_ZN5model5parseENSt7__cxx1112basic_stringIcSt11char_traitsIcESaIcEEE+0x1db8>  // b.any
  4083dc:	9119c3e0 	add	x0, sp, #0x670
  4083e0:	b90bf3e4 	str	w4, [sp, #3056]
  4083e4:	94000757 	bl	40a140 <_ZN7segmentD1Ev>
  4083e8:	912fc3e1 	add	x1, sp, #0xbf0
  4083ec:	910482c0 	add	x0, x22, #0x120
  4083f0:	94000e8c 	bl	40be20 <_ZNSt8__detail9_Map_baseIiSt4pairIKiiESaIS3_ENS_10_Select1stESt8equal_toIiESt4hashIiENS_18_Mod_range_hashingENS_20_Default_ranged_hashENS_20_Prime_rehash_policyENS_17_Hashtable_traitsILb0ELb0ELb1EEELb1EEixERS2_>
  4083f4:	aa0003e3 	mov	x3, x0
  4083f8:	913543f4 	add	x20, sp, #0xd50
  4083fc:	f94032c5 	ldr	x5, [x22, #96]
  408400:	91004287 	add	x7, x20, #0x10
  408404:	b9400064 	ldr	w4, [x3]
  408408:	52801606 	mov	w6, #0xb0                  	// #176
  40840c:	a9478be1 	ldp	x1, x2, [sp, #120]
  408410:	11000484 	add	w4, w4, #0x1
  408414:	b9000064 	str	w4, [x3]
  408418:	aa1403e0 	mov	x0, x20
  40841c:	f906abe7 	str	x7, [sp, #3408]
  408420:	b94bf3fc 	ldr	w28, [sp, #3056]
  408424:	8b020022 	add	x2, x1, x2
  408428:	9b26179c 	smaddl	x28, w28, w6, x5
  40842c:	97ffee86 	bl	403e44 <_ZNSt7__cxx1112basic_stringIcSt11char_traitsIcESaIcEE12_M_constructIPcEEvT_S7_St20forward_iterator_tag.isra.0>
  408430:	aa1403e1 	mov	x1, x20
  408434:	aa1c03e0 	mov	x0, x28
  408438:	97fff52e 	bl	4058f0 <_ZN7segment6insertENSt7__cxx1112basic_stringIcSt11char_traitsIcESaIcEEE>
  40843c:	f946abe0 	ldr	x0, [sp, #3408]
  408440:	91004281 	add	x1, x20, #0x10
  408444:	eb01001f 	cmp	x0, x1
  408448:	54000080 	b.eq	408458 <_ZN5model5parseENSt7__cxx1112basic_stringIcSt11char_traitsIcESaIcEEE+0x1e54>  // b.none
  40844c:	f946b3e1 	ldr	x1, [sp, #3424]
  408450:	91000421 	add	x1, x1, #0x1
  408454:	97ffe6cf 	bl	401f90 <_ZdlPvm@plt>
  408458:	f9403fe2 	ldr	x2, [sp, #120]
  40845c:	f90043ff 	str	xzr, [sp, #128]
  408460:	913283e1 	add	x1, sp, #0xca0
  408464:	aa1403e0 	mov	x0, x20
  408468:	3900005f 	strb	wzr, [x2]
  40846c:	940007dd 	bl	40a3e0 <_ZN7segmentC1ERKS_>
  408470:	a94a07e0 	ldp	x0, x1, [sp, #160]
  408474:	eb01001f 	cmp	x0, x1
  408478:	540067e0 	b.eq	409174 <_ZN5model5parseENSt7__cxx1112basic_stringIcSt11char_traitsIcESaIcEEE+0x2b70>  // b.none
  40847c:	aa1403e1 	mov	x1, x20
  408480:	940007d8 	bl	40a3e0 <_ZN7segmentC1ERKS_>
  408484:	f94053e0 	ldr	x0, [sp, #160]
  408488:	9102c000 	add	x0, x0, #0xb0
  40848c:	f90053e0 	str	x0, [sp, #160]
  408490:	f946effc 	ldr	x28, [sp, #3544]
  408494:	b40000dc 	cbz	x28, 4084ac <_ZN5model5parseENSt7__cxx1112basic_stringIcSt11char_traitsIcESaIcEEE+0x1ea8>
  408498:	aa1c03e0 	mov	x0, x28
  40849c:	d2800201 	mov	x1, #0x10                  	// #16
  4084a0:	f940039c 	ldr	x28, [x28]
  4084a4:	97ffe6bb 	bl	401f90 <_ZdlPvm@plt>
  4084a8:	b5ffff9c 	cbnz	x28, 408498 <_ZN5model5parseENSt7__cxx1112basic_stringIcSt11char_traitsIcESaIcEEE+0x1e94>
  4084ac:	f946e7e0 	ldr	x0, [sp, #3528]
  4084b0:	52800001 	mov	w1, #0x0                   	// #0
  4084b4:	f946ebe2 	ldr	x2, [sp, #3536]
  4084b8:	d37df042 	lsl	x2, x2, #3
  4084bc:	97ffe68d 	bl	401ef0 <memset@plt>
  4084c0:	f946e7e0 	ldr	x0, [sp, #3528]
  4084c4:	9102a282 	add	x2, x20, #0xa8
  4084c8:	f906efff 	str	xzr, [sp, #3544]
  4084cc:	f906f3ff 	str	xzr, [sp, #3552]
  4084d0:	f946ebe1 	ldr	x1, [sp, #3536]
  4084d4:	eb02001f 	cmp	x0, x2
  4084d8:	54000060 	b.eq	4084e4 <_ZN5model5parseENSt7__cxx1112basic_stringIcSt11char_traitsIcESaIcEEE+0x1ee0>  // b.none
  4084dc:	d37df021 	lsl	x1, x1, #3
  4084e0:	97ffe6ac 	bl	401f90 <_ZdlPvm@plt>
  4084e4:	91010280 	add	x0, x20, #0x40
  4084e8:	940006f6 	bl	40a0c0 <_ZNSt10_HashtableINSt7__cxx1112basic_stringIcSt11char_traitsIcESaIcEEESt4pairIKS5_iESaIS8_ENSt8__detail10_Select1stESt8equal_toIS5_ESt4hashIS5_ENSA_18_Mod_range_hashingENSA_20_Default_ranged_hashENSA_20_Prime_rehash_policyENSA_17_Hashtable_traitsILb1ELb0ELb1EEEE5clearEv>
  4084ec:	f946cbe0 	ldr	x0, [sp, #3472]
  4084f0:	9101c294 	add	x20, x20, #0x70
  4084f4:	f946cfe1 	ldr	x1, [sp, #3480]
  4084f8:	eb14001f 	cmp	x0, x20
  4084fc:	54000060 	b.eq	408508 <_ZN5model5parseENSt7__cxx1112basic_stringIcSt11char_traitsIcESaIcEEE+0x1f04>  // b.none
  408500:	d37df021 	lsl	x1, x1, #3
  408504:	97ffe6a3 	bl	401f90 <_ZdlPvm@plt>
  408508:	f946bbe0 	ldr	x0, [sp, #3440]
  40850c:	b4000080 	cbz	x0, 40851c <_ZN5model5parseENSt7__cxx1112basic_stringIcSt11char_traitsIcESaIcEEE+0x1f18>
  408510:	f946c3e1 	ldr	x1, [sp, #3456]
  408514:	cb000021 	sub	x1, x1, x0
  408518:	97ffe69e 	bl	401f90 <_ZdlPvm@plt>
  40851c:	f946aff4 	ldr	x20, [sp, #3416]
  408520:	f946b3fc 	ldr	x28, [sp, #3424]
  408524:	eb1c029f 	cmp	x20, x28
  408528:	540001a0 	b.eq	40855c <_ZN5model5parseENSt7__cxx1112basic_stringIcSt11char_traitsIcESaIcEEE+0x1f58>  // b.none
  40852c:	d503201f 	nop
  408530:	aa1403e1 	mov	x1, x20
  408534:	f8410420 	ldr	x0, [x1], #16
  408538:	eb01001f 	cmp	x0, x1
  40853c:	54000080 	b.eq	40854c <_ZN5model5parseENSt7__cxx1112basic_stringIcSt11char_traitsIcESaIcEEE+0x1f48>  // b.none
  408540:	f9400a81 	ldr	x1, [x20, #16]
  408544:	91000421 	add	x1, x1, #0x1
  408548:	97ffe692 	bl	401f90 <_ZdlPvm@plt>
  40854c:	91008294 	add	x20, x20, #0x20
  408550:	eb14039f 	cmp	x28, x20
  408554:	54fffee1 	b.ne	408530 <_ZN5model5parseENSt7__cxx1112basic_stringIcSt11char_traitsIcESaIcEEE+0x1f2c>  // b.any
  408558:	f946affc 	ldr	x28, [sp, #3416]
  40855c:	b40000bc 	cbz	x28, 408570 <_ZN5model5parseENSt7__cxx1112basic_stringIcSt11char_traitsIcESaIcEEE+0x1f6c>
  408560:	f946b7e1 	ldr	x1, [sp, #3432]
  408564:	aa1c03e0 	mov	x0, x28
  408568:	cb1c0021 	sub	x1, x1, x28
  40856c:	97ffe689 	bl	401f90 <_ZdlPvm@plt>
  408570:	913283e0 	add	x0, sp, #0xca0
  408574:	940006f3 	bl	40a140 <_ZN7segmentD1Ev>
  408578:	f94043f4 	ldr	x20, [sp, #128]
  40857c:	17fff865 	b	406710 <_ZN5model5parseENSt7__cxx1112basic_stringIcSt11char_traitsIcESaIcEEE+0x10c>
  408580:	9132a3ee 	add	x14, sp, #0xca8
  408584:	913383ef 	add	x15, sp, #0xce0
  408588:	b90ca3fb 	str	w27, [sp, #3232]
  40858c:	913423f0 	add	x16, sp, #0xd08
  408590:	b90ca7f4 	str	w20, [sp, #3236]
  408594:	1e2e1000 	fmov	s0, #1.000000000000000000e+00
  408598:	a9007ddf 	stp	xzr, xzr, [x14]
  40859c:	d2800023 	mov	x3, #0x1                   	// #1
  4085a0:	913523e4 	add	x4, sp, #0xd48
  4085a4:	a9017ddf 	stp	xzr, xzr, [x14, #16]
  4085a8:	913283e0 	add	x0, sp, #0xca0
  4085ac:	aa0003e1 	mov	x1, x0
  4085b0:	f90667ff 	str	xzr, [sp, #3272]
  4085b4:	912203e0 	add	x0, sp, #0x880
  4085b8:	f9066bff 	str	xzr, [sp, #3280]
  4085bc:	b90cdbff 	str	wzr, [sp, #3288]
  4085c0:	a9000df9 	stp	x25, x3, [x15]
  4085c4:	a9017dff 	stp	xzr, xzr, [x15, #16]
  4085c8:	bd0d03e0 	str	s0, [sp, #3328]
  4085cc:	a9007e1f 	stp	xzr, xzr, [x16]
  4085d0:	a9010e04 	stp	x4, x3, [x16, #16]
  4085d4:	f90697ff 	str	xzr, [sp, #3368]
  4085d8:	f9069bff 	str	xzr, [sp, #3376]
  4085dc:	bd0d3be0 	str	s0, [sp, #3384]
  4085e0:	f906a3ff 	str	xzr, [sp, #3392]
  4085e4:	f906a7ff 	str	xzr, [sp, #3400]
  4085e8:	9400077e 	bl	40a3e0 <_ZN7segmentC1ERKS_>
  4085ec:	f94026c1 	ldr	x1, [x22, #72]
  4085f0:	d2917460 	mov	x0, #0x8ba3                	// #35747
  4085f4:	f9402ac3 	ldr	x3, [x22, #80]
  4085f8:	f2b745c0 	movk	x0, #0xba2e, lsl #16
  4085fc:	f2d45d00 	movk	x0, #0xa2e8, lsl #32
  408600:	910122dc 	add	x28, x22, #0x48
  408604:	cb010063 	sub	x3, x3, x1
  408608:	f2e5d160 	movk	x0, #0x2e8b, lsl #48
  40860c:	9344fc63 	asr	x3, x3, #4
  408610:	9b007c63 	mul	x3, x3, x0
  408614:	b4004963 	cbz	x3, 408f40 <_ZN5model5parseENSt7__cxx1112basic_stringIcSt11char_traitsIcESaIcEEE+0x293c>
  408618:	b94887e4 	ldr	w4, [sp, #2180]
  40861c:	91001021 	add	x1, x1, #0x4
  408620:	d2800000 	mov	x0, #0x0                   	// #0
  408624:	14000005 	b	408638 <_ZN5model5parseENSt7__cxx1112basic_stringIcSt11char_traitsIcESaIcEEE+0x2034>
  408628:	91000400 	add	x0, x0, #0x1
  40862c:	9102c021 	add	x1, x1, #0xb0
  408630:	eb03001f 	cmp	x0, x3
  408634:	54004860 	b.eq	408f40 <_ZN5model5parseENSt7__cxx1112basic_stringIcSt11char_traitsIcESaIcEEE+0x293c>  // b.none
  408638:	b9400022 	ldr	w2, [x1]
  40863c:	2a0003f4 	mov	w20, w0
  408640:	6b04005f 	cmp	w2, w4
  408644:	54ffff21 	b.ne	408628 <_ZN5model5parseENSt7__cxx1112basic_stringIcSt11char_traitsIcESaIcEEE+0x2024>  // b.any
  408648:	f94487fb 	ldr	x27, [sp, #2312]
  40864c:	b40000db 	cbz	x27, 408664 <_ZN5model5parseENSt7__cxx1112basic_stringIcSt11char_traitsIcESaIcEEE+0x2060>
  408650:	aa1b03e0 	mov	x0, x27
  408654:	d2800201 	mov	x1, #0x10                  	// #16
  408658:	f940037b 	ldr	x27, [x27]
  40865c:	97ffe64d 	bl	401f90 <_ZdlPvm@plt>
  408660:	b5ffff9b 	cbnz	x27, 408650 <_ZN5model5parseENSt7__cxx1112basic_stringIcSt11char_traitsIcESaIcEEE+0x204c>
  408664:	f9447fe0 	ldr	x0, [sp, #2296]
  408668:	52800001 	mov	w1, #0x0                   	// #0
  40866c:	f94483e2 	ldr	x2, [sp, #2304]
  408670:	d37df042 	lsl	x2, x2, #3
  408674:	97ffe61f 	bl	401ef0 <memset@plt>
  408678:	f94037e2 	ldr	x2, [sp, #104]
  40867c:	f90487ff 	str	xzr, [sp, #2312]
  408680:	f9447fe0 	ldr	x0, [sp, #2296]
  408684:	f9048bff 	str	xzr, [sp, #2320]
  408688:	f94483e1 	ldr	x1, [sp, #2304]
  40868c:	eb02001f 	cmp	x0, x2
  408690:	54000060 	b.eq	40869c <_ZN5model5parseENSt7__cxx1112basic_stringIcSt11char_traitsIcESaIcEEE+0x2098>  // b.none
  408694:	d37df021 	lsl	x1, x1, #3
  408698:	97ffe63e 	bl	401f90 <_ZdlPvm@plt>
  40869c:	912303e0 	add	x0, sp, #0x8c0
  4086a0:	94000688 	bl	40a0c0 <_ZNSt10_HashtableINSt7__cxx1112basic_stringIcSt11char_traitsIcESaIcEEESt4pairIKS5_iESaIS8_ENSt8__detail10_Select1stESt8equal_toIS5_ESt4hashIS5_ENSA_18_Mod_range_hashingENSA_20_Default_ranged_hashENSA_20_Prime_rehash_policyENSA_17_Hashtable_traitsILb1ELb0ELb1EEEE5clearEv>
  4086a4:	f94463e0 	ldr	x0, [sp, #2240]
  4086a8:	9123c3e2 	add	x2, sp, #0x8f0
  4086ac:	f94467e1 	ldr	x1, [sp, #2248]
  4086b0:	eb02001f 	cmp	x0, x2
  4086b4:	54000060 	b.eq	4086c0 <_ZN5model5parseENSt7__cxx1112basic_stringIcSt11char_traitsIcESaIcEEE+0x20bc>  // b.none
  4086b8:	d37df021 	lsl	x1, x1, #3
  4086bc:	97ffe635 	bl	401f90 <_ZdlPvm@plt>
  4086c0:	f94453e0 	ldr	x0, [sp, #2208]
  4086c4:	b4000080 	cbz	x0, 4086d4 <_ZN5model5parseENSt7__cxx1112basic_stringIcSt11char_traitsIcESaIcEEE+0x20d0>
  4086c8:	f9445be1 	ldr	x1, [sp, #2224]
  4086cc:	cb000021 	sub	x1, x1, x0
  4086d0:	97ffe630 	bl	401f90 <_ZdlPvm@plt>
  4086d4:	f94447e2 	ldr	x2, [sp, #2184]
  4086d8:	f9444bfb 	ldr	x27, [sp, #2192]
  4086dc:	eb1b005f 	cmp	x2, x27
  4086e0:	540001e0 	b.eq	40871c <_ZN5model5parseENSt7__cxx1112basic_stringIcSt11char_traitsIcESaIcEEE+0x2118>  // b.none
  4086e4:	d503201f 	nop
  4086e8:	aa0203e1 	mov	x1, x2
  4086ec:	f8410420 	ldr	x0, [x1], #16
  4086f0:	eb01001f 	cmp	x0, x1
  4086f4:	540000c0 	b.eq	40870c <_ZN5model5parseENSt7__cxx1112basic_stringIcSt11char_traitsIcESaIcEEE+0x2108>  // b.none
  4086f8:	f9400841 	ldr	x1, [x2, #16]
  4086fc:	f90033e2 	str	x2, [sp, #96]
  408700:	91000421 	add	x1, x1, #0x1
  408704:	97ffe623 	bl	401f90 <_ZdlPvm@plt>
  408708:	f94033e2 	ldr	x2, [sp, #96]
  40870c:	91008042 	add	x2, x2, #0x20
  408710:	eb02037f 	cmp	x27, x2
  408714:	54fffea1 	b.ne	4086e8 <_ZN5model5parseENSt7__cxx1112basic_stringIcSt11char_traitsIcESaIcEEE+0x20e4>  // b.any
  408718:	f94447fb 	ldr	x27, [sp, #2184]
  40871c:	b40000bb 	cbz	x27, 408730 <_ZN5model5parseENSt7__cxx1112basic_stringIcSt11char_traitsIcESaIcEEE+0x212c>
  408720:	f9444fe1 	ldr	x1, [sp, #2200]
  408724:	aa1b03e0 	mov	x0, x27
  408728:	cb1b0021 	sub	x1, x1, x27
  40872c:	97ffe619 	bl	401f90 <_ZdlPvm@plt>
  408730:	3100069f 	cmn	w20, #0x1
  408734:	54002600 	b.eq	408bf4 <_ZN5model5parseENSt7__cxx1112basic_stringIcSt11char_traitsIcESaIcEEE+0x25f0>  // b.none
  408738:	913283e1 	add	x1, sp, #0xca0
  40873c:	9124c3e0 	add	x0, sp, #0x930
  408740:	94000728 	bl	40a3e0 <_ZN7segmentC1ERKS_>
  408744:	f9400783 	ldr	x3, [x28, #8]
  408748:	d2917460 	mov	x0, #0x8ba3                	// #35747
  40874c:	f94026c1 	ldr	x1, [x22, #72]
  408750:	f2b745c0 	movk	x0, #0xba2e, lsl #16
  408754:	f2d45d00 	movk	x0, #0xa2e8, lsl #32
  408758:	cb010063 	sub	x3, x3, x1
  40875c:	f2e5d160 	movk	x0, #0x2e8b, lsl #48
  408760:	9344fc63 	asr	x3, x3, #4
  408764:	9b007c63 	mul	x3, x3, x0
  408768:	b4004fe3 	cbz	x3, 409164 <_ZN5model5parseENSt7__cxx1112basic_stringIcSt11char_traitsIcESaIcEEE+0x2b60>
  40876c:	b94937e5 	ldr	w5, [sp, #2356]
  408770:	91001021 	add	x1, x1, #0x4
  408774:	d2800000 	mov	x0, #0x0                   	// #0
  408778:	14000005 	b	40878c <_ZN5model5parseENSt7__cxx1112basic_stringIcSt11char_traitsIcESaIcEEE+0x2188>
  40877c:	91000400 	add	x0, x0, #0x1
  408780:	9102c021 	add	x1, x1, #0xb0
  408784:	eb03001f 	cmp	x0, x3
  408788:	54004ee0 	b.eq	409164 <_ZN5model5parseENSt7__cxx1112basic_stringIcSt11char_traitsIcESaIcEEE+0x2b60>  // b.none
  40878c:	b9400022 	ldr	w2, [x1]
  408790:	2a0003e4 	mov	w4, w0
  408794:	6b05005f 	cmp	w2, w5
  408798:	54ffff21 	b.ne	40877c <_ZN5model5parseENSt7__cxx1112basic_stringIcSt11char_traitsIcESaIcEEE+0x2178>  // b.any
  40879c:	9124c3e0 	add	x0, sp, #0x930
  4087a0:	b90bf3e4 	str	w4, [sp, #3056]
  4087a4:	94000667 	bl	40a140 <_ZN7segmentD1Ev>
  4087a8:	912fc3e1 	add	x1, sp, #0xbf0
  4087ac:	9103a2c0 	add	x0, x22, #0xe8
  4087b0:	94000d9c 	bl	40be20 <_ZNSt8__detail9_Map_baseIiSt4pairIKiiESaIS3_ENS_10_Select1stESt8equal_toIiESt4hashIiENS_18_Mod_range_hashingENS_20_Default_ranged_hashENS_20_Prime_rehash_policyENS_17_Hashtable_traitsILb0ELb0ELb1EEELb1EEixERS2_>
  4087b4:	aa0003e3 	mov	x3, x0
  4087b8:	913543f4 	add	x20, sp, #0xd50
  4087bc:	f94026c5 	ldr	x5, [x22, #72]
  4087c0:	91004287 	add	x7, x20, #0x10
  4087c4:	b9400064 	ldr	w4, [x3]
  4087c8:	52801606 	mov	w6, #0xb0                  	// #176
  4087cc:	a9478be1 	ldp	x1, x2, [sp, #120]
  4087d0:	11000484 	add	w4, w4, #0x1
  4087d4:	b9000064 	str	w4, [x3]
  4087d8:	aa1403e0 	mov	x0, x20
  4087dc:	f906abe7 	str	x7, [sp, #3408]
  4087e0:	b94bf3fc 	ldr	w28, [sp, #3056]
  4087e4:	8b020022 	add	x2, x1, x2
  4087e8:	9b26179c 	smaddl	x28, w28, w6, x5
  4087ec:	97ffed96 	bl	403e44 <_ZNSt7__cxx1112basic_stringIcSt11char_traitsIcESaIcEE12_M_constructIPcEEvT_S7_St20forward_iterator_tag.isra.0>
  4087f0:	aa1403e1 	mov	x1, x20
  4087f4:	aa1c03e0 	mov	x0, x28
  4087f8:	97fff43e 	bl	4058f0 <_ZN7segment6insertENSt7__cxx1112basic_stringIcSt11char_traitsIcESaIcEEE>
  4087fc:	14000119 	b	408c60 <_ZN5model5parseENSt7__cxx1112basic_stringIcSt11char_traitsIcESaIcEEE+0x265c>
  408800:	12800004 	mov	w4, #0xffffffff            	// #-1
  408804:	17fffa00 	b	407004 <_ZN5model5parseENSt7__cxx1112basic_stringIcSt11char_traitsIcESaIcEEE+0xa00>
  408808:	9132a3e8 	add	x8, sp, #0xca8
  40880c:	913383e9 	add	x9, sp, #0xce0
  408810:	b90ca3fb 	str	w27, [sp, #3232]
  408814:	913283f5 	add	x21, sp, #0xca0
  408818:	b90ca7f4 	str	w20, [sp, #3236]
  40881c:	913423ea 	add	x10, sp, #0xd08
  408820:	a9007d1f 	stp	xzr, xzr, [x8]
  408824:	d2800023 	mov	x3, #0x1                   	// #1
  408828:	9101c2a5 	add	x5, x21, #0x70
  40882c:	a9017d1f 	stp	xzr, xzr, [x8, #16]
  408830:	9102a2a4 	add	x4, x21, #0xa8
  408834:	aa1503e1 	mov	x1, x21
  408838:	f90667ff 	str	xzr, [sp, #3272]
  40883c:	912d03e0 	add	x0, sp, #0xb40
  408840:	f9066bff 	str	xzr, [sp, #3280]
  408844:	b90cdbff 	str	wzr, [sp, #3288]
  408848:	a9000d25 	stp	x5, x3, [x9]
  40884c:	a9017d3f 	stp	xzr, xzr, [x9, #16]
  408850:	bd0d03e0 	str	s0, [sp, #3328]
  408854:	a9007d5f 	stp	xzr, xzr, [x10]
  408858:	a9010d44 	stp	x4, x3, [x10, #16]
  40885c:	f90697ff 	str	xzr, [sp, #3368]
  408860:	f9069bff 	str	xzr, [sp, #3376]
  408864:	bd0d3be0 	str	s0, [sp, #3384]
  408868:	f906a3ff 	str	xzr, [sp, #3392]
  40886c:	f906a7ff 	str	xzr, [sp, #3400]
  408870:	940006dc 	bl	40a3e0 <_ZN7segmentC1ERKS_>
  408874:	f94026c0 	ldr	x0, [x22, #72]
  408878:	d2917461 	mov	x1, #0x8ba3                	// #35747
  40887c:	f9402ac3 	ldr	x3, [x22, #80]
  408880:	f2b745c1 	movk	x1, #0xba2e, lsl #16
  408884:	f2d45d01 	movk	x1, #0xa2e8, lsl #32
  408888:	910122dc 	add	x28, x22, #0x48
  40888c:	cb000063 	sub	x3, x3, x0
  408890:	f2e5d161 	movk	x1, #0x2e8b, lsl #48
  408894:	9344fc63 	asr	x3, x3, #4
  408898:	9b017c63 	mul	x3, x3, x1
  40889c:	b4004803 	cbz	x3, 40919c <_ZN5model5parseENSt7__cxx1112basic_stringIcSt11char_traitsIcESaIcEEE+0x2b98>
  4088a0:	b94b47e4 	ldr	w4, [sp, #2884]
  4088a4:	91001000 	add	x0, x0, #0x4
  4088a8:	d2800001 	mov	x1, #0x0                   	// #0
  4088ac:	14000005 	b	4088c0 <_ZN5model5parseENSt7__cxx1112basic_stringIcSt11char_traitsIcESaIcEEE+0x22bc>
  4088b0:	91000421 	add	x1, x1, #0x1
  4088b4:	9102c000 	add	x0, x0, #0xb0
  4088b8:	eb01007f 	cmp	x3, x1
  4088bc:	54004700 	b.eq	40919c <_ZN5model5parseENSt7__cxx1112basic_stringIcSt11char_traitsIcESaIcEEE+0x2b98>  // b.none
  4088c0:	b9400002 	ldr	w2, [x0]
  4088c4:	6b04005f 	cmp	w2, w4
  4088c8:	54ffff41 	b.ne	4088b0 <_ZN5model5parseENSt7__cxx1112basic_stringIcSt11char_traitsIcESaIcEEE+0x22ac>  // b.any
  4088cc:	912d03e0 	add	x0, sp, #0xb40
  4088d0:	912fc3f8 	add	x24, sp, #0xbf0
  4088d4:	9400061b 	bl	40a140 <_ZN7segmentD1Ev>
  4088d8:	aa1803e0 	mov	x0, x24
  4088dc:	aa1503e1 	mov	x1, x21
  4088e0:	940006c0 	bl	40a3e0 <_ZN7segmentC1ERKS_>
  4088e4:	f9400783 	ldr	x3, [x28, #8]
  4088e8:	d2917460 	mov	x0, #0x8ba3                	// #35747
  4088ec:	f94026c1 	ldr	x1, [x22, #72]
  4088f0:	f2b745c0 	movk	x0, #0xba2e, lsl #16
  4088f4:	f2d45d00 	movk	x0, #0xa2e8, lsl #32
  4088f8:	cb010063 	sub	x3, x3, x1
  4088fc:	f2e5d160 	movk	x0, #0x2e8b, lsl #48
  408900:	9344fc63 	asr	x3, x3, #4
  408904:	9b007c63 	mul	x3, x3, x0
  408908:	b4004863 	cbz	x3, 409214 <_ZN5model5parseENSt7__cxx1112basic_stringIcSt11char_traitsIcESaIcEEE+0x2c10>
  40890c:	b94bf7e5 	ldr	w5, [sp, #3060]
  408910:	91001021 	add	x1, x1, #0x4
  408914:	d2800000 	mov	x0, #0x0                   	// #0
  408918:	14000005 	b	40892c <_ZN5model5parseENSt7__cxx1112basic_stringIcSt11char_traitsIcESaIcEEE+0x2328>
  40891c:	91000400 	add	x0, x0, #0x1
  408920:	9102c021 	add	x1, x1, #0xb0
  408924:	eb00007f 	cmp	x3, x0
  408928:	54004760 	b.eq	409214 <_ZN5model5parseENSt7__cxx1112basic_stringIcSt11char_traitsIcESaIcEEE+0x2c10>  // b.none
  40892c:	b9400022 	ldr	w2, [x1]
  408930:	2a0003e4 	mov	w4, w0
  408934:	6b05005f 	cmp	w2, w5
  408938:	54ffff21 	b.ne	40891c <_ZN5model5parseENSt7__cxx1112basic_stringIcSt11char_traitsIcESaIcEEE+0x2318>  // b.any
  40893c:	aa1803e0 	mov	x0, x24
  408940:	b90b43e4 	str	w4, [sp, #2880]
  408944:	940005ff 	bl	40a140 <_ZN7segmentD1Ev>
  408948:	912d03e1 	add	x1, sp, #0xb40
  40894c:	9103a2c0 	add	x0, x22, #0xe8
  408950:	94000d34 	bl	40be20 <_ZNSt8__detail9_Map_baseIiSt4pairIKiiESaIS3_ENS_10_Select1stESt8equal_toIiESt4hashIiENS_18_Mod_range_hashingENS_20_Default_ranged_hashENS_20_Prime_rehash_policyENS_17_Hashtable_traitsILb0ELb0ELb1EEELb1EEixERS2_>
  408954:	aa0003e3 	mov	x3, x0
  408958:	913543f4 	add	x20, sp, #0xd50
  40895c:	f94026c5 	ldr	x5, [x22, #72]
  408960:	91004287 	add	x7, x20, #0x10
  408964:	b9400064 	ldr	w4, [x3]
  408968:	52801606 	mov	w6, #0xb0                  	// #176
  40896c:	a9478be1 	ldp	x1, x2, [sp, #120]
  408970:	11000484 	add	w4, w4, #0x1
  408974:	b9000064 	str	w4, [x3]
  408978:	aa1403e0 	mov	x0, x20
  40897c:	f906abe7 	str	x7, [sp, #3408]
  408980:	b94b43f3 	ldr	w19, [sp, #2880]
  408984:	8b020022 	add	x2, x1, x2
  408988:	9b261673 	smaddl	x19, w19, w6, x5
  40898c:	97ffed2e 	bl	403e44 <_ZNSt7__cxx1112basic_stringIcSt11char_traitsIcESaIcEE12_M_constructIPcEEvT_S7_St20forward_iterator_tag.isra.0>
  408990:	aa1403e1 	mov	x1, x20
  408994:	aa1303e0 	mov	x0, x19
  408998:	97fff3d6 	bl	4058f0 <_ZN7segment6insertENSt7__cxx1112basic_stringIcSt11char_traitsIcESaIcEEE>
  40899c:	f946abe0 	ldr	x0, [sp, #3408]
  4089a0:	91004281 	add	x1, x20, #0x10
  4089a4:	eb01001f 	cmp	x0, x1
  4089a8:	54000080 	b.eq	4089b8 <_ZN5model5parseENSt7__cxx1112basic_stringIcSt11char_traitsIcESaIcEEE+0x23b4>  // b.none
  4089ac:	f946b3e1 	ldr	x1, [sp, #3424]
  4089b0:	91000421 	add	x1, x1, #0x1
  4089b4:	97ffe577 	bl	401f90 <_ZdlPvm@plt>
  4089b8:	f9403fe2 	ldr	x2, [sp, #120]
  4089bc:	f90043ff 	str	xzr, [sp, #128]
  4089c0:	aa1503e1 	mov	x1, x21
  4089c4:	aa1403e0 	mov	x0, x20
  4089c8:	3900005f 	strb	wzr, [x2]
  4089cc:	94000685 	bl	40a3e0 <_ZN7segmentC1ERKS_>
  4089d0:	a94a07e0 	ldp	x0, x1, [sp, #160]
  4089d4:	eb01001f 	cmp	x0, x1
  4089d8:	54004220 	b.eq	40921c <_ZN5model5parseENSt7__cxx1112basic_stringIcSt11char_traitsIcESaIcEEE+0x2c18>  // b.none
  4089dc:	aa1403e1 	mov	x1, x20
  4089e0:	94000680 	bl	40a3e0 <_ZN7segmentC1ERKS_>
  4089e4:	f94053e0 	ldr	x0, [sp, #160]
  4089e8:	9102c000 	add	x0, x0, #0xb0
  4089ec:	f90053e0 	str	x0, [sp, #160]
  4089f0:	aa1403e0 	mov	x0, x20
  4089f4:	940005d3 	bl	40a140 <_ZN7segmentD1Ev>
  4089f8:	aa1503e0 	mov	x0, x21
  4089fc:	940005d1 	bl	40a140 <_ZN7segmentD1Ev>
  408a00:	17fff880 	b	406c00 <_ZN5model5parseENSt7__cxx1112basic_stringIcSt11char_traitsIcESaIcEEE+0x5fc>
  408a04:	aa0003e1 	mov	x1, x0
  408a08:	aa1703e2 	mov	x2, x23
  408a0c:	aa1303e0 	mov	x0, x19
  408a10:	94000a9c 	bl	40b480 <_ZNSt6vectorI2PTSaIS0_EE17_M_realloc_insertIJRS0_EEEvN9__gnu_cxx17__normal_iteratorIPS0_S2_EEDpOT_>
  408a14:	17fff8b7 	b	406cf0 <_ZN5model5parseENSt7__cxx1112basic_stringIcSt11char_traitsIcESaIcEEE+0x6ec>
  408a18:	9132a3eb 	add	x11, sp, #0xca8
  408a1c:	d2800022 	mov	x2, #0x1                   	// #1
  408a20:	913383ec 	add	x12, sp, #0xce0
  408a24:	b90ca3e2 	str	w2, [sp, #3232]
  408a28:	b90ca7f4 	str	w20, [sp, #3236]
  408a2c:	913283f5 	add	x21, sp, #0xca0
  408a30:	a9007d7f 	stp	xzr, xzr, [x11]
  408a34:	913423ed 	add	x13, sp, #0xd08
  408a38:	9101c2a4 	add	x4, x21, #0x70
  408a3c:	a9017d7f 	stp	xzr, xzr, [x11, #16]
  408a40:	9102a2a3 	add	x3, x21, #0xa8
  408a44:	aa1503e1 	mov	x1, x21
  408a48:	f90667ff 	str	xzr, [sp, #3272]
  408a4c:	912783e0 	add	x0, sp, #0x9e0
  408a50:	f9066bff 	str	xzr, [sp, #3280]
  408a54:	b90cdbff 	str	wzr, [sp, #3288]
  408a58:	a9000984 	stp	x4, x2, [x12]
  408a5c:	a9017d9f 	stp	xzr, xzr, [x12, #16]
  408a60:	bd0d03e0 	str	s0, [sp, #3328]
  408a64:	a9007dbf 	stp	xzr, xzr, [x13]
  408a68:	a90109a3 	stp	x3, x2, [x13, #16]
  408a6c:	f90697ff 	str	xzr, [sp, #3368]
  408a70:	f9069bff 	str	xzr, [sp, #3376]
  408a74:	bd0d3be0 	str	s0, [sp, #3384]
  408a78:	f906a3ff 	str	xzr, [sp, #3392]
  408a7c:	f906a7ff 	str	xzr, [sp, #3400]
  408a80:	94000658 	bl	40a3e0 <_ZN7segmentC1ERKS_>
  408a84:	f9401ac0 	ldr	x0, [x22, #48]
  408a88:	d2917461 	mov	x1, #0x8ba3                	// #35747
  408a8c:	f9401ec3 	ldr	x3, [x22, #56]
  408a90:	f2b745c1 	movk	x1, #0xba2e, lsl #16
  408a94:	f2d45d01 	movk	x1, #0xa2e8, lsl #32
  408a98:	9100c2dc 	add	x28, x22, #0x30
  408a9c:	cb000063 	sub	x3, x3, x0
  408aa0:	f2e5d161 	movk	x1, #0x2e8b, lsl #48
  408aa4:	9344fc63 	asr	x3, x3, #4
  408aa8:	9b017c63 	mul	x3, x3, x1
  408aac:	b4003cc3 	cbz	x3, 409244 <_ZN5model5parseENSt7__cxx1112basic_stringIcSt11char_traitsIcESaIcEEE+0x2c40>
  408ab0:	b949e7e4 	ldr	w4, [sp, #2532]
  408ab4:	91001000 	add	x0, x0, #0x4
  408ab8:	d2800001 	mov	x1, #0x0                   	// #0
  408abc:	14000005 	b	408ad0 <_ZN5model5parseENSt7__cxx1112basic_stringIcSt11char_traitsIcESaIcEEE+0x24cc>
  408ac0:	91000421 	add	x1, x1, #0x1
  408ac4:	9102c000 	add	x0, x0, #0xb0
  408ac8:	eb01007f 	cmp	x3, x1
  408acc:	54003bc0 	b.eq	409244 <_ZN5model5parseENSt7__cxx1112basic_stringIcSt11char_traitsIcESaIcEEE+0x2c40>  // b.none
  408ad0:	b9400002 	ldr	w2, [x0]
  408ad4:	6b04005f 	cmp	w2, w4
  408ad8:	54ffff41 	b.ne	408ac0 <_ZN5model5parseENSt7__cxx1112basic_stringIcSt11char_traitsIcESaIcEEE+0x24bc>  // b.any
  408adc:	912783e0 	add	x0, sp, #0x9e0
  408ae0:	94000598 	bl	40a140 <_ZN7segmentD1Ev>
  408ae4:	912a43e0 	add	x0, sp, #0xa90
  408ae8:	aa1503e1 	mov	x1, x21
  408aec:	9400063d 	bl	40a3e0 <_ZN7segmentC1ERKS_>
  408af0:	f9400783 	ldr	x3, [x28, #8]
  408af4:	d2917460 	mov	x0, #0x8ba3                	// #35747
  408af8:	f9401ac1 	ldr	x1, [x22, #48]
  408afc:	f2b745c0 	movk	x0, #0xba2e, lsl #16
  408b00:	f2d45d00 	movk	x0, #0xa2e8, lsl #32
  408b04:	cb010063 	sub	x3, x3, x1
  408b08:	f2e5d160 	movk	x0, #0x2e8b, lsl #48
  408b0c:	9344fc63 	asr	x3, x3, #4
  408b10:	9b007c63 	mul	x3, x3, x0
  408b14:	b4003d43 	cbz	x3, 4092bc <_ZN5model5parseENSt7__cxx1112basic_stringIcSt11char_traitsIcESaIcEEE+0x2cb8>
  408b18:	b94a97e5 	ldr	w5, [sp, #2708]
  408b1c:	91001021 	add	x1, x1, #0x4
  408b20:	d2800000 	mov	x0, #0x0                   	// #0
  408b24:	14000005 	b	408b38 <_ZN5model5parseENSt7__cxx1112basic_stringIcSt11char_traitsIcESaIcEEE+0x2534>
  408b28:	91000400 	add	x0, x0, #0x1
  408b2c:	9102c021 	add	x1, x1, #0xb0
  408b30:	eb00007f 	cmp	x3, x0
  408b34:	54003c40 	b.eq	4092bc <_ZN5model5parseENSt7__cxx1112basic_stringIcSt11char_traitsIcESaIcEEE+0x2cb8>  // b.none
  408b38:	b9400022 	ldr	w2, [x1]
  408b3c:	2a0003e4 	mov	w4, w0
  408b40:	6b05005f 	cmp	w2, w5
  408b44:	54ffff21 	b.ne	408b28 <_ZN5model5parseENSt7__cxx1112basic_stringIcSt11char_traitsIcESaIcEEE+0x2524>  // b.any
  408b48:	912a43e0 	add	x0, sp, #0xa90
  408b4c:	b90bf3e4 	str	w4, [sp, #3056]
  408b50:	9400057c 	bl	40a140 <_ZN7segmentD1Ev>
  408b54:	912fc3e1 	add	x1, sp, #0xbf0
  408b58:	9102c2c0 	add	x0, x22, #0xb0
  408b5c:	94000cb1 	bl	40be20 <_ZNSt8__detail9_Map_baseIiSt4pairIKiiESaIS3_ENS_10_Select1stESt8equal_toIiESt4hashIiENS_18_Mod_range_hashingENS_20_Default_ranged_hashENS_20_Prime_rehash_policyENS_17_Hashtable_traitsILb0ELb0ELb1EEELb1EEixERS2_>
  408b60:	aa0003e3 	mov	x3, x0
  408b64:	913543f4 	add	x20, sp, #0xd50
  408b68:	f9401ac5 	ldr	x5, [x22, #48]
  408b6c:	91004287 	add	x7, x20, #0x10
  408b70:	b9400064 	ldr	w4, [x3]
  408b74:	52801606 	mov	w6, #0xb0                  	// #176
  408b78:	a9478be1 	ldp	x1, x2, [sp, #120]
  408b7c:	11000484 	add	w4, w4, #0x1
  408b80:	b9000064 	str	w4, [x3]
  408b84:	aa1403e0 	mov	x0, x20
  408b88:	f906abe7 	str	x7, [sp, #3408]
  408b8c:	b94bf3f3 	ldr	w19, [sp, #3056]
  408b90:	8b020022 	add	x2, x1, x2
  408b94:	9b261673 	smaddl	x19, w19, w6, x5
  408b98:	97ffecab 	bl	403e44 <_ZNSt7__cxx1112basic_stringIcSt11char_traitsIcESaIcEE12_M_constructIPcEEvT_S7_St20forward_iterator_tag.isra.0>
  408b9c:	aa1403e1 	mov	x1, x20
  408ba0:	aa1303e0 	mov	x0, x19
  408ba4:	97fff353 	bl	4058f0 <_ZN7segment6insertENSt7__cxx1112basic_stringIcSt11char_traitsIcESaIcEEE>
  408ba8:	f946abe0 	ldr	x0, [sp, #3408]
  408bac:	91004281 	add	x1, x20, #0x10
  408bb0:	eb01001f 	cmp	x0, x1
  408bb4:	54000080 	b.eq	408bc4 <_ZN5model5parseENSt7__cxx1112basic_stringIcSt11char_traitsIcESaIcEEE+0x25c0>  // b.none
  408bb8:	f946b3e1 	ldr	x1, [sp, #3424]
  408bbc:	91000421 	add	x1, x1, #0x1
  408bc0:	97ffe4f4 	bl	401f90 <_ZdlPvm@plt>
  408bc4:	f9403fe2 	ldr	x2, [sp, #120]
  408bc8:	f90043ff 	str	xzr, [sp, #128]
  408bcc:	aa1503e1 	mov	x1, x21
  408bd0:	aa1403e0 	mov	x0, x20
  408bd4:	3900005f 	strb	wzr, [x2]
  408bd8:	94000602 	bl	40a3e0 <_ZN7segmentC1ERKS_>
  408bdc:	a94a07e0 	ldp	x0, x1, [sp, #160]
  408be0:	eb01001f 	cmp	x0, x1
  408be4:	54003700 	b.eq	4092c4 <_ZN5model5parseENSt7__cxx1112basic_stringIcSt11char_traitsIcESaIcEEE+0x2cc0>  // b.none
  408be8:	aa1403e1 	mov	x1, x20
  408bec:	940005fd 	bl	40a3e0 <_ZN7segmentC1ERKS_>
  408bf0:	17ffff7d 	b	4089e4 <_ZN5model5parseENSt7__cxx1112basic_stringIcSt11char_traitsIcESaIcEEE+0x23e0>
  408bf4:	b9400ac2 	ldr	w2, [x22, #8]
  408bf8:	aa1c03e0 	mov	x0, x28
  408bfc:	913283e1 	add	x1, sp, #0xca0
  408c00:	11000442 	add	w2, w2, #0x1
  408c04:	b9000ac2 	str	w2, [x22, #8]
  408c08:	b90bf3e2 	str	w2, [sp, #3056]
  408c0c:	940008c9 	bl	40af30 <_ZNSt6vectorI7segmentSaIS0_EE12emplace_backIJRS0_EEEvDpOT_>
  408c10:	912fc3e1 	add	x1, sp, #0xbf0
  408c14:	9103a2c0 	add	x0, x22, #0xe8
  408c18:	94000c82 	bl	40be20 <_ZNSt8__detail9_Map_baseIiSt4pairIKiiESaIS3_ENS_10_Select1stESt8equal_toIiESt4hashIiENS_18_Mod_range_hashingENS_20_Default_ranged_hashENS_20_Prime_rehash_policyENS_17_Hashtable_traitsILb0ELb0ELb1EEELb1EEixERS2_>
  408c1c:	52800021 	mov	w1, #0x1                   	// #1
  408c20:	913543f4 	add	x20, sp, #0xd50
  408c24:	f94026c3 	ldr	x3, [x22, #72]
  408c28:	91004285 	add	x5, x20, #0x10
  408c2c:	f94043e2 	ldr	x2, [sp, #128]
  408c30:	b9000001 	str	w1, [x0]
  408c34:	f9403fe1 	ldr	x1, [sp, #120]
  408c38:	52801604 	mov	w4, #0xb0                  	// #176
  408c3c:	b94bf3fc 	ldr	w28, [sp, #3056]
  408c40:	aa1403e0 	mov	x0, x20
  408c44:	8b020022 	add	x2, x1, x2
  408c48:	f906abe5 	str	x5, [sp, #3408]
  408c4c:	9b240f9c 	smaddl	x28, w28, w4, x3
  408c50:	97ffec7d 	bl	403e44 <_ZNSt7__cxx1112basic_stringIcSt11char_traitsIcESaIcEE12_M_constructIPcEEvT_S7_St20forward_iterator_tag.isra.0>
  408c54:	aa1403e1 	mov	x1, x20
  408c58:	aa1c03e0 	mov	x0, x28
  408c5c:	97fff325 	bl	4058f0 <_ZN7segment6insertENSt7__cxx1112basic_stringIcSt11char_traitsIcESaIcEEE>
  408c60:	f946abe0 	ldr	x0, [sp, #3408]
  408c64:	91004281 	add	x1, x20, #0x10
  408c68:	eb01001f 	cmp	x0, x1
  408c6c:	54000080 	b.eq	408c7c <_ZN5model5parseENSt7__cxx1112basic_stringIcSt11char_traitsIcESaIcEEE+0x2678>  // b.none
  408c70:	f946b3e1 	ldr	x1, [sp, #3424]
  408c74:	91000421 	add	x1, x1, #0x1
  408c78:	97ffe4c6 	bl	401f90 <_ZdlPvm@plt>
  408c7c:	f9403fe2 	ldr	x2, [sp, #120]
  408c80:	f90043ff 	str	xzr, [sp, #128]
  408c84:	913283e1 	add	x1, sp, #0xca0
  408c88:	aa1403e0 	mov	x0, x20
  408c8c:	3900005f 	strb	wzr, [x2]
  408c90:	940005d4 	bl	40a3e0 <_ZN7segmentC1ERKS_>
  408c94:	a94a07e0 	ldp	x0, x1, [sp, #160]
  408c98:	eb01001f 	cmp	x0, x1
  408c9c:	54002760 	b.eq	409188 <_ZN5model5parseENSt7__cxx1112basic_stringIcSt11char_traitsIcESaIcEEE+0x2b84>  // b.none
  408ca0:	aa1403e1 	mov	x1, x20
  408ca4:	940005cf 	bl	40a3e0 <_ZN7segmentC1ERKS_>
  408ca8:	f94053e0 	ldr	x0, [sp, #160]
  408cac:	9102c000 	add	x0, x0, #0xb0
  408cb0:	f90053e0 	str	x0, [sp, #160]
  408cb4:	f946effc 	ldr	x28, [sp, #3544]
  408cb8:	b40000fc 	cbz	x28, 408cd4 <_ZN5model5parseENSt7__cxx1112basic_stringIcSt11char_traitsIcESaIcEEE+0x26d0>
  408cbc:	d503201f 	nop
  408cc0:	aa1c03e0 	mov	x0, x28
  408cc4:	d2800201 	mov	x1, #0x10                  	// #16
  408cc8:	f940039c 	ldr	x28, [x28]
  408ccc:	97ffe4b1 	bl	401f90 <_ZdlPvm@plt>
  408cd0:	b5ffff9c 	cbnz	x28, 408cc0 <_ZN5model5parseENSt7__cxx1112basic_stringIcSt11char_traitsIcESaIcEEE+0x26bc>
  408cd4:	f946e7e0 	ldr	x0, [sp, #3528]
  408cd8:	52800001 	mov	w1, #0x0                   	// #0
  408cdc:	f946ebe2 	ldr	x2, [sp, #3536]
  408ce0:	d37df042 	lsl	x2, x2, #3
  408ce4:	97ffe483 	bl	401ef0 <memset@plt>
  408ce8:	f946e7e0 	ldr	x0, [sp, #3528]
  408cec:	9102a282 	add	x2, x20, #0xa8
  408cf0:	f906efff 	str	xzr, [sp, #3544]
  408cf4:	f906f3ff 	str	xzr, [sp, #3552]
  408cf8:	f946ebe1 	ldr	x1, [sp, #3536]
  408cfc:	eb02001f 	cmp	x0, x2
  408d00:	54000060 	b.eq	408d0c <_ZN5model5parseENSt7__cxx1112basic_stringIcSt11char_traitsIcESaIcEEE+0x2708>  // b.none
  408d04:	d37df021 	lsl	x1, x1, #3
  408d08:	97ffe4a2 	bl	401f90 <_ZdlPvm@plt>
  408d0c:	91010280 	add	x0, x20, #0x40
  408d10:	940004ec 	bl	40a0c0 <_ZNSt10_HashtableINSt7__cxx1112basic_stringIcSt11char_traitsIcESaIcEEESt4pairIKS5_iESaIS8_ENSt8__detail10_Select1stESt8equal_toIS5_ESt4hashIS5_ENSA_18_Mod_range_hashingENSA_20_Default_ranged_hashENSA_20_Prime_rehash_policyENSA_17_Hashtable_traitsILb1ELb0ELb1EEEE5clearEv>
  408d14:	f946cbe0 	ldr	x0, [sp, #3472]
  408d18:	9101c294 	add	x20, x20, #0x70
  408d1c:	f946cfe1 	ldr	x1, [sp, #3480]
  408d20:	eb14001f 	cmp	x0, x20
  408d24:	54000060 	b.eq	408d30 <_ZN5model5parseENSt7__cxx1112basic_stringIcSt11char_traitsIcESaIcEEE+0x272c>  // b.none
  408d28:	d37df021 	lsl	x1, x1, #3
  408d2c:	97ffe499 	bl	401f90 <_ZdlPvm@plt>
  408d30:	f946bbe0 	ldr	x0, [sp, #3440]
  408d34:	b4000080 	cbz	x0, 408d44 <_ZN5model5parseENSt7__cxx1112basic_stringIcSt11char_traitsIcESaIcEEE+0x2740>
  408d38:	f946c3e1 	ldr	x1, [sp, #3456]
  408d3c:	cb000021 	sub	x1, x1, x0
  408d40:	97ffe494 	bl	401f90 <_ZdlPvm@plt>
  408d44:	f946aff4 	ldr	x20, [sp, #3416]
  408d48:	f946b3fc 	ldr	x28, [sp, #3424]
  408d4c:	eb1c029f 	cmp	x20, x28
  408d50:	540001a0 	b.eq	408d84 <_ZN5model5parseENSt7__cxx1112basic_stringIcSt11char_traitsIcESaIcEEE+0x2780>  // b.none
  408d54:	d503201f 	nop
  408d58:	aa1403e1 	mov	x1, x20
  408d5c:	f8410420 	ldr	x0, [x1], #16
  408d60:	eb01001f 	cmp	x0, x1
  408d64:	54000080 	b.eq	408d74 <_ZN5model5parseENSt7__cxx1112basic_stringIcSt11char_traitsIcESaIcEEE+0x2770>  // b.none
  408d68:	f9400a81 	ldr	x1, [x20, #16]
  408d6c:	91000421 	add	x1, x1, #0x1
  408d70:	97ffe488 	bl	401f90 <_ZdlPvm@plt>
  408d74:	91008294 	add	x20, x20, #0x20
  408d78:	eb14039f 	cmp	x28, x20
  408d7c:	54fffee1 	b.ne	408d58 <_ZN5model5parseENSt7__cxx1112basic_stringIcSt11char_traitsIcESaIcEEE+0x2754>  // b.any
  408d80:	f946affc 	ldr	x28, [sp, #3416]
  408d84:	b40000bc 	cbz	x28, 408d98 <_ZN5model5parseENSt7__cxx1112basic_stringIcSt11char_traitsIcESaIcEEE+0x2794>
  408d88:	f946b7e1 	ldr	x1, [sp, #3432]
  408d8c:	aa1c03e0 	mov	x0, x28
  408d90:	cb1c0021 	sub	x1, x1, x28
  408d94:	97ffe47f 	bl	401f90 <_ZdlPvm@plt>
  408d98:	f94697f4 	ldr	x20, [sp, #3368]
  408d9c:	b40000d4 	cbz	x20, 408db4 <_ZN5model5parseENSt7__cxx1112basic_stringIcSt11char_traitsIcESaIcEEE+0x27b0>
  408da0:	aa1403e0 	mov	x0, x20
  408da4:	d2800201 	mov	x1, #0x10                  	// #16
  408da8:	f9400294 	ldr	x20, [x20]
  408dac:	97ffe479 	bl	401f90 <_ZdlPvm@plt>
  408db0:	b5ffff94 	cbnz	x20, 408da0 <_ZN5model5parseENSt7__cxx1112basic_stringIcSt11char_traitsIcESaIcEEE+0x279c>
  408db4:	f9468fe0 	ldr	x0, [sp, #3352]
  408db8:	52800001 	mov	w1, #0x0                   	// #0
  408dbc:	f94693e2 	ldr	x2, [sp, #3360]
  408dc0:	d37df042 	lsl	x2, x2, #3
  408dc4:	97ffe44b 	bl	401ef0 <memset@plt>
  408dc8:	f9468fe0 	ldr	x0, [sp, #3352]
  408dcc:	913523e2 	add	x2, sp, #0xd48
  408dd0:	f90697ff 	str	xzr, [sp, #3368]
  408dd4:	f9069bff 	str	xzr, [sp, #3376]
  408dd8:	f94693e1 	ldr	x1, [sp, #3360]
  408ddc:	eb02001f 	cmp	x0, x2
  408de0:	54000060 	b.eq	408dec <_ZN5model5parseENSt7__cxx1112basic_stringIcSt11char_traitsIcESaIcEEE+0x27e8>  // b.none
  408de4:	d37df021 	lsl	x1, x1, #3
  408de8:	97ffe46a 	bl	401f90 <_ZdlPvm@plt>
  408dec:	913383e0 	add	x0, sp, #0xce0
  408df0:	940004b4 	bl	40a0c0 <_ZNSt10_HashtableINSt7__cxx1112basic_stringIcSt11char_traitsIcESaIcEEESt4pairIKS5_iESaIS8_ENSt8__detail10_Select1stESt8equal_toIS5_ESt4hashIS5_ENSA_18_Mod_range_hashingENSA_20_Default_ranged_hashENSA_20_Prime_rehash_policyENSA_17_Hashtable_traitsILb1ELb0ELb1EEEE5clearEv>
  408df4:	f94673e0 	ldr	x0, [sp, #3296]
  408df8:	f94677e1 	ldr	x1, [sp, #3304]
  408dfc:	eb19001f 	cmp	x0, x25
  408e00:	54000060 	b.eq	408e0c <_ZN5model5parseENSt7__cxx1112basic_stringIcSt11char_traitsIcESaIcEEE+0x2808>  // b.none
  408e04:	d37df021 	lsl	x1, x1, #3
  408e08:	97ffe462 	bl	401f90 <_ZdlPvm@plt>
  408e0c:	f94663e0 	ldr	x0, [sp, #3264]
  408e10:	b4000080 	cbz	x0, 408e20 <_ZN5model5parseENSt7__cxx1112basic_stringIcSt11char_traitsIcESaIcEEE+0x281c>
  408e14:	f9466be1 	ldr	x1, [sp, #3280]
  408e18:	cb000021 	sub	x1, x1, x0
  408e1c:	97ffe45d 	bl	401f90 <_ZdlPvm@plt>
  408e20:	f94657f4 	ldr	x20, [sp, #3240]
  408e24:	f9465bfc 	ldr	x28, [sp, #3248]
  408e28:	eb1c029f 	cmp	x20, x28
  408e2c:	54ffa340 	b.eq	408294 <_ZN5model5parseENSt7__cxx1112basic_stringIcSt11char_traitsIcESaIcEEE+0x1c90>  // b.none
  408e30:	aa1403e1 	mov	x1, x20
  408e34:	f8410420 	ldr	x0, [x1], #16
  408e38:	eb01001f 	cmp	x0, x1
  408e3c:	54000080 	b.eq	408e4c <_ZN5model5parseENSt7__cxx1112basic_stringIcSt11char_traitsIcESaIcEEE+0x2848>  // b.none
  408e40:	f9400a81 	ldr	x1, [x20, #16]
  408e44:	91000421 	add	x1, x1, #0x1
  408e48:	97ffe452 	bl	401f90 <_ZdlPvm@plt>
  408e4c:	91008294 	add	x20, x20, #0x20
  408e50:	eb14039f 	cmp	x28, x20
  408e54:	54fffee1 	b.ne	408e30 <_ZN5model5parseENSt7__cxx1112basic_stringIcSt11char_traitsIcESaIcEEE+0x282c>  // b.any
  408e58:	f94657fc 	ldr	x28, [sp, #3240]
  408e5c:	17fffd0e 	b	408294 <_ZN5model5parseENSt7__cxx1112basic_stringIcSt11char_traitsIcESaIcEEE+0x1c90>
  408e60:	aa0003e1 	mov	x1, x0
  408e64:	913283e2 	add	x2, sp, #0xca0
  408e68:	aa1c03e0 	mov	x0, x28
  408e6c:	940006fd 	bl	40aa60 <_ZNSt6vectorI7segmentSaIS0_EE17_M_realloc_insertIJRS0_EEEvN9__gnu_cxx17__normal_iteratorIPS0_S2_EEDpOT_>
  408e70:	17fffa98 	b	4078d0 <_ZN5model5parseENSt7__cxx1112basic_stringIcSt11char_traitsIcESaIcEEE+0x12cc>
  408e74:	aa0003e1 	mov	x1, x0
  408e78:	aa1403e2 	mov	x2, x20
  408e7c:	aa1703e0 	mov	x0, x23
  408e80:	940006f8 	bl	40aa60 <_ZNSt6vectorI7segmentSaIS0_EE17_M_realloc_insertIJRS0_EEEvN9__gnu_cxx17__normal_iteratorIPS0_S2_EEDpOT_>
  408e84:	17fff8c3 	b	407190 <_ZN5model5parseENSt7__cxx1112basic_stringIcSt11char_traitsIcESaIcEEE+0xb8c>
  408e88:	12800014 	mov	w20, #0xffffffff            	// #-1
  408e8c:	17fff66d 	b	406840 <_ZN5model5parseENSt7__cxx1112basic_stringIcSt11char_traitsIcESaIcEEE+0x23c>
  408e90:	a9408780 	ldp	x0, x1, [x28, #8]
  408e94:	b9400ec2 	ldr	w2, [x22, #12]
  408e98:	11000442 	add	w2, w2, #0x1
  408e9c:	b9000ec2 	str	w2, [x22, #12]
  408ea0:	b90bf3e2 	str	w2, [sp, #3056]
  408ea4:	eb01001f 	cmp	x0, x1
  408ea8:	54001c40 	b.eq	409230 <_ZN5model5parseENSt7__cxx1112basic_stringIcSt11char_traitsIcESaIcEEE+0x2c2c>  // b.none
  408eac:	913283e1 	add	x1, sp, #0xca0
  408eb0:	9400054c 	bl	40a3e0 <_ZN7segmentC1ERKS_>
  408eb4:	f9400780 	ldr	x0, [x28, #8]
  408eb8:	9102c000 	add	x0, x0, #0xb0
  408ebc:	f9000780 	str	x0, [x28, #8]
  408ec0:	912fc3e1 	add	x1, sp, #0xbf0
  408ec4:	910482c0 	add	x0, x22, #0x120
  408ec8:	94000bd6 	bl	40be20 <_ZNSt8__detail9_Map_baseIiSt4pairIKiiESaIS3_ENS_10_Select1stESt8equal_toIiESt4hashIiENS_18_Mod_range_hashingENS_20_Default_ranged_hashENS_20_Prime_rehash_policyENS_17_Hashtable_traitsILb0ELb0ELb1EEELb1EEixERS2_>
  408ecc:	52800021 	mov	w1, #0x1                   	// #1
  408ed0:	913543f4 	add	x20, sp, #0xd50
  408ed4:	f94032c3 	ldr	x3, [x22, #96]
  408ed8:	91004285 	add	x5, x20, #0x10
  408edc:	f94043e2 	ldr	x2, [sp, #128]
  408ee0:	b9000001 	str	w1, [x0]
  408ee4:	f9403fe1 	ldr	x1, [sp, #120]
  408ee8:	52801604 	mov	w4, #0xb0                  	// #176
  408eec:	b94bf3fc 	ldr	w28, [sp, #3056]
  408ef0:	aa1403e0 	mov	x0, x20
  408ef4:	8b020022 	add	x2, x1, x2
  408ef8:	f906abe5 	str	x5, [sp, #3408]
  408efc:	9b240f9c 	smaddl	x28, w28, w4, x3
  408f00:	97ffebd1 	bl	403e44 <_ZNSt7__cxx1112basic_stringIcSt11char_traitsIcESaIcEE12_M_constructIPcEEvT_S7_St20forward_iterator_tag.isra.0>
  408f04:	aa1403e1 	mov	x1, x20
  408f08:	aa1c03e0 	mov	x0, x28
  408f0c:	97fff279 	bl	4058f0 <_ZN7segment6insertENSt7__cxx1112basic_stringIcSt11char_traitsIcESaIcEEE>
  408f10:	17fff9e5 	b	4076a4 <_ZN5model5parseENSt7__cxx1112basic_stringIcSt11char_traitsIcESaIcEEE+0x10a0>
  408f14:	12800004 	mov	w4, #0xffffffff            	// #-1
  408f18:	17fff995 	b	40756c <_ZN5model5parseENSt7__cxx1112basic_stringIcSt11char_traitsIcESaIcEEE+0xf68>
  408f1c:	12800014 	mov	w20, #0xffffffff            	// #-1
  408f20:	17fffbf1 	b	407ee4 <_ZN5model5parseENSt7__cxx1112basic_stringIcSt11char_traitsIcESaIcEEE+0x18e0>
  408f24:	12800014 	mov	w20, #0xffffffff            	// #-1
  408f28:	17fffacb 	b	407a54 <_ZN5model5parseENSt7__cxx1112basic_stringIcSt11char_traitsIcESaIcEEE+0x1450>
  408f2c:	aa0003e1 	mov	x1, x0
  408f30:	aa1403e2 	mov	x2, x20
  408f34:	aa1703e0 	mov	x0, x23
  408f38:	940006ca 	bl	40aa60 <_ZNSt6vectorI7segmentSaIS0_EE17_M_realloc_insertIJRS0_EEEvN9__gnu_cxx17__normal_iteratorIPS0_S2_EEDpOT_>
  408f3c:	17fff9ef 	b	4076f8 <_ZN5model5parseENSt7__cxx1112basic_stringIcSt11char_traitsIcESaIcEEE+0x10f4>
  408f40:	12800014 	mov	w20, #0xffffffff            	// #-1
  408f44:	17fffdc1 	b	408648 <_ZN5model5parseENSt7__cxx1112basic_stringIcSt11char_traitsIcESaIcEEE+0x2044>
  408f48:	12800004 	mov	w4, #0xffffffff            	// #-1
  408f4c:	17fff691 	b	406990 <_ZN5model5parseENSt7__cxx1112basic_stringIcSt11char_traitsIcESaIcEEE+0x38c>
  408f50:	b9400ec2 	ldr	w2, [x22, #12]
  408f54:	aa1c03e0 	mov	x0, x28
  408f58:	aa1803e1 	mov	x1, x24
  408f5c:	11000442 	add	w2, w2, #0x1
  408f60:	b9000ec2 	str	w2, [x22, #12]
  408f64:	b90ca3e2 	str	w2, [sp, #3232]
  408f68:	940007f2 	bl	40af30 <_ZNSt6vectorI7segmentSaIS0_EE12emplace_backIJRS0_EEEvDpOT_>
  408f6c:	aa1503e1 	mov	x1, x21
  408f70:	910482c0 	add	x0, x22, #0x120
  408f74:	94000bab 	bl	40be20 <_ZNSt8__detail9_Map_baseIiSt4pairIKiiESaIS3_ENS_10_Select1stESt8equal_toIiESt4hashIiENS_18_Mod_range_hashingENS_20_Default_ranged_hashENS_20_Prime_rehash_policyENS_17_Hashtable_traitsILb0ELb0ELb1EEELb1EEixERS2_>
  408f78:	52800021 	mov	w1, #0x1                   	// #1
  408f7c:	913543f4 	add	x20, sp, #0xd50
  408f80:	f94032c3 	ldr	x3, [x22, #96]
  408f84:	91004285 	add	x5, x20, #0x10
  408f88:	f94043e2 	ldr	x2, [sp, #128]
  408f8c:	b9000001 	str	w1, [x0]
  408f90:	f9403fe1 	ldr	x1, [sp, #120]
  408f94:	52801604 	mov	w4, #0xb0                  	// #176
  408f98:	b94ca3f3 	ldr	w19, [sp, #3232]
  408f9c:	aa1403e0 	mov	x0, x20
  408fa0:	8b020022 	add	x2, x1, x2
  408fa4:	f906abe5 	str	x5, [sp, #3408]
  408fa8:	9b240e73 	smaddl	x19, w19, w4, x3
  408fac:	97ffeba6 	bl	403e44 <_ZNSt7__cxx1112basic_stringIcSt11char_traitsIcESaIcEE12_M_constructIPcEEvT_S7_St20forward_iterator_tag.isra.0>
  408fb0:	aa1403e1 	mov	x1, x20
  408fb4:	aa1303e0 	mov	x0, x19
  408fb8:	97fff24e 	bl	4058f0 <_ZN7segment6insertENSt7__cxx1112basic_stringIcSt11char_traitsIcESaIcEEE>
  408fbc:	17fff68c 	b	4069ec <_ZN5model5parseENSt7__cxx1112basic_stringIcSt11char_traitsIcESaIcEEE+0x3e8>
  408fc0:	12800004 	mov	w4, #0xffffffff            	// #-1
  408fc4:	17fffc1e 	b	40803c <_ZN5model5parseENSt7__cxx1112basic_stringIcSt11char_traitsIcESaIcEEE+0x1a38>
  408fc8:	b94006c2 	ldr	w2, [x22, #4]
  408fcc:	aa1c03e0 	mov	x0, x28
  408fd0:	913283e1 	add	x1, sp, #0xca0
  408fd4:	11000442 	add	w2, w2, #0x1
  408fd8:	b90006c2 	str	w2, [x22, #4]
  408fdc:	b90bf3e2 	str	w2, [sp, #3056]
  408fe0:	940007d4 	bl	40af30 <_ZNSt6vectorI7segmentSaIS0_EE12emplace_backIJRS0_EEEvDpOT_>
  408fe4:	912fc3e1 	add	x1, sp, #0xbf0
  408fe8:	9102c2c0 	add	x0, x22, #0xb0
  408fec:	94000b8d 	bl	40be20 <_ZNSt8__detail9_Map_baseIiSt4pairIKiiESaIS3_ENS_10_Select1stESt8equal_toIiESt4hashIiENS_18_Mod_range_hashingENS_20_Default_ranged_hashENS_20_Prime_rehash_policyENS_17_Hashtable_traitsILb0ELb0ELb1EEELb1EEixERS2_>
  408ff0:	52800021 	mov	w1, #0x1                   	// #1
  408ff4:	913543f4 	add	x20, sp, #0xd50
  408ff8:	f9401ac3 	ldr	x3, [x22, #48]
  408ffc:	91004285 	add	x5, x20, #0x10
  409000:	f94043e2 	ldr	x2, [sp, #128]
  409004:	b9000001 	str	w1, [x0]
  409008:	f9403fe1 	ldr	x1, [sp, #120]
  40900c:	52801604 	mov	w4, #0xb0                  	// #176
  409010:	b94bf3fc 	ldr	w28, [sp, #3056]
  409014:	aa1403e0 	mov	x0, x20
  409018:	8b020022 	add	x2, x1, x2
  40901c:	f906abe5 	str	x5, [sp, #3408]
  409020:	9b240f9c 	smaddl	x28, w28, w4, x3
  409024:	97ffeb88 	bl	403e44 <_ZNSt7__cxx1112basic_stringIcSt11char_traitsIcESaIcEE12_M_constructIPcEEvT_S7_St20forward_iterator_tag.isra.0>
  409028:	aa1403e1 	mov	x1, x20
  40902c:	aa1c03e0 	mov	x0, x28
  409030:	97fff230 	bl	4058f0 <_ZN7segment6insertENSt7__cxx1112basic_stringIcSt11char_traitsIcESaIcEEE>
  409034:	17fffc1a 	b	40809c <_ZN5model5parseENSt7__cxx1112basic_stringIcSt11char_traitsIcESaIcEEE+0x1a98>
  409038:	12800004 	mov	w4, #0xffffffff            	// #-1
  40903c:	17fffadc 	b	407bac <_ZN5model5parseENSt7__cxx1112basic_stringIcSt11char_traitsIcESaIcEEE+0x15a8>
  409040:	b94006c2 	ldr	w2, [x22, #4]
  409044:	aa1c03e0 	mov	x0, x28
  409048:	913283e1 	add	x1, sp, #0xca0
  40904c:	11000442 	add	w2, w2, #0x1
  409050:	b90006c2 	str	w2, [x22, #4]
  409054:	b90bf3e2 	str	w2, [sp, #3056]
  409058:	940007b6 	bl	40af30 <_ZNSt6vectorI7segmentSaIS0_EE12emplace_backIJRS0_EEEvDpOT_>
  40905c:	912fc3e1 	add	x1, sp, #0xbf0
  409060:	9102c2c0 	add	x0, x22, #0xb0
  409064:	94000b6f 	bl	40be20 <_ZNSt8__detail9_Map_baseIiSt4pairIKiiESaIS3_ENS_10_Select1stESt8equal_toIiESt4hashIiENS_18_Mod_range_hashingENS_20_Default_ranged_hashENS_20_Prime_rehash_policyENS_17_Hashtable_traitsILb0ELb0ELb1EEELb1EEixERS2_>
  409068:	52800021 	mov	w1, #0x1                   	// #1
  40906c:	913543f4 	add	x20, sp, #0xd50
  409070:	f9401ac3 	ldr	x3, [x22, #48]
  409074:	91004285 	add	x5, x20, #0x10
  409078:	f94043e2 	ldr	x2, [sp, #128]
  40907c:	b9000001 	str	w1, [x0]
  409080:	f9403fe1 	ldr	x1, [sp, #120]
  409084:	52801604 	mov	w4, #0xb0                  	// #176
  409088:	b94bf3fc 	ldr	w28, [sp, #3056]
  40908c:	aa1403e0 	mov	x0, x20
  409090:	8b020022 	add	x2, x1, x2
  409094:	f906abe5 	str	x5, [sp, #3408]
  409098:	9b240f9c 	smaddl	x28, w28, w4, x3
  40909c:	97ffeb6a 	bl	403e44 <_ZNSt7__cxx1112basic_stringIcSt11char_traitsIcESaIcEE12_M_constructIPcEEvT_S7_St20forward_iterator_tag.isra.0>
  4090a0:	aa1403e1 	mov	x1, x20
  4090a4:	aa1c03e0 	mov	x0, x28
  4090a8:	97fff212 	bl	4058f0 <_ZN7segment6insertENSt7__cxx1112basic_stringIcSt11char_traitsIcESaIcEEE>
  4090ac:	17fffad8 	b	407c0c <_ZN5model5parseENSt7__cxx1112basic_stringIcSt11char_traitsIcESaIcEEE+0x1608>
  4090b0:	aa0003e1 	mov	x1, x0
  4090b4:	aa1403e2 	mov	x2, x20
  4090b8:	aa1703e0 	mov	x0, x23
  4090bc:	94000669 	bl	40aa60 <_ZNSt6vectorI7segmentSaIS0_EE17_M_realloc_insertIJRS0_EEEvN9__gnu_cxx17__normal_iteratorIPS0_S2_EEDpOT_>
  4090c0:	17fff660 	b	406a40 <_ZN5model5parseENSt7__cxx1112basic_stringIcSt11char_traitsIcESaIcEEE+0x43c>
  4090c4:	aa0003e1 	mov	x1, x0
  4090c8:	aa1403e2 	mov	x2, x20
  4090cc:	aa1703e0 	mov	x0, x23
  4090d0:	94000664 	bl	40aa60 <_ZNSt6vectorI7segmentSaIS0_EE17_M_realloc_insertIJRS0_EEEvN9__gnu_cxx17__normal_iteratorIPS0_S2_EEDpOT_>
  4090d4:	17fffae3 	b	407c60 <_ZN5model5parseENSt7__cxx1112basic_stringIcSt11char_traitsIcESaIcEEE+0x165c>
  4090d8:	aa0003e1 	mov	x1, x0
  4090dc:	aa1403e2 	mov	x2, x20
  4090e0:	aa1703e0 	mov	x0, x23
  4090e4:	9400065f 	bl	40aa60 <_ZNSt6vectorI7segmentSaIS0_EE17_M_realloc_insertIJRS0_EEEvN9__gnu_cxx17__normal_iteratorIPS0_S2_EEDpOT_>
  4090e8:	17fffc02 	b	4080f0 <_ZN5model5parseENSt7__cxx1112basic_stringIcSt11char_traitsIcESaIcEEE+0x1aec>
  4090ec:	911703e0 	add	x0, sp, #0x5c0
  4090f0:	94000414 	bl	40a140 <_ZN7segmentD1Ev>
  4090f4:	b9400ec2 	ldr	w2, [x22, #12]
  4090f8:	aa1c03e0 	mov	x0, x28
  4090fc:	913283e1 	add	x1, sp, #0xca0
  409100:	11000442 	add	w2, w2, #0x1
  409104:	b9000ec2 	str	w2, [x22, #12]
  409108:	b90bf3e2 	str	w2, [sp, #3056]
  40910c:	94000789 	bl	40af30 <_ZNSt6vectorI7segmentSaIS0_EE12emplace_backIJRS0_EEEvDpOT_>
  409110:	912fc3e1 	add	x1, sp, #0xbf0
  409114:	910482c0 	add	x0, x22, #0x120
  409118:	94000b42 	bl	40be20 <_ZNSt8__detail9_Map_baseIiSt4pairIKiiESaIS3_ENS_10_Select1stESt8equal_toIiESt4hashIiENS_18_Mod_range_hashingENS_20_Default_ranged_hashENS_20_Prime_rehash_policyENS_17_Hashtable_traitsILb0ELb0ELb1EEELb1EEixERS2_>
  40911c:	52800021 	mov	w1, #0x1                   	// #1
  409120:	913543f4 	add	x20, sp, #0xd50
  409124:	f94032c3 	ldr	x3, [x22, #96]
  409128:	91004285 	add	x5, x20, #0x10
  40912c:	f94043e2 	ldr	x2, [sp, #128]
  409130:	b9000001 	str	w1, [x0]
  409134:	f9403fe1 	ldr	x1, [sp, #120]
  409138:	52801604 	mov	w4, #0xb0                  	// #176
  40913c:	b94bf3fc 	ldr	w28, [sp, #3056]
  409140:	aa1403e0 	mov	x0, x20
  409144:	8b020022 	add	x2, x1, x2
  409148:	f906abe5 	str	x5, [sp, #3408]
  40914c:	9b240f9c 	smaddl	x28, w28, w4, x3
  409150:	97ffeb3d 	bl	403e44 <_ZNSt7__cxx1112basic_stringIcSt11char_traitsIcESaIcEE12_M_constructIPcEEvT_S7_St20forward_iterator_tag.isra.0>
  409154:	aa1403e1 	mov	x1, x20
  409158:	aa1c03e0 	mov	x0, x28
  40915c:	97fff1e5 	bl	4058f0 <_ZN7segment6insertENSt7__cxx1112basic_stringIcSt11char_traitsIcESaIcEEE>
  409160:	17fffcb7 	b	40843c <_ZN5model5parseENSt7__cxx1112basic_stringIcSt11char_traitsIcESaIcEEE+0x1e38>
  409164:	12800004 	mov	w4, #0xffffffff            	// #-1
  409168:	17fffd8d 	b	40879c <_ZN5model5parseENSt7__cxx1112basic_stringIcSt11char_traitsIcESaIcEEE+0x2198>
  40916c:	12800004 	mov	w4, #0xffffffff            	// #-1
  409170:	17fffc9b 	b	4083dc <_ZN5model5parseENSt7__cxx1112basic_stringIcSt11char_traitsIcESaIcEEE+0x1dd8>
  409174:	aa0003e1 	mov	x1, x0
  409178:	aa1403e2 	mov	x2, x20
  40917c:	aa1703e0 	mov	x0, x23
  409180:	94000638 	bl	40aa60 <_ZNSt6vectorI7segmentSaIS0_EE17_M_realloc_insertIJRS0_EEEvN9__gnu_cxx17__normal_iteratorIPS0_S2_EEDpOT_>
  409184:	17fffcc3 	b	408490 <_ZN5model5parseENSt7__cxx1112basic_stringIcSt11char_traitsIcESaIcEEE+0x1e8c>
  409188:	aa0003e1 	mov	x1, x0
  40918c:	aa1403e2 	mov	x2, x20
  409190:	aa1703e0 	mov	x0, x23
  409194:	94000633 	bl	40aa60 <_ZNSt6vectorI7segmentSaIS0_EE17_M_realloc_insertIJRS0_EEEvN9__gnu_cxx17__normal_iteratorIPS0_S2_EEDpOT_>
  409198:	17fffec7 	b	408cb4 <_ZN5model5parseENSt7__cxx1112basic_stringIcSt11char_traitsIcESaIcEEE+0x26b0>
  40919c:	912d03e0 	add	x0, sp, #0xb40
  4091a0:	940003e8 	bl	40a140 <_ZN7segmentD1Ev>
  4091a4:	b9400ac2 	ldr	w2, [x22, #8]
  4091a8:	aa1c03e0 	mov	x0, x28
  4091ac:	aa1503e1 	mov	x1, x21
  4091b0:	11000442 	add	w2, w2, #0x1
  4091b4:	b9000ac2 	str	w2, [x22, #8]
  4091b8:	b90bf3e2 	str	w2, [sp, #3056]
  4091bc:	9400075d 	bl	40af30 <_ZNSt6vectorI7segmentSaIS0_EE12emplace_backIJRS0_EEEvDpOT_>
  4091c0:	912fc3e1 	add	x1, sp, #0xbf0
  4091c4:	9103a2c0 	add	x0, x22, #0xe8
  4091c8:	94000b16 	bl	40be20 <_ZNSt8__detail9_Map_baseIiSt4pairIKiiESaIS3_ENS_10_Select1stESt8equal_toIiESt4hashIiENS_18_Mod_range_hashingENS_20_Default_ranged_hashENS_20_Prime_rehash_policyENS_17_Hashtable_traitsILb0ELb0ELb1EEELb1EEixERS2_>
  4091cc:	52800021 	mov	w1, #0x1                   	// #1
  4091d0:	913543f4 	add	x20, sp, #0xd50
  4091d4:	f94026c3 	ldr	x3, [x22, #72]
  4091d8:	91004285 	add	x5, x20, #0x10
  4091dc:	f94043e2 	ldr	x2, [sp, #128]
  4091e0:	b9000001 	str	w1, [x0]
  4091e4:	f9403fe1 	ldr	x1, [sp, #120]
  4091e8:	52801604 	mov	w4, #0xb0                  	// #176
  4091ec:	b94bf3f3 	ldr	w19, [sp, #3056]
  4091f0:	aa1403e0 	mov	x0, x20
  4091f4:	8b020022 	add	x2, x1, x2
  4091f8:	f906abe5 	str	x5, [sp, #3408]
  4091fc:	9b240e73 	smaddl	x19, w19, w4, x3
  409200:	97ffeb11 	bl	403e44 <_ZNSt7__cxx1112basic_stringIcSt11char_traitsIcESaIcEE12_M_constructIPcEEvT_S7_St20forward_iterator_tag.isra.0>
  409204:	aa1403e1 	mov	x1, x20
  409208:	aa1303e0 	mov	x0, x19
  40920c:	97fff1b9 	bl	4058f0 <_ZN7segment6insertENSt7__cxx1112basic_stringIcSt11char_traitsIcESaIcEEE>
  409210:	17fffde3 	b	40899c <_ZN5model5parseENSt7__cxx1112basic_stringIcSt11char_traitsIcESaIcEEE+0x2398>
  409214:	12800004 	mov	w4, #0xffffffff            	// #-1
  409218:	17fffdc9 	b	40893c <_ZN5model5parseENSt7__cxx1112basic_stringIcSt11char_traitsIcESaIcEEE+0x2338>
  40921c:	aa0003e1 	mov	x1, x0
  409220:	aa1403e2 	mov	x2, x20
  409224:	aa1703e0 	mov	x0, x23
  409228:	9400060e 	bl	40aa60 <_ZNSt6vectorI7segmentSaIS0_EE17_M_realloc_insertIJRS0_EEEvN9__gnu_cxx17__normal_iteratorIPS0_S2_EEDpOT_>
  40922c:	17fffdf1 	b	4089f0 <_ZN5model5parseENSt7__cxx1112basic_stringIcSt11char_traitsIcESaIcEEE+0x23ec>
  409230:	aa0003e1 	mov	x1, x0
  409234:	913283e2 	add	x2, sp, #0xca0
  409238:	aa1c03e0 	mov	x0, x28
  40923c:	94000609 	bl	40aa60 <_ZNSt6vectorI7segmentSaIS0_EE17_M_realloc_insertIJRS0_EEEvN9__gnu_cxx17__normal_iteratorIPS0_S2_EEDpOT_>
  409240:	17ffff20 	b	408ec0 <_ZN5model5parseENSt7__cxx1112basic_stringIcSt11char_traitsIcESaIcEEE+0x28bc>
  409244:	912783e0 	add	x0, sp, #0x9e0
  409248:	940003be 	bl	40a140 <_ZN7segmentD1Ev>
  40924c:	b94006c2 	ldr	w2, [x22, #4]
  409250:	aa1c03e0 	mov	x0, x28
  409254:	aa1503e1 	mov	x1, x21
  409258:	11000442 	add	w2, w2, #0x1
  40925c:	b90006c2 	str	w2, [x22, #4]
  409260:	b90bf3e2 	str	w2, [sp, #3056]
  409264:	94000733 	bl	40af30 <_ZNSt6vectorI7segmentSaIS0_EE12emplace_backIJRS0_EEEvDpOT_>
  409268:	912fc3e1 	add	x1, sp, #0xbf0
  40926c:	9102c2c0 	add	x0, x22, #0xb0
  409270:	94000aec 	bl	40be20 <_ZNSt8__detail9_Map_baseIiSt4pairIKiiESaIS3_ENS_10_Select1stESt8equal_toIiESt4hashIiENS_18_Mod_range_hashingENS_20_Default_ranged_hashENS_20_Prime_rehash_policyENS_17_Hashtable_traitsILb0ELb0ELb1EEELb1EEixERS2_>
  409274:	52800021 	mov	w1, #0x1                   	// #1
  409278:	913543f4 	add	x20, sp, #0xd50
  40927c:	f9401ac3 	ldr	x3, [x22, #48]
  409280:	91004285 	add	x5, x20, #0x10
  409284:	f94043e2 	ldr	x2, [sp, #128]
  409288:	b9000001 	str	w1, [x0]
  40928c:	f9403fe1 	ldr	x1, [sp, #120]
  409290:	52801604 	mov	w4, #0xb0                  	// #176
  409294:	b94bf3f3 	ldr	w19, [sp, #3056]
  409298:	aa1403e0 	mov	x0, x20
  40929c:	8b020022 	add	x2, x1, x2
  4092a0:	f906abe5 	str	x5, [sp, #3408]
  4092a4:	9b240e73 	smaddl	x19, w19, w4, x3
  4092a8:	97ffeae7 	bl	403e44 <_ZNSt7__cxx1112basic_stringIcSt11char_traitsIcESaIcEE12_M_constructIPcEEvT_S7_St20forward_iterator_tag.isra.0>
  4092ac:	aa1403e1 	mov	x1, x20
  4092b0:	aa1303e0 	mov	x0, x19
  4092b4:	97fff18f 	bl	4058f0 <_ZN7segment6insertENSt7__cxx1112basic_stringIcSt11char_traitsIcESaIcEEE>
  4092b8:	17fffe3c 	b	408ba8 <_ZN5model5parseENSt7__cxx1112basic_stringIcSt11char_traitsIcESaIcEEE+0x25a4>
  4092bc:	12800004 	mov	w4, #0xffffffff            	// #-1
  4092c0:	17fffe22 	b	408b48 <_ZN5model5parseENSt7__cxx1112basic_stringIcSt11char_traitsIcESaIcEEE+0x2544>
  4092c4:	aa0003e1 	mov	x1, x0
  4092c8:	aa1403e2 	mov	x2, x20
  4092cc:	aa1703e0 	mov	x0, x23
  4092d0:	940005e4 	bl	40aa60 <_ZNSt6vectorI7segmentSaIS0_EE17_M_realloc_insertIJRS0_EEEvN9__gnu_cxx17__normal_iteratorIPS0_S2_EEDpOT_>
  4092d4:	17fffdc7 	b	4089f0 <_ZN5model5parseENSt7__cxx1112basic_stringIcSt11char_traitsIcESaIcEEE+0x23ec>
  4092d8:	aa0003f3 	mov	x19, x0
  4092dc:	aa1403e0 	mov	x0, x20
  4092e0:	97ffe340 	bl	401fe0 <_ZNSt7__cxx1112basic_stringIcSt11char_traitsIcESaIcEE10_M_disposeEv@plt>
  4092e4:	aa1503e0 	mov	x0, x21
  4092e8:	94000396 	bl	40a140 <_ZN7segmentD1Ev>
  4092ec:	9101e3e0 	add	x0, sp, #0x78
  4092f0:	97ffe33c 	bl	401fe0 <_ZNSt7__cxx1112basic_stringIcSt11char_traitsIcESaIcEE10_M_disposeEv@plt>
  4092f4:	aa1703e0 	mov	x0, x23
  4092f8:	940003da 	bl	40a260 <_ZN2PTD1Ev>
  4092fc:	aa1303e0 	mov	x0, x19
  409300:	97ffe388 	bl	402120 <_Unwind_Resume@plt>
  409304:	aa0003f3 	mov	x19, x0
  409308:	17fffff7 	b	4092e4 <_ZN5model5parseENSt7__cxx1112basic_stringIcSt11char_traitsIcESaIcEEE+0x2ce0>
  40930c:	aa0003f3 	mov	x19, x0
  409310:	aa1403e0 	mov	x0, x20
  409314:	97ffe333 	bl	401fe0 <_ZNSt7__cxx1112basic_stringIcSt11char_traitsIcESaIcEE10_M_disposeEv@plt>
  409318:	913283e0 	add	x0, sp, #0xca0
  40931c:	94000389 	bl	40a140 <_ZN7segmentD1Ev>
  409320:	17fffff3 	b	4092ec <_ZN5model5parseENSt7__cxx1112basic_stringIcSt11char_traitsIcESaIcEEE+0x2ce8>
  409324:	aa0003f3 	mov	x19, x0
  409328:	aa1403e0 	mov	x0, x20
  40932c:	97ffe32d 	bl	401fe0 <_ZNSt7__cxx1112basic_stringIcSt11char_traitsIcESaIcEE10_M_disposeEv@plt>
  409330:	aa1803e0 	mov	x0, x24
  409334:	94000383 	bl	40a140 <_ZN7segmentD1Ev>
  409338:	17ffffed 	b	4092ec <_ZN5model5parseENSt7__cxx1112basic_stringIcSt11char_traitsIcESaIcEEE+0x2ce8>
  40933c:	17fffff4 	b	40930c <_ZN5model5parseENSt7__cxx1112basic_stringIcSt11char_traitsIcESaIcEEE+0x2d08>
  409340:	aa0003f3 	mov	x19, x0
  409344:	17ffffe8 	b	4092e4 <_ZN5model5parseENSt7__cxx1112basic_stringIcSt11char_traitsIcESaIcEEE+0x2ce0>
  409348:	17fffff1 	b	40930c <_ZN5model5parseENSt7__cxx1112basic_stringIcSt11char_traitsIcESaIcEEE+0x2d08>
  40934c:	17fffff0 	b	40930c <_ZN5model5parseENSt7__cxx1112basic_stringIcSt11char_traitsIcESaIcEEE+0x2d08>
  409350:	aa0003f3 	mov	x19, x0
  409354:	aa1403e0 	mov	x0, x20
  409358:	9400037a 	bl	40a140 <_ZN7segmentD1Ev>
  40935c:	17ffffe2 	b	4092e4 <_ZN5model5parseENSt7__cxx1112basic_stringIcSt11char_traitsIcESaIcEEE+0x2ce0>
  409360:	17ffffeb 	b	40930c <_ZN5model5parseENSt7__cxx1112basic_stringIcSt11char_traitsIcESaIcEEE+0x2d08>
  409364:	17ffffea 	b	40930c <_ZN5model5parseENSt7__cxx1112basic_stringIcSt11char_traitsIcESaIcEEE+0x2d08>
  409368:	17ffffef 	b	409324 <_ZN5model5parseENSt7__cxx1112basic_stringIcSt11char_traitsIcESaIcEEE+0x2d20>
  40936c:	17ffffe8 	b	40930c <_ZN5model5parseENSt7__cxx1112basic_stringIcSt11char_traitsIcESaIcEEE+0x2d08>
  409370:	17ffffe7 	b	40930c <_ZN5model5parseENSt7__cxx1112basic_stringIcSt11char_traitsIcESaIcEEE+0x2d08>
  409374:	17ffffe6 	b	40930c <_ZN5model5parseENSt7__cxx1112basic_stringIcSt11char_traitsIcESaIcEEE+0x2d08>
  409378:	aa0003f3 	mov	x19, x0
  40937c:	aa1403e0 	mov	x0, x20
  409380:	94000370 	bl	40a140 <_ZN7segmentD1Ev>
  409384:	17ffffe5 	b	409318 <_ZN5model5parseENSt7__cxx1112basic_stringIcSt11char_traitsIcESaIcEEE+0x2d14>
  409388:	17ffffe1 	b	40930c <_ZN5model5parseENSt7__cxx1112basic_stringIcSt11char_traitsIcESaIcEEE+0x2d08>
  40938c:	17fffff1 	b	409350 <_ZN5model5parseENSt7__cxx1112basic_stringIcSt11char_traitsIcESaIcEEE+0x2d4c>
  409390:	17ffffd2 	b	4092d8 <_ZN5model5parseENSt7__cxx1112basic_stringIcSt11char_traitsIcESaIcEEE+0x2cd4>
  409394:	17fffff9 	b	409378 <_ZN5model5parseENSt7__cxx1112basic_stringIcSt11char_traitsIcESaIcEEE+0x2d74>
  409398:	17ffffd0 	b	4092d8 <_ZN5model5parseENSt7__cxx1112basic_stringIcSt11char_traitsIcESaIcEEE+0x2cd4>
  40939c:	aa0003f3 	mov	x19, x0
  4093a0:	17ffffde 	b	409318 <_ZN5model5parseENSt7__cxx1112basic_stringIcSt11char_traitsIcESaIcEEE+0x2d14>
  4093a4:	aa0003f3 	mov	x19, x0
  4093a8:	17ffffdc 	b	409318 <_ZN5model5parseENSt7__cxx1112basic_stringIcSt11char_traitsIcESaIcEEE+0x2d14>
  4093ac:	aa0003f3 	mov	x19, x0
  4093b0:	17ffffda 	b	409318 <_ZN5model5parseENSt7__cxx1112basic_stringIcSt11char_traitsIcESaIcEEE+0x2d14>
  4093b4:	17fffff1 	b	409378 <_ZN5model5parseENSt7__cxx1112basic_stringIcSt11char_traitsIcESaIcEEE+0x2d74>
  4093b8:	aa0003f3 	mov	x19, x0
  4093bc:	aa1403e0 	mov	x0, x20
  4093c0:	94000360 	bl	40a140 <_ZN7segmentD1Ev>
  4093c4:	17ffffdb 	b	409330 <_ZN5model5parseENSt7__cxx1112basic_stringIcSt11char_traitsIcESaIcEEE+0x2d2c>
  4093c8:	aa0003f3 	mov	x19, x0
  4093cc:	17ffffd3 	b	409318 <_ZN5model5parseENSt7__cxx1112basic_stringIcSt11char_traitsIcESaIcEEE+0x2d14>
  4093d0:	aa0003f3 	mov	x19, x0
  4093d4:	17ffffd1 	b	409318 <_ZN5model5parseENSt7__cxx1112basic_stringIcSt11char_traitsIcESaIcEEE+0x2d14>
  4093d8:	aa0003f3 	mov	x19, x0
  4093dc:	17ffffc4 	b	4092ec <_ZN5model5parseENSt7__cxx1112basic_stringIcSt11char_traitsIcESaIcEEE+0x2ce8>
  4093e0:	aa0003f3 	mov	x19, x0
  4093e4:	17ffffd3 	b	409330 <_ZN5model5parseENSt7__cxx1112basic_stringIcSt11char_traitsIcESaIcEEE+0x2d2c>
  4093e8:	aa0003f3 	mov	x19, x0
  4093ec:	17ffffcb 	b	409318 <_ZN5model5parseENSt7__cxx1112basic_stringIcSt11char_traitsIcESaIcEEE+0x2d14>
  4093f0:	17ffffe2 	b	409378 <_ZN5model5parseENSt7__cxx1112basic_stringIcSt11char_traitsIcESaIcEEE+0x2d74>
  4093f4:	17ffffc6 	b	40930c <_ZN5model5parseENSt7__cxx1112basic_stringIcSt11char_traitsIcESaIcEEE+0x2d08>
  4093f8:	17ffffc5 	b	40930c <_ZN5model5parseENSt7__cxx1112basic_stringIcSt11char_traitsIcESaIcEEE+0x2d08>
  4093fc:	17ffffdf 	b	409378 <_ZN5model5parseENSt7__cxx1112basic_stringIcSt11char_traitsIcESaIcEEE+0x2d74>
  409400:	17ffffde 	b	409378 <_ZN5model5parseENSt7__cxx1112basic_stringIcSt11char_traitsIcESaIcEEE+0x2d74>
  409404:	17ffffb5 	b	4092d8 <_ZN5model5parseENSt7__cxx1112basic_stringIcSt11char_traitsIcESaIcEEE+0x2cd4>
  409408:	d503201f 	nop
  40940c:	d503201f 	nop

0000000000409410 <_ZN5model5trainENSt7__cxx1112basic_stringIcSt11char_traitsIcESaIcEEE>:
  409410:	d10b43ff 	sub	sp, sp, #0x2d0
  409414:	a9007bfd 	stp	x29, x30, [sp]
  409418:	910003fd 	mov	x29, sp
  40941c:	a90153f3 	stp	x19, x20, [sp, #16]
  409420:	aa0103f3 	mov	x19, x1
  409424:	910243e1 	add	x1, sp, #0x90
  409428:	a9025bf5 	stp	x21, x22, [sp, #32]
  40942c:	a90363f7 	stp	x23, x24, [sp, #48]
  409430:	aa0003f8 	mov	x24, x0
  409434:	910723e0 	add	x0, sp, #0x1c8
  409438:	a9046bf9 	stp	x25, x26, [sp, #64]
  40943c:	a90573fb 	stp	x27, x28, [sp, #80]
  409440:	a9087fe1 	stp	x1, xzr, [sp, #128]
  409444:	390243ff 	strb	wzr, [sp, #144]
  409448:	97ffe286 	bl	401e60 <_ZNSt8ios_baseC2Ev@plt>
  40944c:	d0000120 	adrp	x0, 42f000 <__FRAME_END__+0x1a5d8>
  409450:	9134a000 	add	x0, x0, #0xd28
  409454:	790553ff 	strh	wzr, [sp, #680]
  409458:	d0000121 	adrp	x1, 42f000 <__FRAME_END__+0x1a5d8>
  40945c:	912c0021 	add	x1, x1, #0xb00
  409460:	910303e3 	add	x3, sp, #0xc0
  409464:	a940801c 	ldp	x28, x0, [x0, #8]
  409468:	a90607e0 	stp	x0, x1, [sp, #96]
  40946c:	f85e8382 	ldur	x2, [x28, #-24]
  409470:	f900e7e1 	str	x1, [sp, #456]
  409474:	910ac3e1 	add	x1, sp, #0x2b0
  409478:	f90063fc 	str	x28, [sp, #192]
  40947c:	f90153ff 	str	xzr, [sp, #672]
  409480:	a9007c3f 	stp	xzr, xzr, [x1]
  409484:	a9017c3f 	stp	xzr, xzr, [x1, #16]
  409488:	d2800001 	mov	x1, #0x0                   	// #0
  40948c:	f8226860 	str	x0, [x3, x2]
  409490:	f90067ff 	str	xzr, [sp, #200]
  409494:	f85e8380 	ldur	x0, [x28, #-24]
  409498:	8b000060 	add	x0, x3, x0
  40949c:	97ffe2ed 	bl	402050 <_ZNSt9basic_iosIcSt11char_traitsIcEE4initEPSt15basic_streambufIcS1_E@plt>
  4094a0:	d0000120 	adrp	x0, 42f000 <__FRAME_END__+0x1a5d8>
  4094a4:	d0000121 	adrp	x1, 42f000 <__FRAME_END__+0x1a5d8>
  4094a8:	91308002 	add	x2, x0, #0xc20
  4094ac:	912fe021 	add	x1, x1, #0xbf8
  4094b0:	910343e0 	add	x0, sp, #0xd0
  4094b4:	a9070be1 	stp	x1, x2, [sp, #112]
  4094b8:	f90063e1 	str	x1, [sp, #192]
  4094bc:	f900e7e2 	str	x2, [sp, #456]
  4094c0:	97ffe2b8 	bl	401fa0 <_ZNSt13basic_filebufIcSt11char_traitsIcEEC1Ev@plt>
  4094c4:	910303e0 	add	x0, sp, #0xc0
  4094c8:	910343e1 	add	x1, sp, #0xd0
  4094cc:	91042000 	add	x0, x0, #0x108
  4094d0:	97ffe2e0 	bl	402050 <_ZNSt9basic_iosIcSt11char_traitsIcEE4initEPSt15basic_streambufIcS1_E@plt>
  4094d4:	f9400261 	ldr	x1, [x19]
  4094d8:	910343e0 	add	x0, sp, #0xd0
  4094dc:	52800102 	mov	w2, #0x8                   	// #8
  4094e0:	97ffe2a0 	bl	401f60 <_ZNSt13basic_filebufIcSt11char_traitsIcEE4openEPKcSt13_Ios_Openmode@plt>
  4094e4:	aa0003e2 	mov	x2, x0
  4094e8:	f94063e0 	ldr	x0, [sp, #192]
  4094ec:	f85e8001 	ldur	x1, [x0, #-24]
  4094f0:	910303e0 	add	x0, sp, #0xc0
  4094f4:	8b010000 	add	x0, x0, x1
  4094f8:	b4001762 	cbz	x2, 4097e4 <_ZN5model5trainENSt7__cxx1112basic_stringIcSt11char_traitsIcESaIcEEE+0x3d4>
  4094fc:	52800001 	mov	w1, #0x0                   	// #0
  409500:	97ffe300 	bl	402100 <_ZNSt9basic_iosIcSt11char_traitsIcEE5clearESt12_Ios_Iostate@plt>
  409504:	f0000134 	adrp	x20, 430000 <_Znam@GLIBCXX_3.4>
  409508:	91080297 	add	x23, x20, #0x200
  40950c:	b0000041 	adrp	x1, 412000 <_Z19MD5Hash_simdversionPKNSt7__cxx1112basic_stringIcSt11char_traitsIcESaIcEEEP12__Uint32x4_t+0x1000>
  409510:	aa1703e0 	mov	x0, x23
  409514:	91358021 	add	x1, x1, #0xd60
  409518:	d2800162 	mov	x2, #0xb                   	// #11
  40951c:	97ffe2a9 	bl	401fc0 <_ZSt16__ostream_insertIcSt11char_traitsIcEERSt13basic_ostreamIT_T0_ES6_PKS3_l@plt>
  409520:	f9410280 	ldr	x0, [x20, #512]
  409524:	f85e8000 	ldur	x0, [x0, #-24]
  409528:	8b0002e0 	add	x0, x23, x0
  40952c:	f9407813 	ldr	x19, [x0, #240]
  409530:	b4001673 	cbz	x19, 4097fc <_ZN5model5trainENSt7__cxx1112basic_stringIcSt11char_traitsIcESaIcEEE+0x3ec>
  409534:	3940e260 	ldrb	w0, [x19, #56]
  409538:	34001220 	cbz	w0, 40977c <_ZN5model5trainENSt7__cxx1112basic_stringIcSt11char_traitsIcESaIcEEE+0x36c>
  40953c:	39410e61 	ldrb	w1, [x19, #67]
  409540:	aa1703e0 	mov	x0, x23
  409544:	97ffe227 	bl	401de0 <_ZNSo3putEc@plt>
  409548:	97ffe272 	bl	401f10 <_ZNSo5flushEv@plt>
  40954c:	b0000041 	adrp	x1, 412000 <_Z19MD5Hash_simdversionPKNSt7__cxx1112basic_stringIcSt11char_traitsIcESaIcEEEP12__Uint32x4_t+0x1000>
  409550:	aa1703e0 	mov	x0, x23
  409554:	9135c021 	add	x1, x1, #0xd70
  409558:	d2800642 	mov	x2, #0x32                  	// #50
  40955c:	97ffe299 	bl	401fc0 <_ZSt16__ostream_insertIcSt11char_traitsIcEERSt13basic_ostreamIT_T0_ES6_PKS3_l@plt>
  409560:	f9410280 	ldr	x0, [x20, #512]
  409564:	f85e8000 	ldur	x0, [x0, #-24]
  409568:	8b0002e0 	add	x0, x23, x0
  40956c:	f9407813 	ldr	x19, [x0, #240]
  409570:	b4001453 	cbz	x19, 4097f8 <_ZN5model5trainENSt7__cxx1112basic_stringIcSt11char_traitsIcESaIcEEE+0x3e8>
  409574:	3940e260 	ldrb	w0, [x19, #56]
  409578:	340011c0 	cbz	w0, 4097b0 <_ZN5model5trainENSt7__cxx1112basic_stringIcSt11char_traitsIcESaIcEEE+0x3a0>
  40957c:	39410e61 	ldrb	w1, [x19, #67]
  409580:	aa1703e0 	mov	x0, x23
  409584:	97ffe217 	bl	401de0 <_ZNSo3putEc@plt>
  409588:	97ffe262 	bl	401f10 <_ZNSo5flushEv@plt>
  40958c:	528fd239 	mov	w25, #0x7e91                	// #32401
  409590:	5291b71a 	mov	w26, #0x8db8                	// #36280
  409594:	5298d81b 	mov	w27, #0xc6c0                	// #50880
  409598:	9102c3f6 	add	x22, sp, #0xb0
  40959c:	52800013 	mov	w19, #0x0                   	// #0
  4095a0:	72a75f79 	movk	w25, #0x3afb, lsl #16
  4095a4:	72a000da 	movk	w26, #0x6, lsl #16
  4095a8:	72a005bb 	movk	w27, #0x2d, lsl #16
  4095ac:	d503201f 	nop
  4095b0:	910203e1 	add	x1, sp, #0x80
  4095b4:	910303e0 	add	x0, sp, #0xc0
  4095b8:	97ffe29a 	bl	402020 <_ZStrsIcSt11char_traitsIcESaIcEERSt13basic_istreamIT_T0_ES7_RNSt7__cxx1112basic_stringIS4_S5_T1_EE@plt>
  4095bc:	f9400002 	ldr	x2, [x0]
  4095c0:	528000a1 	mov	w1, #0x5                   	// #5
  4095c4:	f85e8042 	ldur	x2, [x2, #-24]
  4095c8:	8b020000 	add	x0, x0, x2
  4095cc:	b9402000 	ldr	w0, [x0, #32]
  4095d0:	6a01001f 	tst	w0, w1
  4095d4:	54000681 	b.ne	4096a4 <_ZN5model5trainENSt7__cxx1112basic_stringIcSt11char_traitsIcESaIcEEE+0x294>  // b.any
  4095d8:	11000673 	add	w19, w19, #0x1
  4095dc:	1b197e60 	mul	w0, w19, w25
  4095e0:	13801000 	ror	w0, w0, #4
  4095e4:	6b1a001f 	cmp	w0, w26
  4095e8:	540002e8 	b.hi	409644 <_ZN5model5trainENSt7__cxx1112basic_stringIcSt11char_traitsIcESaIcEEE+0x234>  // b.pmore
  4095ec:	b0000041 	adrp	x1, 412000 <_Z19MD5Hash_simdversionPKNSt7__cxx1112basic_stringIcSt11char_traitsIcESaIcEEEP12__Uint32x4_t+0x1000>
  4095f0:	aa1703e0 	mov	x0, x23
  4095f4:	9136a021 	add	x1, x1, #0xda8
  4095f8:	d2800222 	mov	x2, #0x11                  	// #17
  4095fc:	97ffe271 	bl	401fc0 <_ZSt16__ostream_insertIcSt11char_traitsIcEERSt13basic_ostreamIT_T0_ES6_PKS3_l@plt>
  409600:	2a1303e1 	mov	w1, w19
  409604:	aa1703e0 	mov	x0, x23
  409608:	97ffe2c2 	bl	402110 <_ZNSolsEi@plt>
  40960c:	aa0003f4 	mov	x20, x0
  409610:	f9400000 	ldr	x0, [x0]
  409614:	f85e8000 	ldur	x0, [x0, #-24]
  409618:	8b000280 	add	x0, x20, x0
  40961c:	f9407815 	ldr	x21, [x0, #240]
  409620:	b4000eb5 	cbz	x21, 4097f4 <_ZN5model5trainENSt7__cxx1112basic_stringIcSt11char_traitsIcESaIcEEE+0x3e4>
  409624:	3940e2a0 	ldrb	w0, [x21, #56]
  409628:	34000900 	cbz	w0, 409748 <_ZN5model5trainENSt7__cxx1112basic_stringIcSt11char_traitsIcESaIcEEE+0x338>
  40962c:	39410ea1 	ldrb	w1, [x21, #67]
  409630:	aa1403e0 	mov	x0, x20
  409634:	97ffe1eb 	bl	401de0 <_ZNSo3putEc@plt>
  409638:	97ffe236 	bl	401f10 <_ZNSo5flushEv@plt>
  40963c:	6b1b027f 	cmp	w19, w27
  409640:	5400032c 	b.gt	4096a4 <_ZN5model5trainENSt7__cxx1112basic_stringIcSt11char_traitsIcESaIcEEE+0x294>
  409644:	a9480be1 	ldp	x1, x2, [sp, #128]
  409648:	910283e0 	add	x0, sp, #0xa0
  40964c:	f90053f6 	str	x22, [sp, #160]
  409650:	8b020022 	add	x2, x1, x2
  409654:	97ffe9fc 	bl	403e44 <_ZNSt7__cxx1112basic_stringIcSt11char_traitsIcESaIcEE12_M_constructIPcEEvT_S7_St20forward_iterator_tag.isra.0>
  409658:	910283e1 	add	x1, sp, #0xa0
  40965c:	aa1803e0 	mov	x0, x24
  409660:	97fff3e9 	bl	406604 <_ZN5model5parseENSt7__cxx1112basic_stringIcSt11char_traitsIcESaIcEEE>
  409664:	f94053e0 	ldr	x0, [sp, #160]
  409668:	eb16001f 	cmp	x0, x22
  40966c:	54fffa20 	b.eq	4095b0 <_ZN5model5trainENSt7__cxx1112basic_stringIcSt11char_traitsIcESaIcEEE+0x1a0>  // b.none
  409670:	f9405be1 	ldr	x1, [sp, #176]
  409674:	91000421 	add	x1, x1, #0x1
  409678:	97ffe246 	bl	401f90 <_ZdlPvm@plt>
  40967c:	910203e1 	add	x1, sp, #0x80
  409680:	910303e0 	add	x0, sp, #0xc0
  409684:	97ffe267 	bl	402020 <_ZStrsIcSt11char_traitsIcESaIcEERSt13basic_istreamIT_T0_ES7_RNSt7__cxx1112basic_stringIS4_S5_T1_EE@plt>
  409688:	f9400002 	ldr	x2, [x0]
  40968c:	528000a1 	mov	w1, #0x5                   	// #5
  409690:	f85e8042 	ldur	x2, [x2, #-24]
  409694:	8b020000 	add	x0, x0, x2
  409698:	b9402000 	ldr	w0, [x0, #32]
  40969c:	6a01001f 	tst	w0, w1
  4096a0:	54fff9c0 	b.eq	4095d8 <_ZN5model5trainENSt7__cxx1112basic_stringIcSt11char_traitsIcESaIcEEE+0x1c8>  // b.none
  4096a4:	d0000121 	adrp	x1, 42f000 <__FRAME_END__+0x1a5d8>
  4096a8:	9132e021 	add	x1, x1, #0xcb8
  4096ac:	f9006be1 	str	x1, [sp, #208]
  4096b0:	910343e0 	add	x0, sp, #0xd0
  4096b4:	f9403be2 	ldr	x2, [sp, #112]
  4096b8:	f90063e2 	str	x2, [sp, #192]
  4096bc:	f9403fe1 	ldr	x1, [sp, #120]
  4096c0:	f900e7e1 	str	x1, [sp, #456]
  4096c4:	97ffe1db 	bl	401e30 <_ZNSt13basic_filebufIcSt11char_traitsIcEE5closeEv@plt>
  4096c8:	910503e0 	add	x0, sp, #0x140
  4096cc:	97ffe2a1 	bl	402150 <_ZNSt12__basic_fileIcED1Ev@plt>
  4096d0:	d0000121 	adrp	x1, 42f000 <__FRAME_END__+0x1a5d8>
  4096d4:	912dc021 	add	x1, x1, #0xb70
  4096d8:	910423e0 	add	x0, sp, #0x108
  4096dc:	f9006be1 	str	x1, [sp, #208]
  4096e0:	97ffe260 	bl	402060 <_ZNSt6localeD1Ev@plt>
  4096e4:	f85e8381 	ldur	x1, [x28, #-24]
  4096e8:	910303e2 	add	x2, sp, #0xc0
  4096ec:	f90063fc 	str	x28, [sp, #192]
  4096f0:	910723e0 	add	x0, sp, #0x1c8
  4096f4:	f94033e3 	ldr	x3, [sp, #96]
  4096f8:	f8216843 	str	x3, [x2, x1]
  4096fc:	f94037e1 	ldr	x1, [sp, #104]
  409700:	f90067ff 	str	xzr, [sp, #200]
  409704:	f900e7e1 	str	x1, [sp, #456]
  409708:	97ffe1e2 	bl	401e90 <_ZNSt8ios_baseD2Ev@plt>
  40970c:	f94043e0 	ldr	x0, [sp, #128]
  409710:	910243e1 	add	x1, sp, #0x90
  409714:	eb01001f 	cmp	x0, x1
  409718:	54000080 	b.eq	409728 <_ZN5model5trainENSt7__cxx1112basic_stringIcSt11char_traitsIcESaIcEEE+0x318>  // b.none
  40971c:	f9404be1 	ldr	x1, [sp, #144]
  409720:	91000421 	add	x1, x1, #0x1
  409724:	97ffe21b 	bl	401f90 <_ZdlPvm@plt>
  409728:	a9407bfd 	ldp	x29, x30, [sp]
  40972c:	a94153f3 	ldp	x19, x20, [sp, #16]
  409730:	a9425bf5 	ldp	x21, x22, [sp, #32]
  409734:	a94363f7 	ldp	x23, x24, [sp, #48]
  409738:	a9446bf9 	ldp	x25, x26, [sp, #64]
  40973c:	a94573fb 	ldp	x27, x28, [sp, #80]
  409740:	910b43ff 	add	sp, sp, #0x2d0
  409744:	d65f03c0 	ret
  409748:	aa1503e0 	mov	x0, x21
  40974c:	97ffe221 	bl	401fd0 <_ZNKSt5ctypeIcE13_M_widen_initEv@plt>
  409750:	f94002a2 	ldr	x2, [x21]
  409754:	d0ffffc0 	adrp	x0, 403000 <main+0xe40>
  409758:	91194000 	add	x0, x0, #0x650
  40975c:	52800141 	mov	w1, #0xa                   	// #10
  409760:	f9401842 	ldr	x2, [x2, #48]
  409764:	eb00005f 	cmp	x2, x0
  409768:	54fff640 	b.eq	409630 <_ZN5model5trainENSt7__cxx1112basic_stringIcSt11char_traitsIcESaIcEEE+0x220>  // b.none
  40976c:	aa1503e0 	mov	x0, x21
  409770:	d63f0040 	blr	x2
  409774:	12001c01 	and	w1, w0, #0xff
  409778:	17ffffae 	b	409630 <_ZN5model5trainENSt7__cxx1112basic_stringIcSt11char_traitsIcESaIcEEE+0x220>
  40977c:	aa1303e0 	mov	x0, x19
  409780:	97ffe214 	bl	401fd0 <_ZNKSt5ctypeIcE13_M_widen_initEv@plt>
  409784:	f9400262 	ldr	x2, [x19]
  409788:	d0ffffc0 	adrp	x0, 403000 <main+0xe40>
  40978c:	91194000 	add	x0, x0, #0x650
  409790:	52800141 	mov	w1, #0xa                   	// #10
  409794:	f9401842 	ldr	x2, [x2, #48]
  409798:	eb00005f 	cmp	x2, x0
  40979c:	54ffed20 	b.eq	409540 <_ZN5model5trainENSt7__cxx1112basic_stringIcSt11char_traitsIcESaIcEEE+0x130>  // b.none
  4097a0:	aa1303e0 	mov	x0, x19
  4097a4:	d63f0040 	blr	x2
  4097a8:	12001c01 	and	w1, w0, #0xff
  4097ac:	17ffff65 	b	409540 <_ZN5model5trainENSt7__cxx1112basic_stringIcSt11char_traitsIcESaIcEEE+0x130>
  4097b0:	aa1303e0 	mov	x0, x19
  4097b4:	97ffe207 	bl	401fd0 <_ZNKSt5ctypeIcE13_M_widen_initEv@plt>
  4097b8:	f9400262 	ldr	x2, [x19]
  4097bc:	d0ffffc0 	adrp	x0, 403000 <main+0xe40>
  4097c0:	91194000 	add	x0, x0, #0x650
  4097c4:	52800141 	mov	w1, #0xa                   	// #10
  4097c8:	f9401842 	ldr	x2, [x2, #48]
  4097cc:	eb00005f 	cmp	x2, x0
  4097d0:	54ffed80 	b.eq	409580 <_ZN5model5trainENSt7__cxx1112basic_stringIcSt11char_traitsIcESaIcEEE+0x170>  // b.none
  4097d4:	aa1303e0 	mov	x0, x19
  4097d8:	d63f0040 	blr	x2
  4097dc:	12001c01 	and	w1, w0, #0xff
  4097e0:	17ffff68 	b	409580 <_ZN5model5trainENSt7__cxx1112basic_stringIcSt11char_traitsIcESaIcEEE+0x170>
  4097e4:	b9402001 	ldr	w1, [x0, #32]
  4097e8:	321e0021 	orr	w1, w1, #0x4
  4097ec:	97ffe245 	bl	402100 <_ZNSt9basic_iosIcSt11char_traitsIcEE5clearESt12_Ios_Iostate@plt>
  4097f0:	17ffff45 	b	409504 <_ZN5model5trainENSt7__cxx1112basic_stringIcSt11char_traitsIcESaIcEEE+0xf4>
  4097f4:	97ffe203 	bl	402000 <_ZSt16__throw_bad_castv@plt>
  4097f8:	97ffe202 	bl	402000 <_ZSt16__throw_bad_castv@plt>
  4097fc:	97ffe201 	bl	402000 <_ZSt16__throw_bad_castv@plt>
  409800:	aa0003f3 	mov	x19, x0
  409804:	910303e0 	add	x0, sp, #0xc0
  409808:	97ffe18e 	bl	401e40 <_ZNSt14basic_ifstreamIcSt11char_traitsIcEED1Ev@plt>
  40980c:	910203e0 	add	x0, sp, #0x80
  409810:	97ffe1f4 	bl	401fe0 <_ZNSt7__cxx1112basic_stringIcSt11char_traitsIcESaIcEE10_M_disposeEv@plt>
  409814:	aa1303e0 	mov	x0, x19
  409818:	97ffe242 	bl	402120 <_Unwind_Resume@plt>
  40981c:	97ffe1a5 	bl	401eb0 <__cxa_begin_catch@plt>
  409820:	97ffe230 	bl	4020e0 <__cxa_end_catch@plt>
  409824:	17ffffa9 	b	4096c8 <_ZN5model5trainENSt7__cxx1112basic_stringIcSt11char_traitsIcESaIcEEE+0x2b8>
  409828:	aa0003f3 	mov	x19, x0
  40982c:	910283e0 	add	x0, sp, #0xa0
  409830:	97ffe1ec 	bl	401fe0 <_ZNSt7__cxx1112basic_stringIcSt11char_traitsIcESaIcEE10_M_disposeEv@plt>
  409834:	17fffff4 	b	409804 <_ZN5model5trainENSt7__cxx1112basic_stringIcSt11char_traitsIcESaIcEEE+0x3f4>
  409838:	aa0003f3 	mov	x19, x0
  40983c:	910343e0 	add	x0, sp, #0xd0
  409840:	97ffe21c 	bl	4020b0 <_ZNSt13basic_filebufIcSt11char_traitsIcEED1Ev@plt>
  409844:	f85e8380 	ldur	x0, [x28, #-24]
  409848:	910303e1 	add	x1, sp, #0xc0
  40984c:	f90063fc 	str	x28, [sp, #192]
  409850:	f94033e2 	ldr	x2, [sp, #96]
  409854:	f8206822 	str	x2, [x1, x0]
  409858:	f90067ff 	str	xzr, [sp, #200]
  40985c:	f94037e1 	ldr	x1, [sp, #104]
  409860:	910723e0 	add	x0, sp, #0x1c8
  409864:	f900e7e1 	str	x1, [sp, #456]
  409868:	97ffe18a 	bl	401e90 <_ZNSt8ios_baseD2Ev@plt>
  40986c:	17ffffe8 	b	40980c <_ZN5model5trainENSt7__cxx1112basic_stringIcSt11char_traitsIcESaIcEEE+0x3fc>
  409870:	aa0003f3 	mov	x19, x0
  409874:	17fffff4 	b	409844 <_ZN5model5trainENSt7__cxx1112basic_stringIcSt11char_traitsIcESaIcEEE+0x434>
  409878:	aa0003f3 	mov	x19, x0
  40987c:	17fffff8 	b	40985c <_ZN5model5trainENSt7__cxx1112basic_stringIcSt11char_traitsIcESaIcEEE+0x44c>

0000000000409880 <_ZN5model5orderEv>:
  409880:	a9ad7bfd 	stp	x29, x30, [sp, #-304]!
  409884:	f0000121 	adrp	x1, 430000 <_Znam@GLIBCXX_3.4>
  409888:	d2800682 	mov	x2, #0x34                  	// #52
  40988c:	910003fd 	mov	x29, sp
  409890:	a90363f7 	stp	x23, x24, [sp, #48]
  409894:	91080038 	add	x24, x1, #0x200
  409898:	aa0003f7 	mov	x23, x0
  40989c:	b0000041 	adrp	x1, 412000 <_Z19MD5Hash_simdversionPKNSt7__cxx1112basic_stringIcSt11char_traitsIcESaIcEEEP12__Uint32x4_t+0x1000>
  4098a0:	aa1803e0 	mov	x0, x24
  4098a4:	91370021 	add	x1, x1, #0xdc0
  4098a8:	a90153f3 	stp	x19, x20, [sp, #16]
  4098ac:	97ffe1c5 	bl	401fc0 <_ZSt16__ostream_insertIcSt11char_traitsIcEERSt13basic_ostreamIT_T0_ES6_PKS3_l@plt>
  4098b0:	f0000120 	adrp	x0, 430000 <_Znam@GLIBCXX_3.4>
  4098b4:	f9410000 	ldr	x0, [x0, #512]
  4098b8:	f85e8000 	ldur	x0, [x0, #-24]
  4098bc:	8b000300 	add	x0, x24, x0
  4098c0:	f9407813 	ldr	x19, [x0, #240]
  4098c4:	a9025bf5 	stp	x21, x22, [sp, #32]
  4098c8:	a9046bf9 	stp	x25, x26, [sp, #64]
  4098cc:	b40038f3 	cbz	x19, 409fe8 <_ZN5model5orderEv+0x768>
  4098d0:	3940e260 	ldrb	w0, [x19, #56]
  4098d4:	340031c0 	cbz	w0, 409f0c <_ZN5model5orderEv+0x68c>
  4098d8:	39410e61 	ldrb	w1, [x19, #67]
  4098dc:	aa1803e0 	mov	x0, x24
  4098e0:	97ffe140 	bl	401de0 <_ZNSo3putEc@plt>
  4098e4:	97ffe18b 	bl	401f10 <_ZNSo5flushEv@plt>
  4098e8:	a941eaf6 	ldp	x22, x26, [x23, #24]
  4098ec:	eb1a02df 	cmp	x22, x26
  4098f0:	54003760 	b.eq	409fdc <_ZN5model5orderEv+0x75c>  // b.none
  4098f4:	910562f5 	add	x21, x23, #0x158
  4098f8:	a90573fb 	stp	x27, x28, [sp, #80]
  4098fc:	9101e2fb 	add	x27, x23, #0x78
  409900:	aa1603e1 	mov	x1, x22
  409904:	910203e0 	add	x0, sp, #0x80
  409908:	940003d2 	bl	40a850 <_ZN2PTC1ERKS_>
  40990c:	910203e1 	add	x1, sp, #0x80
  409910:	910363e0 	add	x0, sp, #0xd8
  409914:	940003cf 	bl	40a850 <_ZN2PTC1ERKS_>
  409918:	910363e1 	add	x1, sp, #0xd8
  40991c:	aa1703e0 	mov	x0, x23
  409920:	97ffe980 	bl	403f20 <_ZN5model6FindPTE2PT>
  409924:	2a0003e2 	mov	w2, w0
  409928:	9101f3e1 	add	x1, sp, #0x7c
  40992c:	aa1b03e0 	mov	x0, x27
  409930:	b9007fe2 	str	w2, [sp, #124]
  409934:	940008ff 	bl	40bd30 <_ZNSt8__detail9_Map_baseIiSt4pairIKiiESaIS3_ENS_10_Select1stESt8equal_toIiESt4hashIiENS_18_Mod_range_hashingENS_20_Default_ranged_hashENS_20_Prime_rehash_policyENS_17_Hashtable_traitsILb0ELb0ELb1EEELb1EEixEOi>
  409938:	bd400000 	ldr	s0, [x0]
  40993c:	bd4012e1 	ldr	s1, [x23, #16]
  409940:	f9408be1 	ldr	x1, [sp, #272]
  409944:	5e21d800 	scvtf	s0, s0
  409948:	5e21d821 	scvtf	s1, s1
  40994c:	1e211800 	fdiv	s0, s0, s1
  409950:	bd00d3e0 	str	s0, [sp, #208]
  409954:	b40000a1 	cbz	x1, 409968 <_ZN5model5orderEv+0xe8>
  409958:	f94093e2 	ldr	x2, [sp, #288]
  40995c:	aa0103e0 	mov	x0, x1
  409960:	cb010041 	sub	x1, x2, x1
  409964:	97ffe18b 	bl	401f90 <_ZdlPvm@plt>
  409968:	f9407fe0 	ldr	x0, [sp, #248]
  40996c:	b4000080 	cbz	x0, 40997c <_ZN5model5orderEv+0xfc>
  409970:	f94087e1 	ldr	x1, [sp, #264]
  409974:	cb000021 	sub	x1, x1, x0
  409978:	97ffe186 	bl	401f90 <_ZdlPvm@plt>
  40997c:	a94de7f4 	ldp	x20, x25, [sp, #216]
  409980:	eb19029f 	cmp	x20, x25
  409984:	540006e0 	b.eq	409a60 <_ZN5model5orderEv+0x1e0>  // b.none
  409988:	f9404693 	ldr	x19, [x20, #136]
  40998c:	b40000d3 	cbz	x19, 4099a4 <_ZN5model5orderEv+0x124>
  409990:	aa1303e0 	mov	x0, x19
  409994:	d2800201 	mov	x1, #0x10                  	// #16
  409998:	f9400273 	ldr	x19, [x19]
  40999c:	97ffe17d 	bl	401f90 <_ZdlPvm@plt>
  4099a0:	b5ffff93 	cbnz	x19, 409990 <_ZN5model5orderEv+0x110>
  4099a4:	a9478a80 	ldp	x0, x2, [x20, #120]
  4099a8:	52800001 	mov	w1, #0x0                   	// #0
  4099ac:	d37df042 	lsl	x2, x2, #3
  4099b0:	97ffe150 	bl	401ef0 <memset@plt>
  4099b4:	a9478680 	ldp	x0, x1, [x20, #120]
  4099b8:	9102a282 	add	x2, x20, #0xa8
  4099bc:	a908fe9f 	stp	xzr, xzr, [x20, #136]
  4099c0:	eb02001f 	cmp	x0, x2
  4099c4:	54000060 	b.eq	4099d0 <_ZN5model5orderEv+0x150>  // b.none
  4099c8:	d37df021 	lsl	x1, x1, #3
  4099cc:	97ffe171 	bl	401f90 <_ZdlPvm@plt>
  4099d0:	91010280 	add	x0, x20, #0x40
  4099d4:	940001bb 	bl	40a0c0 <_ZNSt10_HashtableINSt7__cxx1112basic_stringIcSt11char_traitsIcESaIcEEESt4pairIKS5_iESaIS8_ENSt8__detail10_Select1stESt8equal_toIS5_ESt4hashIS5_ENSA_18_Mod_range_hashingENSA_20_Default_ranged_hashENSA_20_Prime_rehash_policyENSA_17_Hashtable_traitsILb1ELb0ELb1EEEE5clearEv>
  4099d8:	a9440680 	ldp	x0, x1, [x20, #64]
  4099dc:	9101c282 	add	x2, x20, #0x70
  4099e0:	eb02001f 	cmp	x0, x2
  4099e4:	54000060 	b.eq	4099f0 <_ZN5model5orderEv+0x170>  // b.none
  4099e8:	d37df021 	lsl	x1, x1, #3
  4099ec:	97ffe169 	bl	401f90 <_ZdlPvm@plt>
  4099f0:	f9401280 	ldr	x0, [x20, #32]
  4099f4:	b4000080 	cbz	x0, 409a04 <_ZN5model5orderEv+0x184>
  4099f8:	f9401a81 	ldr	x1, [x20, #48]
  4099fc:	cb000021 	sub	x1, x1, x0
  409a00:	97ffe164 	bl	401f90 <_ZdlPvm@plt>
  409a04:	a940f293 	ldp	x19, x28, [x20, #8]
  409a08:	eb1c027f 	cmp	x19, x28
  409a0c:	54000180 	b.eq	409a3c <_ZN5model5orderEv+0x1bc>  // b.none
  409a10:	aa1303e1 	mov	x1, x19
  409a14:	f8410420 	ldr	x0, [x1], #16
  409a18:	eb01001f 	cmp	x0, x1
  409a1c:	54000080 	b.eq	409a2c <_ZN5model5orderEv+0x1ac>  // b.none
  409a20:	f9400a61 	ldr	x1, [x19, #16]
  409a24:	91000421 	add	x1, x1, #0x1
  409a28:	97ffe15a 	bl	401f90 <_ZdlPvm@plt>
  409a2c:	91008273 	add	x19, x19, #0x20
  409a30:	eb13039f 	cmp	x28, x19
  409a34:	54fffee1 	b.ne	409a10 <_ZN5model5orderEv+0x190>  // b.any
  409a38:	f940069c 	ldr	x28, [x20, #8]
  409a3c:	b40000bc 	cbz	x28, 409a50 <_ZN5model5orderEv+0x1d0>
  409a40:	f9400e81 	ldr	x1, [x20, #24]
  409a44:	aa1c03e0 	mov	x0, x28
  409a48:	cb1c0021 	sub	x1, x1, x28
  409a4c:	97ffe151 	bl	401f90 <_ZdlPvm@plt>
  409a50:	9102c294 	add	x20, x20, #0xb0
  409a54:	eb14033f 	cmp	x25, x20
  409a58:	54fff981 	b.ne	409988 <_ZN5model5orderEv+0x108>  // b.any
  409a5c:	f9406ff9 	ldr	x25, [sp, #216]
  409a60:	b40000b9 	cbz	x25, 409a74 <_ZN5model5orderEv+0x1f4>
  409a64:	f94077e1 	ldr	x1, [sp, #232]
  409a68:	aa1903e0 	mov	x0, x25
  409a6c:	cb190021 	sub	x1, x1, x25
  409a70:	97ffe148 	bl	401f90 <_ZdlPvm@plt>
  409a74:	a94086a0 	ldp	x0, x1, [x21, #8]
  409a78:	f90037f5 	str	x21, [sp, #104]
  409a7c:	eb01001f 	cmp	x0, x1
  409a80:	54002180 	b.eq	409eb0 <_ZN5model5orderEv+0x630>  // b.none
  409a84:	910203e1 	add	x1, sp, #0x80
  409a88:	94000372 	bl	40a850 <_ZN2PTC1ERKS_>
  409a8c:	f94006a0 	ldr	x0, [x21, #8]
  409a90:	91016000 	add	x0, x0, #0x58
  409a94:	f90006a0 	str	x0, [x21, #8]
  409a98:	f9405fe0 	ldr	x0, [sp, #184]
  409a9c:	b4000080 	cbz	x0, 409aac <_ZN5model5orderEv+0x22c>
  409aa0:	f94067e1 	ldr	x1, [sp, #200]
  409aa4:	cb000021 	sub	x1, x1, x0
  409aa8:	97ffe13a 	bl	401f90 <_ZdlPvm@plt>
  409aac:	f94053e0 	ldr	x0, [sp, #160]
  409ab0:	b4000080 	cbz	x0, 409ac0 <_ZN5model5orderEv+0x240>
  409ab4:	f9405be1 	ldr	x1, [sp, #176]
  409ab8:	cb000021 	sub	x1, x1, x0
  409abc:	97ffe135 	bl	401f90 <_ZdlPvm@plt>
  409ac0:	a94853f3 	ldp	x19, x20, [sp, #128]
  409ac4:	eb14027f 	cmp	x19, x20
  409ac8:	54000700 	b.eq	409ba8 <_ZN5model5orderEv+0x328>  // b.none
  409acc:	d503201f 	nop
  409ad0:	f9404679 	ldr	x25, [x19, #136]
  409ad4:	b40000d9 	cbz	x25, 409aec <_ZN5model5orderEv+0x26c>
  409ad8:	aa1903e0 	mov	x0, x25
  409adc:	d2800201 	mov	x1, #0x10                  	// #16
  409ae0:	f9400339 	ldr	x25, [x25]
  409ae4:	97ffe12b 	bl	401f90 <_ZdlPvm@plt>
  409ae8:	b5ffff99 	cbnz	x25, 409ad8 <_ZN5model5orderEv+0x258>
  409aec:	a9478a60 	ldp	x0, x2, [x19, #120]
  409af0:	52800001 	mov	w1, #0x0                   	// #0
  409af4:	d37df042 	lsl	x2, x2, #3
  409af8:	97ffe0fe 	bl	401ef0 <memset@plt>
  409afc:	a9478660 	ldp	x0, x1, [x19, #120]
  409b00:	9102a262 	add	x2, x19, #0xa8
  409b04:	a908fe7f 	stp	xzr, xzr, [x19, #136]
  409b08:	eb02001f 	cmp	x0, x2
  409b0c:	54000060 	b.eq	409b18 <_ZN5model5orderEv+0x298>  // b.none
  409b10:	d37df021 	lsl	x1, x1, #3
  409b14:	97ffe11f 	bl	401f90 <_ZdlPvm@plt>
  409b18:	91010260 	add	x0, x19, #0x40
  409b1c:	94000169 	bl	40a0c0 <_ZNSt10_HashtableINSt7__cxx1112basic_stringIcSt11char_traitsIcESaIcEEESt4pairIKS5_iESaIS8_ENSt8__detail10_Select1stESt8equal_toIS5_ESt4hashIS5_ENSA_18_Mod_range_hashingENSA_20_Default_ranged_hashENSA_20_Prime_rehash_policyENSA_17_Hashtable_traitsILb1ELb0ELb1EEEE5clearEv>
  409b20:	a9440660 	ldp	x0, x1, [x19, #64]
  409b24:	9101c262 	add	x2, x19, #0x70
  409b28:	eb02001f 	cmp	x0, x2
  409b2c:	54000060 	b.eq	409b38 <_ZN5model5orderEv+0x2b8>  // b.none
  409b30:	d37df021 	lsl	x1, x1, #3
  409b34:	97ffe117 	bl	401f90 <_ZdlPvm@plt>
  409b38:	f9401260 	ldr	x0, [x19, #32]
  409b3c:	b4000080 	cbz	x0, 409b4c <_ZN5model5orderEv+0x2cc>
  409b40:	f9401a61 	ldr	x1, [x19, #48]
  409b44:	cb000021 	sub	x1, x1, x0
  409b48:	97ffe112 	bl	401f90 <_ZdlPvm@plt>
  409b4c:	a940f279 	ldp	x25, x28, [x19, #8]
  409b50:	eb1c033f 	cmp	x25, x28
  409b54:	54000180 	b.eq	409b84 <_ZN5model5orderEv+0x304>  // b.none
  409b58:	aa1903e1 	mov	x1, x25
  409b5c:	f8410420 	ldr	x0, [x1], #16
  409b60:	eb01001f 	cmp	x0, x1
  409b64:	54000080 	b.eq	409b74 <_ZN5model5orderEv+0x2f4>  // b.none
  409b68:	f9400b21 	ldr	x1, [x25, #16]
  409b6c:	91000421 	add	x1, x1, #0x1
  409b70:	97ffe108 	bl	401f90 <_ZdlPvm@plt>
  409b74:	91008339 	add	x25, x25, #0x20
  409b78:	eb19039f 	cmp	x28, x25
  409b7c:	54fffee1 	b.ne	409b58 <_ZN5model5orderEv+0x2d8>  // b.any
  409b80:	f940067c 	ldr	x28, [x19, #8]
  409b84:	b40000bc 	cbz	x28, 409b98 <_ZN5model5orderEv+0x318>
  409b88:	f9400e61 	ldr	x1, [x19, #24]
  409b8c:	aa1c03e0 	mov	x0, x28
  409b90:	cb1c0021 	sub	x1, x1, x28
  409b94:	97ffe0ff 	bl	401f90 <_ZdlPvm@plt>
  409b98:	9102c273 	add	x19, x19, #0xb0
  409b9c:	eb13029f 	cmp	x20, x19
  409ba0:	54fff981 	b.ne	409ad0 <_ZN5model5orderEv+0x250>  // b.any
  409ba4:	f94043f4 	ldr	x20, [sp, #128]
  409ba8:	b40000b4 	cbz	x20, 409bbc <_ZN5model5orderEv+0x33c>
  409bac:	f9404be1 	ldr	x1, [sp, #144]
  409bb0:	aa1403e0 	mov	x0, x20
  409bb4:	cb140021 	sub	x1, x1, x20
  409bb8:	97ffe0f6 	bl	401f90 <_ZdlPvm@plt>
  409bbc:	910162d6 	add	x22, x22, #0x58
  409bc0:	eb16035f 	cmp	x26, x22
  409bc4:	54ffe9e1 	b.ne	409900 <_ZN5model5orderEv+0x80>  // b.any
  409bc8:	a94573fb 	ldp	x27, x28, [sp, #80]
  409bcc:	d2800122 	mov	x2, #0x9                   	// #9
  409bd0:	aa1803e0 	mov	x0, x24
  409bd4:	b0000041 	adrp	x1, 412000 <_Z19MD5Hash_simdversionPKNSt7__cxx1112basic_stringIcSt11char_traitsIcESaIcEEEP12__Uint32x4_t+0x1000>
  409bd8:	9137e021 	add	x1, x1, #0xdf8
  409bdc:	97ffe0f9 	bl	401fc0 <_ZSt16__ostream_insertIcSt11char_traitsIcEERSt13basic_ostreamIT_T0_ES6_PKS3_l@plt>
  409be0:	f94037e0 	ldr	x0, [sp, #104]
  409be4:	d2917462 	mov	x2, #0x8ba3                	// #35747
  409be8:	f940aee3 	ldr	x3, [x23, #344]
  409bec:	f2b745c2 	movk	x2, #0xba2e, lsl #16
  409bf0:	f9400401 	ldr	x1, [x0, #8]
  409bf4:	f2d45d02 	movk	x2, #0xa2e8, lsl #32
  409bf8:	f2e5d162 	movk	x2, #0x2e8b, lsl #48
  409bfc:	aa1803e0 	mov	x0, x24
  409c00:	cb030021 	sub	x1, x1, x3
  409c04:	9343fc21 	asr	x1, x1, #3
  409c08:	9b027c21 	mul	x1, x1, x2
  409c0c:	97ffe0bd 	bl	401f00 <_ZNSo9_M_insertImEERSoT_@plt>
  409c10:	aa0003f4 	mov	x20, x0
  409c14:	f9400000 	ldr	x0, [x0]
  409c18:	f85e8000 	ldur	x0, [x0, #-24]
  409c1c:	8b000280 	add	x0, x20, x0
  409c20:	f9407813 	ldr	x19, [x0, #240]
  409c24:	b4001e33 	cbz	x19, 409fe8 <_ZN5model5orderEv+0x768>
  409c28:	3940e260 	ldrb	w0, [x19, #56]
  409c2c:	34001560 	cbz	w0, 409ed8 <_ZN5model5orderEv+0x658>
  409c30:	39410e61 	ldrb	w1, [x19, #67]
  409c34:	aa1403e0 	mov	x0, x20
  409c38:	97ffe06a 	bl	401de0 <_ZNSo3putEc@plt>
  409c3c:	97ffe0b5 	bl	401f10 <_ZNSo5flushEv@plt>
  409c40:	a955d2f3 	ldp	x19, x20, [x23, #344]
  409c44:	eb13029f 	cmp	x20, x19
  409c48:	54000420 	b.eq	409ccc <_ZN5model5orderEv+0x44c>  // b.none
  409c4c:	cb130296 	sub	x22, x20, x19
  409c50:	d2917465 	mov	x5, #0x8ba3                	// #35747
  409c54:	f2b745c5 	movk	x5, #0xba2e, lsl #16
  409c58:	528007e4 	mov	w4, #0x3f                  	// #63
  409c5c:	9343fec2 	asr	x2, x22, #3
  409c60:	f2d45d05 	movk	x5, #0xa2e8, lsl #32
  409c64:	f2e5d165 	movk	x5, #0x2e8b, lsl #48
  409c68:	d0ffffd5 	adrp	x21, 403000 <main+0xe40>
  409c6c:	9138c2b5 	add	x21, x21, #0xe30
  409c70:	aa1403e1 	mov	x1, x20
  409c74:	9b057c42 	mul	x2, x2, x5
  409c78:	aa1503e3 	mov	x3, x21
  409c7c:	aa1303e0 	mov	x0, x19
  409c80:	dac01042 	clz	x2, x2
  409c84:	4b020082 	sub	w2, w4, w2
  409c88:	937f7c42 	sbfiz	x2, x2, #1, #32
  409c8c:	94000c11 	bl	40ccd0 <_ZSt16__introsort_loopIN9__gnu_cxx17__normal_iteratorIP2PTSt6vectorIS2_SaIS2_EEEElNS0_5__ops15_Iter_comp_iterIPFbRKS2_SB_EEEEvT_SF_T0_T1_>
  409c90:	f11602df 	cmp	x22, #0x580
  409c94:	5400118d 	b.le	409ec4 <_ZN5model5orderEv+0x644>
  409c98:	91160261 	add	x1, x19, #0x580
  409c9c:	aa1303e0 	mov	x0, x19
  409ca0:	aa1503e2 	mov	x2, x21
  409ca4:	aa0103f3 	mov	x19, x1
  409ca8:	94000932 	bl	40c170 <_ZSt16__insertion_sortIN9__gnu_cxx17__normal_iteratorIP2PTSt6vectorIS2_SaIS2_EEEENS0_5__ops15_Iter_comp_iterIPFbRKS2_SB_EEEEvT_SF_T0_>
  409cac:	eb13029f 	cmp	x20, x19
  409cb0:	540000e0 	b.eq	409ccc <_ZN5model5orderEv+0x44c>  // b.none
  409cb4:	aa1303e0 	mov	x0, x19
  409cb8:	aa1503e1 	mov	x1, x21
  409cbc:	91016273 	add	x19, x19, #0x58
  409cc0:	94000894 	bl	40bf10 <_ZSt25__unguarded_linear_insertIN9__gnu_cxx17__normal_iteratorIP2PTSt6vectorIS2_SaIS2_EEEENS0_5__ops14_Val_comp_iterIPFbRKS2_SB_EEEEvT_T0_>
  409cc4:	eb13029f 	cmp	x20, x19
  409cc8:	54ffff61 	b.ne	409cb4 <_ZN5model5orderEv+0x434>  // b.any
  409ccc:	aa1803e0 	mov	x0, x24
  409cd0:	b0000041 	adrp	x1, 412000 <_Z19MD5Hash_simdversionPKNSt7__cxx1112basic_stringIcSt11char_traitsIcESaIcEEEP12__Uint32x4_t+0x1000>
  409cd4:	d2800202 	mov	x2, #0x10                  	// #16
  409cd8:	91382021 	add	x1, x1, #0xe08
  409cdc:	97ffe0b9 	bl	401fc0 <_ZSt16__ostream_insertIcSt11char_traitsIcEERSt13basic_ostreamIT_T0_ES6_PKS3_l@plt>
  409ce0:	f0000120 	adrp	x0, 430000 <_Znam@GLIBCXX_3.4>
  409ce4:	f9410000 	ldr	x0, [x0, #512]
  409ce8:	f85e8000 	ldur	x0, [x0, #-24]
  409cec:	8b000300 	add	x0, x24, x0
  409cf0:	f9407813 	ldr	x19, [x0, #240]
  409cf4:	b40017b3 	cbz	x19, 409fe8 <_ZN5model5orderEv+0x768>
  409cf8:	3940e260 	ldrb	w0, [x19, #56]
  409cfc:	34001560 	cbz	w0, 409fa8 <_ZN5model5orderEv+0x728>
  409d00:	39410e61 	ldrb	w1, [x19, #67]
  409d04:	9100c2f6 	add	x22, x23, #0x30
  409d08:	aa1803e0 	mov	x0, x24
  409d0c:	97ffe035 	bl	401de0 <_ZNSo3putEc@plt>
  409d10:	d2800015 	mov	x21, #0x0                   	// #0
  409d14:	97ffe07f 	bl	401f10 <_ZNSo5flushEv@plt>
  409d18:	d2800013 	mov	x19, #0x0                   	// #0
  409d1c:	f94006c1 	ldr	x1, [x22, #8]
  409d20:	f9401ae0 	ldr	x0, [x23, #48]
  409d24:	eb00003f 	cmp	x1, x0
  409d28:	54000200 	b.eq	409d68 <_ZN5model5orderEv+0x4e8>  // b.none
  409d2c:	d2917474 	mov	x20, #0x8ba3                	// #35747
  409d30:	f2b745d4 	movk	x20, #0xba2e, lsl #16
  409d34:	f2d45d14 	movk	x20, #0xa2e8, lsl #32
  409d38:	f2e5d174 	movk	x20, #0x2e8b, lsl #48
  409d3c:	d503201f 	nop
  409d40:	8b150000 	add	x0, x0, x21
  409d44:	97ffedfb 	bl	405530 <_ZN7segment5orderEv>
  409d48:	a94006c0 	ldp	x0, x1, [x22]
  409d4c:	91000673 	add	x19, x19, #0x1
  409d50:	9102c2b5 	add	x21, x21, #0xb0
  409d54:	cb000021 	sub	x1, x1, x0
  409d58:	9344fc21 	asr	x1, x1, #4
  409d5c:	9b147c21 	mul	x1, x1, x20
  409d60:	eb13003f 	cmp	x1, x19
  409d64:	54fffee8 	b.hi	409d40 <_ZN5model5orderEv+0x4c0>  // b.pmore
  409d68:	aa1803e0 	mov	x0, x24
  409d6c:	b0000041 	adrp	x1, 412000 <_Z19MD5Hash_simdversionPKNSt7__cxx1112basic_stringIcSt11char_traitsIcESaIcEEEP12__Uint32x4_t+0x1000>
  409d70:	d28001e2 	mov	x2, #0xf                   	// #15
  409d74:	91388021 	add	x1, x1, #0xe20
  409d78:	97ffe092 	bl	401fc0 <_ZSt16__ostream_insertIcSt11char_traitsIcEERSt13basic_ostreamIT_T0_ES6_PKS3_l@plt>
  409d7c:	f0000120 	adrp	x0, 430000 <_Znam@GLIBCXX_3.4>
  409d80:	f9410000 	ldr	x0, [x0, #512]
  409d84:	f85e8000 	ldur	x0, [x0, #-24]
  409d88:	8b000300 	add	x0, x24, x0
  409d8c:	f9407813 	ldr	x19, [x0, #240]
  409d90:	b40012d3 	cbz	x19, 409fe8 <_ZN5model5orderEv+0x768>
  409d94:	3940e260 	ldrb	w0, [x19, #56]
  409d98:	34000ee0 	cbz	w0, 409f74 <_ZN5model5orderEv+0x6f4>
  409d9c:	39410e61 	ldrb	w1, [x19, #67]
  409da0:	910122f6 	add	x22, x23, #0x48
  409da4:	aa1803e0 	mov	x0, x24
  409da8:	97ffe00e 	bl	401de0 <_ZNSo3putEc@plt>
  409dac:	d2800015 	mov	x21, #0x0                   	// #0
  409db0:	97ffe058 	bl	401f10 <_ZNSo5flushEv@plt>
  409db4:	d2800013 	mov	x19, #0x0                   	// #0
  409db8:	f94006c1 	ldr	x1, [x22, #8]
  409dbc:	f94026e0 	ldr	x0, [x23, #72]
  409dc0:	eb00003f 	cmp	x1, x0
  409dc4:	540001e0 	b.eq	409e00 <_ZN5model5orderEv+0x580>  // b.none
  409dc8:	d2917474 	mov	x20, #0x8ba3                	// #35747
  409dcc:	f2b745d4 	movk	x20, #0xba2e, lsl #16
  409dd0:	f2d45d14 	movk	x20, #0xa2e8, lsl #32
  409dd4:	f2e5d174 	movk	x20, #0x2e8b, lsl #48
  409dd8:	8b150000 	add	x0, x0, x21
  409ddc:	97ffedd5 	bl	405530 <_ZN7segment5orderEv>
  409de0:	a94006c0 	ldp	x0, x1, [x22]
  409de4:	91000673 	add	x19, x19, #0x1
  409de8:	9102c2b5 	add	x21, x21, #0xb0
  409dec:	cb000021 	sub	x1, x1, x0
  409df0:	9344fc21 	asr	x1, x1, #4
  409df4:	9b147c21 	mul	x1, x1, x20
  409df8:	eb13003f 	cmp	x1, x19
  409dfc:	54fffee8 	b.hi	409dd8 <_ZN5model5orderEv+0x558>  // b.pmore
  409e00:	aa1803e0 	mov	x0, x24
  409e04:	b0000041 	adrp	x1, 412000 <_Z19MD5Hash_simdversionPKNSt7__cxx1112basic_stringIcSt11char_traitsIcESaIcEEEP12__Uint32x4_t+0x1000>
  409e08:	d2800202 	mov	x2, #0x10                  	// #16
  409e0c:	9138c021 	add	x1, x1, #0xe30
  409e10:	97ffe06c 	bl	401fc0 <_ZSt16__ostream_insertIcSt11char_traitsIcEERSt13basic_ostreamIT_T0_ES6_PKS3_l@plt>
  409e14:	f0000120 	adrp	x0, 430000 <_Znam@GLIBCXX_3.4>
  409e18:	f9410000 	ldr	x0, [x0, #512]
  409e1c:	f85e8000 	ldur	x0, [x0, #-24]
  409e20:	8b000300 	add	x0, x24, x0
  409e24:	f9407813 	ldr	x19, [x0, #240]
  409e28:	b4000e13 	cbz	x19, 409fe8 <_ZN5model5orderEv+0x768>
  409e2c:	3940e260 	ldrb	w0, [x19, #56]
  409e30:	34000880 	cbz	w0, 409f40 <_ZN5model5orderEv+0x6c0>
  409e34:	39410e61 	ldrb	w1, [x19, #67]
  409e38:	910182f5 	add	x21, x23, #0x60
  409e3c:	aa1803e0 	mov	x0, x24
  409e40:	97ffdfe8 	bl	401de0 <_ZNSo3putEc@plt>
  409e44:	d2800013 	mov	x19, #0x0                   	// #0
  409e48:	97ffe032 	bl	401f10 <_ZNSo5flushEv@plt>
  409e4c:	d2800014 	mov	x20, #0x0                   	// #0
  409e50:	f94006a1 	ldr	x1, [x21, #8]
  409e54:	f94032e0 	ldr	x0, [x23, #96]
  409e58:	eb00003f 	cmp	x1, x0
  409e5c:	540001e0 	b.eq	409e98 <_ZN5model5orderEv+0x618>  // b.none
  409e60:	d2917476 	mov	x22, #0x8ba3                	// #35747
  409e64:	f2b745d6 	movk	x22, #0xba2e, lsl #16
  409e68:	f2d45d16 	movk	x22, #0xa2e8, lsl #32
  409e6c:	f2e5d176 	movk	x22, #0x2e8b, lsl #48
  409e70:	8b130000 	add	x0, x0, x19
  409e74:	97ffedaf 	bl	405530 <_ZN7segment5orderEv>
  409e78:	a94006a0 	ldp	x0, x1, [x21]
  409e7c:	91000694 	add	x20, x20, #0x1
  409e80:	9102c273 	add	x19, x19, #0xb0
  409e84:	cb000021 	sub	x1, x1, x0
  409e88:	9344fc21 	asr	x1, x1, #4
  409e8c:	9b167c21 	mul	x1, x1, x22
  409e90:	eb14003f 	cmp	x1, x20
  409e94:	54fffee8 	b.hi	409e70 <_ZN5model5orderEv+0x5f0>  // b.pmore
  409e98:	a94153f3 	ldp	x19, x20, [sp, #16]
  409e9c:	a9425bf5 	ldp	x21, x22, [sp, #32]
  409ea0:	a94363f7 	ldp	x23, x24, [sp, #48]
  409ea4:	a9446bf9 	ldp	x25, x26, [sp, #64]
  409ea8:	a8d37bfd 	ldp	x29, x30, [sp], #304
  409eac:	d65f03c0 	ret
  409eb0:	aa0003e1 	mov	x1, x0
  409eb4:	910203e2 	add	x2, sp, #0x80
  409eb8:	aa1503e0 	mov	x0, x21
  409ebc:	94000571 	bl	40b480 <_ZNSt6vectorI2PTSaIS0_EE17_M_realloc_insertIJRS0_EEEvN9__gnu_cxx17__normal_iteratorIPS0_S2_EEDpOT_>
  409ec0:	17fffef6 	b	409a98 <_ZN5model5orderEv+0x218>
  409ec4:	aa1503e2 	mov	x2, x21
  409ec8:	aa1403e1 	mov	x1, x20
  409ecc:	aa1303e0 	mov	x0, x19
  409ed0:	940008a8 	bl	40c170 <_ZSt16__insertion_sortIN9__gnu_cxx17__normal_iteratorIP2PTSt6vectorIS2_SaIS2_EEEENS0_5__ops15_Iter_comp_iterIPFbRKS2_SB_EEEEvT_SF_T0_>
  409ed4:	17ffff7e 	b	409ccc <_ZN5model5orderEv+0x44c>
  409ed8:	aa1303e0 	mov	x0, x19
  409edc:	97ffe03d 	bl	401fd0 <_ZNKSt5ctypeIcE13_M_widen_initEv@plt>
  409ee0:	f9400262 	ldr	x2, [x19]
  409ee4:	d0ffffc0 	adrp	x0, 403000 <main+0xe40>
  409ee8:	91194000 	add	x0, x0, #0x650
  409eec:	52800141 	mov	w1, #0xa                   	// #10
  409ef0:	f9401842 	ldr	x2, [x2, #48]
  409ef4:	eb00005f 	cmp	x2, x0
  409ef8:	54ffe9e0 	b.eq	409c34 <_ZN5model5orderEv+0x3b4>  // b.none
  409efc:	aa1303e0 	mov	x0, x19
  409f00:	d63f0040 	blr	x2
  409f04:	12001c01 	and	w1, w0, #0xff
  409f08:	17ffff4b 	b	409c34 <_ZN5model5orderEv+0x3b4>
  409f0c:	aa1303e0 	mov	x0, x19
  409f10:	97ffe030 	bl	401fd0 <_ZNKSt5ctypeIcE13_M_widen_initEv@plt>
  409f14:	f9400262 	ldr	x2, [x19]
  409f18:	d0ffffc0 	adrp	x0, 403000 <main+0xe40>
  409f1c:	91194000 	add	x0, x0, #0x650
  409f20:	52800141 	mov	w1, #0xa                   	// #10
  409f24:	f9401842 	ldr	x2, [x2, #48]
  409f28:	eb00005f 	cmp	x2, x0
  409f2c:	54ffcd80 	b.eq	4098dc <_ZN5model5orderEv+0x5c>  // b.none
  409f30:	aa1303e0 	mov	x0, x19
  409f34:	d63f0040 	blr	x2
  409f38:	12001c01 	and	w1, w0, #0xff
  409f3c:	17fffe68 	b	4098dc <_ZN5model5orderEv+0x5c>
  409f40:	aa1303e0 	mov	x0, x19
  409f44:	97ffe023 	bl	401fd0 <_ZNKSt5ctypeIcE13_M_widen_initEv@plt>
  409f48:	f9400262 	ldr	x2, [x19]
  409f4c:	d0ffffc0 	adrp	x0, 403000 <main+0xe40>
  409f50:	91194000 	add	x0, x0, #0x650
  409f54:	52800141 	mov	w1, #0xa                   	// #10
  409f58:	f9401842 	ldr	x2, [x2, #48]
  409f5c:	eb00005f 	cmp	x2, x0
  409f60:	54fff6c0 	b.eq	409e38 <_ZN5model5orderEv+0x5b8>  // b.none
  409f64:	aa1303e0 	mov	x0, x19
  409f68:	d63f0040 	blr	x2
  409f6c:	12001c01 	and	w1, w0, #0xff
  409f70:	17ffffb2 	b	409e38 <_ZN5model5orderEv+0x5b8>
  409f74:	aa1303e0 	mov	x0, x19
  409f78:	97ffe016 	bl	401fd0 <_ZNKSt5ctypeIcE13_M_widen_initEv@plt>
  409f7c:	f9400262 	ldr	x2, [x19]
  409f80:	d0ffffc0 	adrp	x0, 403000 <main+0xe40>
  409f84:	91194000 	add	x0, x0, #0x650
  409f88:	52800141 	mov	w1, #0xa                   	// #10
  409f8c:	f9401842 	ldr	x2, [x2, #48]
  409f90:	eb00005f 	cmp	x2, x0
  409f94:	54fff060 	b.eq	409da0 <_ZN5model5orderEv+0x520>  // b.none
  409f98:	aa1303e0 	mov	x0, x19
  409f9c:	d63f0040 	blr	x2
  409fa0:	12001c01 	and	w1, w0, #0xff
  409fa4:	17ffff7f 	b	409da0 <_ZN5model5orderEv+0x520>
  409fa8:	aa1303e0 	mov	x0, x19
  409fac:	97ffe009 	bl	401fd0 <_ZNKSt5ctypeIcE13_M_widen_initEv@plt>
  409fb0:	f9400262 	ldr	x2, [x19]
  409fb4:	d0ffffc0 	adrp	x0, 403000 <main+0xe40>
  409fb8:	91194000 	add	x0, x0, #0x650
  409fbc:	52800141 	mov	w1, #0xa                   	// #10
  409fc0:	f9401842 	ldr	x2, [x2, #48]
  409fc4:	eb00005f 	cmp	x2, x0
  409fc8:	54ffe9e0 	b.eq	409d04 <_ZN5model5orderEv+0x484>  // b.none
  409fcc:	aa1303e0 	mov	x0, x19
  409fd0:	d63f0040 	blr	x2
  409fd4:	12001c01 	and	w1, w0, #0xff
  409fd8:	17ffff4b 	b	409d04 <_ZN5model5orderEv+0x484>
  409fdc:	910562e0 	add	x0, x23, #0x158
  409fe0:	f90037e0 	str	x0, [sp, #104]
  409fe4:	17fffefa 	b	409bcc <_ZN5model5orderEv+0x34c>
  409fe8:	a90573fb 	stp	x27, x28, [sp, #80]
  409fec:	97ffe005 	bl	402000 <_ZSt16__throw_bad_castv@plt>
  409ff0:	aa0003f3 	mov	x19, x0
  409ff4:	910363e0 	add	x0, sp, #0xd8
  409ff8:	9400009a 	bl	40a260 <_ZN2PTD1Ev>
  409ffc:	910203e0 	add	x0, sp, #0x80
  40a000:	94000098 	bl	40a260 <_ZN2PTD1Ev>
  40a004:	aa1303e0 	mov	x0, x19
  40a008:	97ffe046 	bl	402120 <_Unwind_Resume@plt>
  40a00c:	aa0003f3 	mov	x19, x0
  40a010:	17fffffb 	b	409ffc <_ZN5model5orderEv+0x77c>
  40a014:	d503201f 	nop
  40a018:	d503201f 	nop
  40a01c:	d503201f 	nop

000000000040a020 <_ZNSt8__detail16_Hashtable_allocISaINS_10_Hash_nodeISt4pairIKNSt7__cxx1112basic_stringIcSt11char_traitsIcESaIcEEEiELb1EEEEE16_M_allocate_nodeIJRKSA_EEEPSB_DpOT_.isra.0>:
  40a020:	a9bd7bfd 	stp	x29, x30, [sp, #-48]!
  40a024:	910003fd 	mov	x29, sp
  40a028:	a90153f3 	stp	x19, x20, [sp, #16]
  40a02c:	aa0003f4 	mov	x20, x0
  40a030:	d2800700 	mov	x0, #0x38                  	// #56
  40a034:	f90013f5 	str	x21, [sp, #32]
  40a038:	97ffdfd2 	bl	401f80 <_Znwm@plt>
  40a03c:	aa0003f5 	mov	x21, x0
  40a040:	aa0003f3 	mov	x19, x0
  40a044:	a9400a81 	ldp	x1, x2, [x20]
  40a048:	91006000 	add	x0, x0, #0x18
  40a04c:	f80086bf 	str	xzr, [x21], #8
  40a050:	f9000660 	str	x0, [x19, #8]
  40a054:	aa1503e0 	mov	x0, x21
  40a058:	8b020022 	add	x2, x1, x2
  40a05c:	97ffe77a 	bl	403e44 <_ZNSt7__cxx1112basic_stringIcSt11char_traitsIcESaIcEE12_M_constructIPcEEvT_S7_St20forward_iterator_tag.isra.0>
  40a060:	b9402280 	ldr	w0, [x20, #32]
  40a064:	b90022a0 	str	w0, [x21, #32]
  40a068:	aa1303e0 	mov	x0, x19
  40a06c:	a94153f3 	ldp	x19, x20, [sp, #16]
  40a070:	f94013f5 	ldr	x21, [sp, #32]
  40a074:	a8c37bfd 	ldp	x29, x30, [sp], #48
  40a078:	d65f03c0 	ret
  40a07c:	97ffdf8d 	bl	401eb0 <__cxa_begin_catch@plt>
  40a080:	aa1303e0 	mov	x0, x19
  40a084:	d2800701 	mov	x1, #0x38                  	// #56
  40a088:	97ffdfc2 	bl	401f90 <_ZdlPvm@plt>
  40a08c:	97ffdffd 	bl	402080 <__cxa_rethrow@plt>
  40a090:	aa0003f3 	mov	x19, x0
  40a094:	97ffe013 	bl	4020e0 <__cxa_end_catch@plt>
  40a098:	aa1303e0 	mov	x0, x19
  40a09c:	97ffe021 	bl	402120 <_Unwind_Resume@plt>

000000000040a0a0 <_ZNSt12_Vector_baseIiSaIiEED1Ev>:
  40a0a0:	aa0003e2 	mov	x2, x0
  40a0a4:	f9400000 	ldr	x0, [x0]
  40a0a8:	b4000080 	cbz	x0, 40a0b8 <_ZNSt12_Vector_baseIiSaIiEED1Ev+0x18>
  40a0ac:	f9400841 	ldr	x1, [x2, #16]
  40a0b0:	cb000021 	sub	x1, x1, x0
  40a0b4:	17ffdfb7 	b	401f90 <_ZdlPvm@plt>
  40a0b8:	d65f03c0 	ret
  40a0bc:	d503201f 	nop

000000000040a0c0 <_ZNSt10_HashtableINSt7__cxx1112basic_stringIcSt11char_traitsIcESaIcEEESt4pairIKS5_iESaIS8_ENSt8__detail10_Select1stESt8equal_toIS5_ESt4hashIS5_ENSA_18_Mod_range_hashingENSA_20_Default_ranged_hashENSA_20_Prime_rehash_policyENSA_17_Hashtable_traitsILb1ELb0ELb1EEEE5clearEv>:
  40a0c0:	a9bd7bfd 	stp	x29, x30, [sp, #-48]!
  40a0c4:	910003fd 	mov	x29, sp
  40a0c8:	a90153f3 	stp	x19, x20, [sp, #16]
  40a0cc:	f9400814 	ldr	x20, [x0, #16]
  40a0d0:	f90013f5 	str	x21, [sp, #32]
  40a0d4:	aa0003f5 	mov	x21, x0
  40a0d8:	b40001f4 	cbz	x20, 40a114 <_ZNSt10_HashtableINSt7__cxx1112basic_stringIcSt11char_traitsIcESaIcEEESt4pairIKS5_iESaIS8_ENSt8__detail10_Select1stESt8equal_toIS5_ESt4hashIS5_ENSA_18_Mod_range_hashingENSA_20_Default_ranged_hashENSA_20_Prime_rehash_policyENSA_17_Hashtable_traitsILb1ELb0ELb1EEEE5clearEv+0x54>
  40a0dc:	d503201f 	nop
  40a0e0:	f9400680 	ldr	x0, [x20, #8]
  40a0e4:	91006281 	add	x1, x20, #0x18
  40a0e8:	aa1403f3 	mov	x19, x20
  40a0ec:	f9400294 	ldr	x20, [x20]
  40a0f0:	eb01001f 	cmp	x0, x1
  40a0f4:	54000080 	b.eq	40a104 <_ZNSt10_HashtableINSt7__cxx1112basic_stringIcSt11char_traitsIcESaIcEEESt4pairIKS5_iESaIS8_ENSt8__detail10_Select1stESt8equal_toIS5_ESt4hashIS5_ENSA_18_Mod_range_hashingENSA_20_Default_ranged_hashENSA_20_Prime_rehash_policyENSA_17_Hashtable_traitsILb1ELb0ELb1EEEE5clearEv+0x44>  // b.none
  40a0f8:	f9400e61 	ldr	x1, [x19, #24]
  40a0fc:	91000421 	add	x1, x1, #0x1
  40a100:	97ffdfa4 	bl	401f90 <_ZdlPvm@plt>
  40a104:	aa1303e0 	mov	x0, x19
  40a108:	d2800701 	mov	x1, #0x38                  	// #56
  40a10c:	97ffdfa1 	bl	401f90 <_ZdlPvm@plt>
  40a110:	b5fffe94 	cbnz	x20, 40a0e0 <_ZNSt10_HashtableINSt7__cxx1112basic_stringIcSt11char_traitsIcESaIcEEESt4pairIKS5_iESaIS8_ENSt8__detail10_Select1stESt8equal_toIS5_ESt4hashIS5_ENSA_18_Mod_range_hashingENSA_20_Default_ranged_hashENSA_20_Prime_rehash_policyENSA_17_Hashtable_traitsILb1ELb0ELb1EEEE5clearEv+0x20>
  40a114:	a9400aa0 	ldp	x0, x2, [x21]
  40a118:	52800001 	mov	w1, #0x0                   	// #0
  40a11c:	d37df042 	lsl	x2, x2, #3
  40a120:	97ffdf74 	bl	401ef0 <memset@plt>
  40a124:	a94153f3 	ldp	x19, x20, [sp, #16]
  40a128:	a9017ebf 	stp	xzr, xzr, [x21, #16]
  40a12c:	f94013f5 	ldr	x21, [sp, #32]
  40a130:	a8c37bfd 	ldp	x29, x30, [sp], #48
  40a134:	d65f03c0 	ret
  40a138:	d503201f 	nop
  40a13c:	d503201f 	nop

000000000040a140 <_ZN7segmentD1Ev>:
  40a140:	a9bd7bfd 	stp	x29, x30, [sp, #-48]!
  40a144:	910003fd 	mov	x29, sp
  40a148:	a9025bf5 	stp	x21, x22, [sp, #32]
  40a14c:	9101e015 	add	x21, x0, #0x78
  40a150:	a90153f3 	stp	x19, x20, [sp, #16]
  40a154:	aa0003f4 	mov	x20, x0
  40a158:	f9400ab3 	ldr	x19, [x21, #16]
  40a15c:	b40000d3 	cbz	x19, 40a174 <_ZN7segmentD1Ev+0x34>
  40a160:	aa1303e0 	mov	x0, x19
  40a164:	d2800201 	mov	x1, #0x10                  	// #16
  40a168:	f9400273 	ldr	x19, [x19]
  40a16c:	97ffdf89 	bl	401f90 <_ZdlPvm@plt>
  40a170:	b5ffff93 	cbnz	x19, 40a160 <_ZN7segmentD1Ev+0x20>
  40a174:	f94006a2 	ldr	x2, [x21, #8]
  40a178:	52800001 	mov	w1, #0x0                   	// #0
  40a17c:	f9403e80 	ldr	x0, [x20, #120]
  40a180:	d37df042 	lsl	x2, x2, #3
  40a184:	97ffdf5b 	bl	401ef0 <memset@plt>
  40a188:	f9403e80 	ldr	x0, [x20, #120]
  40a18c:	9102a282 	add	x2, x20, #0xa8
  40a190:	a9017ebf 	stp	xzr, xzr, [x21, #16]
  40a194:	f94006a1 	ldr	x1, [x21, #8]
  40a198:	eb02001f 	cmp	x0, x2
  40a19c:	54000060 	b.eq	40a1a8 <_ZN7segmentD1Ev+0x68>  // b.none
  40a1a0:	d37df021 	lsl	x1, x1, #3
  40a1a4:	97ffdf7b 	bl	401f90 <_ZdlPvm@plt>
  40a1a8:	91010293 	add	x19, x20, #0x40
  40a1ac:	aa1303e0 	mov	x0, x19
  40a1b0:	97ffffc4 	bl	40a0c0 <_ZNSt10_HashtableINSt7__cxx1112basic_stringIcSt11char_traitsIcESaIcEEESt4pairIKS5_iESaIS8_ENSt8__detail10_Select1stESt8equal_toIS5_ESt4hashIS5_ENSA_18_Mod_range_hashingENSA_20_Default_ranged_hashENSA_20_Prime_rehash_policyENSA_17_Hashtable_traitsILb1ELb0ELb1EEEE5clearEv>
  40a1b4:	a9440680 	ldp	x0, x1, [x20, #64]
  40a1b8:	9101c282 	add	x2, x20, #0x70
  40a1bc:	eb02001f 	cmp	x0, x2
  40a1c0:	54000060 	b.eq	40a1cc <_ZN7segmentD1Ev+0x8c>  // b.none
  40a1c4:	d37df021 	lsl	x1, x1, #3
  40a1c8:	97ffdf72 	bl	401f90 <_ZdlPvm@plt>
  40a1cc:	f9401280 	ldr	x0, [x20, #32]
  40a1d0:	b4000080 	cbz	x0, 40a1e0 <_ZN7segmentD1Ev+0xa0>
  40a1d4:	f9401a81 	ldr	x1, [x20, #48]
  40a1d8:	cb000021 	sub	x1, x1, x0
  40a1dc:	97ffdf6d 	bl	401f90 <_ZdlPvm@plt>
  40a1e0:	f9400693 	ldr	x19, [x20, #8]
  40a1e4:	91002296 	add	x22, x20, #0x8
  40a1e8:	f94006d5 	ldr	x21, [x22, #8]
  40a1ec:	eb15027f 	cmp	x19, x21
  40a1f0:	540001a0 	b.eq	40a224 <_ZN7segmentD1Ev+0xe4>  // b.none
  40a1f4:	d503201f 	nop
  40a1f8:	aa1303e1 	mov	x1, x19
  40a1fc:	f8410420 	ldr	x0, [x1], #16
  40a200:	eb01001f 	cmp	x0, x1
  40a204:	54000080 	b.eq	40a214 <_ZN7segmentD1Ev+0xd4>  // b.none
  40a208:	f9400a61 	ldr	x1, [x19, #16]
  40a20c:	91000421 	add	x1, x1, #0x1
  40a210:	97ffdf60 	bl	401f90 <_ZdlPvm@plt>
  40a214:	91008273 	add	x19, x19, #0x20
  40a218:	eb1302bf 	cmp	x21, x19
  40a21c:	54fffee1 	b.ne	40a1f8 <_ZN7segmentD1Ev+0xb8>  // b.any
  40a220:	f9400695 	ldr	x21, [x20, #8]
  40a224:	b4000115 	cbz	x21, 40a244 <_ZN7segmentD1Ev+0x104>
  40a228:	f9400ac1 	ldr	x1, [x22, #16]
  40a22c:	aa1503e0 	mov	x0, x21
  40a230:	a94153f3 	ldp	x19, x20, [sp, #16]
  40a234:	cb150021 	sub	x1, x1, x21
  40a238:	a9425bf5 	ldp	x21, x22, [sp, #32]
  40a23c:	a8c37bfd 	ldp	x29, x30, [sp], #48
  40a240:	17ffdf54 	b	401f90 <_ZdlPvm@plt>
  40a244:	a94153f3 	ldp	x19, x20, [sp, #16]
  40a248:	a9425bf5 	ldp	x21, x22, [sp, #32]
  40a24c:	a8c37bfd 	ldp	x29, x30, [sp], #48
  40a250:	d65f03c0 	ret
  40a254:	d503201f 	nop
  40a258:	d503201f 	nop
  40a25c:	d503201f 	nop

000000000040a260 <_ZN2PTD1Ev>:
  40a260:	a9bc7bfd 	stp	x29, x30, [sp, #-64]!
  40a264:	910003fd 	mov	x29, sp
  40a268:	f9001bf7 	str	x23, [sp, #48]
  40a26c:	aa0003f7 	mov	x23, x0
  40a270:	f9401c00 	ldr	x0, [x0, #56]
  40a274:	a90153f3 	stp	x19, x20, [sp, #16]
  40a278:	a9025bf5 	stp	x21, x22, [sp, #32]
  40a27c:	b4000080 	cbz	x0, 40a28c <_ZN2PTD1Ev+0x2c>
  40a280:	f94026e1 	ldr	x1, [x23, #72]
  40a284:	cb000021 	sub	x1, x1, x0
  40a288:	97ffdf42 	bl	401f90 <_ZdlPvm@plt>
  40a28c:	f94012e0 	ldr	x0, [x23, #32]
  40a290:	b4000080 	cbz	x0, 40a2a0 <_ZN2PTD1Ev+0x40>
  40a294:	f9401ae1 	ldr	x1, [x23, #48]
  40a298:	cb000021 	sub	x1, x1, x0
  40a29c:	97ffdf3d 	bl	401f90 <_ZdlPvm@plt>
  40a2a0:	a9405af4 	ldp	x20, x22, [x23]
  40a2a4:	eb16029f 	cmp	x20, x22
  40a2a8:	54000700 	b.eq	40a388 <_ZN2PTD1Ev+0x128>  // b.none
  40a2ac:	d503201f 	nop
  40a2b0:	f9404693 	ldr	x19, [x20, #136]
  40a2b4:	b40000d3 	cbz	x19, 40a2cc <_ZN2PTD1Ev+0x6c>
  40a2b8:	aa1303e0 	mov	x0, x19
  40a2bc:	d2800201 	mov	x1, #0x10                  	// #16
  40a2c0:	f9400273 	ldr	x19, [x19]
  40a2c4:	97ffdf33 	bl	401f90 <_ZdlPvm@plt>
  40a2c8:	b5ffff93 	cbnz	x19, 40a2b8 <_ZN2PTD1Ev+0x58>
  40a2cc:	a9478a80 	ldp	x0, x2, [x20, #120]
  40a2d0:	52800001 	mov	w1, #0x0                   	// #0
  40a2d4:	d37df042 	lsl	x2, x2, #3
  40a2d8:	97ffdf06 	bl	401ef0 <memset@plt>
  40a2dc:	a9478680 	ldp	x0, x1, [x20, #120]
  40a2e0:	9102a282 	add	x2, x20, #0xa8
  40a2e4:	a908fe9f 	stp	xzr, xzr, [x20, #136]
  40a2e8:	eb02001f 	cmp	x0, x2
  40a2ec:	54000060 	b.eq	40a2f8 <_ZN2PTD1Ev+0x98>  // b.none
  40a2f0:	d37df021 	lsl	x1, x1, #3
  40a2f4:	97ffdf27 	bl	401f90 <_ZdlPvm@plt>
  40a2f8:	91010280 	add	x0, x20, #0x40
  40a2fc:	97ffff71 	bl	40a0c0 <_ZNSt10_HashtableINSt7__cxx1112basic_stringIcSt11char_traitsIcESaIcEEESt4pairIKS5_iESaIS8_ENSt8__detail10_Select1stESt8equal_toIS5_ESt4hashIS5_ENSA_18_Mod_range_hashingENSA_20_Default_ranged_hashENSA_20_Prime_rehash_policyENSA_17_Hashtable_traitsILb1ELb0ELb1EEEE5clearEv>
  40a300:	a9440680 	ldp	x0, x1, [x20, #64]
  40a304:	9101c282 	add	x2, x20, #0x70
  40a308:	eb02001f 	cmp	x0, x2
  40a30c:	54000060 	b.eq	40a318 <_ZN2PTD1Ev+0xb8>  // b.none
  40a310:	d37df021 	lsl	x1, x1, #3
  40a314:	97ffdf1f 	bl	401f90 <_ZdlPvm@plt>
  40a318:	f9401280 	ldr	x0, [x20, #32]
  40a31c:	b4000080 	cbz	x0, 40a32c <_ZN2PTD1Ev+0xcc>
  40a320:	f9401a81 	ldr	x1, [x20, #48]
  40a324:	cb000021 	sub	x1, x1, x0
  40a328:	97ffdf1a 	bl	401f90 <_ZdlPvm@plt>
  40a32c:	a940d693 	ldp	x19, x21, [x20, #8]
  40a330:	eb15027f 	cmp	x19, x21
  40a334:	54000180 	b.eq	40a364 <_ZN2PTD1Ev+0x104>  // b.none
  40a338:	aa1303e1 	mov	x1, x19
  40a33c:	f8410420 	ldr	x0, [x1], #16
  40a340:	eb01001f 	cmp	x0, x1
  40a344:	54000080 	b.eq	40a354 <_ZN2PTD1Ev+0xf4>  // b.none
  40a348:	f9400a61 	ldr	x1, [x19, #16]
  40a34c:	91000421 	add	x1, x1, #0x1
  40a350:	97ffdf10 	bl	401f90 <_ZdlPvm@plt>
  40a354:	91008273 	add	x19, x19, #0x20
  40a358:	eb1302bf 	cmp	x21, x19
  40a35c:	54fffee1 	b.ne	40a338 <_ZN2PTD1Ev+0xd8>  // b.any
  40a360:	f9400695 	ldr	x21, [x20, #8]
  40a364:	b40000b5 	cbz	x21, 40a378 <_ZN2PTD1Ev+0x118>
  40a368:	f9400e81 	ldr	x1, [x20, #24]
  40a36c:	aa1503e0 	mov	x0, x21
  40a370:	cb150021 	sub	x1, x1, x21
  40a374:	97ffdf07 	bl	401f90 <_ZdlPvm@plt>
  40a378:	9102c294 	add	x20, x20, #0xb0
  40a37c:	eb1402df 	cmp	x22, x20
  40a380:	54fff981 	b.ne	40a2b0 <_ZN2PTD1Ev+0x50>  // b.any
  40a384:	f94002f6 	ldr	x22, [x23]
  40a388:	b4000136 	cbz	x22, 40a3ac <_ZN2PTD1Ev+0x14c>
  40a38c:	f9400ae1 	ldr	x1, [x23, #16]
  40a390:	aa1603e0 	mov	x0, x22
  40a394:	a94153f3 	ldp	x19, x20, [sp, #16]
  40a398:	cb160021 	sub	x1, x1, x22
  40a39c:	a9425bf5 	ldp	x21, x22, [sp, #32]
  40a3a0:	f9401bf7 	ldr	x23, [sp, #48]
  40a3a4:	a8c47bfd 	ldp	x29, x30, [sp], #64
  40a3a8:	17ffdefa 	b	401f90 <_ZdlPvm@plt>
  40a3ac:	a94153f3 	ldp	x19, x20, [sp, #16]
  40a3b0:	a9425bf5 	ldp	x21, x22, [sp, #32]
  40a3b4:	f9401bf7 	ldr	x23, [sp, #48]
  40a3b8:	a8c47bfd 	ldp	x29, x30, [sp], #64
  40a3bc:	d65f03c0 	ret

000000000040a3c0 <_ZNSt10_HashtableINSt7__cxx1112basic_stringIcSt11char_traitsIcESaIcEEESt4pairIKS5_iESaIS8_ENSt8__detail10_Select1stESt8equal_toIS5_ESt4hashIS5_ENSA_18_Mod_range_hashingENSA_20_Default_ranged_hashENSA_20_Prime_rehash_policyENSA_17_Hashtable_traitsILb1ELb0ELb1EEEE21_M_deallocate_bucketsEv>:
  40a3c0:	9100c002 	add	x2, x0, #0x30
  40a3c4:	a9400400 	ldp	x0, x1, [x0]
  40a3c8:	eb02001f 	cmp	x0, x2
  40a3cc:	54000060 	b.eq	40a3d8 <_ZNSt10_HashtableINSt7__cxx1112basic_stringIcSt11char_traitsIcESaIcEEESt4pairIKS5_iESaIS8_ENSt8__detail10_Select1stESt8equal_toIS5_ESt4hashIS5_ENSA_18_Mod_range_hashingENSA_20_Default_ranged_hashENSA_20_Prime_rehash_policyENSA_17_Hashtable_traitsILb1ELb0ELb1EEEE21_M_deallocate_bucketsEv+0x18>  // b.none
  40a3d0:	d37df021 	lsl	x1, x1, #3
  40a3d4:	17ffdeef 	b	401f90 <_ZdlPvm@plt>
  40a3d8:	d65f03c0 	ret
  40a3dc:	d503201f 	nop

000000000040a3e0 <_ZN7segmentC1ERKS_>:
  40a3e0:	a9bb7bfd 	stp	x29, x30, [sp, #-80]!
  40a3e4:	910003fd 	mov	x29, sp
  40a3e8:	a9025bf5 	stp	x21, x22, [sp, #32]
  40a3ec:	aa0003f5 	mov	x21, x0
  40a3f0:	aa0103e0 	mov	x0, x1
  40a3f4:	aa1503f6 	mov	x22, x21
  40a3f8:	a90153f3 	stp	x19, x20, [sp, #16]
  40a3fc:	f8408402 	ldr	x2, [x0], #8
  40a400:	a90363f7 	stp	x23, x24, [sp, #48]
  40a404:	aa0103f7 	mov	x23, x1
  40a408:	f9400421 	ldr	x1, [x1, #8]
  40a40c:	f9400413 	ldr	x19, [x0, #8]
  40a410:	f90023f9 	str	x25, [sp, #64]
  40a414:	f80086c2 	str	x2, [x22], #8
  40a418:	f90006bf 	str	xzr, [x21, #8]
  40a41c:	eb010273 	subs	x19, x19, x1
  40a420:	a900fedf 	stp	xzr, xzr, [x22, #8]
  40a424:	540015c0 	b.eq	40a6dc <_ZN7segmentC1ERKS_+0x2fc>  // b.none
  40a428:	b27be7e0 	mov	x0, #0x7fffffffffffffe0    	// #9223372036854775776
  40a42c:	eb00027f 	cmp	x19, x0
  40a430:	54001648 	b.hi	40a6f8 <_ZN7segmentC1ERKS_+0x318>  // b.pmore
  40a434:	aa1303e0 	mov	x0, x19
  40a438:	97ffded2 	bl	401f80 <_Znwm@plt>
  40a43c:	aa0003f9 	mov	x25, x0
  40a440:	f90006b9 	str	x25, [x21, #8]
  40a444:	8b130333 	add	x19, x25, x19
  40a448:	a900ced9 	stp	x25, x19, [x22, #8]
  40a44c:	aa1903f4 	mov	x20, x25
  40a450:	a940e2f3 	ldp	x19, x24, [x23, #8]
  40a454:	eb18027f 	cmp	x19, x24
  40a458:	540001a0 	b.eq	40a48c <_ZN7segmentC1ERKS_+0xac>  // b.none
  40a45c:	d503201f 	nop
  40a460:	91004280 	add	x0, x20, #0x10
  40a464:	f9400662 	ldr	x2, [x19, #8]
  40a468:	f9000280 	str	x0, [x20]
  40a46c:	aa1403e0 	mov	x0, x20
  40a470:	f9400261 	ldr	x1, [x19]
  40a474:	8b020022 	add	x2, x1, x2
  40a478:	97ffe673 	bl	403e44 <_ZNSt7__cxx1112basic_stringIcSt11char_traitsIcESaIcEE12_M_constructIPcEEvT_S7_St20forward_iterator_tag.isra.0>
  40a47c:	91008273 	add	x19, x19, #0x20
  40a480:	91008294 	add	x20, x20, #0x20
  40a484:	eb13031f 	cmp	x24, x19
  40a488:	54fffec1 	b.ne	40a460 <_ZN7segmentC1ERKS_+0x80>  // b.any
  40a48c:	910082b3 	add	x19, x21, #0x20
  40a490:	d2800003 	mov	x3, #0x0                   	// #0
  40a494:	f94012e0 	ldr	x0, [x23, #32]
  40a498:	f90006d4 	str	x20, [x22, #8]
  40a49c:	f94016f4 	ldr	x20, [x23, #40]
  40a4a0:	f90012bf 	str	xzr, [x21, #32]
  40a4a4:	a900fe7f 	stp	xzr, xzr, [x19, #8]
  40a4a8:	eb000294 	subs	x20, x20, x0
  40a4ac:	540000e0 	b.eq	40a4c8 <_ZN7segmentC1ERKS_+0xe8>  // b.none
  40a4b0:	b27ef3e0 	mov	x0, #0x7ffffffffffffffc    	// #9223372036854775804
  40a4b4:	eb00029f 	cmp	x20, x0
  40a4b8:	54001228 	b.hi	40a6fc <_ZN7segmentC1ERKS_+0x31c>  // b.pmore
  40a4bc:	aa1403e0 	mov	x0, x20
  40a4c0:	97ffdeb0 	bl	401f80 <_Znwm@plt>
  40a4c4:	aa0003e3 	mov	x3, x0
  40a4c8:	f90012a3 	str	x3, [x21, #32]
  40a4cc:	8b140074 	add	x20, x3, x20
  40a4d0:	a900d263 	stp	x3, x20, [x19, #8]
  40a4d4:	a94202e1 	ldp	x1, x0, [x23, #32]
  40a4d8:	cb010019 	sub	x25, x0, x1
  40a4dc:	eb00003f 	cmp	x1, x0
  40a4e0:	540000a0 	b.eq	40a4f4 <_ZN7segmentC1ERKS_+0x114>  // b.none
  40a4e4:	aa0303e0 	mov	x0, x3
  40a4e8:	aa1903e2 	mov	x2, x25
  40a4ec:	97ffdec1 	bl	401ff0 <memmove@plt>
  40a4f0:	aa0003e3 	mov	x3, x0
  40a4f4:	910102b4 	add	x20, x21, #0x40
  40a4f8:	b9403ae0 	ldr	w0, [x23, #56]
  40a4fc:	8b190063 	add	x3, x3, x25
  40a500:	910102f8 	add	x24, x23, #0x40
  40a504:	f9400f01 	ldr	x1, [x24, #24]
  40a508:	f9000663 	str	x3, [x19, #8]
  40a50c:	f90022bf 	str	xzr, [x21, #64]
  40a510:	9101c2b9 	add	x25, x21, #0x70
  40a514:	a9420f02 	ldp	x2, x3, [x24, #32]
  40a518:	b9003aa0 	str	w0, [x21, #56]
  40a51c:	f9400700 	ldr	x0, [x24, #8]
  40a520:	f9000680 	str	x0, [x20, #8]
  40a524:	f9002abf 	str	xzr, [x21, #80]
  40a528:	f9000e81 	str	x1, [x20, #24]
  40a52c:	a9020e82 	stp	x2, x3, [x20, #32]
  40a530:	f9001a9f 	str	xzr, [x20, #48]
  40a534:	f100041f 	cmp	x0, #0x1
  40a538:	54000160 	b.eq	40a564 <_ZN7segmentC1ERKS_+0x184>  // b.none
  40a53c:	92fe0001 	mov	x1, #0xfffffffffffffff     	// #1152921504606846975
  40a540:	eb01001f 	cmp	x0, x1
  40a544:	54000d88 	b.hi	40a6f4 <_ZN7segmentC1ERKS_+0x314>  // b.pmore
  40a548:	d37df019 	lsl	x25, x0, #3
  40a54c:	aa1903e0 	mov	x0, x25
  40a550:	97ffde8c 	bl	401f80 <_Znwm@plt>
  40a554:	aa1903e2 	mov	x2, x25
  40a558:	52800001 	mov	w1, #0x0                   	// #0
  40a55c:	aa0003f9 	mov	x25, x0
  40a560:	97ffde64 	bl	401ef0 <memset@plt>
  40a564:	f9400b18 	ldr	x24, [x24, #16]
  40a568:	f90022b9 	str	x25, [x21, #64]
  40a56c:	b40003f8 	cbz	x24, 40a5e8 <_ZN7segmentC1ERKS_+0x208>
  40a570:	91002300 	add	x0, x24, #0x8
  40a574:	97fffeab 	bl	40a020 <_ZNSt8__detail16_Hashtable_allocISaINS_10_Hash_nodeISt4pairIKNSt7__cxx1112basic_stringIcSt11char_traitsIcESaIcEEEiELb1EEEEE16_M_allocate_nodeIJRKSA_EEEPSB_DpOT_.isra.0>
  40a578:	f9401b03 	ldr	x3, [x24, #48]
  40a57c:	910142a2 	add	x2, x21, #0x50
  40a580:	f94022a5 	ldr	x5, [x21, #64]
  40a584:	f9001803 	str	x3, [x0, #48]
  40a588:	f9000a80 	str	x0, [x20, #16]
  40a58c:	f9400684 	ldr	x4, [x20, #8]
  40a590:	9ac40861 	udiv	x1, x3, x4
  40a594:	9b048c21 	msub	x1, x1, x4, x3
  40a598:	f82178a2 	str	x2, [x5, x1, lsl #3]
  40a59c:	d503201f 	nop
  40a5a0:	f9400318 	ldr	x24, [x24]
  40a5a4:	b4000238 	cbz	x24, 40a5e8 <_ZN7segmentC1ERKS_+0x208>
  40a5a8:	aa0003f9 	mov	x25, x0
  40a5ac:	91002300 	add	x0, x24, #0x8
  40a5b0:	97fffe9c 	bl	40a020 <_ZNSt8__detail16_Hashtable_allocISaINS_10_Hash_nodeISt4pairIKNSt7__cxx1112basic_stringIcSt11char_traitsIcESaIcEEEiELb1EEEEE16_M_allocate_nodeIJRKSA_EEEPSB_DpOT_.isra.0>
  40a5b4:	f9400284 	ldr	x4, [x20]
  40a5b8:	f9401b02 	ldr	x2, [x24, #48]
  40a5bc:	f9000320 	str	x0, [x25]
  40a5c0:	f9001802 	str	x2, [x0, #48]
  40a5c4:	f9400683 	ldr	x3, [x20, #8]
  40a5c8:	9ac30841 	udiv	x1, x2, x3
  40a5cc:	9b038821 	msub	x1, x1, x3, x2
  40a5d0:	f8617882 	ldr	x2, [x4, x1, lsl #3]
  40a5d4:	b5fffe62 	cbnz	x2, 40a5a0 <_ZN7segmentC1ERKS_+0x1c0>
  40a5d8:	f8217899 	str	x25, [x4, x1, lsl #3]
  40a5dc:	f9400318 	ldr	x24, [x24]
  40a5e0:	b5fffe58 	cbnz	x24, 40a5a8 <_ZN7segmentC1ERKS_+0x1c8>
  40a5e4:	d503201f 	nop
  40a5e8:	9101e2b8 	add	x24, x21, #0x78
  40a5ec:	f9003ebf 	str	xzr, [x21, #120]
  40a5f0:	f94042e0 	ldr	x0, [x23, #128]
  40a5f4:	9101e2f7 	add	x23, x23, #0x78
  40a5f8:	f9000700 	str	x0, [x24, #8]
  40a5fc:	f9400ee1 	ldr	x1, [x23, #24]
  40a600:	a9420ee2 	ldp	x2, x3, [x23, #32]
  40a604:	f90046bf 	str	xzr, [x21, #136]
  40a608:	f9000f01 	str	x1, [x24, #24]
  40a60c:	a9020f02 	stp	x2, x3, [x24, #32]
  40a610:	f9001b1f 	str	xzr, [x24, #48]
  40a614:	f100041f 	cmp	x0, #0x1
  40a618:	54000680 	b.eq	40a6e8 <_ZN7segmentC1ERKS_+0x308>  // b.none
  40a61c:	92fe0001 	mov	x1, #0xfffffffffffffff     	// #1152921504606846975
  40a620:	eb01001f 	cmp	x0, x1
  40a624:	54000668 	b.hi	40a6f0 <_ZN7segmentC1ERKS_+0x310>  // b.pmore
  40a628:	d37df019 	lsl	x25, x0, #3
  40a62c:	aa1903e0 	mov	x0, x25
  40a630:	97ffde54 	bl	401f80 <_Znwm@plt>
  40a634:	aa1903e2 	mov	x2, x25
  40a638:	52800001 	mov	w1, #0x0                   	// #0
  40a63c:	aa0003f9 	mov	x25, x0
  40a640:	97ffde2c 	bl	401ef0 <memset@plt>
  40a644:	f9400af7 	ldr	x23, [x23, #16]
  40a648:	f9003eb9 	str	x25, [x21, #120]
  40a64c:	b40003d7 	cbz	x23, 40a6c4 <_ZN7segmentC1ERKS_+0x2e4>
  40a650:	d2800200 	mov	x0, #0x10                  	// #16
  40a654:	97ffde4b 	bl	401f80 <_Znwm@plt>
  40a658:	f94006e1 	ldr	x1, [x23, #8]
  40a65c:	a900041f 	stp	xzr, x1, [x0]
  40a660:	910222a2 	add	x2, x21, #0x88
  40a664:	f9400703 	ldr	x3, [x24, #8]
  40a668:	93407c24 	sxtw	x4, w1
  40a66c:	f9403ea5 	ldr	x5, [x21, #120]
  40a670:	f9000b00 	str	x0, [x24, #16]
  40a674:	9ac30881 	udiv	x1, x4, x3
  40a678:	9b039021 	msub	x1, x1, x3, x4
  40a67c:	f82178a2 	str	x2, [x5, x1, lsl #3]
  40a680:	f94002f7 	ldr	x23, [x23]
  40a684:	b4000217 	cbz	x23, 40a6c4 <_ZN7segmentC1ERKS_+0x2e4>
  40a688:	aa0003f9 	mov	x25, x0
  40a68c:	d2800200 	mov	x0, #0x10                  	// #16
  40a690:	97ffde3c 	bl	401f80 <_Znwm@plt>
  40a694:	f94006e1 	ldr	x1, [x23, #8]
  40a698:	a900041f 	stp	xzr, x1, [x0]
  40a69c:	a9400b04 	ldp	x4, x2, [x24]
  40a6a0:	b9800803 	ldrsw	x3, [x0, #8]
  40a6a4:	f9000320 	str	x0, [x25]
  40a6a8:	9ac20861 	udiv	x1, x3, x2
  40a6ac:	9b028c21 	msub	x1, x1, x2, x3
  40a6b0:	f8617882 	ldr	x2, [x4, x1, lsl #3]
  40a6b4:	b5fffe62 	cbnz	x2, 40a680 <_ZN7segmentC1ERKS_+0x2a0>
  40a6b8:	f8217899 	str	x25, [x4, x1, lsl #3]
  40a6bc:	f94002f7 	ldr	x23, [x23]
  40a6c0:	b5fffe57 	cbnz	x23, 40a688 <_ZN7segmentC1ERKS_+0x2a8>
  40a6c4:	a94153f3 	ldp	x19, x20, [sp, #16]
  40a6c8:	a9425bf5 	ldp	x21, x22, [sp, #32]
  40a6cc:	a94363f7 	ldp	x23, x24, [sp, #48]
  40a6d0:	f94023f9 	ldr	x25, [sp, #64]
  40a6d4:	a8c57bfd 	ldp	x29, x30, [sp], #80
  40a6d8:	d65f03c0 	ret
  40a6dc:	d2800013 	mov	x19, #0x0                   	// #0
  40a6e0:	d2800019 	mov	x25, #0x0                   	// #0
  40a6e4:	17ffff57 	b	40a440 <_ZN7segmentC1ERKS_+0x60>
  40a6e8:	9102a2b9 	add	x25, x21, #0xa8
  40a6ec:	17ffffd6 	b	40a644 <_ZN7segmentC1ERKS_+0x264>
  40a6f0:	97ffddec 	bl	401ea0 <_ZSt17__throw_bad_allocv@plt>
  40a6f4:	97ffddeb 	bl	401ea0 <_ZSt17__throw_bad_allocv@plt>
  40a6f8:	97ffddea 	bl	401ea0 <_ZSt17__throw_bad_allocv@plt>
  40a6fc:	97ffdde9 	bl	401ea0 <_ZSt17__throw_bad_allocv@plt>
  40a700:	97ffddec 	bl	401eb0 <__cxa_begin_catch@plt>
  40a704:	eb19029f 	cmp	x20, x25
  40a708:	540001c1 	b.ne	40a740 <_ZN7segmentC1ERKS_+0x360>  // b.any
  40a70c:	97ffde5d 	bl	402080 <__cxa_rethrow@plt>
  40a710:	aa0003f7 	mov	x23, x0
  40a714:	f94006b3 	ldr	x19, [x21, #8]
  40a718:	f94006d4 	ldr	x20, [x22, #8]
  40a71c:	eb13029f 	cmp	x20, x19
  40a720:	540002a1 	b.ne	40a774 <_ZN7segmentC1ERKS_+0x394>  // b.any
  40a724:	f94006a0 	ldr	x0, [x21, #8]
  40a728:	f9400ac1 	ldr	x1, [x22, #16]
  40a72c:	cb000021 	sub	x1, x1, x0
  40a730:	b4000040 	cbz	x0, 40a738 <_ZN7segmentC1ERKS_+0x358>
  40a734:	97ffde17 	bl	401f90 <_ZdlPvm@plt>
  40a738:	aa1703e0 	mov	x0, x23
  40a73c:	97ffde79 	bl	402120 <_Unwind_Resume@plt>
  40a740:	aa1903e0 	mov	x0, x25
  40a744:	91008339 	add	x25, x25, #0x20
  40a748:	97ffde26 	bl	401fe0 <_ZNSt7__cxx1112basic_stringIcSt11char_traitsIcESaIcEE10_M_disposeEv@plt>
  40a74c:	17ffffee 	b	40a704 <_ZN7segmentC1ERKS_+0x324>
  40a750:	aa0003f3 	mov	x19, x0
  40a754:	97ffde63 	bl	4020e0 <__cxa_end_catch@plt>
  40a758:	f94006a0 	ldr	x0, [x21, #8]
  40a75c:	f9400ac1 	ldr	x1, [x22, #16]
  40a760:	cb000021 	sub	x1, x1, x0
  40a764:	b4000040 	cbz	x0, 40a76c <_ZN7segmentC1ERKS_+0x38c>
  40a768:	97ffde0a 	bl	401f90 <_ZdlPvm@plt>
  40a76c:	aa1303e0 	mov	x0, x19
  40a770:	97ffde6c 	bl	402120 <_Unwind_Resume@plt>
  40a774:	aa1303e1 	mov	x1, x19
  40a778:	f8410420 	ldr	x0, [x1], #16
  40a77c:	eb01001f 	cmp	x0, x1
  40a780:	54000080 	b.eq	40a790 <_ZN7segmentC1ERKS_+0x3b0>  // b.none
  40a784:	f9400a61 	ldr	x1, [x19, #16]
  40a788:	91000421 	add	x1, x1, #0x1
  40a78c:	97ffde01 	bl	401f90 <_ZdlPvm@plt>
  40a790:	91008273 	add	x19, x19, #0x20
  40a794:	17ffffe2 	b	40a71c <_ZN7segmentC1ERKS_+0x33c>
  40a798:	97ffddc6 	bl	401eb0 <__cxa_begin_catch@plt>
  40a79c:	aa1403e0 	mov	x0, x20
  40a7a0:	97fffe48 	bl	40a0c0 <_ZNSt10_HashtableINSt7__cxx1112basic_stringIcSt11char_traitsIcESaIcEEESt4pairIKS5_iESaIS8_ENSt8__detail10_Select1stESt8equal_toIS5_ESt4hashIS5_ENSA_18_Mod_range_hashingENSA_20_Default_ranged_hashENSA_20_Prime_rehash_policyENSA_17_Hashtable_traitsILb1ELb0ELb1EEEE5clearEv>
  40a7a4:	aa1403e0 	mov	x0, x20
  40a7a8:	97ffff06 	bl	40a3c0 <_ZNSt10_HashtableINSt7__cxx1112basic_stringIcSt11char_traitsIcESaIcEEESt4pairIKS5_iESaIS8_ENSt8__detail10_Select1stESt8equal_toIS5_ESt4hashIS5_ENSA_18_Mod_range_hashingENSA_20_Default_ranged_hashENSA_20_Prime_rehash_policyENSA_17_Hashtable_traitsILb1ELb0ELb1EEEE21_M_deallocate_bucketsEv>
  40a7ac:	97ffde35 	bl	402080 <__cxa_rethrow@plt>
  40a7b0:	aa0003f7 	mov	x23, x0
  40a7b4:	aa1403e0 	mov	x0, x20
  40a7b8:	97fffe42 	bl	40a0c0 <_ZNSt10_HashtableINSt7__cxx1112basic_stringIcSt11char_traitsIcESaIcEEESt4pairIKS5_iESaIS8_ENSt8__detail10_Select1stESt8equal_toIS5_ESt4hashIS5_ENSA_18_Mod_range_hashingENSA_20_Default_ranged_hashENSA_20_Prime_rehash_policyENSA_17_Hashtable_traitsILb1ELb0ELb1EEEE5clearEv>
  40a7bc:	aa1403e0 	mov	x0, x20
  40a7c0:	97ffff00 	bl	40a3c0 <_ZNSt10_HashtableINSt7__cxx1112basic_stringIcSt11char_traitsIcESaIcEEESt4pairIKS5_iESaIS8_ENSt8__detail10_Select1stESt8equal_toIS5_ESt4hashIS5_ENSA_18_Mod_range_hashingENSA_20_Default_ranged_hashENSA_20_Prime_rehash_policyENSA_17_Hashtable_traitsILb1ELb0ELb1EEEE21_M_deallocate_bucketsEv>
  40a7c4:	14000003 	b	40a7d0 <_ZN7segmentC1ERKS_+0x3f0>
  40a7c8:	aa0003f7 	mov	x23, x0
  40a7cc:	97ffde45 	bl	4020e0 <__cxa_end_catch@plt>
  40a7d0:	aa1303e0 	mov	x0, x19
  40a7d4:	97fffe33 	bl	40a0a0 <_ZNSt12_Vector_baseIiSaIiEED1Ev>
  40a7d8:	17ffffcf 	b	40a714 <_ZN7segmentC1ERKS_+0x334>
  40a7dc:	97ffddb5 	bl	401eb0 <__cxa_begin_catch@plt>
  40a7e0:	f9400b00 	ldr	x0, [x24, #16]
  40a7e4:	b50001e0 	cbnz	x0, 40a820 <_ZN7segmentC1ERKS_+0x440>
  40a7e8:	f9400702 	ldr	x2, [x24, #8]
  40a7ec:	52800001 	mov	w1, #0x0                   	// #0
  40a7f0:	f9403ea0 	ldr	x0, [x21, #120]
  40a7f4:	d37df042 	lsl	x2, x2, #3
  40a7f8:	97ffddbe 	bl	401ef0 <memset@plt>
  40a7fc:	f9403ea0 	ldr	x0, [x21, #120]
  40a800:	9102a2a2 	add	x2, x21, #0xa8
  40a804:	a9017f1f 	stp	xzr, xzr, [x24, #16]
  40a808:	f9400701 	ldr	x1, [x24, #8]
  40a80c:	eb02001f 	cmp	x0, x2
  40a810:	54000141 	b.ne	40a838 <_ZN7segmentC1ERKS_+0x458>  // b.any
  40a814:	97ffde1b 	bl	402080 <__cxa_rethrow@plt>
  40a818:	aa0003f7 	mov	x23, x0
  40a81c:	17ffffed 	b	40a7d0 <_ZN7segmentC1ERKS_+0x3f0>
  40a820:	f9400017 	ldr	x23, [x0]
  40a824:	d2800201 	mov	x1, #0x10                  	// #16
  40a828:	97ffddda 	bl	401f90 <_ZdlPvm@plt>
  40a82c:	aa1703e0 	mov	x0, x23
  40a830:	b5ffff80 	cbnz	x0, 40a820 <_ZN7segmentC1ERKS_+0x440>
  40a834:	17ffffed 	b	40a7e8 <_ZN7segmentC1ERKS_+0x408>
  40a838:	d37df021 	lsl	x1, x1, #3
  40a83c:	97ffddd5 	bl	401f90 <_ZdlPvm@plt>
  40a840:	97ffde10 	bl	402080 <__cxa_rethrow@plt>
  40a844:	aa0003f7 	mov	x23, x0
  40a848:	97ffde26 	bl	4020e0 <__cxa_end_catch@plt>
  40a84c:	17ffffda 	b	40a7b4 <_ZN7segmentC1ERKS_+0x3d4>

000000000040a850 <_ZN2PTC1ERKS_>:
  40a850:	a9bc7bfd 	stp	x29, x30, [sp, #-64]!
  40a854:	910003fd 	mov	x29, sp
  40a858:	a90153f3 	stp	x19, x20, [sp, #16]
  40a85c:	a9025bf5 	stp	x21, x22, [sp, #32]
  40a860:	aa0003f5 	mov	x21, x0
  40a864:	aa0103f6 	mov	x22, x1
  40a868:	a9404c20 	ldp	x0, x19, [x1]
  40a86c:	a90363f7 	stp	x23, x24, [sp, #48]
  40a870:	a9007ebf 	stp	xzr, xzr, [x21]
  40a874:	f9000abf 	str	xzr, [x21, #16]
  40a878:	eb000273 	subs	x19, x19, x0
  40a87c:	54000aa0 	b.eq	40a9d0 <_ZN2PTC1ERKS_+0x180>  // b.none
  40a880:	92800be0 	mov	x0, #0xffffffffffffffa0    	// #-96
  40a884:	f2efffe0 	movk	x0, #0x7fff, lsl #48
  40a888:	eb00027f 	cmp	x19, x0
  40a88c:	54000b28 	b.hi	40a9f0 <_ZN2PTC1ERKS_+0x1a0>  // b.pmore
  40a890:	aa1303e0 	mov	x0, x19
  40a894:	97ffddbb 	bl	401f80 <_Znwm@plt>
  40a898:	aa0003f8 	mov	x24, x0
  40a89c:	8b130313 	add	x19, x24, x19
  40a8a0:	a90062b8 	stp	x24, x24, [x21]
  40a8a4:	aa1803f4 	mov	x20, x24
  40a8a8:	f9000ab3 	str	x19, [x21, #16]
  40a8ac:	a9405ed3 	ldp	x19, x23, [x22]
  40a8b0:	eb17027f 	cmp	x19, x23
  40a8b4:	54000100 	b.eq	40a8d4 <_ZN2PTC1ERKS_+0x84>  // b.none
  40a8b8:	aa1303e1 	mov	x1, x19
  40a8bc:	aa1403e0 	mov	x0, x20
  40a8c0:	97fffec8 	bl	40a3e0 <_ZN7segmentC1ERKS_>
  40a8c4:	9102c273 	add	x19, x19, #0xb0
  40a8c8:	9102c294 	add	x20, x20, #0xb0
  40a8cc:	eb1302ff 	cmp	x23, x19
  40a8d0:	54ffff41 	b.ne	40a8b8 <_ZN2PTC1ERKS_+0x68>  // b.any
  40a8d4:	910082b7 	add	x23, x21, #0x20
  40a8d8:	b9401ac0 	ldr	w0, [x22, #24]
  40a8dc:	f94016d3 	ldr	x19, [x22, #40]
  40a8e0:	f90006b4 	str	x20, [x21, #8]
  40a8e4:	b9001aa0 	str	w0, [x21, #24]
  40a8e8:	d2800003 	mov	x3, #0x0                   	// #0
  40a8ec:	f94012c0 	ldr	x0, [x22, #32]
  40a8f0:	f90012bf 	str	xzr, [x21, #32]
  40a8f4:	a900feff 	stp	xzr, xzr, [x23, #8]
  40a8f8:	eb000273 	subs	x19, x19, x0
  40a8fc:	540000e0 	b.eq	40a918 <_ZN2PTC1ERKS_+0xc8>  // b.none
  40a900:	b27ef3e0 	mov	x0, #0x7ffffffffffffffc    	// #9223372036854775804
  40a904:	eb00027f 	cmp	x19, x0
  40a908:	54000728 	b.hi	40a9ec <_ZN2PTC1ERKS_+0x19c>  // b.pmore
  40a90c:	aa1303e0 	mov	x0, x19
  40a910:	97ffdd9c 	bl	401f80 <_Znwm@plt>
  40a914:	aa0003e3 	mov	x3, x0
  40a918:	f90012a3 	str	x3, [x21, #32]
  40a91c:	8b130073 	add	x19, x3, x19
  40a920:	a900cee3 	stp	x3, x19, [x23, #8]
  40a924:	a94202c1 	ldp	x1, x0, [x22, #32]
  40a928:	cb010013 	sub	x19, x0, x1
  40a92c:	eb00003f 	cmp	x1, x0
  40a930:	540000a0 	b.eq	40a944 <_ZN2PTC1ERKS_+0xf4>  // b.none
  40a934:	aa0303e0 	mov	x0, x3
  40a938:	aa1303e2 	mov	x2, x19
  40a93c:	97ffddad 	bl	401ff0 <memmove@plt>
  40a940:	aa0003e3 	mov	x3, x0
  40a944:	8b130063 	add	x3, x3, x19
  40a948:	9100e2b4 	add	x20, x21, #0x38
  40a94c:	f9401ec0 	ldr	x0, [x22, #56]
  40a950:	f90006e3 	str	x3, [x23, #8]
  40a954:	f94022d3 	ldr	x19, [x22, #64]
  40a958:	f9001ebf 	str	xzr, [x21, #56]
  40a95c:	a900fe9f 	stp	xzr, xzr, [x20, #8]
  40a960:	eb000273 	subs	x19, x19, x0
  40a964:	540003c0 	b.eq	40a9dc <_ZN2PTC1ERKS_+0x18c>  // b.none
  40a968:	b27ef3e0 	mov	x0, #0x7ffffffffffffffc    	// #9223372036854775804
  40a96c:	eb00027f 	cmp	x19, x0
  40a970:	540003c8 	b.hi	40a9e8 <_ZN2PTC1ERKS_+0x198>  // b.pmore
  40a974:	aa1303e0 	mov	x0, x19
  40a978:	97ffdd82 	bl	401f80 <_Znwm@plt>
  40a97c:	aa0003e3 	mov	x3, x0
  40a980:	f9001ea3 	str	x3, [x21, #56]
  40a984:	8b130073 	add	x19, x3, x19
  40a988:	a900ce83 	stp	x3, x19, [x20, #8]
  40a98c:	a94382c1 	ldp	x1, x0, [x22, #56]
  40a990:	cb010013 	sub	x19, x0, x1
  40a994:	eb00003f 	cmp	x1, x0
  40a998:	540000a0 	b.eq	40a9ac <_ZN2PTC1ERKS_+0x15c>  // b.none
  40a99c:	aa0303e0 	mov	x0, x3
  40a9a0:	aa1303e2 	mov	x2, x19
  40a9a4:	97ffdd93 	bl	401ff0 <memmove@plt>
  40a9a8:	aa0003e3 	mov	x3, x0
  40a9ac:	8b130063 	add	x3, x3, x19
  40a9b0:	a94363f7 	ldp	x23, x24, [sp, #48]
  40a9b4:	f9402ac0 	ldr	x0, [x22, #80]
  40a9b8:	f9000683 	str	x3, [x20, #8]
  40a9bc:	a94153f3 	ldp	x19, x20, [sp, #16]
  40a9c0:	f9002aa0 	str	x0, [x21, #80]
  40a9c4:	a9425bf5 	ldp	x21, x22, [sp, #32]
  40a9c8:	a8c47bfd 	ldp	x29, x30, [sp], #64
  40a9cc:	d65f03c0 	ret
  40a9d0:	d2800013 	mov	x19, #0x0                   	// #0
  40a9d4:	d2800018 	mov	x24, #0x0                   	// #0
  40a9d8:	17ffffb1 	b	40a89c <_ZN2PTC1ERKS_+0x4c>
  40a9dc:	d2800013 	mov	x19, #0x0                   	// #0
  40a9e0:	d2800003 	mov	x3, #0x0                   	// #0
  40a9e4:	17ffffe7 	b	40a980 <_ZN2PTC1ERKS_+0x130>
  40a9e8:	97ffdd2e 	bl	401ea0 <_ZSt17__throw_bad_allocv@plt>
  40a9ec:	97ffdd2d 	bl	401ea0 <_ZSt17__throw_bad_allocv@plt>
  40a9f0:	97ffdd2c 	bl	401ea0 <_ZSt17__throw_bad_allocv@plt>
  40a9f4:	97ffdd2f 	bl	401eb0 <__cxa_begin_catch@plt>
  40a9f8:	eb14031f 	cmp	x24, x20
  40a9fc:	54000161 	b.ne	40aa28 <_ZN2PTC1ERKS_+0x1d8>  // b.any
  40aa00:	97ffdda0 	bl	402080 <__cxa_rethrow@plt>
  40aa04:	aa0003f3 	mov	x19, x0
  40aa08:	aa1703e0 	mov	x0, x23
  40aa0c:	97fffda5 	bl	40a0a0 <_ZNSt12_Vector_baseIiSaIiEED1Ev>
  40aa10:	aa1503e0 	mov	x0, x21
  40aa14:	97ffe3d3 	bl	403960 <_ZNSt6vectorI7segmentSaIS0_EED1Ev>
  40aa18:	aa1303e0 	mov	x0, x19
  40aa1c:	97ffddc1 	bl	402120 <_Unwind_Resume@plt>
  40aa20:	aa0003f3 	mov	x19, x0
  40aa24:	17fffffb 	b	40aa10 <_ZN2PTC1ERKS_+0x1c0>
  40aa28:	aa1803e0 	mov	x0, x24
  40aa2c:	9102c318 	add	x24, x24, #0xb0
  40aa30:	97fffdc4 	bl	40a140 <_ZN7segmentD1Ev>
  40aa34:	17fffff1 	b	40a9f8 <_ZN2PTC1ERKS_+0x1a8>
  40aa38:	aa0003f3 	mov	x19, x0
  40aa3c:	97ffdda9 	bl	4020e0 <__cxa_end_catch@plt>
  40aa40:	f94002a0 	ldr	x0, [x21]
  40aa44:	f9400aa1 	ldr	x1, [x21, #16]
  40aa48:	cb000021 	sub	x1, x1, x0
  40aa4c:	b4fffe60 	cbz	x0, 40aa18 <_ZN2PTC1ERKS_+0x1c8>
  40aa50:	97ffdd50 	bl	401f90 <_ZdlPvm@plt>
  40aa54:	17fffff1 	b	40aa18 <_ZN2PTC1ERKS_+0x1c8>
  40aa58:	d503201f 	nop
  40aa5c:	d503201f 	nop

000000000040aa60 <_ZNSt6vectorI7segmentSaIS0_EE17_M_realloc_insertIJRS0_EEEvN9__gnu_cxx17__normal_iteratorIPS0_S2_EEDpOT_>:
  40aa60:	a9b87bfd 	stp	x29, x30, [sp, #-128]!
  40aa64:	d2917463 	mov	x3, #0x8ba3                	// #35747
  40aa68:	f2b745c3 	movk	x3, #0xba2e, lsl #16
  40aa6c:	910003fd 	mov	x29, sp
  40aa70:	a9025bf5 	stp	x21, x22, [sp, #32]
  40aa74:	f2d45d03 	movk	x3, #0xa2e8, lsl #32
  40aa78:	f2e5d163 	movk	x3, #0x2e8b, lsl #48
  40aa7c:	a90363f7 	stp	x23, x24, [sp, #48]
  40aa80:	aa0103f5 	mov	x21, x1
  40aa84:	a9405818 	ldp	x24, x22, [x0]
  40aa88:	f9003be0 	str	x0, [sp, #112]
  40aa8c:	a90153f3 	stp	x19, x20, [sp, #16]
  40aa90:	aa0103f4 	mov	x20, x1
  40aa94:	d29745c1 	mov	x1, #0xba2e                	// #47662
  40aa98:	f2b45d01 	movk	x1, #0xa2e8, lsl #16
  40aa9c:	a9046bf9 	stp	x25, x26, [sp, #64]
  40aaa0:	f2c5d161 	movk	x1, #0x2e8b, lsl #32
  40aaa4:	cb1802c0 	sub	x0, x22, x24
  40aaa8:	a90573fb 	stp	x27, x28, [sp, #80]
  40aaac:	f2e01741 	movk	x1, #0xba, lsl #48
  40aab0:	9344fc00 	asr	x0, x0, #4
  40aab4:	9b037c00 	mul	x0, x0, x3
  40aab8:	eb01001f 	cmp	x0, x1
  40aabc:	540021a0 	b.eq	40aef0 <_ZNSt6vectorI7segmentSaIS0_EE17_M_realloc_insertIJRS0_EEEvN9__gnu_cxx17__normal_iteratorIPS0_S2_EEDpOT_+0x490>  // b.none
  40aac0:	f100001f 	cmp	x0, #0x0
  40aac4:	aa0203fb 	mov	x27, x2
  40aac8:	9a9f1403 	csinc	x3, x0, xzr, ne  // ne = any
  40aacc:	cb180293 	sub	x19, x20, x24
  40aad0:	ab000063 	adds	x3, x3, x0
  40aad4:	54001e62 	b.cs	40aea0 <_ZNSt6vectorI7segmentSaIS0_EE17_M_realloc_insertIJRS0_EEEvN9__gnu_cxx17__normal_iteratorIPS0_S2_EEDpOT_+0x440>  // b.hs, b.nlast
  40aad8:	b5001fe3 	cbnz	x3, 40aed4 <_ZNSt6vectorI7segmentSaIS0_EE17_M_realloc_insertIJRS0_EEEvN9__gnu_cxx17__normal_iteratorIPS0_S2_EEDpOT_+0x474>
  40aadc:	aa0203e1 	mov	x1, x2
  40aae0:	aa1303e0 	mov	x0, x19
  40aae4:	97fffe3f 	bl	40a3e0 <_ZN7segmentC1ERKS_>
  40aae8:	d2801613 	mov	x19, #0xb0                  	// #176
  40aaec:	f90037ff 	str	xzr, [sp, #104]
  40aaf0:	f9003fff 	str	xzr, [sp, #120]
  40aaf4:	eb18029f 	cmp	x20, x24
  40aaf8:	54000e80 	b.eq	40acc8 <_ZNSt6vectorI7segmentSaIS0_EE17_M_realloc_insertIJRS0_EEEvN9__gnu_cxx17__normal_iteratorIPS0_S2_EEDpOT_+0x268>  // b.none
  40aafc:	f94037fa 	ldr	x26, [sp, #104]
  40ab00:	9101c313 	add	x19, x24, #0x70
  40ab04:	aa1803fb 	mov	x27, x24
  40ab08:	d280003c 	mov	x28, #0x1                   	// #1
  40ab0c:	d503201f 	nop
  40ab10:	b8590261 	ldur	w1, [x19, #-112]
  40ab14:	91010360 	add	x0, x27, #0x40
  40ab18:	f8598262 	ldur	x2, [x19, #-104]
  40ab1c:	f85d0266 	ldur	x6, [x19, #-48]
  40ab20:	b9000341 	str	w1, [x26]
  40ab24:	b8594261 	ldur	w1, [x19, #-108]
  40ab28:	f9000742 	str	x2, [x26, #8]
  40ab2c:	b9000741 	str	w1, [x26, #4]
  40ab30:	f85a0261 	ldur	x1, [x19, #-96]
  40ab34:	b85c8264 	ldur	w4, [x19, #-56]
  40ab38:	f9000b41 	str	x1, [x26, #16]
  40ab3c:	a97a8662 	ldp	x2, x1, [x19, #-88]
  40ab40:	f9000f42 	str	x2, [x26, #24]
  40ab44:	a939fe7f 	stp	xzr, xzr, [x19, #-104]
  40ab48:	f81a827f 	stur	xzr, [x19, #-88]
  40ab4c:	f85d8262 	ldur	x2, [x19, #-40]
  40ab50:	f9001341 	str	x1, [x26, #32]
  40ab54:	f85b8261 	ldur	x1, [x19, #-72]
  40ab58:	f9001741 	str	x1, [x26, #40]
  40ab5c:	f85c0261 	ldur	x1, [x19, #-64]
  40ab60:	f9001b41 	str	x1, [x26, #48]
  40ab64:	a93b7e7f 	stp	xzr, xzr, [x19, #-80]
  40ab68:	f81c027f 	stur	xzr, [x19, #-64]
  40ab6c:	f85e0261 	ldur	x1, [x19, #-32]
  40ab70:	f9002742 	str	x2, [x26, #72]
  40ab74:	b9003b44 	str	w4, [x26, #56]
  40ab78:	f85e8264 	ldur	x4, [x19, #-24]
  40ab7c:	a9051341 	stp	x1, x4, [x26, #80]
  40ab80:	f9002346 	str	x6, [x26, #64]
  40ab84:	a97f1664 	ldp	x4, x5, [x19, #-16]
  40ab88:	a9061744 	stp	x4, x5, [x26, #96]
  40ab8c:	f9003b5f 	str	xzr, [x26, #112]
  40ab90:	eb1300df 	cmp	x6, x19
  40ab94:	540008e0 	b.eq	40acb0 <_ZNSt6vectorI7segmentSaIS0_EE17_M_realloc_insertIJRS0_EEEvN9__gnu_cxx17__normal_iteratorIPS0_S2_EEDpOT_+0x250>  // b.none
  40ab98:	b40000e1 	cbz	x1, 40abb4 <_ZNSt6vectorI7segmentSaIS0_EE17_M_realloc_insertIJRS0_EEEvN9__gnu_cxx17__normal_iteratorIPS0_S2_EEDpOT_+0x154>
  40ab9c:	f9401825 	ldr	x5, [x1, #48]
  40aba0:	91014344 	add	x4, x26, #0x50
  40aba4:	f9402346 	ldr	x6, [x26, #64]
  40aba8:	9ac208a1 	udiv	x1, x5, x2
  40abac:	9b029421 	msub	x1, x1, x2, x5
  40abb0:	f82178c4 	str	x4, [x6, x1, lsl #3]
  40abb4:	a93d7273 	stp	x19, x28, [x19, #-48]
  40abb8:	9102a361 	add	x1, x27, #0xa8
  40abbc:	a93e7e7f 	stp	xzr, xzr, [x19, #-32]
  40abc0:	a93ffe7f 	stp	xzr, xzr, [x19, #-8]
  40abc4:	a9409a67 	ldp	x7, x6, [x19, #8]
  40abc8:	f9400e62 	ldr	x2, [x19, #24]
  40abcc:	a9079b47 	stp	x7, x6, [x26, #120]
  40abd0:	f9401264 	ldr	x4, [x19, #32]
  40abd4:	a9089342 	stp	x2, x4, [x26, #136]
  40abd8:	a9429664 	ldp	x4, x5, [x19, #40]
  40abdc:	a9099744 	stp	x4, x5, [x26, #152]
  40abe0:	f900575f 	str	xzr, [x26, #168]
  40abe4:	eb0100ff 	cmp	x7, x1
  40abe8:	540005a0 	b.eq	40ac9c <_ZNSt6vectorI7segmentSaIS0_EE17_M_realloc_insertIJRS0_EEEvN9__gnu_cxx17__normal_iteratorIPS0_S2_EEDpOT_+0x23c>  // b.none
  40abec:	b40000e2 	cbz	x2, 40ac08 <_ZNSt6vectorI7segmentSaIS0_EE17_M_realloc_insertIJRS0_EEEvN9__gnu_cxx17__normal_iteratorIPS0_S2_EEDpOT_+0x1a8>
  40abf0:	b9800844 	ldrsw	x4, [x2, #8]
  40abf4:	91022342 	add	x2, x26, #0x88
  40abf8:	f9403f45 	ldr	x5, [x26, #120]
  40abfc:	9ac60881 	udiv	x1, x4, x6
  40ac00:	9b069021 	msub	x1, x1, x6, x4
  40ac04:	f82178a2 	str	x2, [x5, x1, lsl #3]
  40ac08:	97fffd2e 	bl	40a0c0 <_ZNSt10_HashtableINSt7__cxx1112basic_stringIcSt11char_traitsIcESaIcEEESt4pairIKS5_iESaIS8_ENSt8__detail10_Select1stESt8equal_toIS5_ESt4hashIS5_ENSA_18_Mod_range_hashingENSA_20_Default_ranged_hashENSA_20_Prime_rehash_policyENSA_17_Hashtable_traitsILb1ELb0ELb1EEEE5clearEv>
  40ac0c:	a97d0660 	ldp	x0, x1, [x19, #-48]
  40ac10:	eb13001f 	cmp	x0, x19
  40ac14:	54000060 	b.eq	40ac20 <_ZNSt6vectorI7segmentSaIS0_EE17_M_realloc_insertIJRS0_EEEvN9__gnu_cxx17__normal_iteratorIPS0_S2_EEDpOT_+0x1c0>  // b.none
  40ac18:	d37df021 	lsl	x1, x1, #3
  40ac1c:	97ffdcdd 	bl	401f90 <_ZdlPvm@plt>
  40ac20:	f85b0260 	ldur	x0, [x19, #-80]
  40ac24:	b4000080 	cbz	x0, 40ac34 <_ZNSt6vectorI7segmentSaIS0_EE17_M_realloc_insertIJRS0_EEEvN9__gnu_cxx17__normal_iteratorIPS0_S2_EEDpOT_+0x1d4>
  40ac28:	f85c0261 	ldur	x1, [x19, #-64]
  40ac2c:	cb000021 	sub	x1, x1, x0
  40ac30:	97ffdcd8 	bl	401f90 <_ZdlPvm@plt>
  40ac34:	a979e677 	ldp	x23, x25, [x19, #-104]
  40ac38:	eb1902ff 	cmp	x23, x25
  40ac3c:	54000180 	b.eq	40ac6c <_ZNSt6vectorI7segmentSaIS0_EE17_M_realloc_insertIJRS0_EEEvN9__gnu_cxx17__normal_iteratorIPS0_S2_EEDpOT_+0x20c>  // b.none
  40ac40:	aa1703e1 	mov	x1, x23
  40ac44:	f8410420 	ldr	x0, [x1], #16
  40ac48:	eb01001f 	cmp	x0, x1
  40ac4c:	54000080 	b.eq	40ac5c <_ZNSt6vectorI7segmentSaIS0_EE17_M_realloc_insertIJRS0_EEEvN9__gnu_cxx17__normal_iteratorIPS0_S2_EEDpOT_+0x1fc>  // b.none
  40ac50:	f9400ae1 	ldr	x1, [x23, #16]
  40ac54:	91000421 	add	x1, x1, #0x1
  40ac58:	97ffdcce 	bl	401f90 <_ZdlPvm@plt>
  40ac5c:	910082f7 	add	x23, x23, #0x20
  40ac60:	eb17033f 	cmp	x25, x23
  40ac64:	54fffee1 	b.ne	40ac40 <_ZNSt6vectorI7segmentSaIS0_EE17_M_realloc_insertIJRS0_EEEvN9__gnu_cxx17__normal_iteratorIPS0_S2_EEDpOT_+0x1e0>  // b.any
  40ac68:	f8598279 	ldur	x25, [x19, #-104]
  40ac6c:	b40000b9 	cbz	x25, 40ac80 <_ZNSt6vectorI7segmentSaIS0_EE17_M_realloc_insertIJRS0_EEEvN9__gnu_cxx17__normal_iteratorIPS0_S2_EEDpOT_+0x220>
  40ac70:	f85a8261 	ldur	x1, [x19, #-88]
  40ac74:	aa1903e0 	mov	x0, x25
  40ac78:	cb190021 	sub	x1, x1, x25
  40ac7c:	97ffdcc5 	bl	401f90 <_ZdlPvm@plt>
  40ac80:	9102c37b 	add	x27, x27, #0xb0
  40ac84:	9102c273 	add	x19, x19, #0xb0
  40ac88:	9102c340 	add	x0, x26, #0xb0
  40ac8c:	eb1b029f 	cmp	x20, x27
  40ac90:	540001a0 	b.eq	40acc4 <_ZNSt6vectorI7segmentSaIS0_EE17_M_realloc_insertIJRS0_EEEvN9__gnu_cxx17__normal_iteratorIPS0_S2_EEDpOT_+0x264>  // b.none
  40ac94:	aa0003fa 	mov	x26, x0
  40ac98:	17ffff9e 	b	40ab10 <_ZNSt6vectorI7segmentSaIS0_EE17_M_realloc_insertIJRS0_EEEvN9__gnu_cxx17__normal_iteratorIPS0_S2_EEDpOT_+0xb0>
  40ac9c:	f9401e61 	ldr	x1, [x19, #56]
  40aca0:	9102a344 	add	x4, x26, #0xa8
  40aca4:	f9003f44 	str	x4, [x26, #120]
  40aca8:	f9005741 	str	x1, [x26, #168]
  40acac:	17ffffd0 	b	40abec <_ZNSt6vectorI7segmentSaIS0_EE17_M_realloc_insertIJRS0_EEEvN9__gnu_cxx17__normal_iteratorIPS0_S2_EEDpOT_+0x18c>
  40acb0:	f9400264 	ldr	x4, [x19]
  40acb4:	9101c345 	add	x5, x26, #0x70
  40acb8:	f9002345 	str	x5, [x26, #64]
  40acbc:	f9003b44 	str	x4, [x26, #112]
  40acc0:	17ffffb6 	b	40ab98 <_ZNSt6vectorI7segmentSaIS0_EE17_M_realloc_insertIJRS0_EEEvN9__gnu_cxx17__normal_iteratorIPS0_S2_EEDpOT_+0x138>
  40acc4:	91058353 	add	x19, x26, #0x160
  40acc8:	eb16029f 	cmp	x20, x22
  40accc:	54000b40 	b.eq	40ae34 <_ZNSt6vectorI7segmentSaIS0_EE17_M_realloc_insertIJRS0_EEEvN9__gnu_cxx17__normal_iteratorIPS0_S2_EEDpOT_+0x3d4>  // b.none
  40acd0:	9101c294 	add	x20, x20, #0x70
  40acd4:	d280003c 	mov	x28, #0x1                   	// #1
  40acd8:	a979aa84 	ldp	x4, x10, [x20, #-104]
  40acdc:	a900aa64 	stp	x4, x10, [x19, #8]
  40ace0:	b85c8285 	ldur	w5, [x20, #-56]
  40ace4:	29720682 	ldp	w2, w1, [x20, #-112]
  40ace8:	29000662 	stp	w2, w1, [x19]
  40acec:	a97aa289 	ldp	x9, x8, [x20, #-88]
  40acf0:	a939fe9f 	stp	xzr, xzr, [x20, #-104]
  40acf4:	910102a0 	add	x0, x21, #0x40
  40acf8:	a97b9a87 	ldp	x7, x6, [x20, #-72]
  40acfc:	a93afe9f 	stp	xzr, xzr, [x20, #-88]
  40ad00:	f85d0283 	ldur	x3, [x20, #-48]
  40ad04:	a93bfe9f 	stp	xzr, xzr, [x20, #-72]
  40ad08:	a97d8682 	ldp	x2, x1, [x20, #-40]
  40ad0c:	a901a269 	stp	x9, x8, [x19, #24]
  40ad10:	f85e8284 	ldur	x4, [x20, #-24]
  40ad14:	a9029a67 	stp	x7, x6, [x19, #40]
  40ad18:	b9003a65 	str	w5, [x19, #56]
  40ad1c:	f9002263 	str	x3, [x19, #64]
  40ad20:	a9048662 	stp	x2, x1, [x19, #72]
  40ad24:	f9002e64 	str	x4, [x19, #88]
  40ad28:	a97f1684 	ldp	x4, x5, [x20, #-16]
  40ad2c:	a9061664 	stp	x4, x5, [x19, #96]
  40ad30:	f9003a7f 	str	xzr, [x19, #112]
  40ad34:	eb14007f 	cmp	x3, x20
  40ad38:	54000aa0 	b.eq	40ae8c <_ZNSt6vectorI7segmentSaIS0_EE17_M_realloc_insertIJRS0_EEEvN9__gnu_cxx17__normal_iteratorIPS0_S2_EEDpOT_+0x42c>  // b.none
  40ad3c:	b40000e1 	cbz	x1, 40ad58 <_ZNSt6vectorI7segmentSaIS0_EE17_M_realloc_insertIJRS0_EEEvN9__gnu_cxx17__normal_iteratorIPS0_S2_EEDpOT_+0x2f8>
  40ad40:	f9401824 	ldr	x4, [x1, #48]
  40ad44:	91014263 	add	x3, x19, #0x50
  40ad48:	f9402265 	ldr	x5, [x19, #64]
  40ad4c:	9ac20881 	udiv	x1, x4, x2
  40ad50:	9b029021 	msub	x1, x1, x2, x4
  40ad54:	f82178a3 	str	x3, [x5, x1, lsl #3]
  40ad58:	a9408e86 	ldp	x6, x3, [x20, #8]
  40ad5c:	9102a2a1 	add	x1, x21, #0xa8
  40ad60:	a9419e82 	ldp	x2, x7, [x20, #24]
  40ad64:	a93d7294 	stp	x20, x28, [x20, #-48]
  40ad68:	a9429684 	ldp	x4, x5, [x20, #40]
  40ad6c:	a93e7e9f 	stp	xzr, xzr, [x20, #-32]
  40ad70:	a93ffe9f 	stp	xzr, xzr, [x20, #-8]
  40ad74:	a9078e66 	stp	x6, x3, [x19, #120]
  40ad78:	a9089e62 	stp	x2, x7, [x19, #136]
  40ad7c:	a9099664 	stp	x4, x5, [x19, #152]
  40ad80:	f900567f 	str	xzr, [x19, #168]
  40ad84:	eb0100df 	cmp	x6, x1
  40ad88:	54000780 	b.eq	40ae78 <_ZNSt6vectorI7segmentSaIS0_EE17_M_realloc_insertIJRS0_EEEvN9__gnu_cxx17__normal_iteratorIPS0_S2_EEDpOT_+0x418>  // b.none
  40ad8c:	b40000e2 	cbz	x2, 40ada8 <_ZNSt6vectorI7segmentSaIS0_EE17_M_realloc_insertIJRS0_EEEvN9__gnu_cxx17__normal_iteratorIPS0_S2_EEDpOT_+0x348>
  40ad90:	b9800844 	ldrsw	x4, [x2, #8]
  40ad94:	91022262 	add	x2, x19, #0x88
  40ad98:	f9403e65 	ldr	x5, [x19, #120]
  40ad9c:	9ac30881 	udiv	x1, x4, x3
  40ada0:	9b039021 	msub	x1, x1, x3, x4
  40ada4:	f82178a2 	str	x2, [x5, x1, lsl #3]
  40ada8:	97fffcc6 	bl	40a0c0 <_ZNSt10_HashtableINSt7__cxx1112basic_stringIcSt11char_traitsIcESaIcEEESt4pairIKS5_iESaIS8_ENSt8__detail10_Select1stESt8equal_toIS5_ESt4hashIS5_ENSA_18_Mod_range_hashingENSA_20_Default_ranged_hashENSA_20_Prime_rehash_policyENSA_17_Hashtable_traitsILb1ELb0ELb1EEEE5clearEv>
  40adac:	a97d0680 	ldp	x0, x1, [x20, #-48]
  40adb0:	eb14001f 	cmp	x0, x20
  40adb4:	54000060 	b.eq	40adc0 <_ZNSt6vectorI7segmentSaIS0_EE17_M_realloc_insertIJRS0_EEEvN9__gnu_cxx17__normal_iteratorIPS0_S2_EEDpOT_+0x360>  // b.none
  40adb8:	d37df021 	lsl	x1, x1, #3
  40adbc:	97ffdc75 	bl	401f90 <_ZdlPvm@plt>
  40adc0:	f85b0280 	ldur	x0, [x20, #-80]
  40adc4:	b4000080 	cbz	x0, 40add4 <_ZNSt6vectorI7segmentSaIS0_EE17_M_realloc_insertIJRS0_EEEvN9__gnu_cxx17__normal_iteratorIPS0_S2_EEDpOT_+0x374>
  40adc8:	f85c0281 	ldur	x1, [x20, #-64]
  40adcc:	cb000021 	sub	x1, x1, x0
  40add0:	97ffdc70 	bl	401f90 <_ZdlPvm@plt>
  40add4:	a979ea9b 	ldp	x27, x26, [x20, #-104]
  40add8:	eb1a037f 	cmp	x27, x26
  40addc:	54000180 	b.eq	40ae0c <_ZNSt6vectorI7segmentSaIS0_EE17_M_realloc_insertIJRS0_EEEvN9__gnu_cxx17__normal_iteratorIPS0_S2_EEDpOT_+0x3ac>  // b.none
  40ade0:	aa1b03e1 	mov	x1, x27
  40ade4:	f8410420 	ldr	x0, [x1], #16
  40ade8:	eb01001f 	cmp	x0, x1
  40adec:	54000080 	b.eq	40adfc <_ZNSt6vectorI7segmentSaIS0_EE17_M_realloc_insertIJRS0_EEEvN9__gnu_cxx17__normal_iteratorIPS0_S2_EEDpOT_+0x39c>  // b.none
  40adf0:	f9400b61 	ldr	x1, [x27, #16]
  40adf4:	91000421 	add	x1, x1, #0x1
  40adf8:	97ffdc66 	bl	401f90 <_ZdlPvm@plt>
  40adfc:	9100837b 	add	x27, x27, #0x20
  40ae00:	eb1b035f 	cmp	x26, x27
  40ae04:	54fffee1 	b.ne	40ade0 <_ZNSt6vectorI7segmentSaIS0_EE17_M_realloc_insertIJRS0_EEEvN9__gnu_cxx17__normal_iteratorIPS0_S2_EEDpOT_+0x380>  // b.any
  40ae08:	f859829a 	ldur	x26, [x20, #-104]
  40ae0c:	b40000ba 	cbz	x26, 40ae20 <_ZNSt6vectorI7segmentSaIS0_EE17_M_realloc_insertIJRS0_EEEvN9__gnu_cxx17__normal_iteratorIPS0_S2_EEDpOT_+0x3c0>
  40ae10:	f85a8281 	ldur	x1, [x20, #-88]
  40ae14:	aa1a03e0 	mov	x0, x26
  40ae18:	cb1a0021 	sub	x1, x1, x26
  40ae1c:	97ffdc5d 	bl	401f90 <_ZdlPvm@plt>
  40ae20:	9102c2b5 	add	x21, x21, #0xb0
  40ae24:	9102c273 	add	x19, x19, #0xb0
  40ae28:	9102c294 	add	x20, x20, #0xb0
  40ae2c:	eb1502df 	cmp	x22, x21
  40ae30:	54fff541 	b.ne	40acd8 <_ZNSt6vectorI7segmentSaIS0_EE17_M_realloc_insertIJRS0_EEEvN9__gnu_cxx17__normal_iteratorIPS0_S2_EEDpOT_+0x278>  // b.any
  40ae34:	b40000d8 	cbz	x24, 40ae4c <_ZNSt6vectorI7segmentSaIS0_EE17_M_realloc_insertIJRS0_EEEvN9__gnu_cxx17__normal_iteratorIPS0_S2_EEDpOT_+0x3ec>
  40ae38:	f9403be0 	ldr	x0, [sp, #112]
  40ae3c:	f9400801 	ldr	x1, [x0, #16]
  40ae40:	aa1803e0 	mov	x0, x24
  40ae44:	cb180021 	sub	x1, x1, x24
  40ae48:	97ffdc52 	bl	401f90 <_ZdlPvm@plt>
  40ae4c:	a94683e1 	ldp	x1, x0, [sp, #104]
  40ae50:	a9425bf5 	ldp	x21, x22, [sp, #32]
  40ae54:	a94363f7 	ldp	x23, x24, [sp, #48]
  40ae58:	a9446bf9 	ldp	x25, x26, [sp, #64]
  40ae5c:	a94573fb 	ldp	x27, x28, [sp, #80]
  40ae60:	a9004c01 	stp	x1, x19, [x0]
  40ae64:	f9403fe1 	ldr	x1, [sp, #120]
  40ae68:	a94153f3 	ldp	x19, x20, [sp, #16]
  40ae6c:	f9000801 	str	x1, [x0, #16]
  40ae70:	a8c87bfd 	ldp	x29, x30, [sp], #128
  40ae74:	d65f03c0 	ret
  40ae78:	f9401e81 	ldr	x1, [x20, #56]
  40ae7c:	9102a264 	add	x4, x19, #0xa8
  40ae80:	f9003e64 	str	x4, [x19, #120]
  40ae84:	f9005661 	str	x1, [x19, #168]
  40ae88:	17ffffc1 	b	40ad8c <_ZNSt6vectorI7segmentSaIS0_EE17_M_realloc_insertIJRS0_EEEvN9__gnu_cxx17__normal_iteratorIPS0_S2_EEDpOT_+0x32c>
  40ae8c:	f9400283 	ldr	x3, [x20]
  40ae90:	9101c264 	add	x4, x19, #0x70
  40ae94:	f9002264 	str	x4, [x19, #64]
  40ae98:	f9003a63 	str	x3, [x19, #112]
  40ae9c:	17ffffa8 	b	40ad3c <_ZNSt6vectorI7segmentSaIS0_EE17_M_realloc_insertIJRS0_EEEvN9__gnu_cxx17__normal_iteratorIPS0_S2_EEDpOT_+0x2dc>
  40aea0:	92800bfa 	mov	x26, #0xffffffffffffffa0    	// #-96
  40aea4:	f2effffa 	movk	x26, #0x7fff, lsl #48
  40aea8:	aa1a03e0 	mov	x0, x26
  40aeac:	97ffdc35 	bl	401f80 <_Znwm@plt>
  40aeb0:	aa1b03e1 	mov	x1, x27
  40aeb4:	aa0003f7 	mov	x23, x0
  40aeb8:	8b130000 	add	x0, x0, x19
  40aebc:	f90037f7 	str	x23, [sp, #104]
  40aec0:	97fffd48 	bl	40a3e0 <_ZN7segmentC1ERKS_>
  40aec4:	8b1a02e1 	add	x1, x23, x26
  40aec8:	9102c2f3 	add	x19, x23, #0xb0
  40aecc:	f9003fe1 	str	x1, [sp, #120]
  40aed0:	17ffff09 	b	40aaf4 <_ZNSt6vectorI7segmentSaIS0_EE17_M_realloc_insertIJRS0_EEEvN9__gnu_cxx17__normal_iteratorIPS0_S2_EEDpOT_+0x94>
  40aed4:	eb01007f 	cmp	x3, x1
  40aed8:	9a819063 	csel	x3, x3, x1, ls  // ls = plast
  40aedc:	8b03047a 	add	x26, x3, x3, lsl #1
  40aee0:	d37ef75a 	lsl	x26, x26, #2
  40aee4:	cb03035a 	sub	x26, x26, x3
  40aee8:	d37cef5a 	lsl	x26, x26, #4
  40aeec:	17ffffef 	b	40aea8 <_ZNSt6vectorI7segmentSaIS0_EE17_M_realloc_insertIJRS0_EEEvN9__gnu_cxx17__normal_iteratorIPS0_S2_EEDpOT_+0x448>
  40aef0:	90000040 	adrp	x0, 412000 <_Z19MD5Hash_simdversionPKNSt7__cxx1112basic_stringIcSt11char_traitsIcESaIcEEEP12__Uint32x4_t+0x1000>
  40aef4:	91392000 	add	x0, x0, #0xe48
  40aef8:	97ffdbf6 	bl	401ed0 <_ZSt20__throw_length_errorPKc@plt>
  40aefc:	97ffdbed 	bl	401eb0 <__cxa_begin_catch@plt>
  40af00:	aa1303e0 	mov	x0, x19
  40af04:	97fffc8f 	bl	40a140 <_ZN7segmentD1Ev>
  40af08:	97ffdc5e 	bl	402080 <__cxa_rethrow@plt>
  40af0c:	97ffdbe9 	bl	401eb0 <__cxa_begin_catch@plt>
  40af10:	f94037e0 	ldr	x0, [sp, #104]
  40af14:	aa1a03e1 	mov	x1, x26
  40af18:	97ffdc1e 	bl	401f90 <_ZdlPvm@plt>
  40af1c:	97ffdc59 	bl	402080 <__cxa_rethrow@plt>
  40af20:	aa0003f3 	mov	x19, x0
  40af24:	97ffdc6f 	bl	4020e0 <__cxa_end_catch@plt>
  40af28:	aa1303e0 	mov	x0, x19
  40af2c:	97ffdc7d 	bl	402120 <_Unwind_Resume@plt>

000000000040af30 <_ZNSt6vectorI7segmentSaIS0_EE12emplace_backIJRS0_EEEvDpOT_>:
  40af30:	a9409003 	ldp	x3, x4, [x0, #8]
  40af34:	eb04007f 	cmp	x3, x4
  40af38:	540001a0 	b.eq	40af6c <_ZNSt6vectorI7segmentSaIS0_EE12emplace_backIJRS0_EEEvDpOT_+0x3c>  // b.none
  40af3c:	a9be7bfd 	stp	x29, x30, [sp, #-32]!
  40af40:	910003fd 	mov	x29, sp
  40af44:	f9000bf3 	str	x19, [sp, #16]
  40af48:	aa0003f3 	mov	x19, x0
  40af4c:	aa0303e0 	mov	x0, x3
  40af50:	97fffd24 	bl	40a3e0 <_ZN7segmentC1ERKS_>
  40af54:	f9400660 	ldr	x0, [x19, #8]
  40af58:	9102c000 	add	x0, x0, #0xb0
  40af5c:	f9000660 	str	x0, [x19, #8]
  40af60:	f9400bf3 	ldr	x19, [sp, #16]
  40af64:	a8c27bfd 	ldp	x29, x30, [sp], #32
  40af68:	d65f03c0 	ret
  40af6c:	aa0103e2 	mov	x2, x1
  40af70:	aa0303e1 	mov	x1, x3
  40af74:	17fffebb 	b	40aa60 <_ZNSt6vectorI7segmentSaIS0_EE17_M_realloc_insertIJRS0_EEEvN9__gnu_cxx17__normal_iteratorIPS0_S2_EEDpOT_>
  40af78:	d503201f 	nop
  40af7c:	d503201f 	nop

000000000040af80 <_ZNSt6vectorINSt7__cxx1112basic_stringIcSt11char_traitsIcESaIcEEESaIS5_EE17_M_realloc_insertIJRS5_EEEvN9__gnu_cxx17__normal_iteratorIPS5_S7_EEDpOT_>:
  40af80:	a9ba7bfd 	stp	x29, x30, [sp, #-96]!
  40af84:	910003fd 	mov	x29, sp
  40af88:	a9025bf5 	stp	x21, x22, [sp, #32]
  40af8c:	a90363f7 	stp	x23, x24, [sp, #48]
  40af90:	a9405418 	ldp	x24, x21, [x0]
  40af94:	a90153f3 	stp	x19, x20, [sp, #16]
  40af98:	aa0103f3 	mov	x19, x1
  40af9c:	a9046bf9 	stp	x25, x26, [sp, #64]
  40afa0:	aa0103f9 	mov	x25, x1
  40afa4:	92ff8001 	mov	x1, #0x3ffffffffffffff     	// #288230376151711743
  40afa8:	a90573fb 	stp	x27, x28, [sp, #80]
  40afac:	cb1802b4 	sub	x20, x21, x24
  40afb0:	9345fe94 	asr	x20, x20, #5
  40afb4:	eb01029f 	cmp	x20, x1
  40afb8:	54000cc0 	b.eq	40b150 <_ZNSt6vectorINSt7__cxx1112basic_stringIcSt11char_traitsIcESaIcEEESaIS5_EE17_M_realloc_insertIJRS5_EEEvN9__gnu_cxx17__normal_iteratorIPS5_S7_EEDpOT_+0x1d0>  // b.none
  40afbc:	f100029f 	cmp	x20, #0x0
  40afc0:	aa0003f6 	mov	x22, x0
  40afc4:	9a9f1680 	csinc	x0, x20, xzr, ne  // ne = any
  40afc8:	aa0203fb 	mov	x27, x2
  40afcc:	cb18033a 	sub	x26, x25, x24
  40afd0:	ab000294 	adds	x20, x20, x0
  40afd4:	54000a82 	b.cs	40b124 <_ZNSt6vectorINSt7__cxx1112basic_stringIcSt11char_traitsIcESaIcEEESaIS5_EE17_M_realloc_insertIJRS5_EEEvN9__gnu_cxx17__normal_iteratorIPS5_S7_EEDpOT_+0x1a4>  // b.hs, b.nlast
  40afd8:	b5000b54 	cbnz	x20, 40b140 <_ZNSt6vectorINSt7__cxx1112basic_stringIcSt11char_traitsIcESaIcEEESaIS5_EE17_M_realloc_insertIJRS5_EEEvN9__gnu_cxx17__normal_iteratorIPS5_S7_EEDpOT_+0x1c0>
  40afdc:	d2800017 	mov	x23, #0x0                   	// #0
  40afe0:	a9400b61 	ldp	x1, x2, [x27]
  40afe4:	8b1a02fc 	add	x28, x23, x26
  40afe8:	91004380 	add	x0, x28, #0x10
  40afec:	f83a6ae0 	str	x0, [x23, x26]
  40aff0:	aa1c03e0 	mov	x0, x28
  40aff4:	8b020022 	add	x2, x1, x2
  40aff8:	97ffe393 	bl	403e44 <_ZNSt7__cxx1112basic_stringIcSt11char_traitsIcESaIcEE12_M_constructIPcEEvT_S7_St20forward_iterator_tag.isra.0>
  40affc:	eb18033f 	cmp	x25, x24
  40b000:	540009c0 	b.eq	40b138 <_ZNSt6vectorINSt7__cxx1112basic_stringIcSt11char_traitsIcESaIcEEESaIS5_EE17_M_realloc_insertIJRS5_EEEvN9__gnu_cxx17__normal_iteratorIPS5_S7_EEDpOT_+0x1b8>  // b.none
  40b004:	aa1c03e4 	mov	x4, x28
  40b008:	aa1703e2 	mov	x2, x23
  40b00c:	aa1803e3 	mov	x3, x24
  40b010:	1400000a 	b	40b038 <_ZNSt6vectorINSt7__cxx1112basic_stringIcSt11char_traitsIcESaIcEEESaIS5_EE17_M_realloc_insertIJRS5_EEEvN9__gnu_cxx17__normal_iteratorIPS5_S7_EEDpOT_+0xb8>
  40b014:	f9000041 	str	x1, [x2]
  40b018:	91008042 	add	x2, x2, #0x20
  40b01c:	91008063 	add	x3, x3, #0x20
  40b020:	f85f0060 	ldur	x0, [x3, #-16]
  40b024:	f81f0040 	stur	x0, [x2, #-16]
  40b028:	f85e8060 	ldur	x0, [x3, #-24]
  40b02c:	f81e8040 	stur	x0, [x2, #-24]
  40b030:	eb04005f 	cmp	x2, x4
  40b034:	540001e0 	b.eq	40b070 <_ZNSt6vectorINSt7__cxx1112basic_stringIcSt11char_traitsIcESaIcEEESaIS5_EE17_M_realloc_insertIJRS5_EEEvN9__gnu_cxx17__normal_iteratorIPS5_S7_EEDpOT_+0xf0>  // b.none
  40b038:	aa0303e0 	mov	x0, x3
  40b03c:	91004041 	add	x1, x2, #0x10
  40b040:	f9000041 	str	x1, [x2]
  40b044:	f8410401 	ldr	x1, [x0], #16
  40b048:	eb00003f 	cmp	x1, x0
  40b04c:	54fffe41 	b.ne	40b014 <_ZNSt6vectorINSt7__cxx1112basic_stringIcSt11char_traitsIcESaIcEEESaIS5_EE17_M_realloc_insertIJRS5_EEEvN9__gnu_cxx17__normal_iteratorIPS5_S7_EEDpOT_+0x94>  // b.any
  40b050:	a9410460 	ldp	x0, x1, [x3, #16]
  40b054:	a9010440 	stp	x0, x1, [x2, #16]
  40b058:	91008042 	add	x2, x2, #0x20
  40b05c:	f9400460 	ldr	x0, [x3, #8]
  40b060:	f81e8040 	stur	x0, [x2, #-24]
  40b064:	91008063 	add	x3, x3, #0x20
  40b068:	eb04005f 	cmp	x2, x4
  40b06c:	54fffe61 	b.ne	40b038 <_ZNSt6vectorINSt7__cxx1112basic_stringIcSt11char_traitsIcESaIcEEESaIS5_EE17_M_realloc_insertIJRS5_EEEvN9__gnu_cxx17__normal_iteratorIPS5_S7_EEDpOT_+0xb8>  // b.any
  40b070:	9100809a 	add	x26, x4, #0x20
  40b074:	eb15033f 	cmp	x25, x21
  40b078:	54000380 	b.eq	40b0e8 <_ZNSt6vectorINSt7__cxx1112basic_stringIcSt11char_traitsIcESaIcEEESaIS5_EE17_M_realloc_insertIJRS5_EEEvN9__gnu_cxx17__normal_iteratorIPS5_S7_EEDpOT_+0x168>  // b.none
  40b07c:	cb1902b9 	sub	x25, x21, x25
  40b080:	aa1a03e2 	mov	x2, x26
  40b084:	1400000a 	b	40b0ac <_ZNSt6vectorINSt7__cxx1112basic_stringIcSt11char_traitsIcESaIcEEESaIS5_EE17_M_realloc_insertIJRS5_EEEvN9__gnu_cxx17__normal_iteratorIPS5_S7_EEDpOT_+0x12c>
  40b088:	f9000040 	str	x0, [x2]
  40b08c:	91008273 	add	x19, x19, #0x20
  40b090:	f85e8260 	ldur	x0, [x19, #-24]
  40b094:	f9000440 	str	x0, [x2, #8]
  40b098:	f85f0261 	ldur	x1, [x19, #-16]
  40b09c:	f9000841 	str	x1, [x2, #16]
  40b0a0:	91008042 	add	x2, x2, #0x20
  40b0a4:	eb15027f 	cmp	x19, x21
  40b0a8:	540001e0 	b.eq	40b0e4 <_ZNSt6vectorINSt7__cxx1112basic_stringIcSt11char_traitsIcESaIcEEESaIS5_EE17_M_realloc_insertIJRS5_EEEvN9__gnu_cxx17__normal_iteratorIPS5_S7_EEDpOT_+0x164>  // b.none
  40b0ac:	aa1303e3 	mov	x3, x19
  40b0b0:	91004040 	add	x0, x2, #0x10
  40b0b4:	f9000040 	str	x0, [x2]
  40b0b8:	f8410460 	ldr	x0, [x3], #16
  40b0bc:	eb03001f 	cmp	x0, x3
  40b0c0:	54fffe41 	b.ne	40b088 <_ZNSt6vectorINSt7__cxx1112basic_stringIcSt11char_traitsIcESaIcEEESaIS5_EE17_M_realloc_insertIJRS5_EEEvN9__gnu_cxx17__normal_iteratorIPS5_S7_EEDpOT_+0x108>  // b.any
  40b0c4:	a9410660 	ldp	x0, x1, [x19, #16]
  40b0c8:	a9010440 	stp	x0, x1, [x2, #16]
  40b0cc:	91008273 	add	x19, x19, #0x20
  40b0d0:	f85e8260 	ldur	x0, [x19, #-24]
  40b0d4:	f9000440 	str	x0, [x2, #8]
  40b0d8:	91008042 	add	x2, x2, #0x20
  40b0dc:	eb15027f 	cmp	x19, x21
  40b0e0:	54fffe61 	b.ne	40b0ac <_ZNSt6vectorINSt7__cxx1112basic_stringIcSt11char_traitsIcESaIcEEESaIS5_EE17_M_realloc_insertIJRS5_EEEvN9__gnu_cxx17__normal_iteratorIPS5_S7_EEDpOT_+0x12c>  // b.any
  40b0e4:	8b19035a 	add	x26, x26, x25
  40b0e8:	b40000b8 	cbz	x24, 40b0fc <_ZNSt6vectorINSt7__cxx1112basic_stringIcSt11char_traitsIcESaIcEEESaIS5_EE17_M_realloc_insertIJRS5_EEEvN9__gnu_cxx17__normal_iteratorIPS5_S7_EEDpOT_+0x17c>
  40b0ec:	f9400ac1 	ldr	x1, [x22, #16]
  40b0f0:	aa1803e0 	mov	x0, x24
  40b0f4:	cb180021 	sub	x1, x1, x24
  40b0f8:	97ffdba6 	bl	401f90 <_ZdlPvm@plt>
  40b0fc:	8b1416f4 	add	x20, x23, x20, lsl #5
  40b100:	a94573fb 	ldp	x27, x28, [sp, #80]
  40b104:	a9006ad7 	stp	x23, x26, [x22]
  40b108:	f9000ad4 	str	x20, [x22, #16]
  40b10c:	a94153f3 	ldp	x19, x20, [sp, #16]
  40b110:	a9425bf5 	ldp	x21, x22, [sp, #32]
  40b114:	a94363f7 	ldp	x23, x24, [sp, #48]
  40b118:	a9446bf9 	ldp	x25, x26, [sp, #64]
  40b11c:	a8c67bfd 	ldp	x29, x30, [sp], #96
  40b120:	d65f03c0 	ret
  40b124:	aa0103f4 	mov	x20, x1
  40b128:	b27be7e0 	mov	x0, #0x7fffffffffffffe0    	// #9223372036854775776
  40b12c:	97ffdb95 	bl	401f80 <_Znwm@plt>
  40b130:	aa0003f7 	mov	x23, x0
  40b134:	17ffffab 	b	40afe0 <_ZNSt6vectorINSt7__cxx1112basic_stringIcSt11char_traitsIcESaIcEEESaIS5_EE17_M_realloc_insertIJRS5_EEEvN9__gnu_cxx17__normal_iteratorIPS5_S7_EEDpOT_+0x60>
  40b138:	aa1703e4 	mov	x4, x23
  40b13c:	17ffffcd 	b	40b070 <_ZNSt6vectorINSt7__cxx1112basic_stringIcSt11char_traitsIcESaIcEEESaIS5_EE17_M_realloc_insertIJRS5_EEEvN9__gnu_cxx17__normal_iteratorIPS5_S7_EEDpOT_+0xf0>
  40b140:	eb01029f 	cmp	x20, x1
  40b144:	9a819294 	csel	x20, x20, x1, ls  // ls = plast
  40b148:	d37bea80 	lsl	x0, x20, #5
  40b14c:	17fffff8 	b	40b12c <_ZNSt6vectorINSt7__cxx1112basic_stringIcSt11char_traitsIcESaIcEEESaIS5_EE17_M_realloc_insertIJRS5_EEEvN9__gnu_cxx17__normal_iteratorIPS5_S7_EEDpOT_+0x1ac>
  40b150:	f0000020 	adrp	x0, 412000 <_Z19MD5Hash_simdversionPKNSt7__cxx1112basic_stringIcSt11char_traitsIcESaIcEEEP12__Uint32x4_t+0x1000>
  40b154:	91392000 	add	x0, x0, #0xe48
  40b158:	97ffdb5e 	bl	401ed0 <_ZSt20__throw_length_errorPKc@plt>
  40b15c:	97ffdb55 	bl	401eb0 <__cxa_begin_catch@plt>
  40b160:	b5000097 	cbnz	x23, 40b170 <_ZNSt6vectorINSt7__cxx1112basic_stringIcSt11char_traitsIcESaIcEEESaIS5_EE17_M_realloc_insertIJRS5_EEEvN9__gnu_cxx17__normal_iteratorIPS5_S7_EEDpOT_+0x1f0>
  40b164:	aa1c03e0 	mov	x0, x28
  40b168:	97ffdb9e 	bl	401fe0 <_ZNSt7__cxx1112basic_stringIcSt11char_traitsIcESaIcEE10_M_disposeEv@plt>
  40b16c:	97ffdbc5 	bl	402080 <__cxa_rethrow@plt>
  40b170:	d37bea81 	lsl	x1, x20, #5
  40b174:	aa1703e0 	mov	x0, x23
  40b178:	97ffdb86 	bl	401f90 <_ZdlPvm@plt>
  40b17c:	97ffdbc1 	bl	402080 <__cxa_rethrow@plt>
  40b180:	aa0003f3 	mov	x19, x0
  40b184:	97ffdbd7 	bl	4020e0 <__cxa_end_catch@plt>
  40b188:	aa1303e0 	mov	x0, x19
  40b18c:	97ffdbe5 	bl	402120 <_Unwind_Resume@plt>

000000000040b190 <_ZNSt8__detail9_Map_baseIiSt4pairIKiiESaIS3_ENS_10_Select1stESt8equal_toIiESt4hashIiENS_18_Mod_range_hashingENS_20_Default_ranged_hashENS_20_Prime_rehash_policyENS_17_Hashtable_traitsILb0ELb0ELb1EEELb1EE2atERS2_>:
  40b190:	b9400027 	ldr	w7, [x1]
  40b194:	f9400403 	ldr	x3, [x0, #8]
  40b198:	93407ce1 	sxtw	x1, w7
  40b19c:	f9400000 	ldr	x0, [x0]
  40b1a0:	9ac30824 	udiv	x4, x1, x3
  40b1a4:	9b038484 	msub	x4, x4, x3, x1
  40b1a8:	f8647805 	ldr	x5, [x0, x4, lsl #3]
  40b1ac:	b40002a5 	cbz	x5, 40b200 <_ZNSt8__detail9_Map_baseIiSt4pairIKiiESaIS3_ENS_10_Select1stESt8equal_toIiESt4hashIiENS_18_Mod_range_hashingENS_20_Default_ranged_hashENS_20_Prime_rehash_policyENS_17_Hashtable_traitsILb0ELb0ELb1EEELb1EE2atERS2_+0x70>
  40b1b0:	f94000a0 	ldr	x0, [x5]
  40b1b4:	b9400801 	ldr	w1, [x0, #8]
  40b1b8:	6b0100ff 	cmp	w7, w1
  40b1bc:	540001a0 	b.eq	40b1f0 <_ZNSt8__detail9_Map_baseIiSt4pairIKiiESaIS3_ENS_10_Select1stESt8equal_toIiESt4hashIiENS_18_Mod_range_hashingENS_20_Default_ranged_hashENS_20_Prime_rehash_policyENS_17_Hashtable_traitsILb0ELb0ELb1EEELb1EE2atERS2_+0x60>  // b.none
  40b1c0:	f9400002 	ldr	x2, [x0]
  40b1c4:	b40001e2 	cbz	x2, 40b200 <_ZNSt8__detail9_Map_baseIiSt4pairIKiiESaIS3_ENS_10_Select1stESt8equal_toIiESt4hashIiENS_18_Mod_range_hashingENS_20_Default_ranged_hashENS_20_Prime_rehash_policyENS_17_Hashtable_traitsILb0ELb0ELb1EEELb1EE2atERS2_+0x70>
  40b1c8:	b9400841 	ldr	w1, [x2, #8]
  40b1cc:	aa0003e5 	mov	x5, x0
  40b1d0:	93407c26 	sxtw	x6, w1
  40b1d4:	9ac308c0 	udiv	x0, x6, x3
  40b1d8:	9b039800 	msub	x0, x0, x3, x6
  40b1dc:	eb00009f 	cmp	x4, x0
  40b1e0:	54000101 	b.ne	40b200 <_ZNSt8__detail9_Map_baseIiSt4pairIKiiESaIS3_ENS_10_Select1stESt8equal_toIiESt4hashIiENS_18_Mod_range_hashingENS_20_Default_ranged_hashENS_20_Prime_rehash_policyENS_17_Hashtable_traitsILb0ELb0ELb1EEELb1EE2atERS2_+0x70>  // b.any
  40b1e4:	aa0203e0 	mov	x0, x2
  40b1e8:	6b0100ff 	cmp	w7, w1
  40b1ec:	54fffea1 	b.ne	40b1c0 <_ZNSt8__detail9_Map_baseIiSt4pairIKiiESaIS3_ENS_10_Select1stESt8equal_toIiESt4hashIiENS_18_Mod_range_hashingENS_20_Default_ranged_hashENS_20_Prime_rehash_policyENS_17_Hashtable_traitsILb0ELb0ELb1EEELb1EE2atERS2_+0x30>  // b.any
  40b1f0:	f94000a0 	ldr	x0, [x5]
  40b1f4:	b4000060 	cbz	x0, 40b200 <_ZNSt8__detail9_Map_baseIiSt4pairIKiiESaIS3_ENS_10_Select1stESt8equal_toIiESt4hashIiENS_18_Mod_range_hashingENS_20_Default_ranged_hashENS_20_Prime_rehash_policyENS_17_Hashtable_traitsILb0ELb0ELb1EEELb1EE2atERS2_+0x70>
  40b1f8:	91003000 	add	x0, x0, #0xc
  40b1fc:	d65f03c0 	ret
  40b200:	a9bf7bfd 	stp	x29, x30, [sp, #-16]!
  40b204:	f0000020 	adrp	x0, 412000 <_Z19MD5Hash_simdversionPKNSt7__cxx1112basic_stringIcSt11char_traitsIcESaIcEEEP12__Uint32x4_t+0x1000>
  40b208:	9139a000 	add	x0, x0, #0xe68
  40b20c:	910003fd 	mov	x29, sp
  40b210:	97ffdb98 	bl	402070 <_ZSt20__throw_out_of_rangePKc@plt>
  40b214:	d503201f 	nop
  40b218:	d503201f 	nop
  40b21c:	d503201f 	nop

000000000040b220 <_ZNSt6vectorIiSaIiEE17_M_realloc_insertIJRiEEEvN9__gnu_cxx17__normal_iteratorIPiS1_EEDpOT_>:
  40b220:	a9ba7bfd 	stp	x29, x30, [sp, #-96]!
  40b224:	910003fd 	mov	x29, sp
  40b228:	a9025bf5 	stp	x21, x22, [sp, #32]
  40b22c:	a9046bf9 	stp	x25, x26, [sp, #64]
  40b230:	a9405419 	ldp	x25, x21, [x0]
  40b234:	a90153f3 	stp	x19, x20, [sp, #16]
  40b238:	a90363f7 	stp	x23, x24, [sp, #48]
  40b23c:	aa0103f8 	mov	x24, x1
  40b240:	92fc0001 	mov	x1, #0x1fffffffffffffff    	// #2305843009213693951
  40b244:	a90573fb 	stp	x27, x28, [sp, #80]
  40b248:	cb1902a3 	sub	x3, x21, x25
  40b24c:	9342fc63 	asr	x3, x3, #2
  40b250:	eb01007f 	cmp	x3, x1
  40b254:	54000760 	b.eq	40b340 <_ZNSt6vectorIiSaIiEE17_M_realloc_insertIJRiEEEvN9__gnu_cxx17__normal_iteratorIPiS1_EEDpOT_+0x120>  // b.none
  40b258:	f100007f 	cmp	x3, #0x0
  40b25c:	aa0003f4 	mov	x20, x0
  40b260:	9a9f1460 	csinc	x0, x3, xzr, ne  // ne = any
  40b264:	aa0203fb 	mov	x27, x2
  40b268:	cb19031a 	sub	x26, x24, x25
  40b26c:	ab000063 	adds	x3, x3, x0
  40b270:	54000542 	b.cs	40b318 <_ZNSt6vectorIiSaIiEE17_M_realloc_insertIJRiEEEvN9__gnu_cxx17__normal_iteratorIPiS1_EEDpOT_+0xf8>  // b.hs, b.nlast
  40b274:	b50005e3 	cbnz	x3, 40b330 <_ZNSt6vectorIiSaIiEE17_M_realloc_insertIJRiEEEvN9__gnu_cxx17__normal_iteratorIPiS1_EEDpOT_+0x110>
  40b278:	d2800013 	mov	x19, #0x0                   	// #0
  40b27c:	d2800017 	mov	x23, #0x0                   	// #0
  40b280:	b9400360 	ldr	w0, [x27]
  40b284:	91001356 	add	x22, x26, #0x4
  40b288:	cb1802b5 	sub	x21, x21, x24
  40b28c:	8b1602f6 	add	x22, x23, x22
  40b290:	b83a6ae0 	str	w0, [x23, x26]
  40b294:	8b1502db 	add	x27, x22, x21
  40b298:	f9400a9c 	ldr	x28, [x20, #16]
  40b29c:	f100035f 	cmp	x26, #0x0
  40b2a0:	5400022c 	b.gt	40b2e4 <_ZNSt6vectorIiSaIiEE17_M_realloc_insertIJRiEEEvN9__gnu_cxx17__normal_iteratorIPiS1_EEDpOT_+0xc4>
  40b2a4:	f10002bf 	cmp	x21, #0x0
  40b2a8:	540002cc 	b.gt	40b300 <_ZNSt6vectorIiSaIiEE17_M_realloc_insertIJRiEEEvN9__gnu_cxx17__normal_iteratorIPiS1_EEDpOT_+0xe0>
  40b2ac:	b5000159 	cbnz	x25, 40b2d4 <_ZNSt6vectorIiSaIiEE17_M_realloc_insertIJRiEEEvN9__gnu_cxx17__normal_iteratorIPiS1_EEDpOT_+0xb4>
  40b2b0:	a9425bf5 	ldp	x21, x22, [sp, #32]
  40b2b4:	a9446bf9 	ldp	x25, x26, [sp, #64]
  40b2b8:	a9006e97 	stp	x23, x27, [x20]
  40b2bc:	f9000a93 	str	x19, [x20, #16]
  40b2c0:	a94153f3 	ldp	x19, x20, [sp, #16]
  40b2c4:	a94363f7 	ldp	x23, x24, [sp, #48]
  40b2c8:	a94573fb 	ldp	x27, x28, [sp, #80]
  40b2cc:	a8c67bfd 	ldp	x29, x30, [sp], #96
  40b2d0:	d65f03c0 	ret
  40b2d4:	cb190381 	sub	x1, x28, x25
  40b2d8:	aa1903e0 	mov	x0, x25
  40b2dc:	97ffdb2d 	bl	401f90 <_ZdlPvm@plt>
  40b2e0:	17fffff4 	b	40b2b0 <_ZNSt6vectorIiSaIiEE17_M_realloc_insertIJRiEEEvN9__gnu_cxx17__normal_iteratorIPiS1_EEDpOT_+0x90>
  40b2e4:	aa1903e1 	mov	x1, x25
  40b2e8:	aa1a03e2 	mov	x2, x26
  40b2ec:	aa1703e0 	mov	x0, x23
  40b2f0:	97ffdb40 	bl	401ff0 <memmove@plt>
  40b2f4:	cb190381 	sub	x1, x28, x25
  40b2f8:	f10002bf 	cmp	x21, #0x0
  40b2fc:	54fffeed 	b.le	40b2d8 <_ZNSt6vectorIiSaIiEE17_M_realloc_insertIJRiEEEvN9__gnu_cxx17__normal_iteratorIPiS1_EEDpOT_+0xb8>
  40b300:	aa1503e2 	mov	x2, x21
  40b304:	aa1803e1 	mov	x1, x24
  40b308:	aa1603e0 	mov	x0, x22
  40b30c:	97ffdabd 	bl	401e00 <memcpy@plt>
  40b310:	b4fffd19 	cbz	x25, 40b2b0 <_ZNSt6vectorIiSaIiEE17_M_realloc_insertIJRiEEEvN9__gnu_cxx17__normal_iteratorIPiS1_EEDpOT_+0x90>
  40b314:	17fffff0 	b	40b2d4 <_ZNSt6vectorIiSaIiEE17_M_realloc_insertIJRiEEEvN9__gnu_cxx17__normal_iteratorIPiS1_EEDpOT_+0xb4>
  40b318:	b27ef3f3 	mov	x19, #0x7ffffffffffffffc    	// #9223372036854775804
  40b31c:	aa1303e0 	mov	x0, x19
  40b320:	97ffdb18 	bl	401f80 <_Znwm@plt>
  40b324:	aa0003f7 	mov	x23, x0
  40b328:	8b130013 	add	x19, x0, x19
  40b32c:	17ffffd5 	b	40b280 <_ZNSt6vectorIiSaIiEE17_M_realloc_insertIJRiEEEvN9__gnu_cxx17__normal_iteratorIPiS1_EEDpOT_+0x60>
  40b330:	eb01007f 	cmp	x3, x1
  40b334:	9a819063 	csel	x3, x3, x1, ls  // ls = plast
  40b338:	d37ef473 	lsl	x19, x3, #2
  40b33c:	17fffff8 	b	40b31c <_ZNSt6vectorIiSaIiEE17_M_realloc_insertIJRiEEEvN9__gnu_cxx17__normal_iteratorIPiS1_EEDpOT_+0xfc>
  40b340:	f0000020 	adrp	x0, 412000 <_Z19MD5Hash_simdversionPKNSt7__cxx1112basic_stringIcSt11char_traitsIcESaIcEEEP12__Uint32x4_t+0x1000>
  40b344:	91392000 	add	x0, x0, #0xe48
  40b348:	97ffdae2 	bl	401ed0 <_ZSt20__throw_length_errorPKc@plt>
  40b34c:	d503201f 	nop

000000000040b350 <_ZNSt6vectorIiSaIiEE17_M_realloc_insertIJiEEEvN9__gnu_cxx17__normal_iteratorIPiS1_EEDpOT_>:
  40b350:	a9ba7bfd 	stp	x29, x30, [sp, #-96]!
  40b354:	910003fd 	mov	x29, sp
  40b358:	a9025bf5 	stp	x21, x22, [sp, #32]
  40b35c:	a9046bf9 	stp	x25, x26, [sp, #64]
  40b360:	a9405419 	ldp	x25, x21, [x0]
  40b364:	a90153f3 	stp	x19, x20, [sp, #16]
  40b368:	a90363f7 	stp	x23, x24, [sp, #48]
  40b36c:	aa0103f8 	mov	x24, x1
  40b370:	92fc0001 	mov	x1, #0x1fffffffffffffff    	// #2305843009213693951
  40b374:	a90573fb 	stp	x27, x28, [sp, #80]
  40b378:	cb1902a3 	sub	x3, x21, x25
  40b37c:	9342fc63 	asr	x3, x3, #2
  40b380:	eb01007f 	cmp	x3, x1
  40b384:	54000760 	b.eq	40b470 <_ZNSt6vectorIiSaIiEE17_M_realloc_insertIJiEEEvN9__gnu_cxx17__normal_iteratorIPiS1_EEDpOT_+0x120>  // b.none
  40b388:	f100007f 	cmp	x3, #0x0
  40b38c:	aa0003f4 	mov	x20, x0
  40b390:	9a9f1460 	csinc	x0, x3, xzr, ne  // ne = any
  40b394:	aa0203fb 	mov	x27, x2
  40b398:	cb19031a 	sub	x26, x24, x25
  40b39c:	ab000063 	adds	x3, x3, x0
  40b3a0:	54000542 	b.cs	40b448 <_ZNSt6vectorIiSaIiEE17_M_realloc_insertIJiEEEvN9__gnu_cxx17__normal_iteratorIPiS1_EEDpOT_+0xf8>  // b.hs, b.nlast
  40b3a4:	b50005e3 	cbnz	x3, 40b460 <_ZNSt6vectorIiSaIiEE17_M_realloc_insertIJiEEEvN9__gnu_cxx17__normal_iteratorIPiS1_EEDpOT_+0x110>
  40b3a8:	d2800013 	mov	x19, #0x0                   	// #0
  40b3ac:	d2800017 	mov	x23, #0x0                   	// #0
  40b3b0:	b9400360 	ldr	w0, [x27]
  40b3b4:	91001356 	add	x22, x26, #0x4
  40b3b8:	cb1802b5 	sub	x21, x21, x24
  40b3bc:	8b1602f6 	add	x22, x23, x22
  40b3c0:	b83a6ae0 	str	w0, [x23, x26]
  40b3c4:	8b1502db 	add	x27, x22, x21
  40b3c8:	f9400a9c 	ldr	x28, [x20, #16]
  40b3cc:	f100035f 	cmp	x26, #0x0
  40b3d0:	5400022c 	b.gt	40b414 <_ZNSt6vectorIiSaIiEE17_M_realloc_insertIJiEEEvN9__gnu_cxx17__normal_iteratorIPiS1_EEDpOT_+0xc4>
  40b3d4:	f10002bf 	cmp	x21, #0x0
  40b3d8:	540002cc 	b.gt	40b430 <_ZNSt6vectorIiSaIiEE17_M_realloc_insertIJiEEEvN9__gnu_cxx17__normal_iteratorIPiS1_EEDpOT_+0xe0>
  40b3dc:	b5000159 	cbnz	x25, 40b404 <_ZNSt6vectorIiSaIiEE17_M_realloc_insertIJiEEEvN9__gnu_cxx17__normal_iteratorIPiS1_EEDpOT_+0xb4>
  40b3e0:	a9425bf5 	ldp	x21, x22, [sp, #32]
  40b3e4:	a9446bf9 	ldp	x25, x26, [sp, #64]
  40b3e8:	a9006e97 	stp	x23, x27, [x20]
  40b3ec:	f9000a93 	str	x19, [x20, #16]
  40b3f0:	a94153f3 	ldp	x19, x20, [sp, #16]
  40b3f4:	a94363f7 	ldp	x23, x24, [sp, #48]
  40b3f8:	a94573fb 	ldp	x27, x28, [sp, #80]
  40b3fc:	a8c67bfd 	ldp	x29, x30, [sp], #96
  40b400:	d65f03c0 	ret
  40b404:	cb190381 	sub	x1, x28, x25
  40b408:	aa1903e0 	mov	x0, x25
  40b40c:	97ffdae1 	bl	401f90 <_ZdlPvm@plt>
  40b410:	17fffff4 	b	40b3e0 <_ZNSt6vectorIiSaIiEE17_M_realloc_insertIJiEEEvN9__gnu_cxx17__normal_iteratorIPiS1_EEDpOT_+0x90>
  40b414:	aa1903e1 	mov	x1, x25
  40b418:	aa1a03e2 	mov	x2, x26
  40b41c:	aa1703e0 	mov	x0, x23
  40b420:	97ffdaf4 	bl	401ff0 <memmove@plt>
  40b424:	cb190381 	sub	x1, x28, x25
  40b428:	f10002bf 	cmp	x21, #0x0
  40b42c:	54fffeed 	b.le	40b408 <_ZNSt6vectorIiSaIiEE17_M_realloc_insertIJiEEEvN9__gnu_cxx17__normal_iteratorIPiS1_EEDpOT_+0xb8>
  40b430:	aa1503e2 	mov	x2, x21
  40b434:	aa1803e1 	mov	x1, x24
  40b438:	aa1603e0 	mov	x0, x22
  40b43c:	97ffda71 	bl	401e00 <memcpy@plt>
  40b440:	b4fffd19 	cbz	x25, 40b3e0 <_ZNSt6vectorIiSaIiEE17_M_realloc_insertIJiEEEvN9__gnu_cxx17__normal_iteratorIPiS1_EEDpOT_+0x90>
  40b444:	17fffff0 	b	40b404 <_ZNSt6vectorIiSaIiEE17_M_realloc_insertIJiEEEvN9__gnu_cxx17__normal_iteratorIPiS1_EEDpOT_+0xb4>
  40b448:	b27ef3f3 	mov	x19, #0x7ffffffffffffffc    	// #9223372036854775804
  40b44c:	aa1303e0 	mov	x0, x19
  40b450:	97ffdacc 	bl	401f80 <_Znwm@plt>
  40b454:	aa0003f7 	mov	x23, x0
  40b458:	8b130013 	add	x19, x0, x19
  40b45c:	17ffffd5 	b	40b3b0 <_ZNSt6vectorIiSaIiEE17_M_realloc_insertIJiEEEvN9__gnu_cxx17__normal_iteratorIPiS1_EEDpOT_+0x60>
  40b460:	eb01007f 	cmp	x3, x1
  40b464:	9a819063 	csel	x3, x3, x1, ls  // ls = plast
  40b468:	d37ef473 	lsl	x19, x3, #2
  40b46c:	17fffff8 	b	40b44c <_ZNSt6vectorIiSaIiEE17_M_realloc_insertIJiEEEvN9__gnu_cxx17__normal_iteratorIPiS1_EEDpOT_+0xfc>
  40b470:	f0000020 	adrp	x0, 412000 <_Z19MD5Hash_simdversionPKNSt7__cxx1112basic_stringIcSt11char_traitsIcESaIcEEEP12__Uint32x4_t+0x1000>
  40b474:	91392000 	add	x0, x0, #0xe48
  40b478:	97ffda96 	bl	401ed0 <_ZSt20__throw_length_errorPKc@plt>
  40b47c:	d503201f 	nop

000000000040b480 <_ZNSt6vectorI2PTSaIS0_EE17_M_realloc_insertIJRS0_EEEvN9__gnu_cxx17__normal_iteratorIPS0_S2_EEDpOT_>:
  40b480:	a9b97bfd 	stp	x29, x30, [sp, #-112]!
  40b484:	d2917463 	mov	x3, #0x8ba3                	// #35747
  40b488:	f2b745c3 	movk	x3, #0xba2e, lsl #16
  40b48c:	910003fd 	mov	x29, sp
  40b490:	a90363f7 	stp	x23, x24, [sp, #48]
  40b494:	f2d45d03 	movk	x3, #0xa2e8, lsl #32
  40b498:	f2e5d163 	movk	x3, #0x2e8b, lsl #48
  40b49c:	a90573fb 	stp	x27, x28, [sp, #80]
  40b4a0:	aa0103f8 	mov	x24, x1
  40b4a4:	d28e8ba1 	mov	x1, #0x745d                	// #29789
  40b4a8:	a9405c1c 	ldp	x28, x23, [x0]
  40b4ac:	a90153f3 	stp	x19, x20, [sp, #16]
  40b4b0:	aa0203f4 	mov	x20, x2
  40b4b4:	f2a8ba21 	movk	x1, #0x45d1, lsl #16
  40b4b8:	a9025bf5 	stp	x21, x22, [sp, #32]
  40b4bc:	f2cba2e1 	movk	x1, #0x5d17, lsl #32
  40b4c0:	a9046bf9 	stp	x25, x26, [sp, #64]
  40b4c4:	f2e02e81 	movk	x1, #0x174, lsl #48
  40b4c8:	cb1c02e2 	sub	x2, x23, x28
  40b4cc:	f90037e0 	str	x0, [sp, #104]
  40b4d0:	9343fc42 	asr	x2, x2, #3
  40b4d4:	9b037c42 	mul	x2, x2, x3
  40b4d8:	eb01005f 	cmp	x2, x1
  40b4dc:	540017c0 	b.eq	40b7d4 <_ZNSt6vectorI2PTSaIS0_EE17_M_realloc_insertIJRS0_EEEvN9__gnu_cxx17__normal_iteratorIPS0_S2_EEDpOT_+0x354>  // b.none
  40b4e0:	f100005f 	cmp	x2, #0x0
  40b4e4:	cb1c0313 	sub	x19, x24, x28
  40b4e8:	9a9f1440 	csinc	x0, x2, xzr, ne  // ne = any
  40b4ec:	ab020000 	adds	x0, x0, x2
  40b4f0:	540015c2 	b.cs	40b7a8 <_ZNSt6vectorI2PTSaIS0_EE17_M_realloc_insertIJRS0_EEEvN9__gnu_cxx17__normal_iteratorIPS0_S2_EEDpOT_+0x328>  // b.hs, b.nlast
  40b4f4:	b5001760 	cbnz	x0, 40b7e0 <_ZNSt6vectorI2PTSaIS0_EE17_M_realloc_insertIJRS0_EEEvN9__gnu_cxx17__normal_iteratorIPS0_S2_EEDpOT_+0x360>
  40b4f8:	aa1403e1 	mov	x1, x20
  40b4fc:	aa1303e0 	mov	x0, x19
  40b500:	97fffcd4 	bl	40a850 <_ZN2PTC1ERKS_>
  40b504:	d2800b15 	mov	x21, #0x58                  	// #88
  40b508:	d280001a 	mov	x26, #0x0                   	// #0
  40b50c:	f90033ff 	str	xzr, [sp, #96]
  40b510:	eb1c031f 	cmp	x24, x28
  40b514:	54000d20 	b.eq	40b6b8 <_ZNSt6vectorI2PTSaIS0_EE17_M_realloc_insertIJRS0_EEEvN9__gnu_cxx17__normal_iteratorIPS0_S2_EEDpOT_+0x238>  // b.none
  40b518:	aa1a03f5 	mov	x21, x26
  40b51c:	aa1c03f4 	mov	x20, x28
  40b520:	f9400280 	ldr	x0, [x20]
  40b524:	f9401281 	ldr	x1, [x20, #32]
  40b528:	bd405280 	ldr	s0, [x20, #80]
  40b52c:	f90002a0 	str	x0, [x21]
  40b530:	f9400680 	ldr	x0, [x20, #8]
  40b534:	f90006a0 	str	x0, [x21, #8]
  40b538:	b9401a80 	ldr	w0, [x20, #24]
  40b53c:	f9400a82 	ldr	x2, [x20, #16]
  40b540:	f9000aa2 	str	x2, [x21, #16]
  40b544:	a9007e9f 	stp	xzr, xzr, [x20]
  40b548:	f9000a9f 	str	xzr, [x20, #16]
  40b54c:	f90012a1 	str	x1, [x21, #32]
  40b550:	b9001aa0 	str	w0, [x21, #24]
  40b554:	f9401680 	ldr	x0, [x20, #40]
  40b558:	f90016a0 	str	x0, [x21, #40]
  40b55c:	f9401a80 	ldr	x0, [x20, #48]
  40b560:	f9001aa0 	str	x0, [x21, #48]
  40b564:	a9027e9f 	stp	xzr, xzr, [x20, #32]
  40b568:	f9001a9f 	str	xzr, [x20, #48]
  40b56c:	f9401e80 	ldr	x0, [x20, #56]
  40b570:	f9001ea0 	str	x0, [x21, #56]
  40b574:	f9402280 	ldr	x0, [x20, #64]
  40b578:	f90022a0 	str	x0, [x21, #64]
  40b57c:	f9402680 	ldr	x0, [x20, #72]
  40b580:	f90026a0 	str	x0, [x21, #72]
  40b584:	bd0052a0 	str	s0, [x21, #80]
  40b588:	f9401280 	ldr	x0, [x20, #32]
  40b58c:	bd405680 	ldr	s0, [x20, #84]
  40b590:	bd0056a0 	str	s0, [x21, #84]
  40b594:	b4000840 	cbz	x0, 40b69c <_ZNSt6vectorI2PTSaIS0_EE17_M_realloc_insertIJRS0_EEEvN9__gnu_cxx17__normal_iteratorIPS0_S2_EEDpOT_+0x21c>
  40b598:	f9401a81 	ldr	x1, [x20, #48]
  40b59c:	cb000021 	sub	x1, x1, x0
  40b5a0:	97ffda7c 	bl	401f90 <_ZdlPvm@plt>
  40b5a4:	a9405a93 	ldp	x19, x22, [x20]
  40b5a8:	eb16027f 	cmp	x19, x22
  40b5ac:	540006e0 	b.eq	40b688 <_ZNSt6vectorI2PTSaIS0_EE17_M_realloc_insertIJRS0_EEEvN9__gnu_cxx17__normal_iteratorIPS0_S2_EEDpOT_+0x208>  // b.none
  40b5b0:	f9404679 	ldr	x25, [x19, #136]
  40b5b4:	b40000d9 	cbz	x25, 40b5cc <_ZNSt6vectorI2PTSaIS0_EE17_M_realloc_insertIJRS0_EEEvN9__gnu_cxx17__normal_iteratorIPS0_S2_EEDpOT_+0x14c>
  40b5b8:	aa1903e0 	mov	x0, x25
  40b5bc:	d2800201 	mov	x1, #0x10                  	// #16
  40b5c0:	f9400339 	ldr	x25, [x25]
  40b5c4:	97ffda73 	bl	401f90 <_ZdlPvm@plt>
  40b5c8:	b5ffff99 	cbnz	x25, 40b5b8 <_ZNSt6vectorI2PTSaIS0_EE17_M_realloc_insertIJRS0_EEEvN9__gnu_cxx17__normal_iteratorIPS0_S2_EEDpOT_+0x138>
  40b5cc:	a9478a60 	ldp	x0, x2, [x19, #120]
  40b5d0:	52800001 	mov	w1, #0x0                   	// #0
  40b5d4:	d37df042 	lsl	x2, x2, #3
  40b5d8:	97ffda46 	bl	401ef0 <memset@plt>
  40b5dc:	a9478660 	ldp	x0, x1, [x19, #120]
  40b5e0:	9102a262 	add	x2, x19, #0xa8
  40b5e4:	a908fe7f 	stp	xzr, xzr, [x19, #136]
  40b5e8:	eb02001f 	cmp	x0, x2
  40b5ec:	54000060 	b.eq	40b5f8 <_ZNSt6vectorI2PTSaIS0_EE17_M_realloc_insertIJRS0_EEEvN9__gnu_cxx17__normal_iteratorIPS0_S2_EEDpOT_+0x178>  // b.none
  40b5f0:	d37df021 	lsl	x1, x1, #3
  40b5f4:	97ffda67 	bl	401f90 <_ZdlPvm@plt>
  40b5f8:	91010260 	add	x0, x19, #0x40
  40b5fc:	97fffab1 	bl	40a0c0 <_ZNSt10_HashtableINSt7__cxx1112basic_stringIcSt11char_traitsIcESaIcEEESt4pairIKS5_iESaIS8_ENSt8__detail10_Select1stESt8equal_toIS5_ESt4hashIS5_ENSA_18_Mod_range_hashingENSA_20_Default_ranged_hashENSA_20_Prime_rehash_policyENSA_17_Hashtable_traitsILb1ELb0ELb1EEEE5clearEv>
  40b600:	a9440660 	ldp	x0, x1, [x19, #64]
  40b604:	9101c262 	add	x2, x19, #0x70
  40b608:	eb02001f 	cmp	x0, x2
  40b60c:	54000060 	b.eq	40b618 <_ZNSt6vectorI2PTSaIS0_EE17_M_realloc_insertIJRS0_EEEvN9__gnu_cxx17__normal_iteratorIPS0_S2_EEDpOT_+0x198>  // b.none
  40b610:	d37df021 	lsl	x1, x1, #3
  40b614:	97ffda5f 	bl	401f90 <_ZdlPvm@plt>
  40b618:	f9401260 	ldr	x0, [x19, #32]
  40b61c:	b4000080 	cbz	x0, 40b62c <_ZNSt6vectorI2PTSaIS0_EE17_M_realloc_insertIJRS0_EEEvN9__gnu_cxx17__normal_iteratorIPS0_S2_EEDpOT_+0x1ac>
  40b620:	f9401a61 	ldr	x1, [x19, #48]
  40b624:	cb000021 	sub	x1, x1, x0
  40b628:	97ffda5a 	bl	401f90 <_ZdlPvm@plt>
  40b62c:	a940e67b 	ldp	x27, x25, [x19, #8]
  40b630:	eb19037f 	cmp	x27, x25
  40b634:	54000180 	b.eq	40b664 <_ZNSt6vectorI2PTSaIS0_EE17_M_realloc_insertIJRS0_EEEvN9__gnu_cxx17__normal_iteratorIPS0_S2_EEDpOT_+0x1e4>  // b.none
  40b638:	aa1b03e1 	mov	x1, x27
  40b63c:	f8410420 	ldr	x0, [x1], #16
  40b640:	eb01001f 	cmp	x0, x1
  40b644:	54000080 	b.eq	40b654 <_ZNSt6vectorI2PTSaIS0_EE17_M_realloc_insertIJRS0_EEEvN9__gnu_cxx17__normal_iteratorIPS0_S2_EEDpOT_+0x1d4>  // b.none
  40b648:	f9400b61 	ldr	x1, [x27, #16]
  40b64c:	91000421 	add	x1, x1, #0x1
  40b650:	97ffda50 	bl	401f90 <_ZdlPvm@plt>
  40b654:	9100837b 	add	x27, x27, #0x20
  40b658:	eb1b033f 	cmp	x25, x27
  40b65c:	54fffee1 	b.ne	40b638 <_ZNSt6vectorI2PTSaIS0_EE17_M_realloc_insertIJRS0_EEEvN9__gnu_cxx17__normal_iteratorIPS0_S2_EEDpOT_+0x1b8>  // b.any
  40b660:	f9400679 	ldr	x25, [x19, #8]
  40b664:	b40000b9 	cbz	x25, 40b678 <_ZNSt6vectorI2PTSaIS0_EE17_M_realloc_insertIJRS0_EEEvN9__gnu_cxx17__normal_iteratorIPS0_S2_EEDpOT_+0x1f8>
  40b668:	f9400e61 	ldr	x1, [x19, #24]
  40b66c:	aa1903e0 	mov	x0, x25
  40b670:	cb190021 	sub	x1, x1, x25
  40b674:	97ffda47 	bl	401f90 <_ZdlPvm@plt>
  40b678:	9102c273 	add	x19, x19, #0xb0
  40b67c:	eb16027f 	cmp	x19, x22
  40b680:	54fff981 	b.ne	40b5b0 <_ZNSt6vectorI2PTSaIS0_EE17_M_realloc_insertIJRS0_EEEvN9__gnu_cxx17__normal_iteratorIPS0_S2_EEDpOT_+0x130>  // b.any
  40b684:	f9400296 	ldr	x22, [x20]
  40b688:	b40000b6 	cbz	x22, 40b69c <_ZNSt6vectorI2PTSaIS0_EE17_M_realloc_insertIJRS0_EEEvN9__gnu_cxx17__normal_iteratorIPS0_S2_EEDpOT_+0x21c>
  40b68c:	f9400a81 	ldr	x1, [x20, #16]
  40b690:	aa1603e0 	mov	x0, x22
  40b694:	cb160021 	sub	x1, x1, x22
  40b698:	97ffda3e 	bl	401f90 <_ZdlPvm@plt>
  40b69c:	91016294 	add	x20, x20, #0x58
  40b6a0:	910162a0 	add	x0, x21, #0x58
  40b6a4:	eb14031f 	cmp	x24, x20
  40b6a8:	54000060 	b.eq	40b6b4 <_ZNSt6vectorI2PTSaIS0_EE17_M_realloc_insertIJRS0_EEEvN9__gnu_cxx17__normal_iteratorIPS0_S2_EEDpOT_+0x234>  // b.none
  40b6ac:	aa0003f5 	mov	x21, x0
  40b6b0:	17ffff9c 	b	40b520 <_ZNSt6vectorI2PTSaIS0_EE17_M_realloc_insertIJRS0_EEEvN9__gnu_cxx17__normal_iteratorIPS0_S2_EEDpOT_+0xa0>
  40b6b4:	9102c2b5 	add	x21, x21, #0xb0
  40b6b8:	eb17031f 	cmp	x24, x23
  40b6bc:	54000560 	b.eq	40b768 <_ZNSt6vectorI2PTSaIS0_EE17_M_realloc_insertIJRS0_EEEvN9__gnu_cxx17__normal_iteratorIPS0_S2_EEDpOT_+0x2e8>  // b.none
  40b6c0:	aa1503e1 	mov	x1, x21
  40b6c4:	aa1803e0 	mov	x0, x24
  40b6c8:	f9400002 	ldr	x2, [x0]
  40b6cc:	f9000022 	str	x2, [x1]
  40b6d0:	f9400402 	ldr	x2, [x0, #8]
  40b6d4:	f9000422 	str	x2, [x1, #8]
  40b6d8:	f9400802 	ldr	x2, [x0, #16]
  40b6dc:	f9000822 	str	x2, [x1, #16]
  40b6e0:	b9401802 	ldr	w2, [x0, #24]
  40b6e4:	2d4a0001 	ldp	s1, s0, [x0, #80]
  40b6e8:	b9001822 	str	w2, [x1, #24]
  40b6ec:	f9401003 	ldr	x3, [x0, #32]
  40b6f0:	f9001023 	str	x3, [x1, #32]
  40b6f4:	f9401402 	ldr	x2, [x0, #40]
  40b6f8:	f9001422 	str	x2, [x1, #40]
  40b6fc:	f9401803 	ldr	x3, [x0, #48]
  40b700:	f9001823 	str	x3, [x1, #48]
  40b704:	f9401c02 	ldr	x2, [x0, #56]
  40b708:	f9001c22 	str	x2, [x1, #56]
  40b70c:	f9402003 	ldr	x3, [x0, #64]
  40b710:	91016000 	add	x0, x0, #0x58
  40b714:	f85f0002 	ldur	x2, [x0, #-16]
  40b718:	f9002023 	str	x3, [x1, #64]
  40b71c:	f9002422 	str	x2, [x1, #72]
  40b720:	2d0a0021 	stp	s1, s0, [x1, #80]
  40b724:	91016021 	add	x1, x1, #0x58
  40b728:	eb0002ff 	cmp	x23, x0
  40b72c:	54fffce1 	b.ne	40b6c8 <_ZNSt6vectorI2PTSaIS0_EE17_M_realloc_insertIJRS0_EEEvN9__gnu_cxx17__normal_iteratorIPS0_S2_EEDpOT_+0x248>  // b.any
  40b730:	cb1802e0 	sub	x0, x23, x24
  40b734:	d2917461 	mov	x1, #0x8ba3                	// #35747
  40b738:	d1016000 	sub	x0, x0, #0x58
  40b73c:	f2b745c1 	movk	x1, #0xba2e, lsl #16
  40b740:	f2d45d01 	movk	x1, #0xa2e8, lsl #32
  40b744:	d343fc00 	lsr	x0, x0, #3
  40b748:	f2e1d161 	movk	x1, #0xe8b, lsl #48
  40b74c:	9b017c00 	mul	x0, x0, x1
  40b750:	9240f000 	and	x0, x0, #0x1fffffffffffffff
  40b754:	91000400 	add	x0, x0, #0x1
  40b758:	8b000401 	add	x1, x0, x0, lsl #1
  40b75c:	d37ef421 	lsl	x1, x1, #2
  40b760:	cb000020 	sub	x0, x1, x0
  40b764:	8b000eb5 	add	x21, x21, x0, lsl #3
  40b768:	b40000dc 	cbz	x28, 40b780 <_ZNSt6vectorI2PTSaIS0_EE17_M_realloc_insertIJRS0_EEEvN9__gnu_cxx17__normal_iteratorIPS0_S2_EEDpOT_+0x300>
  40b76c:	f94037e0 	ldr	x0, [sp, #104]
  40b770:	f9400801 	ldr	x1, [x0, #16]
  40b774:	aa1c03e0 	mov	x0, x28
  40b778:	cb1c0021 	sub	x1, x1, x28
  40b77c:	97ffda05 	bl	401f90 <_ZdlPvm@plt>
  40b780:	a94603e1 	ldp	x1, x0, [sp, #96]
  40b784:	a94153f3 	ldp	x19, x20, [sp, #16]
  40b788:	a94363f7 	ldp	x23, x24, [sp, #48]
  40b78c:	a94573fb 	ldp	x27, x28, [sp, #80]
  40b790:	a900541a 	stp	x26, x21, [x0]
  40b794:	f9000801 	str	x1, [x0, #16]
  40b798:	a9425bf5 	ldp	x21, x22, [sp, #32]
  40b79c:	a9446bf9 	ldp	x25, x26, [sp, #64]
  40b7a0:	a8c77bfd 	ldp	x29, x30, [sp], #112
  40b7a4:	d65f03c0 	ret
  40b7a8:	b27deff9 	mov	x25, #0x7ffffffffffffff8    	// #9223372036854775800
  40b7ac:	aa1903e0 	mov	x0, x25
  40b7b0:	97ffd9f4 	bl	401f80 <_Znwm@plt>
  40b7b4:	aa1403e1 	mov	x1, x20
  40b7b8:	aa0003fa 	mov	x26, x0
  40b7bc:	8b130000 	add	x0, x0, x19
  40b7c0:	97fffc24 	bl	40a850 <_ZN2PTC1ERKS_>
  40b7c4:	8b190340 	add	x0, x26, x25
  40b7c8:	91016355 	add	x21, x26, #0x58
  40b7cc:	f90033e0 	str	x0, [sp, #96]
  40b7d0:	17ffff50 	b	40b510 <_ZNSt6vectorI2PTSaIS0_EE17_M_realloc_insertIJRS0_EEEvN9__gnu_cxx17__normal_iteratorIPS0_S2_EEDpOT_+0x90>
  40b7d4:	f0000020 	adrp	x0, 412000 <_Z19MD5Hash_simdversionPKNSt7__cxx1112basic_stringIcSt11char_traitsIcESaIcEEEP12__Uint32x4_t+0x1000>
  40b7d8:	91392000 	add	x0, x0, #0xe48
  40b7dc:	97ffd9bd 	bl	401ed0 <_ZSt20__throw_length_errorPKc@plt>
  40b7e0:	eb01001f 	cmp	x0, x1
  40b7e4:	9a819000 	csel	x0, x0, x1, ls  // ls = plast
  40b7e8:	8b000419 	add	x25, x0, x0, lsl #1
  40b7ec:	d37ef739 	lsl	x25, x25, #2
  40b7f0:	cb000339 	sub	x25, x25, x0
  40b7f4:	d37df339 	lsl	x25, x25, #3
  40b7f8:	17ffffed 	b	40b7ac <_ZNSt6vectorI2PTSaIS0_EE17_M_realloc_insertIJRS0_EEEvN9__gnu_cxx17__normal_iteratorIPS0_S2_EEDpOT_+0x32c>
  40b7fc:	97ffd9ad 	bl	401eb0 <__cxa_begin_catch@plt>
  40b800:	aa1303e0 	mov	x0, x19
  40b804:	97fffa97 	bl	40a260 <_ZN2PTD1Ev>
  40b808:	97ffda1e 	bl	402080 <__cxa_rethrow@plt>
  40b80c:	97ffd9a9 	bl	401eb0 <__cxa_begin_catch@plt>
  40b810:	aa1903e1 	mov	x1, x25
  40b814:	aa1a03e0 	mov	x0, x26
  40b818:	97ffd9de 	bl	401f90 <_ZdlPvm@plt>
  40b81c:	97ffda19 	bl	402080 <__cxa_rethrow@plt>
  40b820:	aa0003f3 	mov	x19, x0
  40b824:	97ffda2f 	bl	4020e0 <__cxa_end_catch@plt>
  40b828:	aa1303e0 	mov	x0, x19
  40b82c:	97ffda3d 	bl	402120 <_Unwind_Resume@plt>

000000000040b830 <_ZNSt10_HashtableIiSt4pairIKiiESaIS2_ENSt8__detail10_Select1stESt8equal_toIiESt4hashIiENS4_18_Mod_range_hashingENS4_20_Default_ranged_hashENS4_20_Prime_rehash_policyENS4_17_Hashtable_traitsILb0ELb0ELb1EEEE12_Scoped_nodeD1Ev>:
  40b830:	f9400400 	ldr	x0, [x0, #8]
  40b834:	b4000060 	cbz	x0, 40b840 <_ZNSt10_HashtableIiSt4pairIKiiESaIS2_ENSt8__detail10_Select1stESt8equal_toIiESt4hashIiENS4_18_Mod_range_hashingENS4_20_Default_ranged_hashENS4_20_Prime_rehash_policyENS4_17_Hashtable_traitsILb0ELb0ELb1EEEE12_Scoped_nodeD1Ev+0x10>
  40b838:	d2800201 	mov	x1, #0x10                  	// #16
  40b83c:	17ffd9d5 	b	401f90 <_ZdlPvm@plt>
  40b840:	d65f03c0 	ret
  40b844:	d503201f 	nop
  40b848:	d503201f 	nop
  40b84c:	d503201f 	nop

000000000040b850 <_ZNKSt10_HashtableINSt7__cxx1112basic_stringIcSt11char_traitsIcESaIcEEESt4pairIKS5_iESaIS8_ENSt8__detail10_Select1stESt8equal_toIS5_ESt4hashIS5_ENSA_18_Mod_range_hashingENSA_20_Default_ranged_hashENSA_20_Prime_rehash_policyENSA_17_Hashtable_traitsILb1ELb0ELb1EEEE19_M_find_before_nodeEmRS7_m>:
  40b850:	a9bc7bfd 	stp	x29, x30, [sp, #-64]!
  40b854:	910003fd 	mov	x29, sp
  40b858:	a9025bf5 	stp	x21, x22, [sp, #32]
  40b85c:	aa0003f5 	mov	x21, x0
  40b860:	f9400000 	ldr	x0, [x0]
  40b864:	a90153f3 	stp	x19, x20, [sp, #16]
  40b868:	f8617814 	ldr	x20, [x0, x1, lsl #3]
  40b86c:	b40003d4 	cbz	x20, 40b8e4 <_ZNKSt10_HashtableINSt7__cxx1112basic_stringIcSt11char_traitsIcESaIcEEESt4pairIKS5_iESaIS8_ENSt8__detail10_Select1stESt8equal_toIS5_ESt4hashIS5_ENSA_18_Mod_range_hashingENSA_20_Default_ranged_hashENSA_20_Prime_rehash_policyENSA_17_Hashtable_traitsILb1ELb0ELb1EEEE19_M_find_before_nodeEmRS7_m+0x94>
  40b870:	f9400293 	ldr	x19, [x20]
  40b874:	aa0103f6 	mov	x22, x1
  40b878:	a90363f7 	stp	x23, x24, [sp, #48]
  40b87c:	aa0203f8 	mov	x24, x2
  40b880:	aa0303f7 	mov	x23, x3
  40b884:	f9401a64 	ldr	x4, [x19, #48]
  40b888:	1400000b 	b	40b8b4 <_ZNKSt10_HashtableINSt7__cxx1112basic_stringIcSt11char_traitsIcESaIcEEESt4pairIKS5_iESaIS8_ENSt8__detail10_Select1stESt8equal_toIS5_ESt4hashIS5_ENSA_18_Mod_range_hashingENSA_20_Default_ranged_hashENSA_20_Prime_rehash_policyENSA_17_Hashtable_traitsILb1ELb0ELb1EEEE19_M_find_before_nodeEmRS7_m+0x64>
  40b88c:	f9400264 	ldr	x4, [x19]
  40b890:	aa1303f4 	mov	x20, x19
  40b894:	aa0403f3 	mov	x19, x4
  40b898:	b4000304 	cbz	x4, 40b8f8 <_ZNKSt10_HashtableINSt7__cxx1112basic_stringIcSt11char_traitsIcESaIcEEESt4pairIKS5_iESaIS8_ENSt8__detail10_Select1stESt8equal_toIS5_ESt4hashIS5_ENSA_18_Mod_range_hashingENSA_20_Default_ranged_hashENSA_20_Prime_rehash_policyENSA_17_Hashtable_traitsILb1ELb0ELb1EEEE19_M_find_before_nodeEmRS7_m+0xa8>
  40b89c:	f94006a6 	ldr	x6, [x21, #8]
  40b8a0:	f9401884 	ldr	x4, [x4, #48]
  40b8a4:	9ac60885 	udiv	x5, x4, x6
  40b8a8:	9b0690a5 	msub	x5, x5, x6, x4
  40b8ac:	eb0502df 	cmp	x22, x5
  40b8b0:	54000241 	b.ne	40b8f8 <_ZNKSt10_HashtableINSt7__cxx1112basic_stringIcSt11char_traitsIcESaIcEEESt4pairIKS5_iESaIS8_ENSt8__detail10_Select1stESt8equal_toIS5_ESt4hashIS5_ENSA_18_Mod_range_hashingENSA_20_Default_ranged_hashENSA_20_Prime_rehash_policyENSA_17_Hashtable_traitsILb1ELb0ELb1EEEE19_M_find_before_nodeEmRS7_m+0xa8>  // b.any
  40b8b4:	eb17009f 	cmp	x4, x23
  40b8b8:	54fffea1 	b.ne	40b88c <_ZNKSt10_HashtableINSt7__cxx1112basic_stringIcSt11char_traitsIcESaIcEEESt4pairIKS5_iESaIS8_ENSt8__detail10_Select1stESt8equal_toIS5_ESt4hashIS5_ENSA_18_Mod_range_hashingENSA_20_Default_ranged_hashENSA_20_Prime_rehash_policyENSA_17_Hashtable_traitsILb1ELb0ELb1EEEE19_M_find_before_nodeEmRS7_m+0x3c>  // b.any
  40b8bc:	f9400702 	ldr	x2, [x24, #8]
  40b8c0:	f9400a60 	ldr	x0, [x19, #16]
  40b8c4:	eb00005f 	cmp	x2, x0
  40b8c8:	54fffe21 	b.ne	40b88c <_ZNKSt10_HashtableINSt7__cxx1112basic_stringIcSt11char_traitsIcESaIcEEESt4pairIKS5_iESaIS8_ENSt8__detail10_Select1stESt8equal_toIS5_ESt4hashIS5_ENSA_18_Mod_range_hashingENSA_20_Default_ranged_hashENSA_20_Prime_rehash_policyENSA_17_Hashtable_traitsILb1ELb0ELb1EEEE19_M_find_before_nodeEmRS7_m+0x3c>  // b.any
  40b8cc:	b40000a2 	cbz	x2, 40b8e0 <_ZNKSt10_HashtableINSt7__cxx1112basic_stringIcSt11char_traitsIcESaIcEEESt4pairIKS5_iESaIS8_ENSt8__detail10_Select1stESt8equal_toIS5_ESt4hashIS5_ENSA_18_Mod_range_hashingENSA_20_Default_ranged_hashENSA_20_Prime_rehash_policyENSA_17_Hashtable_traitsILb1ELb0ELb1EEEE19_M_find_before_nodeEmRS7_m+0x90>
  40b8d0:	f9400300 	ldr	x0, [x24]
  40b8d4:	f9400661 	ldr	x1, [x19, #8]
  40b8d8:	97ffd97a 	bl	401ec0 <memcmp@plt>
  40b8dc:	35fffd80 	cbnz	w0, 40b88c <_ZNKSt10_HashtableINSt7__cxx1112basic_stringIcSt11char_traitsIcESaIcEEESt4pairIKS5_iESaIS8_ENSt8__detail10_Select1stESt8equal_toIS5_ESt4hashIS5_ENSA_18_Mod_range_hashingENSA_20_Default_ranged_hashENSA_20_Prime_rehash_policyENSA_17_Hashtable_traitsILb1ELb0ELb1EEEE19_M_find_before_nodeEmRS7_m+0x3c>
  40b8e0:	a94363f7 	ldp	x23, x24, [sp, #48]
  40b8e4:	aa1403e0 	mov	x0, x20
  40b8e8:	a94153f3 	ldp	x19, x20, [sp, #16]
  40b8ec:	a9425bf5 	ldp	x21, x22, [sp, #32]
  40b8f0:	a8c47bfd 	ldp	x29, x30, [sp], #64
  40b8f4:	d65f03c0 	ret
  40b8f8:	d2800014 	mov	x20, #0x0                   	// #0
  40b8fc:	aa1403e0 	mov	x0, x20
  40b900:	a94153f3 	ldp	x19, x20, [sp, #16]
  40b904:	a9425bf5 	ldp	x21, x22, [sp, #32]
  40b908:	a94363f7 	ldp	x23, x24, [sp, #48]
  40b90c:	a8c47bfd 	ldp	x29, x30, [sp], #64
  40b910:	d65f03c0 	ret
  40b914:	d503201f 	nop
  40b918:	d503201f 	nop
  40b91c:	d503201f 	nop

000000000040b920 <_ZNSt10_HashtableINSt7__cxx1112basic_stringIcSt11char_traitsIcESaIcEEESt4pairIKS5_iESaIS8_ENSt8__detail10_Select1stESt8equal_toIS5_ESt4hashIS5_ENSA_18_Mod_range_hashingENSA_20_Default_ranged_hashENSA_20_Prime_rehash_policyENSA_17_Hashtable_traitsILb1ELb0ELb1EEEE9_M_rehashEmRKm>:
  40b920:	a9bd7bfd 	stp	x29, x30, [sp, #-48]!
  40b924:	910003fd 	mov	x29, sp
  40b928:	a90153f3 	stp	x19, x20, [sp, #16]
  40b92c:	aa0103f3 	mov	x19, x1
  40b930:	a9025bf5 	stp	x21, x22, [sp, #32]
  40b934:	aa0003f5 	mov	x21, x0
  40b938:	f100043f 	cmp	x1, #0x1
  40b93c:	540006c0 	b.eq	40ba14 <_ZNSt10_HashtableINSt7__cxx1112basic_stringIcSt11char_traitsIcESaIcEEESt4pairIKS5_iESaIS8_ENSt8__detail10_Select1stESt8equal_toIS5_ESt4hashIS5_ENSA_18_Mod_range_hashingENSA_20_Default_ranged_hashENSA_20_Prime_rehash_policyENSA_17_Hashtable_traitsILb1ELb0ELb1EEEE9_M_rehashEmRKm+0xf4>  // b.none
  40b940:	aa0203f4 	mov	x20, x2
  40b944:	92fe0000 	mov	x0, #0xfffffffffffffff     	// #1152921504606846975
  40b948:	eb00003f 	cmp	x1, x0
  40b94c:	540006c8 	b.hi	40ba24 <_ZNSt10_HashtableINSt7__cxx1112basic_stringIcSt11char_traitsIcESaIcEEESt4pairIKS5_iESaIS8_ENSt8__detail10_Select1stESt8equal_toIS5_ESt4hashIS5_ENSA_18_Mod_range_hashingENSA_20_Default_ranged_hashENSA_20_Prime_rehash_policyENSA_17_Hashtable_traitsILb1ELb0ELb1EEEE9_M_rehashEmRKm+0x104>  // b.pmore
  40b950:	d37df036 	lsl	x22, x1, #3
  40b954:	aa1603e0 	mov	x0, x22
  40b958:	97ffd98a 	bl	401f80 <_Znwm@plt>
  40b95c:	aa0003f4 	mov	x20, x0
  40b960:	aa1603e2 	mov	x2, x22
  40b964:	52800001 	mov	w1, #0x0                   	// #0
  40b968:	97ffd962 	bl	401ef0 <memset@plt>
  40b96c:	9100c2a8 	add	x8, x21, #0x30
  40b970:	f9400aa4 	ldr	x4, [x21, #16]
  40b974:	f9000abf 	str	xzr, [x21, #16]
  40b978:	b4000204 	cbz	x4, 40b9b8 <_ZNSt10_HashtableINSt7__cxx1112basic_stringIcSt11char_traitsIcESaIcEEESt4pairIKS5_iESaIS8_ENSt8__detail10_Select1stESt8equal_toIS5_ESt4hashIS5_ENSA_18_Mod_range_hashingENSA_20_Default_ranged_hashENSA_20_Prime_rehash_policyENSA_17_Hashtable_traitsILb1ELb0ELb1EEEE9_M_rehashEmRKm+0x98>
  40b97c:	910042a7 	add	x7, x21, #0x10
  40b980:	d2800006 	mov	x6, #0x0                   	// #0
  40b984:	d503201f 	nop
  40b988:	f9401885 	ldr	x5, [x4, #48]
  40b98c:	aa0403e3 	mov	x3, x4
  40b990:	f9400084 	ldr	x4, [x4]
  40b994:	9ad308a2 	udiv	x2, x5, x19
  40b998:	9b139442 	msub	x2, x2, x19, x5
  40b99c:	f8627a81 	ldr	x1, [x20, x2, lsl #3]
  40b9a0:	b4000201 	cbz	x1, 40b9e0 <_ZNSt10_HashtableINSt7__cxx1112basic_stringIcSt11char_traitsIcESaIcEEESt4pairIKS5_iESaIS8_ENSt8__detail10_Select1stESt8equal_toIS5_ESt4hashIS5_ENSA_18_Mod_range_hashingENSA_20_Default_ranged_hashENSA_20_Prime_rehash_policyENSA_17_Hashtable_traitsILb1ELb0ELb1EEEE9_M_rehashEmRKm+0xc0>
  40b9a4:	f9400020 	ldr	x0, [x1]
  40b9a8:	f9000060 	str	x0, [x3]
  40b9ac:	f8627a80 	ldr	x0, [x20, x2, lsl #3]
  40b9b0:	f9000003 	str	x3, [x0]
  40b9b4:	b5fffea4 	cbnz	x4, 40b988 <_ZNSt10_HashtableINSt7__cxx1112basic_stringIcSt11char_traitsIcESaIcEEESt4pairIKS5_iESaIS8_ENSt8__detail10_Select1stESt8equal_toIS5_ESt4hashIS5_ENSA_18_Mod_range_hashingENSA_20_Default_ranged_hashENSA_20_Prime_rehash_policyENSA_17_Hashtable_traitsILb1ELb0ELb1EEEE9_M_rehashEmRKm+0x68>
  40b9b8:	a94006a0 	ldp	x0, x1, [x21]
  40b9bc:	eb00011f 	cmp	x8, x0
  40b9c0:	54000060 	b.eq	40b9cc <_ZNSt10_HashtableINSt7__cxx1112basic_stringIcSt11char_traitsIcESaIcEEESt4pairIKS5_iESaIS8_ENSt8__detail10_Select1stESt8equal_toIS5_ESt4hashIS5_ENSA_18_Mod_range_hashingENSA_20_Default_ranged_hashENSA_20_Prime_rehash_policyENSA_17_Hashtable_traitsILb1ELb0ELb1EEEE9_M_rehashEmRKm+0xac>  // b.none
  40b9c4:	d37df021 	lsl	x1, x1, #3
  40b9c8:	97ffd972 	bl	401f90 <_ZdlPvm@plt>
  40b9cc:	a9004eb4 	stp	x20, x19, [x21]
  40b9d0:	a94153f3 	ldp	x19, x20, [sp, #16]
  40b9d4:	a9425bf5 	ldp	x21, x22, [sp, #32]
  40b9d8:	a8c37bfd 	ldp	x29, x30, [sp], #48
  40b9dc:	d65f03c0 	ret
  40b9e0:	f9400aa0 	ldr	x0, [x21, #16]
  40b9e4:	f9000060 	str	x0, [x3]
  40b9e8:	f9000aa3 	str	x3, [x21, #16]
  40b9ec:	f8227a87 	str	x7, [x20, x2, lsl #3]
  40b9f0:	f9400060 	ldr	x0, [x3]
  40b9f4:	b40000a0 	cbz	x0, 40ba08 <_ZNSt10_HashtableINSt7__cxx1112basic_stringIcSt11char_traitsIcESaIcEEESt4pairIKS5_iESaIS8_ENSt8__detail10_Select1stESt8equal_toIS5_ESt4hashIS5_ENSA_18_Mod_range_hashingENSA_20_Default_ranged_hashENSA_20_Prime_rehash_policyENSA_17_Hashtable_traitsILb1ELb0ELb1EEEE9_M_rehashEmRKm+0xe8>
  40b9f8:	f8267a83 	str	x3, [x20, x6, lsl #3]
  40b9fc:	aa0203e6 	mov	x6, x2
  40ba00:	b5fffc44 	cbnz	x4, 40b988 <_ZNSt10_HashtableINSt7__cxx1112basic_stringIcSt11char_traitsIcESaIcEEESt4pairIKS5_iESaIS8_ENSt8__detail10_Select1stESt8equal_toIS5_ESt4hashIS5_ENSA_18_Mod_range_hashingENSA_20_Default_ranged_hashENSA_20_Prime_rehash_policyENSA_17_Hashtable_traitsILb1ELb0ELb1EEEE9_M_rehashEmRKm+0x68>
  40ba04:	17ffffed 	b	40b9b8 <_ZNSt10_HashtableINSt7__cxx1112basic_stringIcSt11char_traitsIcESaIcEEESt4pairIKS5_iESaIS8_ENSt8__detail10_Select1stESt8equal_toIS5_ESt4hashIS5_ENSA_18_Mod_range_hashingENSA_20_Default_ranged_hashENSA_20_Prime_rehash_policyENSA_17_Hashtable_traitsILb1ELb0ELb1EEEE9_M_rehashEmRKm+0x98>
  40ba08:	aa0203e6 	mov	x6, x2
  40ba0c:	b5fffbe4 	cbnz	x4, 40b988 <_ZNSt10_HashtableINSt7__cxx1112basic_stringIcSt11char_traitsIcESaIcEEESt4pairIKS5_iESaIS8_ENSt8__detail10_Select1stESt8equal_toIS5_ESt4hashIS5_ENSA_18_Mod_range_hashingENSA_20_Default_ranged_hashENSA_20_Prime_rehash_policyENSA_17_Hashtable_traitsILb1ELb0ELb1EEEE9_M_rehashEmRKm+0x68>
  40ba10:	17ffffea 	b	40b9b8 <_ZNSt10_HashtableINSt7__cxx1112basic_stringIcSt11char_traitsIcESaIcEEESt4pairIKS5_iESaIS8_ENSt8__detail10_Select1stESt8equal_toIS5_ESt4hashIS5_ENSA_18_Mod_range_hashingENSA_20_Default_ranged_hashENSA_20_Prime_rehash_policyENSA_17_Hashtable_traitsILb1ELb0ELb1EEEE9_M_rehashEmRKm+0x98>
  40ba14:	aa0003f4 	mov	x20, x0
  40ba18:	f8030e9f 	str	xzr, [x20, #48]!
  40ba1c:	aa1403e8 	mov	x8, x20
  40ba20:	17ffffd4 	b	40b970 <_ZNSt10_HashtableINSt7__cxx1112basic_stringIcSt11char_traitsIcESaIcEEESt4pairIKS5_iESaIS8_ENSt8__detail10_Select1stESt8equal_toIS5_ESt4hashIS5_ENSA_18_Mod_range_hashingENSA_20_Default_ranged_hashENSA_20_Prime_rehash_policyENSA_17_Hashtable_traitsILb1ELb0ELb1EEEE9_M_rehashEmRKm+0x50>
  40ba24:	97ffd91f 	bl	401ea0 <_ZSt17__throw_bad_allocv@plt>
  40ba28:	97ffd922 	bl	401eb0 <__cxa_begin_catch@plt>
  40ba2c:	f9400280 	ldr	x0, [x20]
  40ba30:	f90016a0 	str	x0, [x21, #40]
  40ba34:	97ffd993 	bl	402080 <__cxa_rethrow@plt>
  40ba38:	aa0003f3 	mov	x19, x0
  40ba3c:	97ffd9a9 	bl	4020e0 <__cxa_end_catch@plt>
  40ba40:	aa1303e0 	mov	x0, x19
  40ba44:	97ffd9b7 	bl	402120 <_Unwind_Resume@plt>
  40ba48:	d503201f 	nop
  40ba4c:	d503201f 	nop

000000000040ba50 <_ZNSt8__detail9_Map_baseINSt7__cxx1112basic_stringIcSt11char_traitsIcESaIcEEESt4pairIKS6_iESaIS9_ENS_10_Select1stESt8equal_toIS6_ESt4hashIS6_ENS_18_Mod_range_hashingENS_20_Default_ranged_hashENS_20_Prime_rehash_policyENS_17_Hashtable_traitsILb1ELb0ELb1EEELb1EEixERS8_>:
  40ba50:	a9bb7bfd 	stp	x29, x30, [sp, #-80]!
  40ba54:	d28d20e2 	mov	x2, #0x6907                	// #26887
  40ba58:	f2b8e1e2 	movk	x2, #0xc70f, lsl #16
  40ba5c:	910003fd 	mov	x29, sp
  40ba60:	a90153f3 	stp	x19, x20, [sp, #16]
  40ba64:	aa0003f3 	mov	x19, x0
  40ba68:	a9025bf5 	stp	x21, x22, [sp, #32]
  40ba6c:	aa0103f5 	mov	x21, x1
  40ba70:	a9400420 	ldp	x0, x1, [x1]
  40ba74:	a90363f7 	stp	x23, x24, [sp, #48]
  40ba78:	97ffd8e6 	bl	401e10 <_ZSt11_Hash_bytesPKvmm@plt>
  40ba7c:	aa0003f6 	mov	x22, x0
  40ba80:	f9400661 	ldr	x1, [x19, #8]
  40ba84:	aa0003e3 	mov	x3, x0
  40ba88:	aa1503e2 	mov	x2, x21
  40ba8c:	aa1303e0 	mov	x0, x19
  40ba90:	9ac10ad7 	udiv	x23, x22, x1
  40ba94:	9b01daf7 	msub	x23, x23, x1, x22
  40ba98:	aa1703e1 	mov	x1, x23
  40ba9c:	97ffff6d 	bl	40b850 <_ZNKSt10_HashtableINSt7__cxx1112basic_stringIcSt11char_traitsIcESaIcEEESt4pairIKS5_iESaIS8_ENSt8__detail10_Select1stESt8equal_toIS5_ESt4hashIS5_ENSA_18_Mod_range_hashingENSA_20_Default_ranged_hashENSA_20_Prime_rehash_policyENSA_17_Hashtable_traitsILb1ELb0ELb1EEEE19_M_find_before_nodeEmRS7_m>
  40baa0:	b4000120 	cbz	x0, 40bac4 <_ZNSt8__detail9_Map_baseINSt7__cxx1112basic_stringIcSt11char_traitsIcESaIcEEESt4pairIKS6_iESaIS9_ENS_10_Select1stESt8equal_toIS6_ESt4hashIS6_ENS_18_Mod_range_hashingENS_20_Default_ranged_hashENS_20_Prime_rehash_policyENS_17_Hashtable_traitsILb1ELb0ELb1EEELb1EEixERS8_+0x74>
  40baa4:	f9400014 	ldr	x20, [x0]
  40baa8:	9100a280 	add	x0, x20, #0x28
  40baac:	b40000d4 	cbz	x20, 40bac4 <_ZNSt8__detail9_Map_baseINSt7__cxx1112basic_stringIcSt11char_traitsIcESaIcEEESt4pairIKS6_iESaIS9_ENS_10_Select1stESt8equal_toIS6_ESt4hashIS6_ENS_18_Mod_range_hashingENS_20_Default_ranged_hashENS_20_Prime_rehash_policyENS_17_Hashtable_traitsILb1ELb0ELb1EEELb1EEixERS8_+0x74>
  40bab0:	a94153f3 	ldp	x19, x20, [sp, #16]
  40bab4:	a9425bf5 	ldp	x21, x22, [sp, #32]
  40bab8:	a94363f7 	ldp	x23, x24, [sp, #48]
  40babc:	a8c57bfd 	ldp	x29, x30, [sp], #80
  40bac0:	d65f03c0 	ret
  40bac4:	d2800700 	mov	x0, #0x38                  	// #56
  40bac8:	97ffd92e 	bl	401f80 <_Znwm@plt>
  40bacc:	aa0003f8 	mov	x24, x0
  40bad0:	aa0003f4 	mov	x20, x0
  40bad4:	a9400aa1 	ldp	x1, x2, [x21]
  40bad8:	91006000 	add	x0, x0, #0x18
  40badc:	f800871f 	str	xzr, [x24], #8
  40bae0:	f9000680 	str	x0, [x20, #8]
  40bae4:	aa1803e0 	mov	x0, x24
  40bae8:	8b020022 	add	x2, x1, x2
  40baec:	97ffe0d6 	bl	403e44 <_ZNSt7__cxx1112basic_stringIcSt11char_traitsIcESaIcEE12_M_constructIPcEEvT_S7_St20forward_iterator_tag.isra.0>
  40baf0:	f9400661 	ldr	x1, [x19, #8]
  40baf4:	b900231f 	str	wzr, [x24, #32]
  40baf8:	f9400e62 	ldr	x2, [x19, #24]
  40bafc:	91008260 	add	x0, x19, #0x20
  40bb00:	f9401664 	ldr	x4, [x19, #40]
  40bb04:	d2800023 	mov	x3, #0x1                   	// #1
  40bb08:	f90027e4 	str	x4, [sp, #72]
  40bb0c:	97ffd94d 	bl	402040 <_ZNKSt8__detail20_Prime_rehash_policy14_M_need_rehashEmmm@plt>
  40bb10:	72001c1f 	tst	w0, #0xff
  40bb14:	54000261 	b.ne	40bb60 <_ZNSt8__detail9_Map_baseINSt7__cxx1112basic_stringIcSt11char_traitsIcESaIcEEESt4pairIKS6_iESaIS9_ENS_10_Select1stESt8equal_toIS6_ESt4hashIS6_ENS_18_Mod_range_hashingENS_20_Default_ranged_hashENS_20_Prime_rehash_policyENS_17_Hashtable_traitsILb1ELb0ELb1EEELb1EEixERS8_+0x110>  // b.any
  40bb18:	f9400260 	ldr	x0, [x19]
  40bb1c:	d37df2e2 	lsl	x2, x23, #3
  40bb20:	f8777801 	ldr	x1, [x0, x23, lsl #3]
  40bb24:	f9001a96 	str	x22, [x20, #48]
  40bb28:	b4000321 	cbz	x1, 40bb8c <_ZNSt8__detail9_Map_baseINSt7__cxx1112basic_stringIcSt11char_traitsIcESaIcEEESt4pairIKS6_iESaIS9_ENS_10_Select1stESt8equal_toIS6_ESt4hashIS6_ENS_18_Mod_range_hashingENS_20_Default_ranged_hashENS_20_Prime_rehash_policyENS_17_Hashtable_traitsILb1ELb0ELb1EEELb1EEixERS8_+0x13c>
  40bb2c:	f9400021 	ldr	x1, [x1]
  40bb30:	f9000281 	str	x1, [x20]
  40bb34:	f8777800 	ldr	x0, [x0, x23, lsl #3]
  40bb38:	f9000014 	str	x20, [x0]
  40bb3c:	f9400e61 	ldr	x1, [x19, #24]
  40bb40:	9100a280 	add	x0, x20, #0x28
  40bb44:	a9425bf5 	ldp	x21, x22, [sp, #32]
  40bb48:	91000421 	add	x1, x1, #0x1
  40bb4c:	f9000e61 	str	x1, [x19, #24]
  40bb50:	a94153f3 	ldp	x19, x20, [sp, #16]
  40bb54:	a94363f7 	ldp	x23, x24, [sp, #48]
  40bb58:	a8c57bfd 	ldp	x29, x30, [sp], #80
  40bb5c:	d65f03c0 	ret
  40bb60:	910123e2 	add	x2, sp, #0x48
  40bb64:	aa1303e0 	mov	x0, x19
  40bb68:	97ffff6e 	bl	40b920 <_ZNSt10_HashtableINSt7__cxx1112basic_stringIcSt11char_traitsIcESaIcEEESt4pairIKS5_iESaIS8_ENSt8__detail10_Select1stESt8equal_toIS5_ESt4hashIS5_ENSA_18_Mod_range_hashingENSA_20_Default_ranged_hashENSA_20_Prime_rehash_policyENSA_17_Hashtable_traitsILb1ELb0ELb1EEEE9_M_rehashEmRKm>
  40bb6c:	f9400660 	ldr	x0, [x19, #8]
  40bb70:	9ac00ad7 	udiv	x23, x22, x0
  40bb74:	9b00daf7 	msub	x23, x23, x0, x22
  40bb78:	f9400260 	ldr	x0, [x19]
  40bb7c:	d37df2e2 	lsl	x2, x23, #3
  40bb80:	f8777801 	ldr	x1, [x0, x23, lsl #3]
  40bb84:	f9001a96 	str	x22, [x20, #48]
  40bb88:	b5fffd21 	cbnz	x1, 40bb2c <_ZNSt8__detail9_Map_baseINSt7__cxx1112basic_stringIcSt11char_traitsIcESaIcEEESt4pairIKS6_iESaIS9_ENS_10_Select1stESt8equal_toIS6_ESt4hashIS6_ENS_18_Mod_range_hashingENS_20_Default_ranged_hashENS_20_Prime_rehash_policyENS_17_Hashtable_traitsILb1ELb0ELb1EEELb1EEixERS8_+0xdc>
  40bb8c:	f9400a61 	ldr	x1, [x19, #16]
  40bb90:	f9000281 	str	x1, [x20]
  40bb94:	f9000a74 	str	x20, [x19, #16]
  40bb98:	b40000c1 	cbz	x1, 40bbb0 <_ZNSt8__detail9_Map_baseINSt7__cxx1112basic_stringIcSt11char_traitsIcESaIcEEESt4pairIKS6_iESaIS9_ENS_10_Select1stESt8equal_toIS6_ESt4hashIS6_ENS_18_Mod_range_hashingENS_20_Default_ranged_hashENS_20_Prime_rehash_policyENS_17_Hashtable_traitsILb1ELb0ELb1EEELb1EEixERS8_+0x160>
  40bb9c:	f9400663 	ldr	x3, [x19, #8]
  40bba0:	f9401824 	ldr	x4, [x1, #48]
  40bba4:	9ac30881 	udiv	x1, x4, x3
  40bba8:	9b039021 	msub	x1, x1, x3, x4
  40bbac:	f8217814 	str	x20, [x0, x1, lsl #3]
  40bbb0:	91004261 	add	x1, x19, #0x10
  40bbb4:	f8226801 	str	x1, [x0, x2]
  40bbb8:	17ffffe1 	b	40bb3c <_ZNSt8__detail9_Map_baseINSt7__cxx1112basic_stringIcSt11char_traitsIcESaIcEEESt4pairIKS6_iESaIS9_ENS_10_Select1stESt8equal_toIS6_ESt4hashIS6_ENS_18_Mod_range_hashingENS_20_Default_ranged_hashENS_20_Prime_rehash_policyENS_17_Hashtable_traitsILb1ELb0ELb1EEELb1EEixERS8_+0xec>
  40bbbc:	aa0003f3 	mov	x19, x0
  40bbc0:	aa1803e0 	mov	x0, x24
  40bbc4:	97ffd907 	bl	401fe0 <_ZNSt7__cxx1112basic_stringIcSt11char_traitsIcESaIcEE10_M_disposeEv@plt>
  40bbc8:	d2800701 	mov	x1, #0x38                  	// #56
  40bbcc:	aa1403e0 	mov	x0, x20
  40bbd0:	97ffd8f0 	bl	401f90 <_ZdlPvm@plt>
  40bbd4:	aa1303e0 	mov	x0, x19
  40bbd8:	97ffd952 	bl	402120 <_Unwind_Resume@plt>
  40bbdc:	97ffd8b5 	bl	401eb0 <__cxa_begin_catch@plt>
  40bbe0:	aa1403e0 	mov	x0, x20
  40bbe4:	d2800701 	mov	x1, #0x38                  	// #56
  40bbe8:	97ffd8ea 	bl	401f90 <_ZdlPvm@plt>
  40bbec:	97ffd925 	bl	402080 <__cxa_rethrow@plt>
  40bbf0:	aa0003f3 	mov	x19, x0
  40bbf4:	97ffd93b 	bl	4020e0 <__cxa_end_catch@plt>
  40bbf8:	aa1303e0 	mov	x0, x19
  40bbfc:	97ffd949 	bl	402120 <_Unwind_Resume@plt>

000000000040bc00 <_ZNSt10_HashtableIiSt4pairIKiiESaIS2_ENSt8__detail10_Select1stESt8equal_toIiESt4hashIiENS4_18_Mod_range_hashingENS4_20_Default_ranged_hashENS4_20_Prime_rehash_policyENS4_17_Hashtable_traitsILb0ELb0ELb1EEEE9_M_rehashEmRKm>:
  40bc00:	a9bd7bfd 	stp	x29, x30, [sp, #-48]!
  40bc04:	910003fd 	mov	x29, sp
  40bc08:	a90153f3 	stp	x19, x20, [sp, #16]
  40bc0c:	aa0103f3 	mov	x19, x1
  40bc10:	a9025bf5 	stp	x21, x22, [sp, #32]
  40bc14:	aa0003f5 	mov	x21, x0
  40bc18:	f100043f 	cmp	x1, #0x1
  40bc1c:	540006c0 	b.eq	40bcf4 <_ZNSt10_HashtableIiSt4pairIKiiESaIS2_ENSt8__detail10_Select1stESt8equal_toIiESt4hashIiENS4_18_Mod_range_hashingENS4_20_Default_ranged_hashENS4_20_Prime_rehash_policyENS4_17_Hashtable_traitsILb0ELb0ELb1EEEE9_M_rehashEmRKm+0xf4>  // b.none
  40bc20:	aa0203f4 	mov	x20, x2
  40bc24:	92fe0000 	mov	x0, #0xfffffffffffffff     	// #1152921504606846975
  40bc28:	eb00003f 	cmp	x1, x0
  40bc2c:	540006c8 	b.hi	40bd04 <_ZNSt10_HashtableIiSt4pairIKiiESaIS2_ENSt8__detail10_Select1stESt8equal_toIiESt4hashIiENS4_18_Mod_range_hashingENS4_20_Default_ranged_hashENS4_20_Prime_rehash_policyENS4_17_Hashtable_traitsILb0ELb0ELb1EEEE9_M_rehashEmRKm+0x104>  // b.pmore
  40bc30:	d37df036 	lsl	x22, x1, #3
  40bc34:	aa1603e0 	mov	x0, x22
  40bc38:	97ffd8d2 	bl	401f80 <_Znwm@plt>
  40bc3c:	aa0003f4 	mov	x20, x0
  40bc40:	aa1603e2 	mov	x2, x22
  40bc44:	52800001 	mov	w1, #0x0                   	// #0
  40bc48:	97ffd8aa 	bl	401ef0 <memset@plt>
  40bc4c:	9100c2a8 	add	x8, x21, #0x30
  40bc50:	f9400aa4 	ldr	x4, [x21, #16]
  40bc54:	f9000abf 	str	xzr, [x21, #16]
  40bc58:	b4000204 	cbz	x4, 40bc98 <_ZNSt10_HashtableIiSt4pairIKiiESaIS2_ENSt8__detail10_Select1stESt8equal_toIiESt4hashIiENS4_18_Mod_range_hashingENS4_20_Default_ranged_hashENS4_20_Prime_rehash_policyENS4_17_Hashtable_traitsILb0ELb0ELb1EEEE9_M_rehashEmRKm+0x98>
  40bc5c:	910042a7 	add	x7, x21, #0x10
  40bc60:	d2800006 	mov	x6, #0x0                   	// #0
  40bc64:	d503201f 	nop
  40bc68:	b9800885 	ldrsw	x5, [x4, #8]
  40bc6c:	aa0403e3 	mov	x3, x4
  40bc70:	f9400084 	ldr	x4, [x4]
  40bc74:	9ad308a2 	udiv	x2, x5, x19
  40bc78:	9b139442 	msub	x2, x2, x19, x5
  40bc7c:	f8627a81 	ldr	x1, [x20, x2, lsl #3]
  40bc80:	b4000201 	cbz	x1, 40bcc0 <_ZNSt10_HashtableIiSt4pairIKiiESaIS2_ENSt8__detail10_Select1stESt8equal_toIiESt4hashIiENS4_18_Mod_range_hashingENS4_20_Default_ranged_hashENS4_20_Prime_rehash_policyENS4_17_Hashtable_traitsILb0ELb0ELb1EEEE9_M_rehashEmRKm+0xc0>
  40bc84:	f9400020 	ldr	x0, [x1]
  40bc88:	f9000060 	str	x0, [x3]
  40bc8c:	f8627a80 	ldr	x0, [x20, x2, lsl #3]
  40bc90:	f9000003 	str	x3, [x0]
  40bc94:	b5fffea4 	cbnz	x4, 40bc68 <_ZNSt10_HashtableIiSt4pairIKiiESaIS2_ENSt8__detail10_Select1stESt8equal_toIiESt4hashIiENS4_18_Mod_range_hashingENS4_20_Default_ranged_hashENS4_20_Prime_rehash_policyENS4_17_Hashtable_traitsILb0ELb0ELb1EEEE9_M_rehashEmRKm+0x68>
  40bc98:	a94006a0 	ldp	x0, x1, [x21]
  40bc9c:	eb08001f 	cmp	x0, x8
  40bca0:	54000060 	b.eq	40bcac <_ZNSt10_HashtableIiSt4pairIKiiESaIS2_ENSt8__detail10_Select1stESt8equal_toIiESt4hashIiENS4_18_Mod_range_hashingENS4_20_Default_ranged_hashENS4_20_Prime_rehash_policyENS4_17_Hashtable_traitsILb0ELb0ELb1EEEE9_M_rehashEmRKm+0xac>  // b.none
  40bca4:	d37df021 	lsl	x1, x1, #3
  40bca8:	97ffd8ba 	bl	401f90 <_ZdlPvm@plt>
  40bcac:	a9004eb4 	stp	x20, x19, [x21]
  40bcb0:	a94153f3 	ldp	x19, x20, [sp, #16]
  40bcb4:	a9425bf5 	ldp	x21, x22, [sp, #32]
  40bcb8:	a8c37bfd 	ldp	x29, x30, [sp], #48
  40bcbc:	d65f03c0 	ret
  40bcc0:	f9400aa0 	ldr	x0, [x21, #16]
  40bcc4:	f9000060 	str	x0, [x3]
  40bcc8:	f9000aa3 	str	x3, [x21, #16]
  40bccc:	f8227a87 	str	x7, [x20, x2, lsl #3]
  40bcd0:	f9400060 	ldr	x0, [x3]
  40bcd4:	b40000a0 	cbz	x0, 40bce8 <_ZNSt10_HashtableIiSt4pairIKiiESaIS2_ENSt8__detail10_Select1stESt8equal_toIiESt4hashIiENS4_18_Mod_range_hashingENS4_20_Default_ranged_hashENS4_20_Prime_rehash_policyENS4_17_Hashtable_traitsILb0ELb0ELb1EEEE9_M_rehashEmRKm+0xe8>
  40bcd8:	f8267a83 	str	x3, [x20, x6, lsl #3]
  40bcdc:	aa0203e6 	mov	x6, x2
  40bce0:	b5fffc44 	cbnz	x4, 40bc68 <_ZNSt10_HashtableIiSt4pairIKiiESaIS2_ENSt8__detail10_Select1stESt8equal_toIiESt4hashIiENS4_18_Mod_range_hashingENS4_20_Default_ranged_hashENS4_20_Prime_rehash_policyENS4_17_Hashtable_traitsILb0ELb0ELb1EEEE9_M_rehashEmRKm+0x68>
  40bce4:	17ffffed 	b	40bc98 <_ZNSt10_HashtableIiSt4pairIKiiESaIS2_ENSt8__detail10_Select1stESt8equal_toIiESt4hashIiENS4_18_Mod_range_hashingENS4_20_Default_ranged_hashENS4_20_Prime_rehash_policyENS4_17_Hashtable_traitsILb0ELb0ELb1EEEE9_M_rehashEmRKm+0x98>
  40bce8:	aa0203e6 	mov	x6, x2
  40bcec:	b5fffbe4 	cbnz	x4, 40bc68 <_ZNSt10_HashtableIiSt4pairIKiiESaIS2_ENSt8__detail10_Select1stESt8equal_toIiESt4hashIiENS4_18_Mod_range_hashingENS4_20_Default_ranged_hashENS4_20_Prime_rehash_policyENS4_17_Hashtable_traitsILb0ELb0ELb1EEEE9_M_rehashEmRKm+0x68>
  40bcf0:	17ffffea 	b	40bc98 <_ZNSt10_HashtableIiSt4pairIKiiESaIS2_ENSt8__detail10_Select1stESt8equal_toIiESt4hashIiENS4_18_Mod_range_hashingENS4_20_Default_ranged_hashENS4_20_Prime_rehash_policyENS4_17_Hashtable_traitsILb0ELb0ELb1EEEE9_M_rehashEmRKm+0x98>
  40bcf4:	aa0003f4 	mov	x20, x0
  40bcf8:	f8030e9f 	str	xzr, [x20, #48]!
  40bcfc:	aa1403e8 	mov	x8, x20
  40bd00:	17ffffd4 	b	40bc50 <_ZNSt10_HashtableIiSt4pairIKiiESaIS2_ENSt8__detail10_Select1stESt8equal_toIiESt4hashIiENS4_18_Mod_range_hashingENS4_20_Default_ranged_hashENS4_20_Prime_rehash_policyENS4_17_Hashtable_traitsILb0ELb0ELb1EEEE9_M_rehashEmRKm+0x50>
  40bd04:	97ffd867 	bl	401ea0 <_ZSt17__throw_bad_allocv@plt>
  40bd08:	97ffd86a 	bl	401eb0 <__cxa_begin_catch@plt>
  40bd0c:	f9400280 	ldr	x0, [x20]
  40bd10:	f90016a0 	str	x0, [x21, #40]
  40bd14:	97ffd8db 	bl	402080 <__cxa_rethrow@plt>
  40bd18:	aa0003f3 	mov	x19, x0
  40bd1c:	97ffd8f1 	bl	4020e0 <__cxa_end_catch@plt>
  40bd20:	aa1303e0 	mov	x0, x19
  40bd24:	97ffd8ff 	bl	402120 <_Unwind_Resume@plt>
  40bd28:	d503201f 	nop
  40bd2c:	d503201f 	nop

000000000040bd30 <_ZNSt8__detail9_Map_baseIiSt4pairIKiiESaIS3_ENS_10_Select1stESt8equal_toIiESt4hashIiENS_18_Mod_range_hashingENS_20_Default_ranged_hashENS_20_Prime_rehash_policyENS_17_Hashtable_traitsILb0ELb0ELb1EEELb1EEixEOi>:
  40bd30:	a9bc7bfd 	stp	x29, x30, [sp, #-64]!
  40bd34:	910003fd 	mov	x29, sp
  40bd38:	a9025bf5 	stp	x21, x22, [sp, #32]
  40bd3c:	aa0103f5 	mov	x21, x1
  40bd40:	b9400021 	ldr	w1, [x1]
  40bd44:	f9400406 	ldr	x6, [x0, #8]
  40bd48:	a90153f3 	stp	x19, x20, [sp, #16]
  40bd4c:	93407c36 	sxtw	x22, w1
  40bd50:	aa0003f4 	mov	x20, x0
  40bd54:	f9400000 	ldr	x0, [x0]
  40bd58:	9ac60ad3 	udiv	x19, x22, x6
  40bd5c:	9b06da73 	msub	x19, x19, x6, x22
  40bd60:	f8737800 	ldr	x0, [x0, x19, lsl #3]
  40bd64:	b4000300 	cbz	x0, 40bdc4 <_ZNSt8__detail9_Map_baseIiSt4pairIKiiESaIS3_ENS_10_Select1stESt8equal_toIiESt4hashIiENS_18_Mod_range_hashingENS_20_Default_ranged_hashENS_20_Prime_rehash_policyENS_17_Hashtable_traitsILb0ELb0ELb1EEELb1EEixEOi+0x94>
  40bd68:	f9400003 	ldr	x3, [x0]
  40bd6c:	b9400864 	ldr	w4, [x3, #8]
  40bd70:	6b04003f 	cmp	w1, w4
  40bd74:	540001a0 	b.eq	40bda8 <_ZNSt8__detail9_Map_baseIiSt4pairIKiiESaIS3_ENS_10_Select1stESt8equal_toIiESt4hashIiENS_18_Mod_range_hashingENS_20_Default_ranged_hashENS_20_Prime_rehash_policyENS_17_Hashtable_traitsILb0ELb0ELb1EEELb1EEixEOi+0x78>  // b.none
  40bd78:	f9400065 	ldr	x5, [x3]
  40bd7c:	b4000245 	cbz	x5, 40bdc4 <_ZNSt8__detail9_Map_baseIiSt4pairIKiiESaIS3_ENS_10_Select1stESt8equal_toIiESt4hashIiENS_18_Mod_range_hashingENS_20_Default_ranged_hashENS_20_Prime_rehash_policyENS_17_Hashtable_traitsILb0ELb0ELb1EEELb1EEixEOi+0x94>
  40bd80:	b94008a4 	ldr	w4, [x5, #8]
  40bd84:	aa0303e0 	mov	x0, x3
  40bd88:	93407c87 	sxtw	x7, w4
  40bd8c:	9ac608e3 	udiv	x3, x7, x6
  40bd90:	9b069c63 	msub	x3, x3, x6, x7
  40bd94:	eb03027f 	cmp	x19, x3
  40bd98:	54000161 	b.ne	40bdc4 <_ZNSt8__detail9_Map_baseIiSt4pairIKiiESaIS3_ENS_10_Select1stESt8equal_toIiESt4hashIiENS_18_Mod_range_hashingENS_20_Default_ranged_hashENS_20_Prime_rehash_policyENS_17_Hashtable_traitsILb0ELb0ELb1EEELb1EEixEOi+0x94>  // b.any
  40bd9c:	aa0503e3 	mov	x3, x5
  40bda0:	6b04003f 	cmp	w1, w4
  40bda4:	54fffea1 	b.ne	40bd78 <_ZNSt8__detail9_Map_baseIiSt4pairIKiiESaIS3_ENS_10_Select1stESt8equal_toIiESt4hashIiENS_18_Mod_range_hashingENS_20_Default_ranged_hashENS_20_Prime_rehash_policyENS_17_Hashtable_traitsILb0ELb0ELb1EEELb1EEixEOi+0x48>  // b.any
  40bda8:	f9400001 	ldr	x1, [x0]
  40bdac:	91003020 	add	x0, x1, #0xc
  40bdb0:	b40000a1 	cbz	x1, 40bdc4 <_ZNSt8__detail9_Map_baseIiSt4pairIKiiESaIS3_ENS_10_Select1stESt8equal_toIiESt4hashIiENS_18_Mod_range_hashingENS_20_Default_ranged_hashENS_20_Prime_rehash_policyENS_17_Hashtable_traitsILb0ELb0ELb1EEELb1EEixEOi+0x94>
  40bdb4:	a94153f3 	ldp	x19, x20, [sp, #16]
  40bdb8:	a9425bf5 	ldp	x21, x22, [sp, #32]
  40bdbc:	a8c47bfd 	ldp	x29, x30, [sp], #64
  40bdc0:	d65f03c0 	ret
  40bdc4:	d2800200 	mov	x0, #0x10                  	// #16
  40bdc8:	f9001bf4 	str	x20, [sp, #48]
  40bdcc:	97ffd86d 	bl	401f80 <_Znwm@plt>
  40bdd0:	aa0003e3 	mov	x3, x0
  40bdd4:	b94002a5 	ldr	w5, [x21]
  40bdd8:	aa1603e2 	mov	x2, x22
  40bddc:	aa1303e1 	mov	x1, x19
  40bde0:	aa1403e0 	mov	x0, x20
  40bde4:	f900007f 	str	xzr, [x3]
  40bde8:	d2800024 	mov	x4, #0x1                   	// #1
  40bdec:	29017c65 	stp	w5, wzr, [x3, #8]
  40bdf0:	f9001fe3 	str	x3, [sp, #56]
  40bdf4:	97ffe680 	bl	4057f4 <_ZNSt10_HashtableIiSt4pairIKiiESaIS2_ENSt8__detail10_Select1stESt8equal_toIiESt4hashIiENS4_18_Mod_range_hashingENS4_20_Default_ranged_hashENS4_20_Prime_rehash_policyENS4_17_Hashtable_traitsILb0ELb0ELb1EEEE21_M_insert_unique_nodeERS1_mmPNS4_10_Hash_nodeIS2_Lb0EEEm.isra.0>
  40bdf8:	91003000 	add	x0, x0, #0xc
  40bdfc:	a94153f3 	ldp	x19, x20, [sp, #16]
  40be00:	a9425bf5 	ldp	x21, x22, [sp, #32]
  40be04:	a8c47bfd 	ldp	x29, x30, [sp], #64
  40be08:	d65f03c0 	ret
  40be0c:	aa0003f3 	mov	x19, x0
  40be10:	9100c3e0 	add	x0, sp, #0x30
  40be14:	97fffe87 	bl	40b830 <_ZNSt10_HashtableIiSt4pairIKiiESaIS2_ENSt8__detail10_Select1stESt8equal_toIiESt4hashIiENS4_18_Mod_range_hashingENS4_20_Default_ranged_hashENS4_20_Prime_rehash_policyENS4_17_Hashtable_traitsILb0ELb0ELb1EEEE12_Scoped_nodeD1Ev>
  40be18:	aa1303e0 	mov	x0, x19
  40be1c:	97ffd8c1 	bl	402120 <_Unwind_Resume@plt>

000000000040be20 <_ZNSt8__detail9_Map_baseIiSt4pairIKiiESaIS3_ENS_10_Select1stESt8equal_toIiESt4hashIiENS_18_Mod_range_hashingENS_20_Default_ranged_hashENS_20_Prime_rehash_policyENS_17_Hashtable_traitsILb0ELb0ELb1EEELb1EEixERS2_>:
  40be20:	a9bc7bfd 	stp	x29, x30, [sp, #-64]!
  40be24:	910003fd 	mov	x29, sp
  40be28:	a9025bf5 	stp	x21, x22, [sp, #32]
  40be2c:	aa0103f5 	mov	x21, x1
  40be30:	b9400021 	ldr	w1, [x1]
  40be34:	f9400406 	ldr	x6, [x0, #8]
  40be38:	a90153f3 	stp	x19, x20, [sp, #16]
  40be3c:	93407c36 	sxtw	x22, w1
  40be40:	aa0003f4 	mov	x20, x0
  40be44:	f9400000 	ldr	x0, [x0]
  40be48:	9ac60ad3 	udiv	x19, x22, x6
  40be4c:	9b06da73 	msub	x19, x19, x6, x22
  40be50:	f8737800 	ldr	x0, [x0, x19, lsl #3]
  40be54:	b4000300 	cbz	x0, 40beb4 <_ZNSt8__detail9_Map_baseIiSt4pairIKiiESaIS3_ENS_10_Select1stESt8equal_toIiESt4hashIiENS_18_Mod_range_hashingENS_20_Default_ranged_hashENS_20_Prime_rehash_policyENS_17_Hashtable_traitsILb0ELb0ELb1EEELb1EEixERS2_+0x94>
  40be58:	f9400003 	ldr	x3, [x0]
  40be5c:	b9400864 	ldr	w4, [x3, #8]
  40be60:	6b01009f 	cmp	w4, w1
  40be64:	540001a0 	b.eq	40be98 <_ZNSt8__detail9_Map_baseIiSt4pairIKiiESaIS3_ENS_10_Select1stESt8equal_toIiESt4hashIiENS_18_Mod_range_hashingENS_20_Default_ranged_hashENS_20_Prime_rehash_policyENS_17_Hashtable_traitsILb0ELb0ELb1EEELb1EEixERS2_+0x78>  // b.none
  40be68:	f9400065 	ldr	x5, [x3]
  40be6c:	b4000245 	cbz	x5, 40beb4 <_ZNSt8__detail9_Map_baseIiSt4pairIKiiESaIS3_ENS_10_Select1stESt8equal_toIiESt4hashIiENS_18_Mod_range_hashingENS_20_Default_ranged_hashENS_20_Prime_rehash_policyENS_17_Hashtable_traitsILb0ELb0ELb1EEELb1EEixERS2_+0x94>
  40be70:	b94008a4 	ldr	w4, [x5, #8]
  40be74:	aa0303e0 	mov	x0, x3
  40be78:	93407c87 	sxtw	x7, w4
  40be7c:	9ac608e3 	udiv	x3, x7, x6
  40be80:	9b069c63 	msub	x3, x3, x6, x7
  40be84:	eb03027f 	cmp	x19, x3
  40be88:	54000161 	b.ne	40beb4 <_ZNSt8__detail9_Map_baseIiSt4pairIKiiESaIS3_ENS_10_Select1stESt8equal_toIiESt4hashIiENS_18_Mod_range_hashingENS_20_Default_ranged_hashENS_20_Prime_rehash_policyENS_17_Hashtable_traitsILb0ELb0ELb1EEELb1EEixERS2_+0x94>  // b.any
  40be8c:	aa0503e3 	mov	x3, x5
  40be90:	6b01009f 	cmp	w4, w1
  40be94:	54fffea1 	b.ne	40be68 <_ZNSt8__detail9_Map_baseIiSt4pairIKiiESaIS3_ENS_10_Select1stESt8equal_toIiESt4hashIiENS_18_Mod_range_hashingENS_20_Default_ranged_hashENS_20_Prime_rehash_policyENS_17_Hashtable_traitsILb0ELb0ELb1EEELb1EEixERS2_+0x48>  // b.any
  40be98:	f9400001 	ldr	x1, [x0]
  40be9c:	91003020 	add	x0, x1, #0xc
  40bea0:	b40000a1 	cbz	x1, 40beb4 <_ZNSt8__detail9_Map_baseIiSt4pairIKiiESaIS3_ENS_10_Select1stESt8equal_toIiESt4hashIiENS_18_Mod_range_hashingENS_20_Default_ranged_hashENS_20_Prime_rehash_policyENS_17_Hashtable_traitsILb0ELb0ELb1EEELb1EEixERS2_+0x94>
  40bea4:	a94153f3 	ldp	x19, x20, [sp, #16]
  40bea8:	a9425bf5 	ldp	x21, x22, [sp, #32]
  40beac:	a8c47bfd 	ldp	x29, x30, [sp], #64
  40beb0:	d65f03c0 	ret
  40beb4:	d2800200 	mov	x0, #0x10                  	// #16
  40beb8:	f9001bf4 	str	x20, [sp, #48]
  40bebc:	97ffd831 	bl	401f80 <_Znwm@plt>
  40bec0:	aa0003e3 	mov	x3, x0
  40bec4:	b94002a5 	ldr	w5, [x21]
  40bec8:	aa1603e2 	mov	x2, x22
  40becc:	aa1303e1 	mov	x1, x19
  40bed0:	aa1403e0 	mov	x0, x20
  40bed4:	f900007f 	str	xzr, [x3]
  40bed8:	d2800024 	mov	x4, #0x1                   	// #1
  40bedc:	29017c65 	stp	w5, wzr, [x3, #8]
  40bee0:	f9001fe3 	str	x3, [sp, #56]
  40bee4:	97ffe644 	bl	4057f4 <_ZNSt10_HashtableIiSt4pairIKiiESaIS2_ENSt8__detail10_Select1stESt8equal_toIiESt4hashIiENS4_18_Mod_range_hashingENS4_20_Default_ranged_hashENS4_20_Prime_rehash_policyENS4_17_Hashtable_traitsILb0ELb0ELb1EEEE21_M_insert_unique_nodeERS1_mmPNS4_10_Hash_nodeIS2_Lb0EEEm.isra.0>
  40bee8:	91003000 	add	x0, x0, #0xc
  40beec:	a94153f3 	ldp	x19, x20, [sp, #16]
  40bef0:	a9425bf5 	ldp	x21, x22, [sp, #32]
  40bef4:	a8c47bfd 	ldp	x29, x30, [sp], #64
  40bef8:	d65f03c0 	ret
  40befc:	aa0003f3 	mov	x19, x0
  40bf00:	9100c3e0 	add	x0, sp, #0x30
  40bf04:	97fffe4b 	bl	40b830 <_ZNSt10_HashtableIiSt4pairIKiiESaIS2_ENSt8__detail10_Select1stESt8equal_toIiESt4hashIiENS4_18_Mod_range_hashingENS4_20_Default_ranged_hashENS4_20_Prime_rehash_policyENS4_17_Hashtable_traitsILb0ELb0ELb1EEEE12_Scoped_nodeD1Ev>
  40bf08:	aa1303e0 	mov	x0, x19
  40bf0c:	97ffd885 	bl	402120 <_Unwind_Resume@plt>

000000000040bf10 <_ZSt25__unguarded_linear_insertIN9__gnu_cxx17__normal_iteratorIP2PTSt6vectorIS2_SaIS2_EEEENS0_5__ops14_Val_comp_iterIPFbRKS2_SB_EEEEvT_T0_>:
  40bf10:	a9b57bfd 	stp	x29, x30, [sp, #-176]!
  40bf14:	910003fd 	mov	x29, sp
  40bf18:	a9400c04 	ldp	x4, x3, [x0]
  40bf1c:	a90153f3 	stp	x19, x20, [sp, #16]
  40bf20:	a9025bf5 	stp	x21, x22, [sp, #32]
  40bf24:	d1016015 	sub	x21, x0, #0x58
  40bf28:	a90363f7 	stp	x23, x24, [sp, #48]
  40bf2c:	a9046bf9 	stp	x25, x26, [sp, #64]
  40bf30:	aa0103f9 	mov	x25, x1
  40bf34:	a9058fe4 	stp	x4, x3, [sp, #88]
  40bf38:	b9401804 	ldr	w4, [x0, #24]
  40bf3c:	f9400808 	ldr	x8, [x0, #16]
  40bf40:	a9007c1f 	stp	xzr, xzr, [x0]
  40bf44:	f900081f 	str	xzr, [x0, #16]
  40bf48:	f90037e8 	str	x8, [sp, #104]
  40bf4c:	b90073e4 	str	w4, [sp, #112]
  40bf50:	a9421807 	ldp	x7, x6, [x0, #32]
  40bf54:	a9027c1f 	stp	xzr, xzr, [x0, #32]
  40bf58:	f9401805 	ldr	x5, [x0, #48]
  40bf5c:	f900181f 	str	xzr, [x0, #48]
  40bf60:	f9402003 	ldr	x3, [x0, #64]
  40bf64:	f900201f 	str	xzr, [x0, #64]
  40bf68:	f9401c04 	ldr	x4, [x0, #56]
  40bf6c:	f9402402 	ldr	x2, [x0, #72]
  40bf70:	f900241f 	str	xzr, [x0, #72]
  40bf74:	f9402801 	ldr	x1, [x0, #80]
  40bf78:	f9001c1f 	str	xzr, [x0, #56]
  40bf7c:	a9079be7 	stp	x7, x6, [sp, #120]
  40bf80:	a90893e5 	stp	x5, x4, [sp, #136]
  40bf84:	a9098be3 	stp	x3, x2, [sp, #152]
  40bf88:	f90057e1 	str	x1, [sp, #168]
  40bf8c:	d503201f 	nop
  40bf90:	910162b3 	add	x19, x21, #0x58
  40bf94:	aa1503e1 	mov	x1, x21
  40bf98:	910163e0 	add	x0, sp, #0x58
  40bf9c:	d63f0320 	blr	x25
  40bfa0:	72001c1f 	tst	w0, #0xff
  40bfa4:	54000c40 	b.eq	40c12c <_ZSt25__unguarded_linear_insertIN9__gnu_cxx17__normal_iteratorIP2PTSt6vectorIS2_SaIS2_EEEENS0_5__ops14_Val_comp_iterIPFbRKS2_SB_EEEEvT_T0_+0x21c>  // b.none
  40bfa8:	a945dab7 	ldp	x23, x22, [x21, #88]
  40bfac:	a94006a2 	ldp	x2, x1, [x21]
  40bfb0:	a9007ebf 	stp	xzr, xzr, [x21]
  40bfb4:	f9400aa0 	ldr	x0, [x21, #16]
  40bfb8:	f9000abf 	str	xzr, [x21, #16]
  40bfbc:	a90586a2 	stp	x2, x1, [x21, #88]
  40bfc0:	aa1703f4 	mov	x20, x23
  40bfc4:	f94036b8 	ldr	x24, [x21, #104]
  40bfc8:	f90036a0 	str	x0, [x21, #104]
  40bfcc:	eb1602ff 	cmp	x23, x22
  40bfd0:	540006e0 	b.eq	40c0ac <_ZSt25__unguarded_linear_insertIN9__gnu_cxx17__normal_iteratorIP2PTSt6vectorIS2_SaIS2_EEEENS0_5__ops14_Val_comp_iterIPFbRKS2_SB_EEEEvT_T0_+0x19c>  // b.none
  40bfd4:	d503201f 	nop
  40bfd8:	f9404693 	ldr	x19, [x20, #136]
  40bfdc:	b40000d3 	cbz	x19, 40bff4 <_ZSt25__unguarded_linear_insertIN9__gnu_cxx17__normal_iteratorIP2PTSt6vectorIS2_SaIS2_EEEENS0_5__ops14_Val_comp_iterIPFbRKS2_SB_EEEEvT_T0_+0xe4>
  40bfe0:	aa1303e0 	mov	x0, x19
  40bfe4:	d2800201 	mov	x1, #0x10                  	// #16
  40bfe8:	f9400273 	ldr	x19, [x19]
  40bfec:	97ffd7e9 	bl	401f90 <_ZdlPvm@plt>
  40bff0:	b5ffff93 	cbnz	x19, 40bfe0 <_ZSt25__unguarded_linear_insertIN9__gnu_cxx17__normal_iteratorIP2PTSt6vectorIS2_SaIS2_EEEENS0_5__ops14_Val_comp_iterIPFbRKS2_SB_EEEEvT_T0_+0xd0>
  40bff4:	a9478a80 	ldp	x0, x2, [x20, #120]
  40bff8:	52800001 	mov	w1, #0x0                   	// #0
  40bffc:	d37df042 	lsl	x2, x2, #3
  40c000:	97ffd7bc 	bl	401ef0 <memset@plt>
  40c004:	a9478680 	ldp	x0, x1, [x20, #120]
  40c008:	9102a282 	add	x2, x20, #0xa8
  40c00c:	a908fe9f 	stp	xzr, xzr, [x20, #136]
  40c010:	eb02001f 	cmp	x0, x2
  40c014:	54000060 	b.eq	40c020 <_ZSt25__unguarded_linear_insertIN9__gnu_cxx17__normal_iteratorIP2PTSt6vectorIS2_SaIS2_EEEENS0_5__ops14_Val_comp_iterIPFbRKS2_SB_EEEEvT_T0_+0x110>  // b.none
  40c018:	d37df021 	lsl	x1, x1, #3
  40c01c:	97ffd7dd 	bl	401f90 <_ZdlPvm@plt>
  40c020:	91010280 	add	x0, x20, #0x40
  40c024:	97fff827 	bl	40a0c0 <_ZNSt10_HashtableINSt7__cxx1112basic_stringIcSt11char_traitsIcESaIcEEESt4pairIKS5_iESaIS8_ENSt8__detail10_Select1stESt8equal_toIS5_ESt4hashIS5_ENSA_18_Mod_range_hashingENSA_20_Default_ranged_hashENSA_20_Prime_rehash_policyENSA_17_Hashtable_traitsILb1ELb0ELb1EEEE5clearEv>
  40c028:	a9440680 	ldp	x0, x1, [x20, #64]
  40c02c:	9101c282 	add	x2, x20, #0x70
  40c030:	eb02001f 	cmp	x0, x2
  40c034:	54000060 	b.eq	40c040 <_ZSt25__unguarded_linear_insertIN9__gnu_cxx17__normal_iteratorIP2PTSt6vectorIS2_SaIS2_EEEENS0_5__ops14_Val_comp_iterIPFbRKS2_SB_EEEEvT_T0_+0x130>  // b.none
  40c038:	d37df021 	lsl	x1, x1, #3
  40c03c:	97ffd7d5 	bl	401f90 <_ZdlPvm@plt>
  40c040:	f9401280 	ldr	x0, [x20, #32]
  40c044:	b4000080 	cbz	x0, 40c054 <_ZSt25__unguarded_linear_insertIN9__gnu_cxx17__normal_iteratorIP2PTSt6vectorIS2_SaIS2_EEEENS0_5__ops14_Val_comp_iterIPFbRKS2_SB_EEEEvT_T0_+0x144>
  40c048:	f9401a81 	ldr	x1, [x20, #48]
  40c04c:	cb000021 	sub	x1, x1, x0
  40c050:	97ffd7d0 	bl	401f90 <_ZdlPvm@plt>
  40c054:	a940ea93 	ldp	x19, x26, [x20, #8]
  40c058:	eb1a027f 	cmp	x19, x26
  40c05c:	54000180 	b.eq	40c08c <_ZSt25__unguarded_linear_insertIN9__gnu_cxx17__normal_iteratorIP2PTSt6vectorIS2_SaIS2_EEEENS0_5__ops14_Val_comp_iterIPFbRKS2_SB_EEEEvT_T0_+0x17c>  // b.none
  40c060:	aa1303e1 	mov	x1, x19
  40c064:	f8410420 	ldr	x0, [x1], #16
  40c068:	eb01001f 	cmp	x0, x1
  40c06c:	54000080 	b.eq	40c07c <_ZSt25__unguarded_linear_insertIN9__gnu_cxx17__normal_iteratorIP2PTSt6vectorIS2_SaIS2_EEEENS0_5__ops14_Val_comp_iterIPFbRKS2_SB_EEEEvT_T0_+0x16c>  // b.none
  40c070:	f9400a61 	ldr	x1, [x19, #16]
  40c074:	91000421 	add	x1, x1, #0x1
  40c078:	97ffd7c6 	bl	401f90 <_ZdlPvm@plt>
  40c07c:	91008273 	add	x19, x19, #0x20
  40c080:	eb13035f 	cmp	x26, x19
  40c084:	54fffee1 	b.ne	40c060 <_ZSt25__unguarded_linear_insertIN9__gnu_cxx17__normal_iteratorIP2PTSt6vectorIS2_SaIS2_EEEENS0_5__ops14_Val_comp_iterIPFbRKS2_SB_EEEEvT_T0_+0x150>  // b.any
  40c088:	f940069a 	ldr	x26, [x20, #8]
  40c08c:	b40000ba 	cbz	x26, 40c0a0 <_ZSt25__unguarded_linear_insertIN9__gnu_cxx17__normal_iteratorIP2PTSt6vectorIS2_SaIS2_EEEENS0_5__ops14_Val_comp_iterIPFbRKS2_SB_EEEEvT_T0_+0x190>
  40c090:	f9400e81 	ldr	x1, [x20, #24]
  40c094:	aa1a03e0 	mov	x0, x26
  40c098:	cb1a0021 	sub	x1, x1, x26
  40c09c:	97ffd7bd 	bl	401f90 <_ZdlPvm@plt>
  40c0a0:	9102c294 	add	x20, x20, #0xb0
  40c0a4:	eb1402df 	cmp	x22, x20
  40c0a8:	54fff981 	b.ne	40bfd8 <_ZSt25__unguarded_linear_insertIN9__gnu_cxx17__normal_iteratorIP2PTSt6vectorIS2_SaIS2_EEEENS0_5__ops14_Val_comp_iterIPFbRKS2_SB_EEEEvT_T0_+0xc8>  // b.any
  40c0ac:	b4000097 	cbz	x23, 40c0bc <_ZSt25__unguarded_linear_insertIN9__gnu_cxx17__normal_iteratorIP2PTSt6vectorIS2_SaIS2_EEEENS0_5__ops14_Val_comp_iterIPFbRKS2_SB_EEEEvT_T0_+0x1ac>
  40c0b0:	cb170301 	sub	x1, x24, x23
  40c0b4:	aa1703e0 	mov	x0, x23
  40c0b8:	97ffd7b6 	bl	401f90 <_ZdlPvm@plt>
  40c0bc:	a94206a3 	ldp	x3, x1, [x21, #32]
  40c0c0:	a9027ebf 	stp	xzr, xzr, [x21, #32]
  40c0c4:	b9401aa4 	ldr	w4, [x21, #24]
  40c0c8:	f9403ea0 	ldr	x0, [x21, #120]
  40c0cc:	b90072a4 	str	w4, [x21, #112]
  40c0d0:	f9401aa2 	ldr	x2, [x21, #48]
  40c0d4:	f9001abf 	str	xzr, [x21, #48]
  40c0d8:	a90786a3 	stp	x3, x1, [x21, #120]
  40c0dc:	f94046a1 	ldr	x1, [x21, #136]
  40c0e0:	f90046a2 	str	x2, [x21, #136]
  40c0e4:	b4000060 	cbz	x0, 40c0f0 <_ZSt25__unguarded_linear_insertIN9__gnu_cxx17__normal_iteratorIP2PTSt6vectorIS2_SaIS2_EEEENS0_5__ops14_Val_comp_iterIPFbRKS2_SB_EEEEvT_T0_+0x1e0>
  40c0e8:	cb000021 	sub	x1, x1, x0
  40c0ec:	97ffd7a9 	bl	401f90 <_ZdlPvm@plt>
  40c0f0:	a94386a3 	ldp	x3, x1, [x21, #56]
  40c0f4:	a903febf 	stp	xzr, xzr, [x21, #56]
  40c0f8:	f9404aa0 	ldr	x0, [x21, #144]
  40c0fc:	a90906a3 	stp	x3, x1, [x21, #144]
  40c100:	f94026a2 	ldr	x2, [x21, #72]
  40c104:	f90026bf 	str	xzr, [x21, #72]
  40c108:	f94052a1 	ldr	x1, [x21, #160]
  40c10c:	f90052a2 	str	x2, [x21, #160]
  40c110:	b4000060 	cbz	x0, 40c11c <_ZSt25__unguarded_linear_insertIN9__gnu_cxx17__normal_iteratorIP2PTSt6vectorIS2_SaIS2_EEEENS0_5__ops14_Val_comp_iterIPFbRKS2_SB_EEEEvT_T0_+0x20c>
  40c114:	cb000021 	sub	x1, x1, x0
  40c118:	97ffd79e 	bl	401f90 <_ZdlPvm@plt>
  40c11c:	2d4a02a1 	ldp	s1, s0, [x21, #80]
  40c120:	2d1502a1 	stp	s1, s0, [x21, #168]
  40c124:	d10162b5 	sub	x21, x21, #0x58
  40c128:	17ffff9a 	b	40bf90 <_ZSt25__unguarded_linear_insertIN9__gnu_cxx17__normal_iteratorIP2PTSt6vectorIS2_SaIS2_EEEENS0_5__ops14_Val_comp_iterIPFbRKS2_SB_EEEEvT_T0_+0x80>
  40c12c:	910163e1 	add	x1, sp, #0x58
  40c130:	aa1303e0 	mov	x0, x19
  40c134:	97ffe024 	bl	4041c4 <_ZN2PTaSEOS_.isra.0>
  40c138:	910163e0 	add	x0, sp, #0x58
  40c13c:	97fff849 	bl	40a260 <_ZN2PTD1Ev>
  40c140:	a94153f3 	ldp	x19, x20, [sp, #16]
  40c144:	a9425bf5 	ldp	x21, x22, [sp, #32]
  40c148:	a94363f7 	ldp	x23, x24, [sp, #48]
  40c14c:	a9446bf9 	ldp	x25, x26, [sp, #64]
  40c150:	a8cb7bfd 	ldp	x29, x30, [sp], #176
  40c154:	d65f03c0 	ret
  40c158:	aa0003f3 	mov	x19, x0
  40c15c:	910163e0 	add	x0, sp, #0x58
  40c160:	97fff840 	bl	40a260 <_ZN2PTD1Ev>
  40c164:	aa1303e0 	mov	x0, x19
  40c168:	97ffd7ee 	bl	402120 <_Unwind_Resume@plt>
  40c16c:	d503201f 	nop

000000000040c170 <_ZSt16__insertion_sortIN9__gnu_cxx17__normal_iteratorIP2PTSt6vectorIS2_SaIS2_EEEENS0_5__ops15_Iter_comp_iterIPFbRKS2_SB_EEEEvT_SF_T0_>:
  40c170:	a9b37bfd 	stp	x29, x30, [sp, #-208]!
  40c174:	910003fd 	mov	x29, sp
  40c178:	a9046bf9 	stp	x25, x26, [sp, #64]
  40c17c:	aa0003f9 	mov	x25, x0
  40c180:	a90707e2 	stp	x2, x1, [sp, #112]
  40c184:	eb01001f 	cmp	x0, x1
  40c188:	54002080 	b.eq	40c598 <_ZSt16__insertion_sortIN9__gnu_cxx17__normal_iteratorIP2PTSt6vectorIS2_SaIS2_EEEENS0_5__ops15_Iter_comp_iterIPFbRKS2_SB_EEEEvT_SF_T0_+0x428>  // b.none
  40c18c:	a90363f7 	stp	x23, x24, [sp, #48]
  40c190:	91016018 	add	x24, x0, #0x58
  40c194:	eb01031f 	cmp	x24, x1
  40c198:	540020e0 	b.eq	40c5b4 <_ZSt16__insertion_sortIN9__gnu_cxx17__normal_iteratorIP2PTSt6vectorIS2_SaIS2_EEEENS0_5__ops15_Iter_comp_iterIPFbRKS2_SB_EEEEvT_SF_T0_+0x444>  // b.none
  40c19c:	a90153f3 	stp	x19, x20, [sp, #16]
  40c1a0:	a9025bf5 	stp	x21, x22, [sp, #32]
  40c1a4:	a90573fb 	stp	x27, x28, [sp, #80]
  40c1a8:	6d0627e8 	stp	d8, d9, [sp, #96]
  40c1ac:	aa1803e0 	mov	x0, x24
  40c1b0:	f9403be2 	ldr	x2, [sp, #112]
  40c1b4:	aa1803f4 	mov	x20, x24
  40c1b8:	aa1903e1 	mov	x1, x25
  40c1bc:	91016318 	add	x24, x24, #0x58
  40c1c0:	d63f0040 	blr	x2
  40c1c4:	72001c1f 	tst	w0, #0xff
  40c1c8:	54001ee0 	b.eq	40c5a4 <_ZSt16__insertion_sortIN9__gnu_cxx17__normal_iteratorIP2PTSt6vectorIS2_SaIS2_EEEENS0_5__ops15_Iter_comp_iterIPFbRKS2_SB_EEEEvT_SF_T0_+0x434>  // b.none
  40c1cc:	b85c0301 	ldur	w1, [x24, #-64]
  40c1d0:	cb190280 	sub	x0, x20, x25
  40c1d4:	b9009fe1 	str	w1, [sp, #156]
  40c1d8:	f85a8301 	ldur	x1, [x24, #-88]
  40c1dc:	f90043e1 	str	x1, [sp, #128]
  40c1e0:	f85b0301 	ldur	x1, [x24, #-80]
  40c1e4:	f90047e1 	str	x1, [sp, #136]
  40c1e8:	f85b8301 	ldur	x1, [x24, #-72]
  40c1ec:	f9004be1 	str	x1, [sp, #144]
  40c1f0:	f85c8301 	ldur	x1, [x24, #-56]
  40c1f4:	f90053e1 	str	x1, [sp, #160]
  40c1f8:	f85d0301 	ldur	x1, [x24, #-48]
  40c1fc:	f90057e1 	str	x1, [sp, #168]
  40c200:	f85d8301 	ldur	x1, [x24, #-40]
  40c204:	f9005be1 	str	x1, [sp, #176]
  40c208:	f85e0301 	ldur	x1, [x24, #-32]
  40c20c:	f9005fe1 	str	x1, [sp, #184]
  40c210:	f85e8301 	ldur	x1, [x24, #-24]
  40c214:	f90063e1 	str	x1, [sp, #192]
  40c218:	f85f0301 	ldur	x1, [x24, #-16]
  40c21c:	f90067e1 	str	x1, [sp, #200]
  40c220:	d2917461 	mov	x1, #0x8ba3                	// #35747
  40c224:	9343fc17 	asr	x23, x0, #3
  40c228:	f2b745c1 	movk	x1, #0xba2e, lsl #16
  40c22c:	f81a831f 	stur	xzr, [x24, #-88]
  40c230:	f2d45d01 	movk	x1, #0xa2e8, lsl #32
  40c234:	f81b031f 	stur	xzr, [x24, #-80]
  40c238:	f2e5d161 	movk	x1, #0x2e8b, lsl #48
  40c23c:	f81b831f 	stur	xzr, [x24, #-72]
  40c240:	f81c831f 	stur	xzr, [x24, #-56]
  40c244:	f81d031f 	stur	xzr, [x24, #-48]
  40c248:	9b017ef7 	mul	x23, x23, x1
  40c24c:	f81d831f 	stur	xzr, [x24, #-40]
  40c250:	f81e031f 	stur	xzr, [x24, #-32]
  40c254:	f81e831f 	stur	xzr, [x24, #-24]
  40c258:	f81f031f 	stur	xzr, [x24, #-16]
  40c25c:	2d7f2309 	ldp	s9, s8, [x24, #-8]
  40c260:	f100001f 	cmp	x0, #0x0
  40c264:	54000ced 	b.le	40c400 <_ZSt16__insertion_sortIN9__gnu_cxx17__normal_iteratorIP2PTSt6vectorIS2_SaIS2_EEEENS0_5__ops15_Iter_comp_iterIPFbRKS2_SB_EEEEvT_SF_T0_+0x290>
  40c268:	d280001a 	mov	x26, #0x0                   	// #0
  40c26c:	d2800015 	mov	x21, #0x0                   	// #0
  40c270:	d2800016 	mov	x22, #0x0                   	// #0
  40c274:	d503201f 	nop
  40c278:	f85a8e80 	ldr	x0, [x20, #-88]!
  40c27c:	aa1603f3 	mov	x19, x22
  40c280:	f9400681 	ldr	x1, [x20, #8]
  40c284:	a9058680 	stp	x0, x1, [x20, #88]
  40c288:	f9400a80 	ldr	x0, [x20, #16]
  40c28c:	a9007e9f 	stp	xzr, xzr, [x20]
  40c290:	f9000a9f 	str	xzr, [x20, #16]
  40c294:	f9003680 	str	x0, [x20, #104]
  40c298:	eb1502df 	cmp	x22, x21
  40c29c:	540006c0 	b.eq	40c374 <_ZSt16__insertion_sortIN9__gnu_cxx17__normal_iteratorIP2PTSt6vectorIS2_SaIS2_EEEENS0_5__ops15_Iter_comp_iterIPFbRKS2_SB_EEEEvT_SF_T0_+0x204>  // b.none
  40c2a0:	f940467b 	ldr	x27, [x19, #136]
  40c2a4:	b40000db 	cbz	x27, 40c2bc <_ZSt16__insertion_sortIN9__gnu_cxx17__normal_iteratorIP2PTSt6vectorIS2_SaIS2_EEEENS0_5__ops15_Iter_comp_iterIPFbRKS2_SB_EEEEvT_SF_T0_+0x14c>
  40c2a8:	aa1b03e0 	mov	x0, x27
  40c2ac:	d2800201 	mov	x1, #0x10                  	// #16
  40c2b0:	f940037b 	ldr	x27, [x27]
  40c2b4:	97ffd737 	bl	401f90 <_ZdlPvm@plt>
  40c2b8:	b5ffff9b 	cbnz	x27, 40c2a8 <_ZSt16__insertion_sortIN9__gnu_cxx17__normal_iteratorIP2PTSt6vectorIS2_SaIS2_EEEENS0_5__ops15_Iter_comp_iterIPFbRKS2_SB_EEEEvT_SF_T0_+0x138>
  40c2bc:	a9478a60 	ldp	x0, x2, [x19, #120]
  40c2c0:	52800001 	mov	w1, #0x0                   	// #0
  40c2c4:	d37df042 	lsl	x2, x2, #3
  40c2c8:	97ffd70a 	bl	401ef0 <memset@plt>
  40c2cc:	a9478660 	ldp	x0, x1, [x19, #120]
  40c2d0:	9102a262 	add	x2, x19, #0xa8
  40c2d4:	a908fe7f 	stp	xzr, xzr, [x19, #136]
  40c2d8:	eb02001f 	cmp	x0, x2
  40c2dc:	54000060 	b.eq	40c2e8 <_ZSt16__insertion_sortIN9__gnu_cxx17__normal_iteratorIP2PTSt6vectorIS2_SaIS2_EEEENS0_5__ops15_Iter_comp_iterIPFbRKS2_SB_EEEEvT_SF_T0_+0x178>  // b.none
  40c2e0:	d37df021 	lsl	x1, x1, #3
  40c2e4:	97ffd72b 	bl	401f90 <_ZdlPvm@plt>
  40c2e8:	91010260 	add	x0, x19, #0x40
  40c2ec:	97fff775 	bl	40a0c0 <_ZNSt10_HashtableINSt7__cxx1112basic_stringIcSt11char_traitsIcESaIcEEESt4pairIKS5_iESaIS8_ENSt8__detail10_Select1stESt8equal_toIS5_ESt4hashIS5_ENSA_18_Mod_range_hashingENSA_20_Default_ranged_hashENSA_20_Prime_rehash_policyENSA_17_Hashtable_traitsILb1ELb0ELb1EEEE5clearEv>
  40c2f0:	a9440660 	ldp	x0, x1, [x19, #64]
  40c2f4:	9101c262 	add	x2, x19, #0x70
  40c2f8:	eb02001f 	cmp	x0, x2
  40c2fc:	54000060 	b.eq	40c308 <_ZSt16__insertion_sortIN9__gnu_cxx17__normal_iteratorIP2PTSt6vectorIS2_SaIS2_EEEENS0_5__ops15_Iter_comp_iterIPFbRKS2_SB_EEEEvT_SF_T0_+0x198>  // b.none
  40c300:	d37df021 	lsl	x1, x1, #3
  40c304:	97ffd723 	bl	401f90 <_ZdlPvm@plt>
  40c308:	f9401260 	ldr	x0, [x19, #32]
  40c30c:	b4000080 	cbz	x0, 40c31c <_ZSt16__insertion_sortIN9__gnu_cxx17__normal_iteratorIP2PTSt6vectorIS2_SaIS2_EEEENS0_5__ops15_Iter_comp_iterIPFbRKS2_SB_EEEEvT_SF_T0_+0x1ac>
  40c310:	f9401a61 	ldr	x1, [x19, #48]
  40c314:	cb000021 	sub	x1, x1, x0
  40c318:	97ffd71e 	bl	401f90 <_ZdlPvm@plt>
  40c31c:	a940f27b 	ldp	x27, x28, [x19, #8]
  40c320:	eb1c037f 	cmp	x27, x28
  40c324:	54000180 	b.eq	40c354 <_ZSt16__insertion_sortIN9__gnu_cxx17__normal_iteratorIP2PTSt6vectorIS2_SaIS2_EEEENS0_5__ops15_Iter_comp_iterIPFbRKS2_SB_EEEEvT_SF_T0_+0x1e4>  // b.none
  40c328:	aa1b03e1 	mov	x1, x27
  40c32c:	f8410420 	ldr	x0, [x1], #16
  40c330:	eb01001f 	cmp	x0, x1
  40c334:	54000080 	b.eq	40c344 <_ZSt16__insertion_sortIN9__gnu_cxx17__normal_iteratorIP2PTSt6vectorIS2_SaIS2_EEEENS0_5__ops15_Iter_comp_iterIPFbRKS2_SB_EEEEvT_SF_T0_+0x1d4>  // b.none
  40c338:	f9400b61 	ldr	x1, [x27, #16]
  40c33c:	91000421 	add	x1, x1, #0x1
  40c340:	97ffd714 	bl	401f90 <_ZdlPvm@plt>
  40c344:	9100837b 	add	x27, x27, #0x20
  40c348:	eb1b039f 	cmp	x28, x27
  40c34c:	54fffee1 	b.ne	40c328 <_ZSt16__insertion_sortIN9__gnu_cxx17__normal_iteratorIP2PTSt6vectorIS2_SaIS2_EEEENS0_5__ops15_Iter_comp_iterIPFbRKS2_SB_EEEEvT_SF_T0_+0x1b8>  // b.any
  40c350:	f940067c 	ldr	x28, [x19, #8]
  40c354:	b40000bc 	cbz	x28, 40c368 <_ZSt16__insertion_sortIN9__gnu_cxx17__normal_iteratorIP2PTSt6vectorIS2_SaIS2_EEEENS0_5__ops15_Iter_comp_iterIPFbRKS2_SB_EEEEvT_SF_T0_+0x1f8>
  40c358:	f9400e61 	ldr	x1, [x19, #24]
  40c35c:	aa1c03e0 	mov	x0, x28
  40c360:	cb1c0021 	sub	x1, x1, x28
  40c364:	97ffd70b 	bl	401f90 <_ZdlPvm@plt>
  40c368:	9102c273 	add	x19, x19, #0xb0
  40c36c:	eb15027f 	cmp	x19, x21
  40c370:	54fff981 	b.ne	40c2a0 <_ZSt16__insertion_sortIN9__gnu_cxx17__normal_iteratorIP2PTSt6vectorIS2_SaIS2_EEEENS0_5__ops15_Iter_comp_iterIPFbRKS2_SB_EEEEvT_SF_T0_+0x130>  // b.any
  40c374:	b4000096 	cbz	x22, 40c384 <_ZSt16__insertion_sortIN9__gnu_cxx17__normal_iteratorIP2PTSt6vectorIS2_SaIS2_EEEENS0_5__ops15_Iter_comp_iterIPFbRKS2_SB_EEEEvT_SF_T0_+0x214>
  40c378:	cb160341 	sub	x1, x26, x22
  40c37c:	aa1603e0 	mov	x0, x22
  40c380:	97ffd704 	bl	401f90 <_ZdlPvm@plt>
  40c384:	a9420683 	ldp	x3, x1, [x20, #32]
  40c388:	a9027e9f 	stp	xzr, xzr, [x20, #32]
  40c38c:	b9401a84 	ldr	w4, [x20, #24]
  40c390:	f9403e80 	ldr	x0, [x20, #120]
  40c394:	b9007284 	str	w4, [x20, #112]
  40c398:	f9401a82 	ldr	x2, [x20, #48]
  40c39c:	f9001a9f 	str	xzr, [x20, #48]
  40c3a0:	a9078683 	stp	x3, x1, [x20, #120]
  40c3a4:	f9404681 	ldr	x1, [x20, #136]
  40c3a8:	f9004682 	str	x2, [x20, #136]
  40c3ac:	b4000060 	cbz	x0, 40c3b8 <_ZSt16__insertion_sortIN9__gnu_cxx17__normal_iteratorIP2PTSt6vectorIS2_SaIS2_EEEENS0_5__ops15_Iter_comp_iterIPFbRKS2_SB_EEEEvT_SF_T0_+0x248>
  40c3b0:	cb000021 	sub	x1, x1, x0
  40c3b4:	97ffd6f7 	bl	401f90 <_ZdlPvm@plt>
  40c3b8:	a9438683 	ldp	x3, x1, [x20, #56]
  40c3bc:	a903fe9f 	stp	xzr, xzr, [x20, #56]
  40c3c0:	f9404a80 	ldr	x0, [x20, #144]
  40c3c4:	a9090683 	stp	x3, x1, [x20, #144]
  40c3c8:	f9402682 	ldr	x2, [x20, #72]
  40c3cc:	f900269f 	str	xzr, [x20, #72]
  40c3d0:	f9405281 	ldr	x1, [x20, #160]
  40c3d4:	f9005282 	str	x2, [x20, #160]
  40c3d8:	b4000060 	cbz	x0, 40c3e4 <_ZSt16__insertion_sortIN9__gnu_cxx17__normal_iteratorIP2PTSt6vectorIS2_SaIS2_EEEENS0_5__ops15_Iter_comp_iterIPFbRKS2_SB_EEEEvT_SF_T0_+0x274>
  40c3dc:	cb000021 	sub	x1, x1, x0
  40c3e0:	97ffd6ec 	bl	401f90 <_ZdlPvm@plt>
  40c3e4:	2d4a0281 	ldp	s1, s0, [x20, #80]
  40c3e8:	f10006f7 	subs	x23, x23, #0x1
  40c3ec:	2d150281 	stp	s1, s0, [x20, #168]
  40c3f0:	54000080 	b.eq	40c400 <_ZSt16__insertion_sortIN9__gnu_cxx17__normal_iteratorIP2PTSt6vectorIS2_SaIS2_EEEENS0_5__ops15_Iter_comp_iterIPFbRKS2_SB_EEEEvT_SF_T0_+0x290>  // b.none
  40c3f4:	a9405696 	ldp	x22, x21, [x20]
  40c3f8:	f9400a9a 	ldr	x26, [x20, #16]
  40c3fc:	17ffff9f 	b	40c278 <_ZSt16__insertion_sortIN9__gnu_cxx17__normal_iteratorIP2PTSt6vectorIS2_SaIS2_EEEENS0_5__ops15_Iter_comp_iterIPFbRKS2_SB_EEEEvT_SF_T0_+0x108>
  40c400:	a9405333 	ldp	x19, x20, [x25]
  40c404:	f94043e0 	ldr	x0, [sp, #128]
  40c408:	f9000320 	str	x0, [x25]
  40c40c:	f94047e0 	ldr	x0, [sp, #136]
  40c410:	f9000720 	str	x0, [x25, #8]
  40c414:	f9404be0 	ldr	x0, [sp, #144]
  40c418:	aa1303f6 	mov	x22, x19
  40c41c:	f9400b35 	ldr	x21, [x25, #16]
  40c420:	f9000b20 	str	x0, [x25, #16]
  40c424:	eb14027f 	cmp	x19, x20
  40c428:	540006e0 	b.eq	40c504 <_ZSt16__insertion_sortIN9__gnu_cxx17__normal_iteratorIP2PTSt6vectorIS2_SaIS2_EEEENS0_5__ops15_Iter_comp_iterIPFbRKS2_SB_EEEEvT_SF_T0_+0x394>  // b.none
  40c42c:	d503201f 	nop
  40c430:	f94046d7 	ldr	x23, [x22, #136]
  40c434:	b40000d7 	cbz	x23, 40c44c <_ZSt16__insertion_sortIN9__gnu_cxx17__normal_iteratorIP2PTSt6vectorIS2_SaIS2_EEEENS0_5__ops15_Iter_comp_iterIPFbRKS2_SB_EEEEvT_SF_T0_+0x2dc>
  40c438:	aa1703e0 	mov	x0, x23
  40c43c:	d2800201 	mov	x1, #0x10                  	// #16
  40c440:	f94002f7 	ldr	x23, [x23]
  40c444:	97ffd6d3 	bl	401f90 <_ZdlPvm@plt>
  40c448:	b5ffff97 	cbnz	x23, 40c438 <_ZSt16__insertion_sortIN9__gnu_cxx17__normal_iteratorIP2PTSt6vectorIS2_SaIS2_EEEENS0_5__ops15_Iter_comp_iterIPFbRKS2_SB_EEEEvT_SF_T0_+0x2c8>
  40c44c:	a9478ac0 	ldp	x0, x2, [x22, #120]
  40c450:	52800001 	mov	w1, #0x0                   	// #0
  40c454:	d37df042 	lsl	x2, x2, #3
  40c458:	97ffd6a6 	bl	401ef0 <memset@plt>
  40c45c:	a94786c0 	ldp	x0, x1, [x22, #120]
  40c460:	9102a2c2 	add	x2, x22, #0xa8
  40c464:	a908fedf 	stp	xzr, xzr, [x22, #136]
  40c468:	eb02001f 	cmp	x0, x2
  40c46c:	54000060 	b.eq	40c478 <_ZSt16__insertion_sortIN9__gnu_cxx17__normal_iteratorIP2PTSt6vectorIS2_SaIS2_EEEENS0_5__ops15_Iter_comp_iterIPFbRKS2_SB_EEEEvT_SF_T0_+0x308>  // b.none
  40c470:	d37df021 	lsl	x1, x1, #3
  40c474:	97ffd6c7 	bl	401f90 <_ZdlPvm@plt>
  40c478:	910102c0 	add	x0, x22, #0x40
  40c47c:	97fff711 	bl	40a0c0 <_ZNSt10_HashtableINSt7__cxx1112basic_stringIcSt11char_traitsIcESaIcEEESt4pairIKS5_iESaIS8_ENSt8__detail10_Select1stESt8equal_toIS5_ESt4hashIS5_ENSA_18_Mod_range_hashingENSA_20_Default_ranged_hashENSA_20_Prime_rehash_policyENSA_17_Hashtable_traitsILb1ELb0ELb1EEEE5clearEv>
  40c480:	a94406c0 	ldp	x0, x1, [x22, #64]
  40c484:	9101c2c2 	add	x2, x22, #0x70
  40c488:	eb02001f 	cmp	x0, x2
  40c48c:	54000060 	b.eq	40c498 <_ZSt16__insertion_sortIN9__gnu_cxx17__normal_iteratorIP2PTSt6vectorIS2_SaIS2_EEEENS0_5__ops15_Iter_comp_iterIPFbRKS2_SB_EEEEvT_SF_T0_+0x328>  // b.none
  40c490:	d37df021 	lsl	x1, x1, #3
  40c494:	97ffd6bf 	bl	401f90 <_ZdlPvm@plt>
  40c498:	f94012c0 	ldr	x0, [x22, #32]
  40c49c:	b4000080 	cbz	x0, 40c4ac <_ZSt16__insertion_sortIN9__gnu_cxx17__normal_iteratorIP2PTSt6vectorIS2_SaIS2_EEEENS0_5__ops15_Iter_comp_iterIPFbRKS2_SB_EEEEvT_SF_T0_+0x33c>
  40c4a0:	f9401ac1 	ldr	x1, [x22, #48]
  40c4a4:	cb000021 	sub	x1, x1, x0
  40c4a8:	97ffd6ba 	bl	401f90 <_ZdlPvm@plt>
  40c4ac:	a940ead7 	ldp	x23, x26, [x22, #8]
  40c4b0:	eb1a02ff 	cmp	x23, x26
  40c4b4:	54000180 	b.eq	40c4e4 <_ZSt16__insertion_sortIN9__gnu_cxx17__normal_iteratorIP2PTSt6vectorIS2_SaIS2_EEEENS0_5__ops15_Iter_comp_iterIPFbRKS2_SB_EEEEvT_SF_T0_+0x374>  // b.none
  40c4b8:	aa1703e1 	mov	x1, x23
  40c4bc:	f8410420 	ldr	x0, [x1], #16
  40c4c0:	eb01001f 	cmp	x0, x1
  40c4c4:	54000080 	b.eq	40c4d4 <_ZSt16__insertion_sortIN9__gnu_cxx17__normal_iteratorIP2PTSt6vectorIS2_SaIS2_EEEENS0_5__ops15_Iter_comp_iterIPFbRKS2_SB_EEEEvT_SF_T0_+0x364>  // b.none
  40c4c8:	f9400ae1 	ldr	x1, [x23, #16]
  40c4cc:	91000421 	add	x1, x1, #0x1
  40c4d0:	97ffd6b0 	bl	401f90 <_ZdlPvm@plt>
  40c4d4:	910082f7 	add	x23, x23, #0x20
  40c4d8:	eb17035f 	cmp	x26, x23
  40c4dc:	54fffee1 	b.ne	40c4b8 <_ZSt16__insertion_sortIN9__gnu_cxx17__normal_iteratorIP2PTSt6vectorIS2_SaIS2_EEEENS0_5__ops15_Iter_comp_iterIPFbRKS2_SB_EEEEvT_SF_T0_+0x348>  // b.any
  40c4e0:	f94006da 	ldr	x26, [x22, #8]
  40c4e4:	b40000ba 	cbz	x26, 40c4f8 <_ZSt16__insertion_sortIN9__gnu_cxx17__normal_iteratorIP2PTSt6vectorIS2_SaIS2_EEEENS0_5__ops15_Iter_comp_iterIPFbRKS2_SB_EEEEvT_SF_T0_+0x388>
  40c4e8:	f9400ec1 	ldr	x1, [x22, #24]
  40c4ec:	aa1a03e0 	mov	x0, x26
  40c4f0:	cb1a0021 	sub	x1, x1, x26
  40c4f4:	97ffd6a7 	bl	401f90 <_ZdlPvm@plt>
  40c4f8:	9102c2d6 	add	x22, x22, #0xb0
  40c4fc:	eb16029f 	cmp	x20, x22
  40c500:	54fff981 	b.ne	40c430 <_ZSt16__insertion_sortIN9__gnu_cxx17__normal_iteratorIP2PTSt6vectorIS2_SaIS2_EEEENS0_5__ops15_Iter_comp_iterIPFbRKS2_SB_EEEEvT_SF_T0_+0x2c0>  // b.any
  40c504:	b4000093 	cbz	x19, 40c514 <_ZSt16__insertion_sortIN9__gnu_cxx17__normal_iteratorIP2PTSt6vectorIS2_SaIS2_EEEENS0_5__ops15_Iter_comp_iterIPFbRKS2_SB_EEEEvT_SF_T0_+0x3a4>
  40c508:	cb1302a1 	sub	x1, x21, x19
  40c50c:	aa1303e0 	mov	x0, x19
  40c510:	97ffd6a0 	bl	401f90 <_ZdlPvm@plt>
  40c514:	b9409fe0 	ldr	w0, [sp, #156]
  40c518:	f94053e3 	ldr	x3, [sp, #160]
  40c51c:	b9001b20 	str	w0, [x25, #24]
  40c520:	f9401320 	ldr	x0, [x25, #32]
  40c524:	f9001323 	str	x3, [x25, #32]
  40c528:	f94057e3 	ldr	x3, [sp, #168]
  40c52c:	f9001723 	str	x3, [x25, #40]
  40c530:	f9405be3 	ldr	x3, [sp, #176]
  40c534:	f9401b21 	ldr	x1, [x25, #48]
  40c538:	f9001b23 	str	x3, [x25, #48]
  40c53c:	b4000060 	cbz	x0, 40c548 <_ZSt16__insertion_sortIN9__gnu_cxx17__normal_iteratorIP2PTSt6vectorIS2_SaIS2_EEEENS0_5__ops15_Iter_comp_iterIPFbRKS2_SB_EEEEvT_SF_T0_+0x3d8>
  40c540:	cb000021 	sub	x1, x1, x0
  40c544:	97ffd693 	bl	401f90 <_ZdlPvm@plt>
  40c548:	f9405fe3 	ldr	x3, [sp, #184]
  40c54c:	f9401f20 	ldr	x0, [x25, #56]
  40c550:	f9001f23 	str	x3, [x25, #56]
  40c554:	f94063e3 	ldr	x3, [sp, #192]
  40c558:	f9002323 	str	x3, [x25, #64]
  40c55c:	f94067e3 	ldr	x3, [sp, #200]
  40c560:	f9402721 	ldr	x1, [x25, #72]
  40c564:	f9002723 	str	x3, [x25, #72]
  40c568:	b4000060 	cbz	x0, 40c574 <_ZSt16__insertion_sortIN9__gnu_cxx17__normal_iteratorIP2PTSt6vectorIS2_SaIS2_EEEENS0_5__ops15_Iter_comp_iterIPFbRKS2_SB_EEEEvT_SF_T0_+0x404>
  40c56c:	cb000021 	sub	x1, x1, x0
  40c570:	97ffd688 	bl	401f90 <_ZdlPvm@plt>
  40c574:	2d0a2329 	stp	s9, s8, [x25, #80]
  40c578:	f9403fe0 	ldr	x0, [sp, #120]
  40c57c:	eb18001f 	cmp	x0, x24
  40c580:	54ffe161 	b.ne	40c1ac <_ZSt16__insertion_sortIN9__gnu_cxx17__normal_iteratorIP2PTSt6vectorIS2_SaIS2_EEEENS0_5__ops15_Iter_comp_iterIPFbRKS2_SB_EEEEvT_SF_T0_+0x3c>  // b.any
  40c584:	a94153f3 	ldp	x19, x20, [sp, #16]
  40c588:	a9425bf5 	ldp	x21, x22, [sp, #32]
  40c58c:	a94363f7 	ldp	x23, x24, [sp, #48]
  40c590:	a94573fb 	ldp	x27, x28, [sp, #80]
  40c594:	6d4627e8 	ldp	d8, d9, [sp, #96]
  40c598:	a9446bf9 	ldp	x25, x26, [sp, #64]
  40c59c:	a8cd7bfd 	ldp	x29, x30, [sp], #208
  40c5a0:	d65f03c0 	ret
  40c5a4:	f9403be1 	ldr	x1, [sp, #112]
  40c5a8:	aa1403e0 	mov	x0, x20
  40c5ac:	97fffe59 	bl	40bf10 <_ZSt25__unguarded_linear_insertIN9__gnu_cxx17__normal_iteratorIP2PTSt6vectorIS2_SaIS2_EEEENS0_5__ops14_Val_comp_iterIPFbRKS2_SB_EEEEvT_T0_>
  40c5b0:	17fffff2 	b	40c578 <_ZSt16__insertion_sortIN9__gnu_cxx17__normal_iteratorIP2PTSt6vectorIS2_SaIS2_EEEENS0_5__ops15_Iter_comp_iterIPFbRKS2_SB_EEEEvT_SF_T0_+0x408>
  40c5b4:	a94363f7 	ldp	x23, x24, [sp, #48]
  40c5b8:	17fffff8 	b	40c598 <_ZSt16__insertion_sortIN9__gnu_cxx17__normal_iteratorIP2PTSt6vectorIS2_SaIS2_EEEENS0_5__ops15_Iter_comp_iterIPFbRKS2_SB_EEEEvT_SF_T0_+0x428>
  40c5bc:	d503201f 	nop

000000000040c5c0 <_ZSt13__adjust_heapIN9__gnu_cxx17__normal_iteratorIP2PTSt6vectorIS2_SaIS2_EEEElS2_NS0_5__ops15_Iter_comp_iterIPFbRKS2_SB_EEEEvT_T0_SG_T1_T2_>:
  40c5c0:	a9b17bfd 	stp	x29, x30, [sp, #-240]!
  40c5c4:	aa0103e5 	mov	x5, x1
  40c5c8:	910003fd 	mov	x29, sp
  40c5cc:	f9003be1 	str	x1, [sp, #112]
  40c5d0:	d1000441 	sub	x1, x2, #0x1
  40c5d4:	a90153f3 	stp	x19, x20, [sp, #16]
  40c5d8:	8b41fc21 	add	x1, x1, x1, lsr #63
  40c5dc:	a9025bf5 	stp	x21, x22, [sp, #32]
  40c5e0:	aa0003f6 	mov	x22, x0
  40c5e4:	9341fc20 	asr	x0, x1, #1
  40c5e8:	a90363f7 	stp	x23, x24, [sp, #48]
  40c5ec:	a9046bf9 	stp	x25, x26, [sp, #64]
  40c5f0:	a90573fb 	stp	x27, x28, [sp, #80]
  40c5f4:	f90033e4 	str	x4, [sp, #96]
  40c5f8:	f9003fe0 	str	x0, [sp, #120]
  40c5fc:	a9080fe2 	stp	x2, x3, [sp, #128]
  40c600:	eb0000bf 	cmp	x5, x0
  40c604:	540026ea 	b.ge	40cae0 <_ZSt13__adjust_heapIN9__gnu_cxx17__normal_iteratorIP2PTSt6vectorIS2_SaIS2_EEEElS2_NS0_5__ops15_Iter_comp_iterIPFbRKS2_SB_EEEEvT_T0_SG_T1_T2_+0x520>  // b.tcont
  40c608:	aa0503f9 	mov	x25, x5
  40c60c:	d503201f 	nop
  40c610:	91000720 	add	x0, x25, #0x1
  40c614:	f94033e2 	ldr	x2, [sp, #96]
  40c618:	d37ff818 	lsl	x24, x0, #1
  40c61c:	d1000715 	sub	x21, x24, #0x1
  40c620:	8b000b14 	add	x20, x24, x0, lsl #2
  40c624:	8b1506b3 	add	x19, x21, x21, lsl #1
  40c628:	d37ef694 	lsl	x20, x20, #2
  40c62c:	cb180294 	sub	x20, x20, x24
  40c630:	d37ef673 	lsl	x19, x19, #2
  40c634:	cb150273 	sub	x19, x19, x21
  40c638:	8b140ed4 	add	x20, x22, x20, lsl #3
  40c63c:	aa1403e0 	mov	x0, x20
  40c640:	8b130ed3 	add	x19, x22, x19, lsl #3
  40c644:	aa1303e1 	mov	x1, x19
  40c648:	d63f0040 	blr	x2
  40c64c:	8b190721 	add	x1, x25, x25, lsl #1
  40c650:	72001c02 	ands	w2, w0, #0xff
  40c654:	9a930294 	csel	x20, x20, x19, eq  // eq = none
  40c658:	d37ef420 	lsl	x0, x1, #2
  40c65c:	cb190000 	sub	x0, x0, x25
  40c660:	9a950319 	csel	x25, x24, x21, eq  // eq = none
  40c664:	a9400682 	ldp	x2, x1, [x20]
  40c668:	8b000ed5 	add	x21, x22, x0, lsl #3
  40c66c:	f8607ada 	ldr	x26, [x22, x0, lsl #3]
  40c670:	aa1903f8 	mov	x24, x25
  40c674:	a9408eb7 	ldp	x23, x3, [x21, #8]
  40c678:	f8207ac2 	str	x2, [x22, x0, lsl #3]
  40c67c:	f9400a80 	ldr	x0, [x20, #16]
  40c680:	a90082a1 	stp	x1, x0, [x21, #8]
  40c684:	aa1a03f3 	mov	x19, x26
  40c688:	a9007e9f 	stp	xzr, xzr, [x20]
  40c68c:	f9000a9f 	str	xzr, [x20, #16]
  40c690:	f90037e3 	str	x3, [sp, #104]
  40c694:	eb17035f 	cmp	x26, x23
  40c698:	540006e0 	b.eq	40c774 <_ZSt13__adjust_heapIN9__gnu_cxx17__normal_iteratorIP2PTSt6vectorIS2_SaIS2_EEEElS2_NS0_5__ops15_Iter_comp_iterIPFbRKS2_SB_EEEEvT_T0_SG_T1_T2_+0x1b4>  // b.none
  40c69c:	d503201f 	nop
  40c6a0:	f940467b 	ldr	x27, [x19, #136]
  40c6a4:	b40000db 	cbz	x27, 40c6bc <_ZSt13__adjust_heapIN9__gnu_cxx17__normal_iteratorIP2PTSt6vectorIS2_SaIS2_EEEElS2_NS0_5__ops15_Iter_comp_iterIPFbRKS2_SB_EEEEvT_T0_SG_T1_T2_+0xfc>
  40c6a8:	aa1b03e0 	mov	x0, x27
  40c6ac:	d2800201 	mov	x1, #0x10                  	// #16
  40c6b0:	f940037b 	ldr	x27, [x27]
  40c6b4:	97ffd637 	bl	401f90 <_ZdlPvm@plt>
  40c6b8:	b5ffff9b 	cbnz	x27, 40c6a8 <_ZSt13__adjust_heapIN9__gnu_cxx17__normal_iteratorIP2PTSt6vectorIS2_SaIS2_EEEElS2_NS0_5__ops15_Iter_comp_iterIPFbRKS2_SB_EEEEvT_T0_SG_T1_T2_+0xe8>
  40c6bc:	a9478a60 	ldp	x0, x2, [x19, #120]
  40c6c0:	52800001 	mov	w1, #0x0                   	// #0
  40c6c4:	d37df042 	lsl	x2, x2, #3
  40c6c8:	97ffd60a 	bl	401ef0 <memset@plt>
  40c6cc:	a9478660 	ldp	x0, x1, [x19, #120]
  40c6d0:	9102a262 	add	x2, x19, #0xa8
  40c6d4:	a908fe7f 	stp	xzr, xzr, [x19, #136]
  40c6d8:	eb02001f 	cmp	x0, x2
  40c6dc:	54000060 	b.eq	40c6e8 <_ZSt13__adjust_heapIN9__gnu_cxx17__normal_iteratorIP2PTSt6vectorIS2_SaIS2_EEEElS2_NS0_5__ops15_Iter_comp_iterIPFbRKS2_SB_EEEEvT_T0_SG_T1_T2_+0x128>  // b.none
  40c6e0:	d37df021 	lsl	x1, x1, #3
  40c6e4:	97ffd62b 	bl	401f90 <_ZdlPvm@plt>
  40c6e8:	91010260 	add	x0, x19, #0x40
  40c6ec:	97fff675 	bl	40a0c0 <_ZNSt10_HashtableINSt7__cxx1112basic_stringIcSt11char_traitsIcESaIcEEESt4pairIKS5_iESaIS8_ENSt8__detail10_Select1stESt8equal_toIS5_ESt4hashIS5_ENSA_18_Mod_range_hashingENSA_20_Default_ranged_hashENSA_20_Prime_rehash_policyENSA_17_Hashtable_traitsILb1ELb0ELb1EEEE5clearEv>
  40c6f0:	a9440660 	ldp	x0, x1, [x19, #64]
  40c6f4:	9101c262 	add	x2, x19, #0x70
  40c6f8:	eb02001f 	cmp	x0, x2
  40c6fc:	54000060 	b.eq	40c708 <_ZSt13__adjust_heapIN9__gnu_cxx17__normal_iteratorIP2PTSt6vectorIS2_SaIS2_EEEElS2_NS0_5__ops15_Iter_comp_iterIPFbRKS2_SB_EEEEvT_T0_SG_T1_T2_+0x148>  // b.none
  40c700:	d37df021 	lsl	x1, x1, #3
  40c704:	97ffd623 	bl	401f90 <_ZdlPvm@plt>
  40c708:	f9401260 	ldr	x0, [x19, #32]
  40c70c:	b4000080 	cbz	x0, 40c71c <_ZSt13__adjust_heapIN9__gnu_cxx17__normal_iteratorIP2PTSt6vectorIS2_SaIS2_EEEElS2_NS0_5__ops15_Iter_comp_iterIPFbRKS2_SB_EEEEvT_T0_SG_T1_T2_+0x15c>
  40c710:	f9401a61 	ldr	x1, [x19, #48]
  40c714:	cb000021 	sub	x1, x1, x0
  40c718:	97ffd61e 	bl	401f90 <_ZdlPvm@plt>
  40c71c:	a940ee7c 	ldp	x28, x27, [x19, #8]
  40c720:	eb1b039f 	cmp	x28, x27
  40c724:	54000180 	b.eq	40c754 <_ZSt13__adjust_heapIN9__gnu_cxx17__normal_iteratorIP2PTSt6vectorIS2_SaIS2_EEEElS2_NS0_5__ops15_Iter_comp_iterIPFbRKS2_SB_EEEEvT_T0_SG_T1_T2_+0x194>  // b.none
  40c728:	aa1c03e1 	mov	x1, x28
  40c72c:	f8410420 	ldr	x0, [x1], #16
  40c730:	eb01001f 	cmp	x0, x1
  40c734:	54000080 	b.eq	40c744 <_ZSt13__adjust_heapIN9__gnu_cxx17__normal_iteratorIP2PTSt6vectorIS2_SaIS2_EEEElS2_NS0_5__ops15_Iter_comp_iterIPFbRKS2_SB_EEEEvT_T0_SG_T1_T2_+0x184>  // b.none
  40c738:	f9400b81 	ldr	x1, [x28, #16]
  40c73c:	91000421 	add	x1, x1, #0x1
  40c740:	97ffd614 	bl	401f90 <_ZdlPvm@plt>
  40c744:	9100839c 	add	x28, x28, #0x20
  40c748:	eb1c037f 	cmp	x27, x28
  40c74c:	54fffee1 	b.ne	40c728 <_ZSt13__adjust_heapIN9__gnu_cxx17__normal_iteratorIP2PTSt6vectorIS2_SaIS2_EEEElS2_NS0_5__ops15_Iter_comp_iterIPFbRKS2_SB_EEEEvT_T0_SG_T1_T2_+0x168>  // b.any
  40c750:	f940067b 	ldr	x27, [x19, #8]
  40c754:	b40000bb 	cbz	x27, 40c768 <_ZSt13__adjust_heapIN9__gnu_cxx17__normal_iteratorIP2PTSt6vectorIS2_SaIS2_EEEElS2_NS0_5__ops15_Iter_comp_iterIPFbRKS2_SB_EEEEvT_T0_SG_T1_T2_+0x1a8>
  40c758:	f9400e61 	ldr	x1, [x19, #24]
  40c75c:	aa1b03e0 	mov	x0, x27
  40c760:	cb1b0021 	sub	x1, x1, x27
  40c764:	97ffd60b 	bl	401f90 <_ZdlPvm@plt>
  40c768:	9102c273 	add	x19, x19, #0xb0
  40c76c:	eb1302ff 	cmp	x23, x19
  40c770:	54fff981 	b.ne	40c6a0 <_ZSt13__adjust_heapIN9__gnu_cxx17__normal_iteratorIP2PTSt6vectorIS2_SaIS2_EEEElS2_NS0_5__ops15_Iter_comp_iterIPFbRKS2_SB_EEEEvT_T0_SG_T1_T2_+0xe0>  // b.any
  40c774:	b40000ba 	cbz	x26, 40c788 <_ZSt13__adjust_heapIN9__gnu_cxx17__normal_iteratorIP2PTSt6vectorIS2_SaIS2_EEEElS2_NS0_5__ops15_Iter_comp_iterIPFbRKS2_SB_EEEEvT_T0_SG_T1_T2_+0x1c8>
  40c778:	f94037e0 	ldr	x0, [sp, #104]
  40c77c:	cb1a0001 	sub	x1, x0, x26
  40c780:	aa1a03e0 	mov	x0, x26
  40c784:	97ffd603 	bl	401f90 <_ZdlPvm@plt>
  40c788:	b9401a80 	ldr	w0, [x20, #24]
  40c78c:	a9421686 	ldp	x6, x5, [x20, #32]
  40c790:	f9401a84 	ldr	x4, [x20, #48]
  40c794:	b9001aa0 	str	w0, [x21, #24]
  40c798:	f94012a0 	ldr	x0, [x21, #32]
  40c79c:	f90012a6 	str	x6, [x21, #32]
  40c7a0:	f9401aa1 	ldr	x1, [x21, #48]
  40c7a4:	a90292a5 	stp	x5, x4, [x21, #40]
  40c7a8:	a9027e9f 	stp	xzr, xzr, [x20, #32]
  40c7ac:	f9001a9f 	str	xzr, [x20, #48]
  40c7b0:	b4000060 	cbz	x0, 40c7bc <_ZSt13__adjust_heapIN9__gnu_cxx17__normal_iteratorIP2PTSt6vectorIS2_SaIS2_EEEElS2_NS0_5__ops15_Iter_comp_iterIPFbRKS2_SB_EEEEvT_T0_SG_T1_T2_+0x1fc>
  40c7b4:	cb000021 	sub	x1, x1, x0
  40c7b8:	97ffd5f6 	bl	401f90 <_ZdlPvm@plt>
  40c7bc:	a9439686 	ldp	x6, x5, [x20, #56]
  40c7c0:	f9401ea0 	ldr	x0, [x21, #56]
  40c7c4:	f9402684 	ldr	x4, [x20, #72]
  40c7c8:	a90396a6 	stp	x6, x5, [x21, #56]
  40c7cc:	f94026a1 	ldr	x1, [x21, #72]
  40c7d0:	f90026a4 	str	x4, [x21, #72]
  40c7d4:	a903fe9f 	stp	xzr, xzr, [x20, #56]
  40c7d8:	f900269f 	str	xzr, [x20, #72]
  40c7dc:	b4000060 	cbz	x0, 40c7e8 <_ZSt13__adjust_heapIN9__gnu_cxx17__normal_iteratorIP2PTSt6vectorIS2_SaIS2_EEEElS2_NS0_5__ops15_Iter_comp_iterIPFbRKS2_SB_EEEEvT_T0_SG_T1_T2_+0x228>
  40c7e0:	cb000021 	sub	x1, x1, x0
  40c7e4:	97ffd5eb 	bl	401f90 <_ZdlPvm@plt>
  40c7e8:	2d4a0281 	ldp	s1, s0, [x20, #80]
  40c7ec:	f9403fe0 	ldr	x0, [sp, #120]
  40c7f0:	2d0a02a1 	stp	s1, s0, [x21, #80]
  40c7f4:	eb00033f 	cmp	x25, x0
  40c7f8:	54fff0cb 	b.lt	40c610 <_ZSt13__adjust_heapIN9__gnu_cxx17__normal_iteratorIP2PTSt6vectorIS2_SaIS2_EEEElS2_NS0_5__ops15_Iter_comp_iterIPFbRKS2_SB_EEEEvT_T0_SG_T1_T2_+0x50>  // b.tstop
  40c7fc:	f94043e0 	ldr	x0, [sp, #128]
  40c800:	370000a0 	tbnz	w0, #0, 40c814 <_ZSt13__adjust_heapIN9__gnu_cxx17__normal_iteratorIP2PTSt6vectorIS2_SaIS2_EEEElS2_NS0_5__ops15_Iter_comp_iterIPFbRKS2_SB_EEEEvT_T0_SG_T1_T2_+0x254>
  40c804:	d1000800 	sub	x0, x0, #0x2
  40c808:	8b40fc00 	add	x0, x0, x0, lsr #63
  40c80c:	eb80071f 	cmp	x24, x0, asr #1
  40c810:	54001500 	b.eq	40cab0 <_ZSt13__adjust_heapIN9__gnu_cxx17__normal_iteratorIP2PTSt6vectorIS2_SaIS2_EEEElS2_NS0_5__ops15_Iter_comp_iterIPFbRKS2_SB_EEEEvT_T0_SG_T1_T2_+0x4f0>  // b.none
  40c814:	f94047e7 	ldr	x7, [sp, #136]
  40c818:	d1000700 	sub	x0, x24, #0x1
  40c81c:	910080e2 	add	x2, x7, #0x20
  40c820:	8b40fc00 	add	x0, x0, x0, lsr #63
  40c824:	9100e0e1 	add	x1, x7, #0x38
  40c828:	b94018e8 	ldr	w8, [x7, #24]
  40c82c:	9341fc19 	asr	x25, x0, #1
  40c830:	aa0703e0 	mov	x0, x7
  40c834:	a94024e3 	ldp	x3, x9, [x7]
  40c838:	a9007cff 	stp	xzr, xzr, [x7]
  40c83c:	f94008e4 	ldr	x4, [x7, #16]
  40c840:	f90008ff 	str	xzr, [x7, #16]
  40c844:	f90057e4 	str	x4, [sp, #168]
  40c848:	a94294e6 	ldp	x6, x5, [x7, #40]
  40c84c:	a909a7e3 	stp	x3, x9, [sp, #152]
  40c850:	f9401ce4 	ldr	x4, [x7, #56]
  40c854:	b900b3e8 	str	w8, [sp, #176]
  40c858:	f94010e7 	ldr	x7, [x7, #32]
  40c85c:	a900fc5f 	stp	xzr, xzr, [x2, #8]
  40c860:	a9408823 	ldp	x3, x2, [x1, #8]
  40c864:	f900101f 	str	xzr, [x0, #32]
  40c868:	a900fc3f 	stp	xzr, xzr, [x1, #8]
  40c86c:	aa0003e1 	mov	x1, x0
  40c870:	f9402800 	ldr	x0, [x0, #80]
  40c874:	f9001c3f 	str	xzr, [x1, #56]
  40c878:	f9005fe7 	str	x7, [sp, #184]
  40c87c:	a90c17e6 	stp	x6, x5, [sp, #192]
  40c880:	a90d0fe4 	stp	x4, x3, [sp, #208]
  40c884:	a90e03e2 	stp	x2, x0, [sp, #224]
  40c888:	f9403be0 	ldr	x0, [sp, #112]
  40c88c:	eb00031f 	cmp	x24, x0
  40c890:	540012cd 	b.le	40cae8 <_ZSt13__adjust_heapIN9__gnu_cxx17__normal_iteratorIP2PTSt6vectorIS2_SaIS2_EEEElS2_NS0_5__ops15_Iter_comp_iterIPFbRKS2_SB_EEEEvT_T0_SG_T1_T2_+0x528>
  40c894:	910263fc 	add	x28, sp, #0x98
  40c898:	8b190737 	add	x23, x25, x25, lsl #1
  40c89c:	aa1c03e1 	mov	x1, x28
  40c8a0:	f94033e2 	ldr	x2, [sp, #96]
  40c8a4:	d37ef6f7 	lsl	x23, x23, #2
  40c8a8:	cb1902f7 	sub	x23, x23, x25
  40c8ac:	8b170ed4 	add	x20, x22, x23, lsl #3
  40c8b0:	aa1403e0 	mov	x0, x20
  40c8b4:	d63f0040 	blr	x2
  40c8b8:	8b180701 	add	x1, x24, x24, lsl #1
  40c8bc:	d37ef421 	lsl	x1, x1, #2
  40c8c0:	cb180021 	sub	x1, x1, x24
  40c8c4:	8b010ed5 	add	x21, x22, x1, lsl #3
  40c8c8:	72001c1f 	tst	w0, #0xff
  40c8cc:	54000da0 	b.eq	40ca80 <_ZSt13__adjust_heapIN9__gnu_cxx17__normal_iteratorIP2PTSt6vectorIS2_SaIS2_EEEElS2_NS0_5__ops15_Iter_comp_iterIPFbRKS2_SB_EEEEvT_T0_SG_T1_T2_+0x4c0>  // b.none
  40c8d0:	a9408eb8 	ldp	x24, x3, [x21, #8]
  40c8d4:	f90037e3 	str	x3, [sp, #104]
  40c8d8:	f8777ac0 	ldr	x0, [x22, x23, lsl #3]
  40c8dc:	f8617ada 	ldr	x26, [x22, x1, lsl #3]
  40c8e0:	f9400682 	ldr	x2, [x20, #8]
  40c8e4:	f8217ac0 	str	x0, [x22, x1, lsl #3]
  40c8e8:	f9400a80 	ldr	x0, [x20, #16]
  40c8ec:	a90082a2 	stp	x2, x0, [x21, #8]
  40c8f0:	aa1a03f3 	mov	x19, x26
  40c8f4:	f8377adf 	str	xzr, [x22, x23, lsl #3]
  40c8f8:	a900fe9f 	stp	xzr, xzr, [x20, #8]
  40c8fc:	eb18035f 	cmp	x26, x24
  40c900:	540006e0 	b.eq	40c9dc <_ZSt13__adjust_heapIN9__gnu_cxx17__normal_iteratorIP2PTSt6vectorIS2_SaIS2_EEEElS2_NS0_5__ops15_Iter_comp_iterIPFbRKS2_SB_EEEEvT_T0_SG_T1_T2_+0x41c>  // b.none
  40c904:	d503201f 	nop
  40c908:	f9404677 	ldr	x23, [x19, #136]
  40c90c:	b40000d7 	cbz	x23, 40c924 <_ZSt13__adjust_heapIN9__gnu_cxx17__normal_iteratorIP2PTSt6vectorIS2_SaIS2_EEEElS2_NS0_5__ops15_Iter_comp_iterIPFbRKS2_SB_EEEEvT_T0_SG_T1_T2_+0x364>
  40c910:	aa1703e0 	mov	x0, x23
  40c914:	d2800201 	mov	x1, #0x10                  	// #16
  40c918:	f94002f7 	ldr	x23, [x23]
  40c91c:	97ffd59d 	bl	401f90 <_ZdlPvm@plt>
  40c920:	b5ffff97 	cbnz	x23, 40c910 <_ZSt13__adjust_heapIN9__gnu_cxx17__normal_iteratorIP2PTSt6vectorIS2_SaIS2_EEEElS2_NS0_5__ops15_Iter_comp_iterIPFbRKS2_SB_EEEEvT_T0_SG_T1_T2_+0x350>
  40c924:	a9478a60 	ldp	x0, x2, [x19, #120]
  40c928:	52800001 	mov	w1, #0x0                   	// #0
  40c92c:	d37df042 	lsl	x2, x2, #3
  40c930:	97ffd570 	bl	401ef0 <memset@plt>
  40c934:	a9478660 	ldp	x0, x1, [x19, #120]
  40c938:	9102a262 	add	x2, x19, #0xa8
  40c93c:	a908fe7f 	stp	xzr, xzr, [x19, #136]
  40c940:	eb02001f 	cmp	x0, x2
  40c944:	54000060 	b.eq	40c950 <_ZSt13__adjust_heapIN9__gnu_cxx17__normal_iteratorIP2PTSt6vectorIS2_SaIS2_EEEElS2_NS0_5__ops15_Iter_comp_iterIPFbRKS2_SB_EEEEvT_T0_SG_T1_T2_+0x390>  // b.none
  40c948:	d37df021 	lsl	x1, x1, #3
  40c94c:	97ffd591 	bl	401f90 <_ZdlPvm@plt>
  40c950:	91010260 	add	x0, x19, #0x40
  40c954:	97fff5db 	bl	40a0c0 <_ZNSt10_HashtableINSt7__cxx1112basic_stringIcSt11char_traitsIcESaIcEEESt4pairIKS5_iESaIS8_ENSt8__detail10_Select1stESt8equal_toIS5_ESt4hashIS5_ENSA_18_Mod_range_hashingENSA_20_Default_ranged_hashENSA_20_Prime_rehash_policyENSA_17_Hashtable_traitsILb1ELb0ELb1EEEE5clearEv>
  40c958:	a9440660 	ldp	x0, x1, [x19, #64]
  40c95c:	9101c262 	add	x2, x19, #0x70
  40c960:	eb02001f 	cmp	x0, x2
  40c964:	54000060 	b.eq	40c970 <_ZSt13__adjust_heapIN9__gnu_cxx17__normal_iteratorIP2PTSt6vectorIS2_SaIS2_EEEElS2_NS0_5__ops15_Iter_comp_iterIPFbRKS2_SB_EEEEvT_T0_SG_T1_T2_+0x3b0>  // b.none
  40c968:	d37df021 	lsl	x1, x1, #3
  40c96c:	97ffd589 	bl	401f90 <_ZdlPvm@plt>
  40c970:	f9401260 	ldr	x0, [x19, #32]
  40c974:	b4000080 	cbz	x0, 40c984 <_ZSt13__adjust_heapIN9__gnu_cxx17__normal_iteratorIP2PTSt6vectorIS2_SaIS2_EEEElS2_NS0_5__ops15_Iter_comp_iterIPFbRKS2_SB_EEEEvT_T0_SG_T1_T2_+0x3c4>
  40c978:	f9401a61 	ldr	x1, [x19, #48]
  40c97c:	cb000021 	sub	x1, x1, x0
  40c980:	97ffd584 	bl	401f90 <_ZdlPvm@plt>
  40c984:	a940ee77 	ldp	x23, x27, [x19, #8]
  40c988:	eb1b02ff 	cmp	x23, x27
  40c98c:	54000180 	b.eq	40c9bc <_ZSt13__adjust_heapIN9__gnu_cxx17__normal_iteratorIP2PTSt6vectorIS2_SaIS2_EEEElS2_NS0_5__ops15_Iter_comp_iterIPFbRKS2_SB_EEEEvT_T0_SG_T1_T2_+0x3fc>  // b.none
  40c990:	aa1703e1 	mov	x1, x23
  40c994:	f8410420 	ldr	x0, [x1], #16
  40c998:	eb01001f 	cmp	x0, x1
  40c99c:	54000080 	b.eq	40c9ac <_ZSt13__adjust_heapIN9__gnu_cxx17__normal_iteratorIP2PTSt6vectorIS2_SaIS2_EEEElS2_NS0_5__ops15_Iter_comp_iterIPFbRKS2_SB_EEEEvT_T0_SG_T1_T2_+0x3ec>  // b.none
  40c9a0:	f9400ae1 	ldr	x1, [x23, #16]
  40c9a4:	91000421 	add	x1, x1, #0x1
  40c9a8:	97ffd57a 	bl	401f90 <_ZdlPvm@plt>
  40c9ac:	910082f7 	add	x23, x23, #0x20
  40c9b0:	eb17037f 	cmp	x27, x23
  40c9b4:	54fffee1 	b.ne	40c990 <_ZSt13__adjust_heapIN9__gnu_cxx17__normal_iteratorIP2PTSt6vectorIS2_SaIS2_EEEElS2_NS0_5__ops15_Iter_comp_iterIPFbRKS2_SB_EEEEvT_T0_SG_T1_T2_+0x3d0>  // b.any
  40c9b8:	f940067b 	ldr	x27, [x19, #8]
  40c9bc:	b40000bb 	cbz	x27, 40c9d0 <_ZSt13__adjust_heapIN9__gnu_cxx17__normal_iteratorIP2PTSt6vectorIS2_SaIS2_EEEElS2_NS0_5__ops15_Iter_comp_iterIPFbRKS2_SB_EEEEvT_T0_SG_T1_T2_+0x410>
  40c9c0:	f9400e61 	ldr	x1, [x19, #24]
  40c9c4:	aa1b03e0 	mov	x0, x27
  40c9c8:	cb1b0021 	sub	x1, x1, x27
  40c9cc:	97ffd571 	bl	401f90 <_ZdlPvm@plt>
  40c9d0:	9102c273 	add	x19, x19, #0xb0
  40c9d4:	eb13031f 	cmp	x24, x19
  40c9d8:	54fff981 	b.ne	40c908 <_ZSt13__adjust_heapIN9__gnu_cxx17__normal_iteratorIP2PTSt6vectorIS2_SaIS2_EEEElS2_NS0_5__ops15_Iter_comp_iterIPFbRKS2_SB_EEEEvT_T0_SG_T1_T2_+0x348>  // b.any
  40c9dc:	b40000ba 	cbz	x26, 40c9f0 <_ZSt13__adjust_heapIN9__gnu_cxx17__normal_iteratorIP2PTSt6vectorIS2_SaIS2_EEEElS2_NS0_5__ops15_Iter_comp_iterIPFbRKS2_SB_EEEEvT_T0_SG_T1_T2_+0x430>
  40c9e0:	f94037e0 	ldr	x0, [sp, #104]
  40c9e4:	cb1a0001 	sub	x1, x0, x26
  40c9e8:	aa1a03e0 	mov	x0, x26
  40c9ec:	97ffd569 	bl	401f90 <_ZdlPvm@plt>
  40c9f0:	b9401a80 	ldr	w0, [x20, #24]
  40c9f4:	a9421686 	ldp	x6, x5, [x20, #32]
  40c9f8:	f9401a84 	ldr	x4, [x20, #48]
  40c9fc:	b9001aa0 	str	w0, [x21, #24]
  40ca00:	f94012a0 	ldr	x0, [x21, #32]
  40ca04:	f90012a6 	str	x6, [x21, #32]
  40ca08:	f9401aa1 	ldr	x1, [x21, #48]
  40ca0c:	a90292a5 	stp	x5, x4, [x21, #40]
  40ca10:	a9027e9f 	stp	xzr, xzr, [x20, #32]
  40ca14:	f9001a9f 	str	xzr, [x20, #48]
  40ca18:	b4000060 	cbz	x0, 40ca24 <_ZSt13__adjust_heapIN9__gnu_cxx17__normal_iteratorIP2PTSt6vectorIS2_SaIS2_EEEElS2_NS0_5__ops15_Iter_comp_iterIPFbRKS2_SB_EEEEvT_T0_SG_T1_T2_+0x464>
  40ca1c:	cb000021 	sub	x1, x1, x0
  40ca20:	97ffd55c 	bl	401f90 <_ZdlPvm@plt>
  40ca24:	a9439686 	ldp	x6, x5, [x20, #56]
  40ca28:	f9401ea0 	ldr	x0, [x21, #56]
  40ca2c:	f9402684 	ldr	x4, [x20, #72]
  40ca30:	a90396a6 	stp	x6, x5, [x21, #56]
  40ca34:	f94026a1 	ldr	x1, [x21, #72]
  40ca38:	f90026a4 	str	x4, [x21, #72]
  40ca3c:	a903fe9f 	stp	xzr, xzr, [x20, #56]
  40ca40:	f900269f 	str	xzr, [x20, #72]
  40ca44:	b4000060 	cbz	x0, 40ca50 <_ZSt13__adjust_heapIN9__gnu_cxx17__normal_iteratorIP2PTSt6vectorIS2_SaIS2_EEEElS2_NS0_5__ops15_Iter_comp_iterIPFbRKS2_SB_EEEEvT_T0_SG_T1_T2_+0x490>
  40ca48:	cb000021 	sub	x1, x1, x0
  40ca4c:	97ffd551 	bl	401f90 <_ZdlPvm@plt>
  40ca50:	2d4a0281 	ldp	s1, s0, [x20, #80]
  40ca54:	d1000720 	sub	x0, x25, #0x1
  40ca58:	f9403be1 	ldr	x1, [sp, #112]
  40ca5c:	8b40fc00 	add	x0, x0, x0, lsr #63
  40ca60:	2d0a02a1 	stp	s1, s0, [x21, #80]
  40ca64:	aa1903f8 	mov	x24, x25
  40ca68:	9341fc00 	asr	x0, x0, #1
  40ca6c:	eb19003f 	cmp	x1, x25
  40ca70:	5400006a 	b.ge	40ca7c <_ZSt13__adjust_heapIN9__gnu_cxx17__normal_iteratorIP2PTSt6vectorIS2_SaIS2_EEEElS2_NS0_5__ops15_Iter_comp_iterIPFbRKS2_SB_EEEEvT_T0_SG_T1_T2_+0x4bc>  // b.tcont
  40ca74:	aa0003f9 	mov	x25, x0
  40ca78:	17ffff88 	b	40c898 <_ZSt13__adjust_heapIN9__gnu_cxx17__normal_iteratorIP2PTSt6vectorIS2_SaIS2_EEEElS2_NS0_5__ops15_Iter_comp_iterIPFbRKS2_SB_EEEEvT_T0_SG_T1_T2_+0x2d8>
  40ca7c:	aa1403f5 	mov	x21, x20
  40ca80:	aa1c03e1 	mov	x1, x28
  40ca84:	aa1503e0 	mov	x0, x21
  40ca88:	97ffddcf 	bl	4041c4 <_ZN2PTaSEOS_.isra.0>
  40ca8c:	aa1c03e0 	mov	x0, x28
  40ca90:	97fff5f4 	bl	40a260 <_ZN2PTD1Ev>
  40ca94:	a94153f3 	ldp	x19, x20, [sp, #16]
  40ca98:	a9425bf5 	ldp	x21, x22, [sp, #32]
  40ca9c:	a94363f7 	ldp	x23, x24, [sp, #48]
  40caa0:	a9446bf9 	ldp	x25, x26, [sp, #64]
  40caa4:	a94573fb 	ldp	x27, x28, [sp, #80]
  40caa8:	a8cf7bfd 	ldp	x29, x30, [sp], #240
  40caac:	d65f03c0 	ret
  40cab0:	8b180700 	add	x0, x24, x24, lsl #1
  40cab4:	d37ffb01 	lsl	x1, x24, #1
  40cab8:	d37ef400 	lsl	x0, x0, #2
  40cabc:	cb180000 	sub	x0, x0, x24
  40cac0:	91000438 	add	x24, x1, #0x1
  40cac4:	8b180701 	add	x1, x24, x24, lsl #1
  40cac8:	8b000ec0 	add	x0, x22, x0, lsl #3
  40cacc:	d37ef421 	lsl	x1, x1, #2
  40cad0:	cb180021 	sub	x1, x1, x24
  40cad4:	8b010ec1 	add	x1, x22, x1, lsl #3
  40cad8:	97ffddbb 	bl	4041c4 <_ZN2PTaSEOS_.isra.0>
  40cadc:	17ffff4e 	b	40c814 <_ZSt13__adjust_heapIN9__gnu_cxx17__normal_iteratorIP2PTSt6vectorIS2_SaIS2_EEEElS2_NS0_5__ops15_Iter_comp_iterIPFbRKS2_SB_EEEEvT_T0_SG_T1_T2_+0x254>
  40cae0:	f9403bf8 	ldr	x24, [sp, #112]
  40cae4:	17ffff46 	b	40c7fc <_ZSt13__adjust_heapIN9__gnu_cxx17__normal_iteratorIP2PTSt6vectorIS2_SaIS2_EEEElS2_NS0_5__ops15_Iter_comp_iterIPFbRKS2_SB_EEEEvT_T0_SG_T1_T2_+0x23c>
  40cae8:	8b180715 	add	x21, x24, x24, lsl #1
  40caec:	910263fc 	add	x28, sp, #0x98
  40caf0:	d37ef6b5 	lsl	x21, x21, #2
  40caf4:	cb1802b5 	sub	x21, x21, x24
  40caf8:	8b150ed5 	add	x21, x22, x21, lsl #3
  40cafc:	17ffffe1 	b	40ca80 <_ZSt13__adjust_heapIN9__gnu_cxx17__normal_iteratorIP2PTSt6vectorIS2_SaIS2_EEEElS2_NS0_5__ops15_Iter_comp_iterIPFbRKS2_SB_EEEEvT_T0_SG_T1_T2_+0x4c0>
  40cb00:	aa0003f3 	mov	x19, x0
  40cb04:	aa1c03e0 	mov	x0, x28
  40cb08:	97fff5d6 	bl	40a260 <_ZN2PTD1Ev>
  40cb0c:	aa1303e0 	mov	x0, x19
  40cb10:	97ffd584 	bl	402120 <_Unwind_Resume@plt>
  40cb14:	d503201f 	nop
  40cb18:	d503201f 	nop
  40cb1c:	d503201f 	nop

000000000040cb20 <_ZSt4swapI2PTENSt9enable_ifIXsrSt6__and_IJSt6__not_ISt15__is_tuple_likeIT_EESt21is_move_constructibleIS5_ESt18is_move_assignableIS5_EEE5valueEvE4typeERS5_SF_>:
  40cb20:	a9b77bfd 	stp	x29, x30, [sp, #-144]!
  40cb24:	910003fd 	mov	x29, sp
  40cb28:	a9401406 	ldp	x6, x5, [x0]
  40cb2c:	a90397e6 	stp	x6, x5, [sp, #56]
  40cb30:	b9401806 	ldr	w6, [x0, #24]
  40cb34:	a9422009 	ldp	x9, x8, [x0, #32]
  40cb38:	b90053e6 	str	w6, [sp, #80]
  40cb3c:	a9448804 	ldp	x4, x2, [x0, #72]
  40cb40:	a90153f3 	stp	x19, x20, [sp, #16]
  40cb44:	aa0103f3 	mov	x19, x1
  40cb48:	f940080a 	ldr	x10, [x0, #16]
  40cb4c:	a9025bf5 	stp	x21, x22, [sp, #32]
  40cb50:	f9401807 	ldr	x7, [x0, #48]
  40cb54:	a9007c1f 	stp	xzr, xzr, [x0]
  40cb58:	f9401c06 	ldr	x6, [x0, #56]
  40cb5c:	f900081f 	str	xzr, [x0, #16]
  40cb60:	f9402005 	ldr	x5, [x0, #64]
  40cb64:	a9027c1f 	stp	xzr, xzr, [x0, #32]
  40cb68:	f900181f 	str	xzr, [x0, #48]
  40cb6c:	f9001c1f 	str	xzr, [x0, #56]
  40cb70:	f900201f 	str	xzr, [x0, #64]
  40cb74:	f900241f 	str	xzr, [x0, #72]
  40cb78:	f90027ea 	str	x10, [sp, #72]
  40cb7c:	f9002fe9 	str	x9, [sp, #88]
  40cb80:	a9061fe8 	stp	x8, x7, [sp, #96]
  40cb84:	a90717e6 	stp	x6, x5, [sp, #112]
  40cb88:	a9080be4 	stp	x4, x2, [sp, #128]
  40cb8c:	97ffdd8e 	bl	4041c4 <_ZN2PTaSEOS_.isra.0>
  40cb90:	aa1303e0 	mov	x0, x19
  40cb94:	9100e3e1 	add	x1, sp, #0x38
  40cb98:	97ffdd8b 	bl	4041c4 <_ZN2PTaSEOS_.isra.0>
  40cb9c:	f9403be0 	ldr	x0, [sp, #112]
  40cba0:	b4000080 	cbz	x0, 40cbb0 <_ZSt4swapI2PTENSt9enable_ifIXsrSt6__and_IJSt6__not_ISt15__is_tuple_likeIT_EESt21is_move_constructibleIS5_ESt18is_move_assignableIS5_EEE5valueEvE4typeERS5_SF_+0x90>
  40cba4:	f94043e1 	ldr	x1, [sp, #128]
  40cba8:	cb000021 	sub	x1, x1, x0
  40cbac:	97ffd4f9 	bl	401f90 <_ZdlPvm@plt>
  40cbb0:	f9402fe0 	ldr	x0, [sp, #88]
  40cbb4:	b4000080 	cbz	x0, 40cbc4 <_ZSt4swapI2PTENSt9enable_ifIXsrSt6__and_IJSt6__not_ISt15__is_tuple_likeIT_EESt21is_move_constructibleIS5_ESt18is_move_assignableIS5_EEE5valueEvE4typeERS5_SF_+0xa4>
  40cbb8:	f94037e1 	ldr	x1, [sp, #104]
  40cbbc:	cb000021 	sub	x1, x1, x0
  40cbc0:	97ffd4f4 	bl	401f90 <_ZdlPvm@plt>
  40cbc4:	a943dbf4 	ldp	x20, x22, [sp, #56]
  40cbc8:	eb16029f 	cmp	x20, x22
  40cbcc:	540006e0 	b.eq	40cca8 <_ZSt4swapI2PTENSt9enable_ifIXsrSt6__and_IJSt6__not_ISt15__is_tuple_likeIT_EESt21is_move_constructibleIS5_ESt18is_move_assignableIS5_EEE5valueEvE4typeERS5_SF_+0x188>  // b.none
  40cbd0:	f9404693 	ldr	x19, [x20, #136]
  40cbd4:	b40000d3 	cbz	x19, 40cbec <_ZSt4swapI2PTENSt9enable_ifIXsrSt6__and_IJSt6__not_ISt15__is_tuple_likeIT_EESt21is_move_constructibleIS5_ESt18is_move_assignableIS5_EEE5valueEvE4typeERS5_SF_+0xcc>
  40cbd8:	aa1303e0 	mov	x0, x19
  40cbdc:	d2800201 	mov	x1, #0x10                  	// #16
  40cbe0:	f9400273 	ldr	x19, [x19]
  40cbe4:	97ffd4eb 	bl	401f90 <_ZdlPvm@plt>
  40cbe8:	b5ffff93 	cbnz	x19, 40cbd8 <_ZSt4swapI2PTENSt9enable_ifIXsrSt6__and_IJSt6__not_ISt15__is_tuple_likeIT_EESt21is_move_constructibleIS5_ESt18is_move_assignableIS5_EEE5valueEvE4typeERS5_SF_+0xb8>
  40cbec:	a9478a80 	ldp	x0, x2, [x20, #120]
  40cbf0:	52800001 	mov	w1, #0x0                   	// #0
  40cbf4:	d37df042 	lsl	x2, x2, #3
  40cbf8:	97ffd4be 	bl	401ef0 <memset@plt>
  40cbfc:	a9478680 	ldp	x0, x1, [x20, #120]
  40cc00:	9102a282 	add	x2, x20, #0xa8
  40cc04:	a908fe9f 	stp	xzr, xzr, [x20, #136]
  40cc08:	eb02001f 	cmp	x0, x2
  40cc0c:	54000060 	b.eq	40cc18 <_ZSt4swapI2PTENSt9enable_ifIXsrSt6__and_IJSt6__not_ISt15__is_tuple_likeIT_EESt21is_move_constructibleIS5_ESt18is_move_assignableIS5_EEE5valueEvE4typeERS5_SF_+0xf8>  // b.none
  40cc10:	d37df021 	lsl	x1, x1, #3
  40cc14:	97ffd4df 	bl	401f90 <_ZdlPvm@plt>
  40cc18:	91010280 	add	x0, x20, #0x40
  40cc1c:	97fff529 	bl	40a0c0 <_ZNSt10_HashtableINSt7__cxx1112basic_stringIcSt11char_traitsIcESaIcEEESt4pairIKS5_iESaIS8_ENSt8__detail10_Select1stESt8equal_toIS5_ESt4hashIS5_ENSA_18_Mod_range_hashingENSA_20_Default_ranged_hashENSA_20_Prime_rehash_policyENSA_17_Hashtable_traitsILb1ELb0ELb1EEEE5clearEv>
  40cc20:	a9440680 	ldp	x0, x1, [x20, #64]
  40cc24:	9101c282 	add	x2, x20, #0x70
  40cc28:	eb02001f 	cmp	x0, x2
  40cc2c:	54000060 	b.eq	40cc38 <_ZSt4swapI2PTENSt9enable_ifIXsrSt6__and_IJSt6__not_ISt15__is_tuple_likeIT_EESt21is_move_constructibleIS5_ESt18is_move_assignableIS5_EEE5valueEvE4typeERS5_SF_+0x118>  // b.none
  40cc30:	d37df021 	lsl	x1, x1, #3
  40cc34:	97ffd4d7 	bl	401f90 <_ZdlPvm@plt>
  40cc38:	f9401280 	ldr	x0, [x20, #32]
  40cc3c:	b4000080 	cbz	x0, 40cc4c <_ZSt4swapI2PTENSt9enable_ifIXsrSt6__and_IJSt6__not_ISt15__is_tuple_likeIT_EESt21is_move_constructibleIS5_ESt18is_move_assignableIS5_EEE5valueEvE4typeERS5_SF_+0x12c>
  40cc40:	f9401a81 	ldr	x1, [x20, #48]
  40cc44:	cb000021 	sub	x1, x1, x0
  40cc48:	97ffd4d2 	bl	401f90 <_ZdlPvm@plt>
  40cc4c:	a940d693 	ldp	x19, x21, [x20, #8]
  40cc50:	eb15027f 	cmp	x19, x21
  40cc54:	54000180 	b.eq	40cc84 <_ZSt4swapI2PTENSt9enable_ifIXsrSt6__and_IJSt6__not_ISt15__is_tuple_likeIT_EESt21is_move_constructibleIS5_ESt18is_move_assignableIS5_EEE5valueEvE4typeERS5_SF_+0x164>  // b.none
  40cc58:	aa1303e1 	mov	x1, x19
  40cc5c:	f8410420 	ldr	x0, [x1], #16
  40cc60:	eb01001f 	cmp	x0, x1
  40cc64:	54000080 	b.eq	40cc74 <_ZSt4swapI2PTENSt9enable_ifIXsrSt6__and_IJSt6__not_ISt15__is_tuple_likeIT_EESt21is_move_constructibleIS5_ESt18is_move_assignableIS5_EEE5valueEvE4typeERS5_SF_+0x154>  // b.none
  40cc68:	f9400a61 	ldr	x1, [x19, #16]
  40cc6c:	91000421 	add	x1, x1, #0x1
  40cc70:	97ffd4c8 	bl	401f90 <_ZdlPvm@plt>
  40cc74:	91008273 	add	x19, x19, #0x20
  40cc78:	eb1302bf 	cmp	x21, x19
  40cc7c:	54fffee1 	b.ne	40cc58 <_ZSt4swapI2PTENSt9enable_ifIXsrSt6__and_IJSt6__not_ISt15__is_tuple_likeIT_EESt21is_move_constructibleIS5_ESt18is_move_assignableIS5_EEE5valueEvE4typeERS5_SF_+0x138>  // b.any
  40cc80:	f9400695 	ldr	x21, [x20, #8]
  40cc84:	b40000b5 	cbz	x21, 40cc98 <_ZSt4swapI2PTENSt9enable_ifIXsrSt6__and_IJSt6__not_ISt15__is_tuple_likeIT_EESt21is_move_constructibleIS5_ESt18is_move_assignableIS5_EEE5valueEvE4typeERS5_SF_+0x178>
  40cc88:	f9400e81 	ldr	x1, [x20, #24]
  40cc8c:	aa1503e0 	mov	x0, x21
  40cc90:	cb150021 	sub	x1, x1, x21
  40cc94:	97ffd4bf 	bl	401f90 <_ZdlPvm@plt>
  40cc98:	9102c294 	add	x20, x20, #0xb0
  40cc9c:	eb1402df 	cmp	x22, x20
  40cca0:	54fff981 	b.ne	40cbd0 <_ZSt4swapI2PTENSt9enable_ifIXsrSt6__and_IJSt6__not_ISt15__is_tuple_likeIT_EESt21is_move_constructibleIS5_ESt18is_move_assignableIS5_EEE5valueEvE4typeERS5_SF_+0xb0>  // b.any
  40cca4:	f9401ff6 	ldr	x22, [sp, #56]
  40cca8:	b40000b6 	cbz	x22, 40ccbc <_ZSt4swapI2PTENSt9enable_ifIXsrSt6__and_IJSt6__not_ISt15__is_tuple_likeIT_EESt21is_move_constructibleIS5_ESt18is_move_assignableIS5_EEE5valueEvE4typeERS5_SF_+0x19c>
  40ccac:	f94027e1 	ldr	x1, [sp, #72]
  40ccb0:	aa1603e0 	mov	x0, x22
  40ccb4:	cb160021 	sub	x1, x1, x22
  40ccb8:	97ffd4b6 	bl	401f90 <_ZdlPvm@plt>
  40ccbc:	a94153f3 	ldp	x19, x20, [sp, #16]
  40ccc0:	a9425bf5 	ldp	x21, x22, [sp, #32]
  40ccc4:	a8c97bfd 	ldp	x29, x30, [sp], #144
  40ccc8:	d65f03c0 	ret
  40cccc:	d503201f 	nop

000000000040ccd0 <_ZSt16__introsort_loopIN9__gnu_cxx17__normal_iteratorIP2PTSt6vectorIS2_SaIS2_EEEElNS0_5__ops15_Iter_comp_iterIPFbRKS2_SB_EEEEvT_SF_T0_T1_>:
  40ccd0:	a9a67bfd 	stp	x29, x30, [sp, #-416]!
  40ccd4:	910003fd 	mov	x29, sp
  40ccd8:	a9025bf5 	stp	x21, x22, [sp, #32]
  40ccdc:	aa0003f5 	mov	x21, x0
  40cce0:	cb000020 	sub	x0, x1, x0
  40cce4:	a90e0be1 	stp	x1, x2, [sp, #224]
  40cce8:	f116001f 	cmp	x0, #0x580
  40ccec:	54003aed 	b.le	40d448 <_ZSt16__introsort_loopIN9__gnu_cxx17__normal_iteratorIP2PTSt6vectorIS2_SaIS2_EEEElNS0_5__ops15_Iter_comp_iterIPFbRKS2_SB_EEEEvT_SF_T0_T1_+0x778>
  40ccf0:	a90153f3 	stp	x19, x20, [sp, #16]
  40ccf4:	aa0303f6 	mov	x22, x3
  40ccf8:	a90363f7 	stp	x23, x24, [sp, #48]
  40ccfc:	a9046bf9 	stp	x25, x26, [sp, #64]
  40cd00:	a90573fb 	stp	x27, x28, [sp, #80]
  40cd04:	b4003b82 	cbz	x2, 40d474 <_ZSt16__introsort_loopIN9__gnu_cxx17__normal_iteratorIP2PTSt6vectorIS2_SaIS2_EEEElNS0_5__ops15_Iter_comp_iterIPFbRKS2_SB_EEEEvT_SF_T0_T1_+0x7a4>
  40cd08:	910162a0 	add	x0, x21, #0x58
  40cd0c:	f9006fe0 	str	x0, [sp, #216]
  40cd10:	6d0627e8 	stp	d8, d9, [sp, #96]
  40cd14:	a94d8be0 	ldp	x0, x2, [sp, #216]
  40cd18:	f94077e3 	ldr	x3, [sp, #232]
  40cd1c:	d1000463 	sub	x3, x3, #0x1
  40cd20:	f90077e3 	str	x3, [sp, #232]
  40cd24:	cb150041 	sub	x1, x2, x21
  40cd28:	d1016054 	sub	x20, x2, #0x58
  40cd2c:	d2917462 	mov	x2, #0x8ba3                	// #35747
  40cd30:	f2b745c2 	movk	x2, #0xba2e, lsl #16
  40cd34:	9343fc21 	asr	x1, x1, #3
  40cd38:	f2d45d02 	movk	x2, #0xa2e8, lsl #32
  40cd3c:	f2e5d162 	movk	x2, #0x2e8b, lsl #48
  40cd40:	9b027c21 	mul	x1, x1, x2
  40cd44:	8b41fc21 	add	x1, x1, x1, lsr #63
  40cd48:	927ff833 	and	x19, x1, #0xfffffffffffffffe
  40cd4c:	9341fc21 	asr	x1, x1, #1
  40cd50:	8b010273 	add	x19, x19, x1
  40cd54:	d37ef673 	lsl	x19, x19, #2
  40cd58:	cb010273 	sub	x19, x19, x1
  40cd5c:	8b130eb3 	add	x19, x21, x19, lsl #3
  40cd60:	aa1303e1 	mov	x1, x19
  40cd64:	d63f02c0 	blr	x22
  40cd68:	aa1403e1 	mov	x1, x20
  40cd6c:	72001c1f 	tst	w0, #0xff
  40cd70:	54001a60 	b.eq	40d0bc <_ZSt16__introsort_loopIN9__gnu_cxx17__normal_iteratorIP2PTSt6vectorIS2_SaIS2_EEEElNS0_5__ops15_Iter_comp_iterIPFbRKS2_SB_EEEEvT_SF_T0_T1_+0x3ec>  // b.none
  40cd74:	aa1303e0 	mov	x0, x19
  40cd78:	d63f02c0 	blr	x22
  40cd7c:	72001c1f 	tst	w0, #0xff
  40cd80:	54001b01 	b.ne	40d0e0 <_ZSt16__introsort_loopIN9__gnu_cxx17__normal_iteratorIP2PTSt6vectorIS2_SaIS2_EEEElNS0_5__ops15_Iter_comp_iterIPFbRKS2_SB_EEEEvT_SF_T0_T1_+0x410>  // b.any
  40cd84:	f9406fe0 	ldr	x0, [sp, #216]
  40cd88:	aa1403e1 	mov	x1, x20
  40cd8c:	d63f02c0 	blr	x22
  40cd90:	72001c1f 	tst	w0, #0xff
  40cd94:	54001ae0 	b.eq	40d0f0 <_ZSt16__introsort_loopIN9__gnu_cxx17__normal_iteratorIP2PTSt6vectorIS2_SaIS2_EEEElNS0_5__ops15_Iter_comp_iterIPFbRKS2_SB_EEEEvT_SF_T0_T1_+0x420>  // b.none
  40cd98:	aa1403e1 	mov	x1, x20
  40cd9c:	aa1503e0 	mov	x0, x21
  40cda0:	97ffff60 	bl	40cb20 <_ZSt4swapI2PTENSt9enable_ifIXsrSt6__and_IJSt6__not_ISt15__is_tuple_likeIT_EESt21is_move_constructibleIS5_ESt18is_move_assignableIS5_EEE5valueEvE4typeERS5_SF_>
  40cda4:	a94dd3f3 	ldp	x19, x20, [sp, #216]
  40cda8:	aa1503e1 	mov	x1, x21
  40cdac:	aa1303e0 	mov	x0, x19
  40cdb0:	aa1303f8 	mov	x24, x19
  40cdb4:	d63f02c0 	blr	x22
  40cdb8:	72001c1f 	tst	w0, #0xff
  40cdbc:	54001581 	b.ne	40d06c <_ZSt16__introsort_loopIN9__gnu_cxx17__normal_iteratorIP2PTSt6vectorIS2_SaIS2_EEEElNS0_5__ops15_Iter_comp_iterIPFbRKS2_SB_EEEEvT_SF_T0_T1_+0x39c>  // b.any
  40cdc0:	d1016297 	sub	x23, x20, #0x58
  40cdc4:	d503201f 	nop
  40cdc8:	aa1703e1 	mov	x1, x23
  40cdcc:	aa1503e0 	mov	x0, x21
  40cdd0:	aa1703f4 	mov	x20, x23
  40cdd4:	d63f02c0 	blr	x22
  40cdd8:	d10162f7 	sub	x23, x23, #0x58
  40cddc:	72001c1f 	tst	w0, #0xff
  40cde0:	54ffff41 	b.ne	40cdc8 <_ZSt16__introsort_loopIN9__gnu_cxx17__normal_iteratorIP2PTSt6vectorIS2_SaIS2_EEEElNS0_5__ops15_Iter_comp_iterIPFbRKS2_SB_EEEEvT_SF_T0_T1_+0xf8>  // b.any
  40cde4:	eb14027f 	cmp	x19, x20
  40cde8:	54001462 	b.cs	40d074 <_ZSt16__introsort_loopIN9__gnu_cxx17__normal_iteratorIP2PTSt6vectorIS2_SaIS2_EEEElNS0_5__ops15_Iter_comp_iterIPFbRKS2_SB_EEEEvT_SF_T0_T1_+0x3a4>  // b.hs, b.nlast
  40cdec:	a9401265 	ldp	x5, x4, [x19]
  40cdf0:	a9007e7f 	stp	xzr, xzr, [x19]
  40cdf4:	91008298 	add	x24, x20, #0x20
  40cdf8:	f9400a62 	ldr	x2, [x19, #16]
  40cdfc:	f9000a7f 	str	xzr, [x19, #16]
  40ce00:	f9401260 	ldr	x0, [x19, #32]
  40ce04:	f90047e0 	str	x0, [sp, #136]
  40ce08:	f9400280 	ldr	x0, [x20]
  40ce0c:	f9000260 	str	x0, [x19]
  40ce10:	f9401660 	ldr	x0, [x19, #40]
  40ce14:	f9004be0 	str	x0, [sp, #144]
  40ce18:	f9400680 	ldr	x0, [x20, #8]
  40ce1c:	f9000660 	str	x0, [x19, #8]
  40ce20:	f9401a60 	ldr	x0, [x19, #48]
  40ce24:	f9004fe0 	str	x0, [sp, #152]
  40ce28:	f9400a80 	ldr	x0, [x20, #16]
  40ce2c:	f9000a60 	str	x0, [x19, #16]
  40ce30:	f9401e60 	ldr	x0, [x19, #56]
  40ce34:	f90053e0 	str	x0, [sp, #160]
  40ce38:	f9402260 	ldr	x0, [x19, #64]
  40ce3c:	f90057e0 	str	x0, [sp, #168]
  40ce40:	f9402660 	ldr	x0, [x19, #72]
  40ce44:	f9005be0 	str	x0, [sp, #176]
  40ce48:	b9401a60 	ldr	w0, [x19, #24]
  40ce4c:	9100e299 	add	x25, x20, #0x38
  40ce50:	f900127f 	str	xzr, [x19, #32]
  40ce54:	f900167f 	str	xzr, [x19, #40]
  40ce58:	f9001a7f 	str	xzr, [x19, #48]
  40ce5c:	f9001e7f 	str	xzr, [x19, #56]
  40ce60:	f900227f 	str	xzr, [x19, #64]
  40ce64:	f900267f 	str	xzr, [x19, #72]
  40ce68:	b90087e0 	str	w0, [sp, #132]
  40ce6c:	b9401a80 	ldr	w0, [x20, #24]
  40ce70:	2d4a2668 	ldp	s8, s9, [x19, #80]
  40ce74:	a9007e9f 	stp	xzr, xzr, [x20]
  40ce78:	f9000a9f 	str	xzr, [x20, #16]
  40ce7c:	b9001a60 	str	w0, [x19, #24]
  40ce80:	f9401280 	ldr	x0, [x20, #32]
  40ce84:	f9001260 	str	x0, [x19, #32]
  40ce88:	f9400700 	ldr	x0, [x24, #8]
  40ce8c:	f9001660 	str	x0, [x19, #40]
  40ce90:	f9400b00 	ldr	x0, [x24, #16]
  40ce94:	f9001a60 	str	x0, [x19, #48]
  40ce98:	f900129f 	str	xzr, [x20, #32]
  40ce9c:	f9401e81 	ldr	x1, [x20, #56]
  40cea0:	a900ff1f 	stp	xzr, xzr, [x24, #8]
  40cea4:	f9401e60 	ldr	x0, [x19, #56]
  40cea8:	f9001e61 	str	x1, [x19, #56]
  40ceac:	f9402661 	ldr	x1, [x19, #72]
  40ceb0:	f9400723 	ldr	x3, [x25, #8]
  40ceb4:	f9002263 	str	x3, [x19, #64]
  40ceb8:	f9400b23 	ldr	x3, [x25, #16]
  40cebc:	f9002663 	str	x3, [x19, #72]
  40cec0:	f9001e9f 	str	xzr, [x20, #56]
  40cec4:	a900ff3f 	stp	xzr, xzr, [x25, #8]
  40cec8:	b4000ec0 	cbz	x0, 40d0a0 <_ZSt16__introsort_loopIN9__gnu_cxx17__normal_iteratorIP2PTSt6vectorIS2_SaIS2_EEEElNS0_5__ops15_Iter_comp_iterIPFbRKS2_SB_EEEEvT_SF_T0_T1_+0x3d0>
  40cecc:	cb000021 	sub	x1, x1, x0
  40ced0:	a90b93e5 	stp	x5, x4, [sp, #184]
  40ced4:	f90067e2 	str	x2, [sp, #200]
  40ced8:	97ffd42e 	bl	401f90 <_ZdlPvm@plt>
  40cedc:	bd405280 	ldr	s0, [x20, #80]
  40cee0:	a9405e80 	ldp	x0, x23, [x20]
  40cee4:	f9003fe0 	str	x0, [sp, #120]
  40cee8:	f9400a9b 	ldr	x27, [x20, #16]
  40ceec:	bd005260 	str	s0, [x19, #80]
  40cef0:	bd405680 	ldr	s0, [x20, #84]
  40cef4:	a94b93e5 	ldp	x5, x4, [sp, #184]
  40cef8:	cb000361 	sub	x1, x27, x0
  40cefc:	bd005660 	str	s0, [x19, #84]
  40cf00:	aa0003fc 	mov	x28, x0
  40cf04:	f94067e2 	ldr	x2, [sp, #200]
  40cf08:	a9001285 	stp	x5, x4, [x20]
  40cf0c:	f9000a82 	str	x2, [x20, #16]
  40cf10:	f9006be1 	str	x1, [sp, #208]
  40cf14:	eb0002ff 	cmp	x23, x0
  40cf18:	540006e0 	b.eq	40cff4 <_ZSt16__introsort_loopIN9__gnu_cxx17__normal_iteratorIP2PTSt6vectorIS2_SaIS2_EEEElNS0_5__ops15_Iter_comp_iterIPFbRKS2_SB_EEEEvT_SF_T0_T1_+0x324>  // b.none
  40cf1c:	d503201f 	nop
  40cf20:	f940479a 	ldr	x26, [x28, #136]
  40cf24:	b40000da 	cbz	x26, 40cf3c <_ZSt16__introsort_loopIN9__gnu_cxx17__normal_iteratorIP2PTSt6vectorIS2_SaIS2_EEEElNS0_5__ops15_Iter_comp_iterIPFbRKS2_SB_EEEEvT_SF_T0_T1_+0x26c>
  40cf28:	aa1a03e0 	mov	x0, x26
  40cf2c:	d2800201 	mov	x1, #0x10                  	// #16
  40cf30:	f940035a 	ldr	x26, [x26]
  40cf34:	97ffd417 	bl	401f90 <_ZdlPvm@plt>
  40cf38:	b5ffff9a 	cbnz	x26, 40cf28 <_ZSt16__introsort_loopIN9__gnu_cxx17__normal_iteratorIP2PTSt6vectorIS2_SaIS2_EEEElNS0_5__ops15_Iter_comp_iterIPFbRKS2_SB_EEEEvT_SF_T0_T1_+0x258>
  40cf3c:	a9478b80 	ldp	x0, x2, [x28, #120]
  40cf40:	52800001 	mov	w1, #0x0                   	// #0
  40cf44:	d37df042 	lsl	x2, x2, #3
  40cf48:	97ffd3ea 	bl	401ef0 <memset@plt>
  40cf4c:	a9478780 	ldp	x0, x1, [x28, #120]
  40cf50:	9102a382 	add	x2, x28, #0xa8
  40cf54:	a908ff9f 	stp	xzr, xzr, [x28, #136]
  40cf58:	eb02001f 	cmp	x0, x2
  40cf5c:	54000060 	b.eq	40cf68 <_ZSt16__introsort_loopIN9__gnu_cxx17__normal_iteratorIP2PTSt6vectorIS2_SaIS2_EEEElNS0_5__ops15_Iter_comp_iterIPFbRKS2_SB_EEEEvT_SF_T0_T1_+0x298>  // b.none
  40cf60:	d37df021 	lsl	x1, x1, #3
  40cf64:	97ffd40b 	bl	401f90 <_ZdlPvm@plt>
  40cf68:	91010380 	add	x0, x28, #0x40
  40cf6c:	97fff455 	bl	40a0c0 <_ZNSt10_HashtableINSt7__cxx1112basic_stringIcSt11char_traitsIcESaIcEEESt4pairIKS5_iESaIS8_ENSt8__detail10_Select1stESt8equal_toIS5_ESt4hashIS5_ENSA_18_Mod_range_hashingENSA_20_Default_ranged_hashENSA_20_Prime_rehash_policyENSA_17_Hashtable_traitsILb1ELb0ELb1EEEE5clearEv>
  40cf70:	a9440780 	ldp	x0, x1, [x28, #64]
  40cf74:	9101c382 	add	x2, x28, #0x70
  40cf78:	eb02001f 	cmp	x0, x2
  40cf7c:	54000060 	b.eq	40cf88 <_ZSt16__introsort_loopIN9__gnu_cxx17__normal_iteratorIP2PTSt6vectorIS2_SaIS2_EEEElNS0_5__ops15_Iter_comp_iterIPFbRKS2_SB_EEEEvT_SF_T0_T1_+0x2b8>  // b.none
  40cf80:	d37df021 	lsl	x1, x1, #3
  40cf84:	97ffd403 	bl	401f90 <_ZdlPvm@plt>
  40cf88:	f9401380 	ldr	x0, [x28, #32]
  40cf8c:	b4000080 	cbz	x0, 40cf9c <_ZSt16__introsort_loopIN9__gnu_cxx17__normal_iteratorIP2PTSt6vectorIS2_SaIS2_EEEElNS0_5__ops15_Iter_comp_iterIPFbRKS2_SB_EEEEvT_SF_T0_T1_+0x2cc>
  40cf90:	f9401b81 	ldr	x1, [x28, #48]
  40cf94:	cb000021 	sub	x1, x1, x0
  40cf98:	97ffd3fe 	bl	401f90 <_ZdlPvm@plt>
  40cf9c:	a940ef9a 	ldp	x26, x27, [x28, #8]
  40cfa0:	eb1b035f 	cmp	x26, x27
  40cfa4:	54000180 	b.eq	40cfd4 <_ZSt16__introsort_loopIN9__gnu_cxx17__normal_iteratorIP2PTSt6vectorIS2_SaIS2_EEEElNS0_5__ops15_Iter_comp_iterIPFbRKS2_SB_EEEEvT_SF_T0_T1_+0x304>  // b.none
  40cfa8:	aa1a03e1 	mov	x1, x26
  40cfac:	f8410420 	ldr	x0, [x1], #16
  40cfb0:	eb01001f 	cmp	x0, x1
  40cfb4:	54000080 	b.eq	40cfc4 <_ZSt16__introsort_loopIN9__gnu_cxx17__normal_iteratorIP2PTSt6vectorIS2_SaIS2_EEEElNS0_5__ops15_Iter_comp_iterIPFbRKS2_SB_EEEEvT_SF_T0_T1_+0x2f4>  // b.none
  40cfb8:	f9400b41 	ldr	x1, [x26, #16]
  40cfbc:	91000421 	add	x1, x1, #0x1
  40cfc0:	97ffd3f4 	bl	401f90 <_ZdlPvm@plt>
  40cfc4:	9100835a 	add	x26, x26, #0x20
  40cfc8:	eb1a037f 	cmp	x27, x26
  40cfcc:	54fffee1 	b.ne	40cfa8 <_ZSt16__introsort_loopIN9__gnu_cxx17__normal_iteratorIP2PTSt6vectorIS2_SaIS2_EEEElNS0_5__ops15_Iter_comp_iterIPFbRKS2_SB_EEEEvT_SF_T0_T1_+0x2d8>  // b.any
  40cfd0:	f940079b 	ldr	x27, [x28, #8]
  40cfd4:	b40000bb 	cbz	x27, 40cfe8 <_ZSt16__introsort_loopIN9__gnu_cxx17__normal_iteratorIP2PTSt6vectorIS2_SaIS2_EEEElNS0_5__ops15_Iter_comp_iterIPFbRKS2_SB_EEEEvT_SF_T0_T1_+0x318>
  40cfd8:	f9400f81 	ldr	x1, [x28, #24]
  40cfdc:	aa1b03e0 	mov	x0, x27
  40cfe0:	cb1b0021 	sub	x1, x1, x27
  40cfe4:	97ffd3eb 	bl	401f90 <_ZdlPvm@plt>
  40cfe8:	9102c39c 	add	x28, x28, #0xb0
  40cfec:	eb1c02ff 	cmp	x23, x28
  40cff0:	54fff981 	b.ne	40cf20 <_ZSt16__introsort_loopIN9__gnu_cxx17__normal_iteratorIP2PTSt6vectorIS2_SaIS2_EEEElNS0_5__ops15_Iter_comp_iterIPFbRKS2_SB_EEEEvT_SF_T0_T1_+0x250>  // b.any
  40cff4:	f9403fe0 	ldr	x0, [sp, #120]
  40cff8:	b4000080 	cbz	x0, 40d008 <_ZSt16__introsort_loopIN9__gnu_cxx17__normal_iteratorIP2PTSt6vectorIS2_SaIS2_EEEElNS0_5__ops15_Iter_comp_iterIPFbRKS2_SB_EEEEvT_SF_T0_T1_+0x338>
  40cffc:	f9403fe0 	ldr	x0, [sp, #120]
  40d000:	f9406be1 	ldr	x1, [sp, #208]
  40d004:	97ffd3e3 	bl	401f90 <_ZdlPvm@plt>
  40d008:	b94087e1 	ldr	w1, [sp, #132]
  40d00c:	f9400300 	ldr	x0, [x24]
  40d010:	b9001a81 	str	w1, [x20, #24]
  40d014:	f94047e1 	ldr	x1, [sp, #136]
  40d018:	f9000301 	str	x1, [x24]
  40d01c:	f9404be1 	ldr	x1, [sp, #144]
  40d020:	f9000701 	str	x1, [x24, #8]
  40d024:	f9404fe2 	ldr	x2, [sp, #152]
  40d028:	f9400b01 	ldr	x1, [x24, #16]
  40d02c:	f9000b02 	str	x2, [x24, #16]
  40d030:	b4000060 	cbz	x0, 40d03c <_ZSt16__introsort_loopIN9__gnu_cxx17__normal_iteratorIP2PTSt6vectorIS2_SaIS2_EEEElNS0_5__ops15_Iter_comp_iterIPFbRKS2_SB_EEEEvT_SF_T0_T1_+0x36c>
  40d034:	cb000021 	sub	x1, x1, x0
  40d038:	97ffd3d6 	bl	401f90 <_ZdlPvm@plt>
  40d03c:	f9400320 	ldr	x0, [x25]
  40d040:	f94053e1 	ldr	x1, [sp, #160]
  40d044:	f9000321 	str	x1, [x25]
  40d048:	f94057e1 	ldr	x1, [sp, #168]
  40d04c:	f9000721 	str	x1, [x25, #8]
  40d050:	f9405be2 	ldr	x2, [sp, #176]
  40d054:	f9400b21 	ldr	x1, [x25, #16]
  40d058:	f9000b22 	str	x2, [x25, #16]
  40d05c:	b4000060 	cbz	x0, 40d068 <_ZSt16__introsort_loopIN9__gnu_cxx17__normal_iteratorIP2PTSt6vectorIS2_SaIS2_EEEElNS0_5__ops15_Iter_comp_iterIPFbRKS2_SB_EEEEvT_SF_T0_T1_+0x398>
  40d060:	cb000021 	sub	x1, x1, x0
  40d064:	97ffd3cb 	bl	401f90 <_ZdlPvm@plt>
  40d068:	2d0a2688 	stp	s8, s9, [x20, #80]
  40d06c:	91016273 	add	x19, x19, #0x58
  40d070:	17ffff4e 	b	40cda8 <_ZSt16__introsort_loopIN9__gnu_cxx17__normal_iteratorIP2PTSt6vectorIS2_SaIS2_EEEElNS0_5__ops15_Iter_comp_iterIPFbRKS2_SB_EEEEvT_SF_T0_T1_+0xd8>
  40d074:	a94e0be1 	ldp	x1, x2, [sp, #224]
  40d078:	aa1303e0 	mov	x0, x19
  40d07c:	aa1603e3 	mov	x3, x22
  40d080:	97ffff14 	bl	40ccd0 <_ZSt16__introsort_loopIN9__gnu_cxx17__normal_iteratorIP2PTSt6vectorIS2_SaIS2_EEEElNS0_5__ops15_Iter_comp_iterIPFbRKS2_SB_EEEEvT_SF_T0_T1_>
  40d084:	cb150260 	sub	x0, x19, x21
  40d088:	f116001f 	cmp	x0, #0x580
  40d08c:	54001e4d 	b.le	40d454 <_ZSt16__introsort_loopIN9__gnu_cxx17__normal_iteratorIP2PTSt6vectorIS2_SaIS2_EEEElNS0_5__ops15_Iter_comp_iterIPFbRKS2_SB_EEEEvT_SF_T0_T1_+0x784>
  40d090:	f94077e1 	ldr	x1, [sp, #232]
  40d094:	b4000361 	cbz	x1, 40d100 <_ZSt16__introsort_loopIN9__gnu_cxx17__normal_iteratorIP2PTSt6vectorIS2_SaIS2_EEEElNS0_5__ops15_Iter_comp_iterIPFbRKS2_SB_EEEEvT_SF_T0_T1_+0x430>
  40d098:	f90073f3 	str	x19, [sp, #224]
  40d09c:	17ffff1e 	b	40cd14 <_ZSt16__introsort_loopIN9__gnu_cxx17__normal_iteratorIP2PTSt6vectorIS2_SaIS2_EEEElNS0_5__ops15_Iter_comp_iterIPFbRKS2_SB_EEEEvT_SF_T0_T1_+0x44>
  40d0a0:	bd405280 	ldr	s0, [x20, #80]
  40d0a4:	bd005260 	str	s0, [x19, #80]
  40d0a8:	bd405680 	ldr	s0, [x20, #84]
  40d0ac:	bd005660 	str	s0, [x19, #84]
  40d0b0:	a9001285 	stp	x5, x4, [x20]
  40d0b4:	f9000a82 	str	x2, [x20, #16]
  40d0b8:	17ffffd4 	b	40d008 <_ZSt16__introsort_loopIN9__gnu_cxx17__normal_iteratorIP2PTSt6vectorIS2_SaIS2_EEEElNS0_5__ops15_Iter_comp_iterIPFbRKS2_SB_EEEEvT_SF_T0_T1_+0x338>
  40d0bc:	f9406fe0 	ldr	x0, [sp, #216]
  40d0c0:	d63f02c0 	blr	x22
  40d0c4:	72001c1f 	tst	w0, #0xff
  40d0c8:	54000141 	b.ne	40d0f0 <_ZSt16__introsort_loopIN9__gnu_cxx17__normal_iteratorIP2PTSt6vectorIS2_SaIS2_EEEElNS0_5__ops15_Iter_comp_iterIPFbRKS2_SB_EEEEvT_SF_T0_T1_+0x420>  // b.any
  40d0cc:	aa1403e1 	mov	x1, x20
  40d0d0:	aa1303e0 	mov	x0, x19
  40d0d4:	d63f02c0 	blr	x22
  40d0d8:	72001c1f 	tst	w0, #0xff
  40d0dc:	54ffe5e1 	b.ne	40cd98 <_ZSt16__introsort_loopIN9__gnu_cxx17__normal_iteratorIP2PTSt6vectorIS2_SaIS2_EEEElNS0_5__ops15_Iter_comp_iterIPFbRKS2_SB_EEEEvT_SF_T0_T1_+0xc8>  // b.any
  40d0e0:	aa1303e1 	mov	x1, x19
  40d0e4:	aa1503e0 	mov	x0, x21
  40d0e8:	97fffe8e 	bl	40cb20 <_ZSt4swapI2PTENSt9enable_ifIXsrSt6__and_IJSt6__not_ISt15__is_tuple_likeIT_EESt21is_move_constructibleIS5_ESt18is_move_assignableIS5_EEE5valueEvE4typeERS5_SF_>
  40d0ec:	17ffff2e 	b	40cda4 <_ZSt16__introsort_loopIN9__gnu_cxx17__normal_iteratorIP2PTSt6vectorIS2_SaIS2_EEEElNS0_5__ops15_Iter_comp_iterIPFbRKS2_SB_EEEEvT_SF_T0_T1_+0xd4>
  40d0f0:	f9406fe1 	ldr	x1, [sp, #216]
  40d0f4:	aa1503e0 	mov	x0, x21
  40d0f8:	97fffe8a 	bl	40cb20 <_ZSt4swapI2PTENSt9enable_ifIXsrSt6__and_IJSt6__not_ISt15__is_tuple_likeIT_EESt21is_move_constructibleIS5_ESt18is_move_assignableIS5_EEE5valueEvE4typeERS5_SF_>
  40d0fc:	17ffff2a 	b	40cda4 <_ZSt16__introsort_loopIN9__gnu_cxx17__normal_iteratorIP2PTSt6vectorIS2_SaIS2_EEEElNS0_5__ops15_Iter_comp_iterIPFbRKS2_SB_EEEEvT_SF_T0_T1_+0xd4>
  40d100:	6d4627e8 	ldp	d8, d9, [sp, #96]
  40d104:	d2917461 	mov	x1, #0x8ba3                	// #35747
  40d108:	f2b745c1 	movk	x1, #0xba2e, lsl #16
  40d10c:	9343fc00 	asr	x0, x0, #3
  40d110:	f2d45d01 	movk	x1, #0xa2e8, lsl #32
  40d114:	f2e5d161 	movk	x1, #0x2e8b, lsl #48
  40d118:	9b017c17 	mul	x23, x0, x1
  40d11c:	d1000af4 	sub	x20, x23, #0x2
  40d120:	927ffa93 	and	x19, x20, #0xfffffffffffffffe
  40d124:	9341fe94 	asr	x20, x20, #1
  40d128:	8b140273 	add	x19, x19, x20
  40d12c:	d37ef673 	lsl	x19, x19, #2
  40d130:	cb140273 	sub	x19, x19, x20
  40d134:	8b130eb3 	add	x19, x21, x19, lsl #3
  40d138:	14000004 	b	40d148 <_ZSt16__introsort_loopIN9__gnu_cxx17__normal_iteratorIP2PTSt6vectorIS2_SaIS2_EEEElNS0_5__ops15_Iter_comp_iterIPFbRKS2_SB_EEEEvT_SF_T0_T1_+0x478>
  40d13c:	d1000694 	sub	x20, x20, #0x1
  40d140:	9103c3e0 	add	x0, sp, #0xf0
  40d144:	97fff447 	bl	40a260 <_ZN2PTD1Ev>
  40d148:	a9402269 	ldp	x9, x8, [x19]
  40d14c:	a914a3e9 	stp	x9, x8, [sp, #328]
  40d150:	b9401a65 	ldr	w5, [x19, #24]
  40d154:	f9400a67 	ldr	x7, [x19, #16]
  40d158:	f900afe7 	str	x7, [sp, #344]
  40d15c:	f9401266 	ldr	x6, [x19, #32]
  40d160:	f900b7e6 	str	x6, [sp, #360]
  40d164:	a942a269 	ldp	x9, x8, [x19, #40]
  40d168:	b9010be5 	str	w5, [sp, #264]
  40d16c:	a9439a67 	ldp	x7, x6, [x19, #56]
  40d170:	b90163e5 	str	w5, [sp, #352]
  40d174:	2d4a0261 	ldp	s1, s0, [x19, #80]
  40d178:	a9007e7f 	stp	xzr, xzr, [x19]
  40d17c:	aa1603e4 	mov	x4, x22
  40d180:	f9402665 	ldr	x5, [x19, #72]
  40d184:	f9000a7f 	str	xzr, [x19, #16]
  40d188:	f900127f 	str	xzr, [x19, #32]
  40d18c:	910523e3 	add	x3, sp, #0x148
  40d190:	a902fe7f 	stp	xzr, xzr, [x19, #40]
  40d194:	aa1703e2 	mov	x2, x23
  40d198:	aa1403e1 	mov	x1, x20
  40d19c:	a903fe7f 	stp	xzr, xzr, [x19, #56]
  40d1a0:	aa1503e0 	mov	x0, x21
  40d1a4:	f900267f 	str	xzr, [x19, #72]
  40d1a8:	a90f7fff 	stp	xzr, xzr, [sp, #240]
  40d1ac:	f90083ff 	str	xzr, [sp, #256]
  40d1b0:	bd0143e1 	str	s1, [sp, #320]
  40d1b4:	bd0147e0 	str	s0, [sp, #324]
  40d1b8:	a91723e9 	stp	x9, x8, [sp, #368]
  40d1bc:	a9117fff 	stp	xzr, xzr, [sp, #272]
  40d1c0:	a9127fff 	stp	xzr, xzr, [sp, #288]
  40d1c4:	a9137fff 	stp	xzr, xzr, [sp, #304]
  40d1c8:	a9181be7 	stp	x7, x6, [sp, #384]
  40d1cc:	f900cbe5 	str	x5, [sp, #400]
  40d1d0:	bd019be1 	str	s1, [sp, #408]
  40d1d4:	bd019fe0 	str	s0, [sp, #412]
  40d1d8:	97fffcfa 	bl	40c5c0 <_ZSt13__adjust_heapIN9__gnu_cxx17__normal_iteratorIP2PTSt6vectorIS2_SaIS2_EEEElS2_NS0_5__ops15_Iter_comp_iterIPFbRKS2_SB_EEEEvT_T0_SG_T1_T2_>
  40d1dc:	910523e0 	add	x0, sp, #0x148
  40d1e0:	d1016273 	sub	x19, x19, #0x58
  40d1e4:	97fff41f 	bl	40a260 <_ZN2PTD1Ev>
  40d1e8:	b5fffab4 	cbnz	x20, 40d13c <_ZSt16__introsort_loopIN9__gnu_cxx17__normal_iteratorIP2PTSt6vectorIS2_SaIS2_EEEElNS0_5__ops15_Iter_comp_iterIPFbRKS2_SB_EEEEvT_SF_T0_T1_+0x46c>
  40d1ec:	d291747a 	mov	x26, #0x8ba3                	// #35747
  40d1f0:	d1016317 	sub	x23, x24, #0x58
  40d1f4:	f2b745da 	movk	x26, #0xba2e, lsl #16
  40d1f8:	9103c3e0 	add	x0, sp, #0xf0
  40d1fc:	f2d45d1a 	movk	x26, #0xa2e8, lsl #32
  40d200:	f2e5d17a 	movk	x26, #0x2e8b, lsl #48
  40d204:	97fff417 	bl	40a260 <_ZN2PTD1Ev>
  40d208:	f94002e0 	ldr	x0, [x23]
  40d20c:	f9007be0 	str	x0, [sp, #240]
  40d210:	b9401ae2 	ldr	w2, [x23, #24]
  40d214:	cb1502f9 	sub	x25, x23, x21
  40d218:	f94006e0 	ldr	x0, [x23, #8]
  40d21c:	f9007fe0 	str	x0, [sp, #248]
  40d220:	b9010be2 	str	w2, [sp, #264]
  40d224:	aa1503e1 	mov	x1, x21
  40d228:	f9400ae0 	ldr	x0, [x23, #16]
  40d22c:	f90083e0 	str	x0, [sp, #256]
  40d230:	f94016e2 	ldr	x2, [x23, #40]
  40d234:	f9008fe2 	str	x2, [sp, #280]
  40d238:	f94012e0 	ldr	x0, [x23, #32]
  40d23c:	f9008be0 	str	x0, [sp, #272]
  40d240:	f9401ee2 	ldr	x2, [x23, #56]
  40d244:	f90097e2 	str	x2, [sp, #296]
  40d248:	2d4a02e1 	ldp	s1, s0, [x23, #80]
  40d24c:	f90002ff 	str	xzr, [x23]
  40d250:	f9401ae0 	ldr	x0, [x23, #48]
  40d254:	f90093e0 	str	x0, [sp, #288]
  40d258:	f94026e2 	ldr	x2, [x23, #72]
  40d25c:	f90006ff 	str	xzr, [x23, #8]
  40d260:	f94022e0 	ldr	x0, [x23, #64]
  40d264:	f9000aff 	str	xzr, [x23, #16]
  40d268:	f90012ff 	str	xzr, [x23, #32]
  40d26c:	f90016ff 	str	xzr, [x23, #40]
  40d270:	f9001aff 	str	xzr, [x23, #48]
  40d274:	f9001eff 	str	xzr, [x23, #56]
  40d278:	f90022ff 	str	xzr, [x23, #64]
  40d27c:	f90026ff 	str	xzr, [x23, #72]
  40d280:	f9009be0 	str	x0, [sp, #304]
  40d284:	aa1703e0 	mov	x0, x23
  40d288:	f9009fe2 	str	x2, [sp, #312]
  40d28c:	bd0143e1 	str	s1, [sp, #320]
  40d290:	bd0147e0 	str	s0, [sp, #324]
  40d294:	97ffdbcc 	bl	4041c4 <_ZN2PTaSEOS_.isra.0>
  40d298:	9343ff22 	asr	x2, x25, #3
  40d29c:	b9410bec 	ldr	w12, [sp, #264]
  40d2a0:	a94f3bef 	ldp	x15, x14, [sp, #240]
  40d2a4:	aa1603e4 	mov	x4, x22
  40d2a8:	a9512beb 	ldp	x11, x10, [sp, #272]
  40d2ac:	9b1a7c42 	mul	x2, x2, x26
  40d2b0:	a95223e9 	ldp	x9, x8, [sp, #288]
  40d2b4:	910523e3 	add	x3, sp, #0x148
  40d2b8:	a9531be7 	ldp	x7, x6, [sp, #304]
  40d2bc:	aa1503e0 	mov	x0, x21
  40d2c0:	f94083ed 	ldr	x13, [sp, #256]
  40d2c4:	d2800001 	mov	x1, #0x0                   	// #0
  40d2c8:	f940a3e5 	ldr	x5, [sp, #320]
  40d2cc:	a90f7fff 	stp	xzr, xzr, [sp, #240]
  40d2d0:	f90083ff 	str	xzr, [sp, #256]
  40d2d4:	a9117fff 	stp	xzr, xzr, [sp, #272]
  40d2d8:	a9127fff 	stp	xzr, xzr, [sp, #288]
  40d2dc:	a9137fff 	stp	xzr, xzr, [sp, #304]
  40d2e0:	a914bbef 	stp	x15, x14, [sp, #328]
  40d2e4:	f900afed 	str	x13, [sp, #344]
  40d2e8:	b90163ec 	str	w12, [sp, #352]
  40d2ec:	a916abeb 	stp	x11, x10, [sp, #360]
  40d2f0:	a917a3e9 	stp	x9, x8, [sp, #376]
  40d2f4:	a9189be7 	stp	x7, x6, [sp, #392]
  40d2f8:	f900cfe5 	str	x5, [sp, #408]
  40d2fc:	97fffcb1 	bl	40c5c0 <_ZSt13__adjust_heapIN9__gnu_cxx17__normal_iteratorIP2PTSt6vectorIS2_SaIS2_EEEElS2_NS0_5__ops15_Iter_comp_iterIPFbRKS2_SB_EEEEvT_T0_SG_T1_T2_>
  40d300:	f940c3e0 	ldr	x0, [sp, #384]
  40d304:	b4000080 	cbz	x0, 40d314 <_ZSt16__introsort_loopIN9__gnu_cxx17__normal_iteratorIP2PTSt6vectorIS2_SaIS2_EEEElNS0_5__ops15_Iter_comp_iterIPFbRKS2_SB_EEEEvT_SF_T0_T1_+0x644>
  40d308:	f940cbe1 	ldr	x1, [sp, #400]
  40d30c:	cb000021 	sub	x1, x1, x0
  40d310:	97ffd320 	bl	401f90 <_ZdlPvm@plt>
  40d314:	f940b7e0 	ldr	x0, [sp, #360]
  40d318:	b4000080 	cbz	x0, 40d328 <_ZSt16__introsort_loopIN9__gnu_cxx17__normal_iteratorIP2PTSt6vectorIS2_SaIS2_EEEElNS0_5__ops15_Iter_comp_iterIPFbRKS2_SB_EEEEvT_SF_T0_T1_+0x658>
  40d31c:	f940bfe1 	ldr	x1, [sp, #376]
  40d320:	cb000021 	sub	x1, x1, x0
  40d324:	97ffd31b 	bl	401f90 <_ZdlPvm@plt>
  40d328:	a954e3f4 	ldp	x20, x24, [sp, #328]
  40d32c:	eb18029f 	cmp	x20, x24
  40d330:	54000700 	b.eq	40d410 <_ZSt16__introsort_loopIN9__gnu_cxx17__normal_iteratorIP2PTSt6vectorIS2_SaIS2_EEEElNS0_5__ops15_Iter_comp_iterIPFbRKS2_SB_EEEEvT_SF_T0_T1_+0x740>  // b.none
  40d334:	d503201f 	nop
  40d338:	f9404693 	ldr	x19, [x20, #136]
  40d33c:	b40000d3 	cbz	x19, 40d354 <_ZSt16__introsort_loopIN9__gnu_cxx17__normal_iteratorIP2PTSt6vectorIS2_SaIS2_EEEElNS0_5__ops15_Iter_comp_iterIPFbRKS2_SB_EEEEvT_SF_T0_T1_+0x684>
  40d340:	aa1303e0 	mov	x0, x19
  40d344:	d2800201 	mov	x1, #0x10                  	// #16
  40d348:	f9400273 	ldr	x19, [x19]
  40d34c:	97ffd311 	bl	401f90 <_ZdlPvm@plt>
  40d350:	b5ffff93 	cbnz	x19, 40d340 <_ZSt16__introsort_loopIN9__gnu_cxx17__normal_iteratorIP2PTSt6vectorIS2_SaIS2_EEEElNS0_5__ops15_Iter_comp_iterIPFbRKS2_SB_EEEEvT_SF_T0_T1_+0x670>
  40d354:	a9478a80 	ldp	x0, x2, [x20, #120]
  40d358:	52800001 	mov	w1, #0x0                   	// #0
  40d35c:	d37df042 	lsl	x2, x2, #3
  40d360:	97ffd2e4 	bl	401ef0 <memset@plt>
  40d364:	a9478680 	ldp	x0, x1, [x20, #120]
  40d368:	9102a282 	add	x2, x20, #0xa8
  40d36c:	a908fe9f 	stp	xzr, xzr, [x20, #136]
  40d370:	eb02001f 	cmp	x0, x2
  40d374:	54000060 	b.eq	40d380 <_ZSt16__introsort_loopIN9__gnu_cxx17__normal_iteratorIP2PTSt6vectorIS2_SaIS2_EEEElNS0_5__ops15_Iter_comp_iterIPFbRKS2_SB_EEEEvT_SF_T0_T1_+0x6b0>  // b.none
  40d378:	d37df021 	lsl	x1, x1, #3
  40d37c:	97ffd305 	bl	401f90 <_ZdlPvm@plt>
  40d380:	91010280 	add	x0, x20, #0x40
  40d384:	97fff34f 	bl	40a0c0 <_ZNSt10_HashtableINSt7__cxx1112basic_stringIcSt11char_traitsIcESaIcEEESt4pairIKS5_iESaIS8_ENSt8__detail10_Select1stESt8equal_toIS5_ESt4hashIS5_ENSA_18_Mod_range_hashingENSA_20_Default_ranged_hashENSA_20_Prime_rehash_policyENSA_17_Hashtable_traitsILb1ELb0ELb1EEEE5clearEv>
  40d388:	a9440680 	ldp	x0, x1, [x20, #64]
  40d38c:	9101c282 	add	x2, x20, #0x70
  40d390:	eb02001f 	cmp	x0, x2
  40d394:	54000060 	b.eq	40d3a0 <_ZSt16__introsort_loopIN9__gnu_cxx17__normal_iteratorIP2PTSt6vectorIS2_SaIS2_EEEElNS0_5__ops15_Iter_comp_iterIPFbRKS2_SB_EEEEvT_SF_T0_T1_+0x6d0>  // b.none
  40d398:	d37df021 	lsl	x1, x1, #3
  40d39c:	97ffd2fd 	bl	401f90 <_ZdlPvm@plt>
  40d3a0:	f9401280 	ldr	x0, [x20, #32]
  40d3a4:	b4000080 	cbz	x0, 40d3b4 <_ZSt16__introsort_loopIN9__gnu_cxx17__normal_iteratorIP2PTSt6vectorIS2_SaIS2_EEEElNS0_5__ops15_Iter_comp_iterIPFbRKS2_SB_EEEEvT_SF_T0_T1_+0x6e4>
  40d3a8:	f9401a81 	ldr	x1, [x20, #48]
  40d3ac:	cb000021 	sub	x1, x1, x0
  40d3b0:	97ffd2f8 	bl	401f90 <_ZdlPvm@plt>
  40d3b4:	a940ee93 	ldp	x19, x27, [x20, #8]
  40d3b8:	eb1b027f 	cmp	x19, x27
  40d3bc:	54000180 	b.eq	40d3ec <_ZSt16__introsort_loopIN9__gnu_cxx17__normal_iteratorIP2PTSt6vectorIS2_SaIS2_EEEElNS0_5__ops15_Iter_comp_iterIPFbRKS2_SB_EEEEvT_SF_T0_T1_+0x71c>  // b.none
  40d3c0:	aa1303e1 	mov	x1, x19
  40d3c4:	f8410420 	ldr	x0, [x1], #16
  40d3c8:	eb01001f 	cmp	x0, x1
  40d3cc:	54000080 	b.eq	40d3dc <_ZSt16__introsort_loopIN9__gnu_cxx17__normal_iteratorIP2PTSt6vectorIS2_SaIS2_EEEElNS0_5__ops15_Iter_comp_iterIPFbRKS2_SB_EEEEvT_SF_T0_T1_+0x70c>  // b.none
  40d3d0:	f9400a61 	ldr	x1, [x19, #16]
  40d3d4:	91000421 	add	x1, x1, #0x1
  40d3d8:	97ffd2ee 	bl	401f90 <_ZdlPvm@plt>
  40d3dc:	91008273 	add	x19, x19, #0x20
  40d3e0:	eb13037f 	cmp	x27, x19
  40d3e4:	54fffee1 	b.ne	40d3c0 <_ZSt16__introsort_loopIN9__gnu_cxx17__normal_iteratorIP2PTSt6vectorIS2_SaIS2_EEEElNS0_5__ops15_Iter_comp_iterIPFbRKS2_SB_EEEEvT_SF_T0_T1_+0x6f0>  // b.any
  40d3e8:	f940069b 	ldr	x27, [x20, #8]
  40d3ec:	b40000bb 	cbz	x27, 40d400 <_ZSt16__introsort_loopIN9__gnu_cxx17__normal_iteratorIP2PTSt6vectorIS2_SaIS2_EEEElNS0_5__ops15_Iter_comp_iterIPFbRKS2_SB_EEEEvT_SF_T0_T1_+0x730>
  40d3f0:	f9400e81 	ldr	x1, [x20, #24]
  40d3f4:	aa1b03e0 	mov	x0, x27
  40d3f8:	cb1b0021 	sub	x1, x1, x27
  40d3fc:	97ffd2e5 	bl	401f90 <_ZdlPvm@plt>
  40d400:	9102c294 	add	x20, x20, #0xb0
  40d404:	eb14031f 	cmp	x24, x20
  40d408:	54fff981 	b.ne	40d338 <_ZSt16__introsort_loopIN9__gnu_cxx17__normal_iteratorIP2PTSt6vectorIS2_SaIS2_EEEElNS0_5__ops15_Iter_comp_iterIPFbRKS2_SB_EEEEvT_SF_T0_T1_+0x668>  // b.any
  40d40c:	f940a7f8 	ldr	x24, [sp, #328]
  40d410:	b40000b8 	cbz	x24, 40d424 <_ZSt16__introsort_loopIN9__gnu_cxx17__normal_iteratorIP2PTSt6vectorIS2_SaIS2_EEEElNS0_5__ops15_Iter_comp_iterIPFbRKS2_SB_EEEEvT_SF_T0_T1_+0x754>
  40d414:	f940afe1 	ldr	x1, [sp, #344]
  40d418:	aa1803e0 	mov	x0, x24
  40d41c:	cb180021 	sub	x1, x1, x24
  40d420:	97ffd2dc 	bl	401f90 <_ZdlPvm@plt>
  40d424:	9103c3e0 	add	x0, sp, #0xf0
  40d428:	97fff38e 	bl	40a260 <_ZN2PTD1Ev>
  40d42c:	d10162f7 	sub	x23, x23, #0x58
  40d430:	f101633f 	cmp	x25, #0x58
  40d434:	54ffeeac 	b.gt	40d208 <_ZSt16__introsort_loopIN9__gnu_cxx17__normal_iteratorIP2PTSt6vectorIS2_SaIS2_EEEElNS0_5__ops15_Iter_comp_iterIPFbRKS2_SB_EEEEvT_SF_T0_T1_+0x538>
  40d438:	a94153f3 	ldp	x19, x20, [sp, #16]
  40d43c:	a94363f7 	ldp	x23, x24, [sp, #48]
  40d440:	a9446bf9 	ldp	x25, x26, [sp, #64]
  40d444:	a94573fb 	ldp	x27, x28, [sp, #80]
  40d448:	a9425bf5 	ldp	x21, x22, [sp, #32]
  40d44c:	a8da7bfd 	ldp	x29, x30, [sp], #416
  40d450:	d65f03c0 	ret
  40d454:	a94153f3 	ldp	x19, x20, [sp, #16]
  40d458:	a9425bf5 	ldp	x21, x22, [sp, #32]
  40d45c:	a94363f7 	ldp	x23, x24, [sp, #48]
  40d460:	a9446bf9 	ldp	x25, x26, [sp, #64]
  40d464:	a94573fb 	ldp	x27, x28, [sp, #80]
  40d468:	6d4627e8 	ldp	d8, d9, [sp, #96]
  40d46c:	a8da7bfd 	ldp	x29, x30, [sp], #416
  40d470:	d65f03c0 	ret
  40d474:	aa0103f8 	mov	x24, x1
  40d478:	17ffff23 	b	40d104 <_ZSt16__introsort_loopIN9__gnu_cxx17__normal_iteratorIP2PTSt6vectorIS2_SaIS2_EEEElNS0_5__ops15_Iter_comp_iterIPFbRKS2_SB_EEEEvT_SF_T0_T1_+0x434>
  40d47c:	aa0003f3 	mov	x19, x0
  40d480:	910523e0 	add	x0, sp, #0x148
  40d484:	6d0627e8 	stp	d8, d9, [sp, #96]
  40d488:	97fff376 	bl	40a260 <_ZN2PTD1Ev>
  40d48c:	9103c3e0 	add	x0, sp, #0xf0
  40d490:	97fff374 	bl	40a260 <_ZN2PTD1Ev>
  40d494:	aa1303e0 	mov	x0, x19
  40d498:	97ffd322 	bl	402120 <_Unwind_Resume@plt>
  40d49c:	17fffff8 	b	40d47c <_ZSt16__introsort_loopIN9__gnu_cxx17__normal_iteratorIP2PTSt6vectorIS2_SaIS2_EEEElNS0_5__ops15_Iter_comp_iterIPFbRKS2_SB_EEEEvT_SF_T0_T1_+0x7ac>

000000000040d4a0 <_ZNSt7__cxx1112basic_stringIcSt11char_traitsIcESaIcEE12_M_constructIPcEEvT_S7_St20forward_iterator_tag.isra.0>:
  40d4a0:	a9bc7bfd 	stp	x29, x30, [sp, #-64]!
  40d4a4:	f100005f 	cmp	x2, #0x0
  40d4a8:	fa401820 	ccmp	x1, #0x0, #0x0, ne  // ne = any
  40d4ac:	910003fd 	mov	x29, sp
  40d4b0:	a90153f3 	stp	x19, x20, [sp, #16]
  40d4b4:	f90013f5 	str	x21, [sp, #32]
  40d4b8:	54000580 	b.eq	40d568 <_ZNSt7__cxx1112basic_stringIcSt11char_traitsIcESaIcEE12_M_constructIPcEEvT_S7_St20forward_iterator_tag.isra.0+0xc8>  // b.none
  40d4bc:	cb010053 	sub	x19, x2, x1
  40d4c0:	f9001ff3 	str	x19, [sp, #56]
  40d4c4:	aa0103f5 	mov	x21, x1
  40d4c8:	aa0003f4 	mov	x20, x0
  40d4cc:	f1003e7f 	cmp	x19, #0xf
  40d4d0:	540002a8 	b.hi	40d524 <_ZNSt7__cxx1112basic_stringIcSt11char_traitsIcESaIcEE12_M_constructIPcEEvT_S7_St20forward_iterator_tag.isra.0+0x84>  // b.pmore
  40d4d4:	f9400000 	ldr	x0, [x0]
  40d4d8:	f100067f 	cmp	x19, #0x1
  40d4dc:	54000161 	b.ne	40d508 <_ZNSt7__cxx1112basic_stringIcSt11char_traitsIcESaIcEE12_M_constructIPcEEvT_S7_St20forward_iterator_tag.isra.0+0x68>  // b.any
  40d4e0:	39400021 	ldrb	w1, [x1]
  40d4e4:	39000001 	strb	w1, [x0]
  40d4e8:	f9400280 	ldr	x0, [x20]
  40d4ec:	f9401ff3 	ldr	x19, [sp, #56]
  40d4f0:	f9000693 	str	x19, [x20, #8]
  40d4f4:	3833681f 	strb	wzr, [x0, x19]
  40d4f8:	a94153f3 	ldp	x19, x20, [sp, #16]
  40d4fc:	f94013f5 	ldr	x21, [sp, #32]
  40d500:	a8c47bfd 	ldp	x29, x30, [sp], #64
  40d504:	d65f03c0 	ret
  40d508:	b50001b3 	cbnz	x19, 40d53c <_ZNSt7__cxx1112basic_stringIcSt11char_traitsIcESaIcEE12_M_constructIPcEEvT_S7_St20forward_iterator_tag.isra.0+0x9c>
  40d50c:	f9000693 	str	x19, [x20, #8]
  40d510:	3833681f 	strb	wzr, [x0, x19]
  40d514:	a94153f3 	ldp	x19, x20, [sp, #16]
  40d518:	f94013f5 	ldr	x21, [sp, #32]
  40d51c:	a8c47bfd 	ldp	x29, x30, [sp], #64
  40d520:	d65f03c0 	ret
  40d524:	9100e3e1 	add	x1, sp, #0x38
  40d528:	d2800002 	mov	x2, #0x0                   	// #0
  40d52c:	97ffd301 	bl	402130 <_ZNSt7__cxx1112basic_stringIcSt11char_traitsIcESaIcEE9_M_createERmm@plt>
  40d530:	f9000280 	str	x0, [x20]
  40d534:	f9401fe1 	ldr	x1, [sp, #56]
  40d538:	f9000a81 	str	x1, [x20, #16]
  40d53c:	aa1303e2 	mov	x2, x19
  40d540:	aa1503e1 	mov	x1, x21
  40d544:	97ffd22f 	bl	401e00 <memcpy@plt>
  40d548:	f9400280 	ldr	x0, [x20]
  40d54c:	f9401ff3 	ldr	x19, [sp, #56]
  40d550:	f9000693 	str	x19, [x20, #8]
  40d554:	3833681f 	strb	wzr, [x0, x19]
  40d558:	a94153f3 	ldp	x19, x20, [sp, #16]
  40d55c:	f94013f5 	ldr	x21, [sp, #32]
  40d560:	a8c47bfd 	ldp	x29, x30, [sp], #64
  40d564:	d65f03c0 	ret
  40d568:	b0000020 	adrp	x0, 412000 <_Z19MD5Hash_simdversionPKNSt7__cxx1112basic_stringIcSt11char_traitsIcESaIcEEEP12__Uint32x4_t+0x1000>
  40d56c:	91266000 	add	x0, x0, #0x998
  40d570:	97ffd26c 	bl	401f20 <_ZSt19__throw_logic_errorPKc@plt>

000000000040d574 <_ZN13PriorityQueue7CalProbER2PT>:
  40d574:	a9ae7bfd 	stp	x29, x30, [sp, #-288]!
  40d578:	910003fd 	mov	x29, sp
  40d57c:	a9025bf5 	stp	x21, x22, [sp, #32]
  40d580:	bd405020 	ldr	s0, [x1, #80]
  40d584:	a90363f7 	stp	x23, x24, [sp, #48]
  40d588:	aa0003f7 	mov	x23, x0
  40d58c:	a9420036 	ldp	x22, x0, [x1, #32]
  40d590:	bd005420 	str	s0, [x1, #84]
  40d594:	f90037e0 	str	x0, [sp, #104]
  40d598:	eb0002df 	cmp	x22, x0
  40d59c:	54003540 	b.eq	40dc44 <_ZN13PriorityQueue7CalProbER2PT+0x6d0>  // b.none
  40d5a0:	aa0103f5 	mov	x21, x1
  40d5a4:	52801618 	mov	w24, #0xb0                  	// #176
  40d5a8:	a90153f3 	stp	x19, x20, [sp, #16]
  40d5ac:	d2800014 	mov	x20, #0x0                   	// #0
  40d5b0:	a9046bf9 	stp	x25, x26, [sp, #64]
  40d5b4:	910062fa 	add	x26, x23, #0x18
  40d5b8:	910463f9 	add	x25, sp, #0x118
  40d5bc:	a90573fb 	stp	x27, x28, [sp, #80]
  40d5c0:	1400000a 	b	40d5e8 <_ZN13PriorityQueue7CalProbER2PT+0x74>
  40d5c4:	7100081f 	cmp	w0, #0x2
  40d5c8:	54001260 	b.eq	40d814 <_ZN13PriorityQueue7CalProbER2PT+0x2a0>  // b.none
  40d5cc:	71000c1f 	cmp	w0, #0x3
  40d5d0:	540022a0 	b.eq	40da24 <_ZN13PriorityQueue7CalProbER2PT+0x4b0>  // b.none
  40d5d4:	f94037e0 	ldr	x0, [sp, #104]
  40d5d8:	910012d6 	add	x22, x22, #0x4
  40d5dc:	9102c294 	add	x20, x20, #0xb0
  40d5e0:	eb16001f 	cmp	x0, x22
  40d5e4:	540032a0 	b.eq	40dc38 <_ZN13PriorityQueue7CalProbER2PT+0x6c4>  // b.none
  40d5e8:	f94002a0 	ldr	x0, [x21]
  40d5ec:	b94002dc 	ldr	w28, [x22]
  40d5f0:	8b140001 	add	x1, x0, x20
  40d5f4:	b8746800 	ldr	w0, [x0, x20]
  40d5f8:	7100041f 	cmp	w0, #0x1
  40d5fc:	54fffe41 	b.ne	40d5c4 <_ZN13PriorityQueue7CalProbER2PT+0x50>  // b.any
  40d600:	9101c3e0 	add	x0, sp, #0x70
  40d604:	97fff377 	bl	40a3e0 <_ZN7segmentC1ERKS_>
  40d608:	9101c3e1 	add	x1, sp, #0x70
  40d60c:	aa1a03e0 	mov	x0, x26
  40d610:	97ffda71 	bl	403fd4 <_ZN5model10FindLetterE7segment>
  40d614:	f94026e1 	ldr	x1, [x23, #72]
  40d618:	bd4056a0 	ldr	s0, [x21, #84]
  40d61c:	f9407ff3 	ldr	x19, [sp, #248]
  40d620:	9b380400 	smaddl	x0, w0, w24, x1
  40d624:	f9401000 	ldr	x0, [x0, #32]
  40d628:	bc7cd801 	ldr	s1, [x0, w28, sxtw #2]
  40d62c:	5e21d821 	scvtf	s1, s1
  40d630:	1e210800 	fmul	s0, s0, s1
  40d634:	bd0056a0 	str	s0, [x21, #84]
  40d638:	b40000f3 	cbz	x19, 40d654 <_ZN13PriorityQueue7CalProbER2PT+0xe0>
  40d63c:	d503201f 	nop
  40d640:	aa1303e0 	mov	x0, x19
  40d644:	d2800201 	mov	x1, #0x10                  	// #16
  40d648:	f9400273 	ldr	x19, [x19]
  40d64c:	97ffd251 	bl	401f90 <_ZdlPvm@plt>
  40d650:	b5ffff93 	cbnz	x19, 40d640 <_ZN13PriorityQueue7CalProbER2PT+0xcc>
  40d654:	a94e8be0 	ldp	x0, x2, [sp, #232]
  40d658:	52800001 	mov	w1, #0x0                   	// #0
  40d65c:	d37df042 	lsl	x2, x2, #3
  40d660:	97ffd224 	bl	401ef0 <memset@plt>
  40d664:	a94e87e0 	ldp	x0, x1, [sp, #232]
  40d668:	a90fffff 	stp	xzr, xzr, [sp, #248]
  40d66c:	eb19001f 	cmp	x0, x25
  40d670:	54000060 	b.eq	40d67c <_ZN13PriorityQueue7CalProbER2PT+0x108>  // b.none
  40d674:	d37df021 	lsl	x1, x1, #3
  40d678:	97ffd246 	bl	401f90 <_ZdlPvm@plt>
  40d67c:	9102c3e0 	add	x0, sp, #0xb0
  40d680:	97fff290 	bl	40a0c0 <_ZNSt10_HashtableINSt7__cxx1112basic_stringIcSt11char_traitsIcESaIcEEESt4pairIKS5_iESaIS8_ENSt8__detail10_Select1stESt8equal_toIS5_ESt4hashIS5_ENSA_18_Mod_range_hashingENSA_20_Default_ranged_hashENSA_20_Prime_rehash_policyENSA_17_Hashtable_traitsILb1ELb0ELb1EEEE5clearEv>
  40d684:	a94b07e0 	ldp	x0, x1, [sp, #176]
  40d688:	910383e2 	add	x2, sp, #0xe0
  40d68c:	eb02001f 	cmp	x0, x2
  40d690:	54000060 	b.eq	40d69c <_ZN13PriorityQueue7CalProbER2PT+0x128>  // b.none
  40d694:	d37df021 	lsl	x1, x1, #3
  40d698:	97ffd23e 	bl	401f90 <_ZdlPvm@plt>
  40d69c:	f9404be0 	ldr	x0, [sp, #144]
  40d6a0:	b4000080 	cbz	x0, 40d6b0 <_ZN13PriorityQueue7CalProbER2PT+0x13c>
  40d6a4:	f94053e1 	ldr	x1, [sp, #160]
  40d6a8:	cb000021 	sub	x1, x1, x0
  40d6ac:	97ffd239 	bl	401f90 <_ZdlPvm@plt>
  40d6b0:	a947eff3 	ldp	x19, x27, [sp, #120]
  40d6b4:	eb1b027f 	cmp	x19, x27
  40d6b8:	540001a0 	b.eq	40d6ec <_ZN13PriorityQueue7CalProbER2PT+0x178>  // b.none
  40d6bc:	d503201f 	nop
  40d6c0:	aa1303e1 	mov	x1, x19
  40d6c4:	f8410420 	ldr	x0, [x1], #16
  40d6c8:	eb01001f 	cmp	x0, x1
  40d6cc:	54000080 	b.eq	40d6dc <_ZN13PriorityQueue7CalProbER2PT+0x168>  // b.none
  40d6d0:	f9400a61 	ldr	x1, [x19, #16]
  40d6d4:	91000421 	add	x1, x1, #0x1
  40d6d8:	97ffd22e 	bl	401f90 <_ZdlPvm@plt>
  40d6dc:	91008273 	add	x19, x19, #0x20
  40d6e0:	eb13037f 	cmp	x27, x19
  40d6e4:	54fffee1 	b.ne	40d6c0 <_ZN13PriorityQueue7CalProbER2PT+0x14c>  // b.any
  40d6e8:	f9403ffb 	ldr	x27, [sp, #120]
  40d6ec:	b40000bb 	cbz	x27, 40d700 <_ZN13PriorityQueue7CalProbER2PT+0x18c>
  40d6f0:	f94047e1 	ldr	x1, [sp, #136]
  40d6f4:	aa1b03e0 	mov	x0, x27
  40d6f8:	cb1b0021 	sub	x1, x1, x27
  40d6fc:	97ffd225 	bl	401f90 <_ZdlPvm@plt>
  40d700:	f94002a1 	ldr	x1, [x21]
  40d704:	9101c3e0 	add	x0, sp, #0x70
  40d708:	8b140021 	add	x1, x1, x20
  40d70c:	97fff335 	bl	40a3e0 <_ZN7segmentC1ERKS_>
  40d710:	9101c3e1 	add	x1, sp, #0x70
  40d714:	aa1a03e0 	mov	x0, x26
  40d718:	97ffda2f 	bl	403fd4 <_ZN5model10FindLetterE7segment>
  40d71c:	f94026e1 	ldr	x1, [x23, #72]
  40d720:	bd4056a0 	ldr	s0, [x21, #84]
  40d724:	f9407ff3 	ldr	x19, [sp, #248]
  40d728:	9b380400 	smaddl	x0, w0, w24, x1
  40d72c:	bd403801 	ldr	s1, [x0, #56]
  40d730:	5e21d821 	scvtf	s1, s1
  40d734:	1e211800 	fdiv	s0, s0, s1
  40d738:	bd0056a0 	str	s0, [x21, #84]
  40d73c:	b40000d3 	cbz	x19, 40d754 <_ZN13PriorityQueue7CalProbER2PT+0x1e0>
  40d740:	aa1303e0 	mov	x0, x19
  40d744:	d2800201 	mov	x1, #0x10                  	// #16
  40d748:	f9400273 	ldr	x19, [x19]
  40d74c:	97ffd211 	bl	401f90 <_ZdlPvm@plt>
  40d750:	b5ffff93 	cbnz	x19, 40d740 <_ZN13PriorityQueue7CalProbER2PT+0x1cc>
  40d754:	a94e8be0 	ldp	x0, x2, [sp, #232]
  40d758:	52800001 	mov	w1, #0x0                   	// #0
  40d75c:	d37df042 	lsl	x2, x2, #3
  40d760:	97ffd1e4 	bl	401ef0 <memset@plt>
  40d764:	a94e87e0 	ldp	x0, x1, [sp, #232]
  40d768:	a90fffff 	stp	xzr, xzr, [sp, #248]
  40d76c:	eb19001f 	cmp	x0, x25
  40d770:	54000060 	b.eq	40d77c <_ZN13PriorityQueue7CalProbER2PT+0x208>  // b.none
  40d774:	d37df021 	lsl	x1, x1, #3
  40d778:	97ffd206 	bl	401f90 <_ZdlPvm@plt>
  40d77c:	9102c3e0 	add	x0, sp, #0xb0
  40d780:	97fff250 	bl	40a0c0 <_ZNSt10_HashtableINSt7__cxx1112basic_stringIcSt11char_traitsIcESaIcEEESt4pairIKS5_iESaIS8_ENSt8__detail10_Select1stESt8equal_toIS5_ESt4hashIS5_ENSA_18_Mod_range_hashingENSA_20_Default_ranged_hashENSA_20_Prime_rehash_policyENSA_17_Hashtable_traitsILb1ELb0ELb1EEEE5clearEv>
  40d784:	a94b07e0 	ldp	x0, x1, [sp, #176]
  40d788:	910383e2 	add	x2, sp, #0xe0
  40d78c:	eb02001f 	cmp	x0, x2
  40d790:	54000060 	b.eq	40d79c <_ZN13PriorityQueue7CalProbER2PT+0x228>  // b.none
  40d794:	d37df021 	lsl	x1, x1, #3
  40d798:	97ffd1fe 	bl	401f90 <_ZdlPvm@plt>
  40d79c:	f9404be0 	ldr	x0, [sp, #144]
  40d7a0:	b4000080 	cbz	x0, 40d7b0 <_ZN13PriorityQueue7CalProbER2PT+0x23c>
  40d7a4:	f94053e1 	ldr	x1, [sp, #160]
  40d7a8:	cb000021 	sub	x1, x1, x0
  40d7ac:	97ffd1f9 	bl	401f90 <_ZdlPvm@plt>
  40d7b0:	a947eff3 	ldp	x19, x27, [sp, #120]
  40d7b4:	eb1b027f 	cmp	x19, x27
  40d7b8:	540001a0 	b.eq	40d7ec <_ZN13PriorityQueue7CalProbER2PT+0x278>  // b.none
  40d7bc:	d503201f 	nop
  40d7c0:	aa1303e1 	mov	x1, x19
  40d7c4:	f8410420 	ldr	x0, [x1], #16
  40d7c8:	eb01001f 	cmp	x0, x1
  40d7cc:	54000080 	b.eq	40d7dc <_ZN13PriorityQueue7CalProbER2PT+0x268>  // b.none
  40d7d0:	f9400a61 	ldr	x1, [x19, #16]
  40d7d4:	91000421 	add	x1, x1, #0x1
  40d7d8:	97ffd1ee 	bl	401f90 <_ZdlPvm@plt>
  40d7dc:	91008273 	add	x19, x19, #0x20
  40d7e0:	eb13037f 	cmp	x27, x19
  40d7e4:	54fffee1 	b.ne	40d7c0 <_ZN13PriorityQueue7CalProbER2PT+0x24c>  // b.any
  40d7e8:	f9403ffb 	ldr	x27, [sp, #120]
  40d7ec:	b40000bb 	cbz	x27, 40d800 <_ZN13PriorityQueue7CalProbER2PT+0x28c>
  40d7f0:	f94047e1 	ldr	x1, [sp, #136]
  40d7f4:	aa1b03e0 	mov	x0, x27
  40d7f8:	cb1b0021 	sub	x1, x1, x27
  40d7fc:	97ffd1e5 	bl	401f90 <_ZdlPvm@plt>
  40d800:	f94002a0 	ldr	x0, [x21]
  40d804:	8b140001 	add	x1, x0, x20
  40d808:	b8746800 	ldr	w0, [x0, x20]
  40d80c:	7100081f 	cmp	w0, #0x2
  40d810:	54ffede1 	b.ne	40d5cc <_ZN13PriorityQueue7CalProbER2PT+0x58>  // b.any
  40d814:	9101c3e0 	add	x0, sp, #0x70
  40d818:	97fff2f2 	bl	40a3e0 <_ZN7segmentC1ERKS_>
  40d81c:	9101c3e1 	add	x1, sp, #0x70
  40d820:	aa1a03e0 	mov	x0, x26
  40d824:	97ffda04 	bl	404034 <_ZN5model9FindDigitE7segment>
  40d828:	f94032e1 	ldr	x1, [x23, #96]
  40d82c:	bd4056a0 	ldr	s0, [x21, #84]
  40d830:	f9407ff3 	ldr	x19, [sp, #248]
  40d834:	9b380400 	smaddl	x0, w0, w24, x1
  40d838:	f9401000 	ldr	x0, [x0, #32]
  40d83c:	bc7cd801 	ldr	s1, [x0, w28, sxtw #2]
  40d840:	5e21d821 	scvtf	s1, s1
  40d844:	1e210800 	fmul	s0, s0, s1
  40d848:	bd0056a0 	str	s0, [x21, #84]
  40d84c:	b40000d3 	cbz	x19, 40d864 <_ZN13PriorityQueue7CalProbER2PT+0x2f0>
  40d850:	aa1303e0 	mov	x0, x19
  40d854:	d2800201 	mov	x1, #0x10                  	// #16
  40d858:	f9400273 	ldr	x19, [x19]
  40d85c:	97ffd1cd 	bl	401f90 <_ZdlPvm@plt>
  40d860:	b5ffff93 	cbnz	x19, 40d850 <_ZN13PriorityQueue7CalProbER2PT+0x2dc>
  40d864:	a94e8be0 	ldp	x0, x2, [sp, #232]
  40d868:	52800001 	mov	w1, #0x0                   	// #0
  40d86c:	d37df042 	lsl	x2, x2, #3
  40d870:	97ffd1a0 	bl	401ef0 <memset@plt>
  40d874:	a94e87e0 	ldp	x0, x1, [sp, #232]
  40d878:	a90fffff 	stp	xzr, xzr, [sp, #248]
  40d87c:	eb19001f 	cmp	x0, x25
  40d880:	54000060 	b.eq	40d88c <_ZN13PriorityQueue7CalProbER2PT+0x318>  // b.none
  40d884:	d37df021 	lsl	x1, x1, #3
  40d888:	97ffd1c2 	bl	401f90 <_ZdlPvm@plt>
  40d88c:	9102c3e0 	add	x0, sp, #0xb0
  40d890:	97fff20c 	bl	40a0c0 <_ZNSt10_HashtableINSt7__cxx1112basic_stringIcSt11char_traitsIcESaIcEEESt4pairIKS5_iESaIS8_ENSt8__detail10_Select1stESt8equal_toIS5_ESt4hashIS5_ENSA_18_Mod_range_hashingENSA_20_Default_ranged_hashENSA_20_Prime_rehash_policyENSA_17_Hashtable_traitsILb1ELb0ELb1EEEE5clearEv>
  40d894:	a94b07e0 	ldp	x0, x1, [sp, #176]
  40d898:	910383e2 	add	x2, sp, #0xe0
  40d89c:	eb02001f 	cmp	x0, x2
  40d8a0:	54000060 	b.eq	40d8ac <_ZN13PriorityQueue7CalProbER2PT+0x338>  // b.none
  40d8a4:	d37df021 	lsl	x1, x1, #3
  40d8a8:	97ffd1ba 	bl	401f90 <_ZdlPvm@plt>
  40d8ac:	f9404be0 	ldr	x0, [sp, #144]
  40d8b0:	b4000080 	cbz	x0, 40d8c0 <_ZN13PriorityQueue7CalProbER2PT+0x34c>
  40d8b4:	f94053e1 	ldr	x1, [sp, #160]
  40d8b8:	cb000021 	sub	x1, x1, x0
  40d8bc:	97ffd1b5 	bl	401f90 <_ZdlPvm@plt>
  40d8c0:	a947eff3 	ldp	x19, x27, [sp, #120]
  40d8c4:	eb1b027f 	cmp	x19, x27
  40d8c8:	540001a0 	b.eq	40d8fc <_ZN13PriorityQueue7CalProbER2PT+0x388>  // b.none
  40d8cc:	d503201f 	nop
  40d8d0:	aa1303e1 	mov	x1, x19
  40d8d4:	f8410420 	ldr	x0, [x1], #16
  40d8d8:	eb01001f 	cmp	x0, x1
  40d8dc:	54000080 	b.eq	40d8ec <_ZN13PriorityQueue7CalProbER2PT+0x378>  // b.none
  40d8e0:	f9400a61 	ldr	x1, [x19, #16]
  40d8e4:	91000421 	add	x1, x1, #0x1
  40d8e8:	97ffd1aa 	bl	401f90 <_ZdlPvm@plt>
  40d8ec:	91008273 	add	x19, x19, #0x20
  40d8f0:	eb13037f 	cmp	x27, x19
  40d8f4:	54fffee1 	b.ne	40d8d0 <_ZN13PriorityQueue7CalProbER2PT+0x35c>  // b.any
  40d8f8:	f9403ffb 	ldr	x27, [sp, #120]
  40d8fc:	b40000bb 	cbz	x27, 40d910 <_ZN13PriorityQueue7CalProbER2PT+0x39c>
  40d900:	f94047e1 	ldr	x1, [sp, #136]
  40d904:	aa1b03e0 	mov	x0, x27
  40d908:	cb1b0021 	sub	x1, x1, x27
  40d90c:	97ffd1a1 	bl	401f90 <_ZdlPvm@plt>
  40d910:	f94002a1 	ldr	x1, [x21]
  40d914:	9101c3e0 	add	x0, sp, #0x70
  40d918:	8b140021 	add	x1, x1, x20
  40d91c:	97fff2b1 	bl	40a3e0 <_ZN7segmentC1ERKS_>
  40d920:	9101c3e1 	add	x1, sp, #0x70
  40d924:	aa1a03e0 	mov	x0, x26
  40d928:	97ffd9c3 	bl	404034 <_ZN5model9FindDigitE7segment>
  40d92c:	f94032e1 	ldr	x1, [x23, #96]
  40d930:	bd4056a0 	ldr	s0, [x21, #84]
  40d934:	f9407ff3 	ldr	x19, [sp, #248]
  40d938:	9b380400 	smaddl	x0, w0, w24, x1
  40d93c:	bd403801 	ldr	s1, [x0, #56]
  40d940:	5e21d821 	scvtf	s1, s1
  40d944:	1e211800 	fdiv	s0, s0, s1
  40d948:	bd0056a0 	str	s0, [x21, #84]
  40d94c:	b40000d3 	cbz	x19, 40d964 <_ZN13PriorityQueue7CalProbER2PT+0x3f0>
  40d950:	aa1303e0 	mov	x0, x19
  40d954:	d2800201 	mov	x1, #0x10                  	// #16
  40d958:	f9400273 	ldr	x19, [x19]
  40d95c:	97ffd18d 	bl	401f90 <_ZdlPvm@plt>
  40d960:	b5ffff93 	cbnz	x19, 40d950 <_ZN13PriorityQueue7CalProbER2PT+0x3dc>
  40d964:	a94e8be0 	ldp	x0, x2, [sp, #232]
  40d968:	52800001 	mov	w1, #0x0                   	// #0
  40d96c:	d37df042 	lsl	x2, x2, #3
  40d970:	97ffd160 	bl	401ef0 <memset@plt>
  40d974:	a94e87e0 	ldp	x0, x1, [sp, #232]
  40d978:	a90fffff 	stp	xzr, xzr, [sp, #248]
  40d97c:	eb19001f 	cmp	x0, x25
  40d980:	54000060 	b.eq	40d98c <_ZN13PriorityQueue7CalProbER2PT+0x418>  // b.none
  40d984:	d37df021 	lsl	x1, x1, #3
  40d988:	97ffd182 	bl	401f90 <_ZdlPvm@plt>
  40d98c:	9102c3e0 	add	x0, sp, #0xb0
  40d990:	97fff1cc 	bl	40a0c0 <_ZNSt10_HashtableINSt7__cxx1112basic_stringIcSt11char_traitsIcESaIcEEESt4pairIKS5_iESaIS8_ENSt8__detail10_Select1stESt8equal_toIS5_ESt4hashIS5_ENSA_18_Mod_range_hashingENSA_20_Default_ranged_hashENSA_20_Prime_rehash_policyENSA_17_Hashtable_traitsILb1ELb0ELb1EEEE5clearEv>
  40d994:	a94b07e0 	ldp	x0, x1, [sp, #176]
  40d998:	910383e2 	add	x2, sp, #0xe0
  40d99c:	eb02001f 	cmp	x0, x2
  40d9a0:	54000060 	b.eq	40d9ac <_ZN13PriorityQueue7CalProbER2PT+0x438>  // b.none
  40d9a4:	d37df021 	lsl	x1, x1, #3
  40d9a8:	97ffd17a 	bl	401f90 <_ZdlPvm@plt>
  40d9ac:	f9404be0 	ldr	x0, [sp, #144]
  40d9b0:	b4000080 	cbz	x0, 40d9c0 <_ZN13PriorityQueue7CalProbER2PT+0x44c>
  40d9b4:	f94053e1 	ldr	x1, [sp, #160]
  40d9b8:	cb000021 	sub	x1, x1, x0
  40d9bc:	97ffd175 	bl	401f90 <_ZdlPvm@plt>
  40d9c0:	a947eff3 	ldp	x19, x27, [sp, #120]
  40d9c4:	eb1b027f 	cmp	x19, x27
  40d9c8:	540001a0 	b.eq	40d9fc <_ZN13PriorityQueue7CalProbER2PT+0x488>  // b.none
  40d9cc:	d503201f 	nop
  40d9d0:	aa1303e1 	mov	x1, x19
  40d9d4:	f8410420 	ldr	x0, [x1], #16
  40d9d8:	eb01001f 	cmp	x0, x1
  40d9dc:	54000080 	b.eq	40d9ec <_ZN13PriorityQueue7CalProbER2PT+0x478>  // b.none
  40d9e0:	f9400a61 	ldr	x1, [x19, #16]
  40d9e4:	91000421 	add	x1, x1, #0x1
  40d9e8:	97ffd16a 	bl	401f90 <_ZdlPvm@plt>
  40d9ec:	91008273 	add	x19, x19, #0x20
  40d9f0:	eb13037f 	cmp	x27, x19
  40d9f4:	54fffee1 	b.ne	40d9d0 <_ZN13PriorityQueue7CalProbER2PT+0x45c>  // b.any
  40d9f8:	f9403ffb 	ldr	x27, [sp, #120]
  40d9fc:	b40000bb 	cbz	x27, 40da10 <_ZN13PriorityQueue7CalProbER2PT+0x49c>
  40da00:	f94047e1 	ldr	x1, [sp, #136]
  40da04:	aa1b03e0 	mov	x0, x27
  40da08:	cb1b0021 	sub	x1, x1, x27
  40da0c:	97ffd161 	bl	401f90 <_ZdlPvm@plt>
  40da10:	f94002a0 	ldr	x0, [x21]
  40da14:	8b140001 	add	x1, x0, x20
  40da18:	b8746800 	ldr	w0, [x0, x20]
  40da1c:	71000c1f 	cmp	w0, #0x3
  40da20:	54ffdda1 	b.ne	40d5d4 <_ZN13PriorityQueue7CalProbER2PT+0x60>  // b.any
  40da24:	9101c3e0 	add	x0, sp, #0x70
  40da28:	97fff26e 	bl	40a3e0 <_ZN7segmentC1ERKS_>
  40da2c:	9101c3e1 	add	x1, sp, #0x70
  40da30:	aa1a03e0 	mov	x0, x26
  40da34:	97ffd998 	bl	404094 <_ZN5model10FindSymbolE7segment>
  40da38:	f9403ee1 	ldr	x1, [x23, #120]
  40da3c:	bd4056a0 	ldr	s0, [x21, #84]
  40da40:	f9407ff3 	ldr	x19, [sp, #248]
  40da44:	9b380400 	smaddl	x0, w0, w24, x1
  40da48:	f9401000 	ldr	x0, [x0, #32]
  40da4c:	bc7cd801 	ldr	s1, [x0, w28, sxtw #2]
  40da50:	5e21d821 	scvtf	s1, s1
  40da54:	1e210800 	fmul	s0, s0, s1
  40da58:	bd0056a0 	str	s0, [x21, #84]
  40da5c:	b40000d3 	cbz	x19, 40da74 <_ZN13PriorityQueue7CalProbER2PT+0x500>
  40da60:	aa1303e0 	mov	x0, x19
  40da64:	d2800201 	mov	x1, #0x10                  	// #16
  40da68:	f9400273 	ldr	x19, [x19]
  40da6c:	97ffd149 	bl	401f90 <_ZdlPvm@plt>
  40da70:	b5ffff93 	cbnz	x19, 40da60 <_ZN13PriorityQueue7CalProbER2PT+0x4ec>
  40da74:	a94e8be0 	ldp	x0, x2, [sp, #232]
  40da78:	52800001 	mov	w1, #0x0                   	// #0
  40da7c:	d37df042 	lsl	x2, x2, #3
  40da80:	97ffd11c 	bl	401ef0 <memset@plt>
  40da84:	a94e87e0 	ldp	x0, x1, [sp, #232]
  40da88:	a90fffff 	stp	xzr, xzr, [sp, #248]
  40da8c:	eb19001f 	cmp	x0, x25
  40da90:	54000060 	b.eq	40da9c <_ZN13PriorityQueue7CalProbER2PT+0x528>  // b.none
  40da94:	d37df021 	lsl	x1, x1, #3
  40da98:	97ffd13e 	bl	401f90 <_ZdlPvm@plt>
  40da9c:	9102c3e0 	add	x0, sp, #0xb0
  40daa0:	97fff188 	bl	40a0c0 <_ZNSt10_HashtableINSt7__cxx1112basic_stringIcSt11char_traitsIcESaIcEEESt4pairIKS5_iESaIS8_ENSt8__detail10_Select1stESt8equal_toIS5_ESt4hashIS5_ENSA_18_Mod_range_hashingENSA_20_Default_ranged_hashENSA_20_Prime_rehash_policyENSA_17_Hashtable_traitsILb1ELb0ELb1EEEE5clearEv>
  40daa4:	a94b07e0 	ldp	x0, x1, [sp, #176]
  40daa8:	910383e2 	add	x2, sp, #0xe0
  40daac:	eb02001f 	cmp	x0, x2
  40dab0:	54000060 	b.eq	40dabc <_ZN13PriorityQueue7CalProbER2PT+0x548>  // b.none
  40dab4:	d37df021 	lsl	x1, x1, #3
  40dab8:	97ffd136 	bl	401f90 <_ZdlPvm@plt>
  40dabc:	f9404be0 	ldr	x0, [sp, #144]
  40dac0:	b4000080 	cbz	x0, 40dad0 <_ZN13PriorityQueue7CalProbER2PT+0x55c>
  40dac4:	f94053e1 	ldr	x1, [sp, #160]
  40dac8:	cb000021 	sub	x1, x1, x0
  40dacc:	97ffd131 	bl	401f90 <_ZdlPvm@plt>
  40dad0:	a947f3f3 	ldp	x19, x28, [sp, #120]
  40dad4:	eb1c027f 	cmp	x19, x28
  40dad8:	540001a0 	b.eq	40db0c <_ZN13PriorityQueue7CalProbER2PT+0x598>  // b.none
  40dadc:	d503201f 	nop
  40dae0:	aa1303e1 	mov	x1, x19
  40dae4:	f8410420 	ldr	x0, [x1], #16
  40dae8:	eb01001f 	cmp	x0, x1
  40daec:	54000080 	b.eq	40dafc <_ZN13PriorityQueue7CalProbER2PT+0x588>  // b.none
  40daf0:	f9400a61 	ldr	x1, [x19, #16]
  40daf4:	91000421 	add	x1, x1, #0x1
  40daf8:	97ffd126 	bl	401f90 <_ZdlPvm@plt>
  40dafc:	91008273 	add	x19, x19, #0x20
  40db00:	eb13039f 	cmp	x28, x19
  40db04:	54fffee1 	b.ne	40dae0 <_ZN13PriorityQueue7CalProbER2PT+0x56c>  // b.any
  40db08:	f9403ffc 	ldr	x28, [sp, #120]
  40db0c:	b40000bc 	cbz	x28, 40db20 <_ZN13PriorityQueue7CalProbER2PT+0x5ac>
  40db10:	f94047e1 	ldr	x1, [sp, #136]
  40db14:	aa1c03e0 	mov	x0, x28
  40db18:	cb1c0021 	sub	x1, x1, x28
  40db1c:	97ffd11d 	bl	401f90 <_ZdlPvm@plt>
  40db20:	f94002a1 	ldr	x1, [x21]
  40db24:	9101c3e0 	add	x0, sp, #0x70
  40db28:	8b140021 	add	x1, x1, x20
  40db2c:	97fff22d 	bl	40a3e0 <_ZN7segmentC1ERKS_>
  40db30:	9101c3e1 	add	x1, sp, #0x70
  40db34:	aa1a03e0 	mov	x0, x26
  40db38:	97ffd957 	bl	404094 <_ZN5model10FindSymbolE7segment>
  40db3c:	f9403ee1 	ldr	x1, [x23, #120]
  40db40:	bd4056a0 	ldr	s0, [x21, #84]
  40db44:	f9407ff3 	ldr	x19, [sp, #248]
  40db48:	9b380400 	smaddl	x0, w0, w24, x1
  40db4c:	bd403801 	ldr	s1, [x0, #56]
  40db50:	5e21d821 	scvtf	s1, s1
  40db54:	1e211800 	fdiv	s0, s0, s1
  40db58:	bd0056a0 	str	s0, [x21, #84]
  40db5c:	b40000d3 	cbz	x19, 40db74 <_ZN13PriorityQueue7CalProbER2PT+0x600>
  40db60:	aa1303e0 	mov	x0, x19
  40db64:	d2800201 	mov	x1, #0x10                  	// #16
  40db68:	f9400273 	ldr	x19, [x19]
  40db6c:	97ffd109 	bl	401f90 <_ZdlPvm@plt>
  40db70:	b5ffff93 	cbnz	x19, 40db60 <_ZN13PriorityQueue7CalProbER2PT+0x5ec>
  40db74:	a94e8be0 	ldp	x0, x2, [sp, #232]
  40db78:	52800001 	mov	w1, #0x0                   	// #0
  40db7c:	d37df042 	lsl	x2, x2, #3
  40db80:	97ffd0dc 	bl	401ef0 <memset@plt>
  40db84:	a94e87e0 	ldp	x0, x1, [sp, #232]
  40db88:	a90fffff 	stp	xzr, xzr, [sp, #248]
  40db8c:	eb19001f 	cmp	x0, x25
  40db90:	54000060 	b.eq	40db9c <_ZN13PriorityQueue7CalProbER2PT+0x628>  // b.none
  40db94:	d37df021 	lsl	x1, x1, #3
  40db98:	97ffd0fe 	bl	401f90 <_ZdlPvm@plt>
  40db9c:	9102c3e0 	add	x0, sp, #0xb0
  40dba0:	97fff148 	bl	40a0c0 <_ZNSt10_HashtableINSt7__cxx1112basic_stringIcSt11char_traitsIcESaIcEEESt4pairIKS5_iESaIS8_ENSt8__detail10_Select1stESt8equal_toIS5_ESt4hashIS5_ENSA_18_Mod_range_hashingENSA_20_Default_ranged_hashENSA_20_Prime_rehash_policyENSA_17_Hashtable_traitsILb1ELb0ELb1EEEE5clearEv>
  40dba4:	a94b07e0 	ldp	x0, x1, [sp, #176]
  40dba8:	910383e2 	add	x2, sp, #0xe0
  40dbac:	eb02001f 	cmp	x0, x2
  40dbb0:	54000060 	b.eq	40dbbc <_ZN13PriorityQueue7CalProbER2PT+0x648>  // b.none
  40dbb4:	d37df021 	lsl	x1, x1, #3
  40dbb8:	97ffd0f6 	bl	401f90 <_ZdlPvm@plt>
  40dbbc:	f9404be0 	ldr	x0, [sp, #144]
  40dbc0:	b4000080 	cbz	x0, 40dbd0 <_ZN13PriorityQueue7CalProbER2PT+0x65c>
  40dbc4:	f94053e1 	ldr	x1, [sp, #160]
  40dbc8:	cb000021 	sub	x1, x1, x0
  40dbcc:	97ffd0f1 	bl	401f90 <_ZdlPvm@plt>
  40dbd0:	a947f3f3 	ldp	x19, x28, [sp, #120]
  40dbd4:	eb1c027f 	cmp	x19, x28
  40dbd8:	540001a0 	b.eq	40dc0c <_ZN13PriorityQueue7CalProbER2PT+0x698>  // b.none
  40dbdc:	d503201f 	nop
  40dbe0:	aa1303e1 	mov	x1, x19
  40dbe4:	f8410420 	ldr	x0, [x1], #16
  40dbe8:	eb01001f 	cmp	x0, x1
  40dbec:	54000080 	b.eq	40dbfc <_ZN13PriorityQueue7CalProbER2PT+0x688>  // b.none
  40dbf0:	f9400a61 	ldr	x1, [x19, #16]
  40dbf4:	91000421 	add	x1, x1, #0x1
  40dbf8:	97ffd0e6 	bl	401f90 <_ZdlPvm@plt>
  40dbfc:	91008273 	add	x19, x19, #0x20
  40dc00:	eb13039f 	cmp	x28, x19
  40dc04:	54fffee1 	b.ne	40dbe0 <_ZN13PriorityQueue7CalProbER2PT+0x66c>  // b.any
  40dc08:	f9403ffc 	ldr	x28, [sp, #120]
  40dc0c:	b4ffce5c 	cbz	x28, 40d5d4 <_ZN13PriorityQueue7CalProbER2PT+0x60>
  40dc10:	f94047e1 	ldr	x1, [sp, #136]
  40dc14:	aa1c03e0 	mov	x0, x28
  40dc18:	910012d6 	add	x22, x22, #0x4
  40dc1c:	9102c294 	add	x20, x20, #0xb0
  40dc20:	cb1c0021 	sub	x1, x1, x28
  40dc24:	97ffd0db 	bl	401f90 <_ZdlPvm@plt>
  40dc28:	f94037e0 	ldr	x0, [sp, #104]
  40dc2c:	eb16001f 	cmp	x0, x22
  40dc30:	54ffcdc1 	b.ne	40d5e8 <_ZN13PriorityQueue7CalProbER2PT+0x74>  // b.any
  40dc34:	d503201f 	nop
  40dc38:	a94153f3 	ldp	x19, x20, [sp, #16]
  40dc3c:	a9446bf9 	ldp	x25, x26, [sp, #64]
  40dc40:	a94573fb 	ldp	x27, x28, [sp, #80]
  40dc44:	a9425bf5 	ldp	x21, x22, [sp, #32]
  40dc48:	a94363f7 	ldp	x23, x24, [sp, #48]
  40dc4c:	a8d27bfd 	ldp	x29, x30, [sp], #288
  40dc50:	d65f03c0 	ret
  40dc54:	aa0003f3 	mov	x19, x0
  40dc58:	9101c3e0 	add	x0, sp, #0x70
  40dc5c:	97fff139 	bl	40a140 <_ZN7segmentD1Ev>
  40dc60:	aa1303e0 	mov	x0, x19
  40dc64:	97ffd12f 	bl	402120 <_Unwind_Resume@plt>
  40dc68:	17fffffb 	b	40dc54 <_ZN13PriorityQueue7CalProbER2PT+0x6e0>
  40dc6c:	17fffffa 	b	40dc54 <_ZN13PriorityQueue7CalProbER2PT+0x6e0>
  40dc70:	17fffff9 	b	40dc54 <_ZN13PriorityQueue7CalProbER2PT+0x6e0>
  40dc74:	17fffff8 	b	40dc54 <_ZN13PriorityQueue7CalProbER2PT+0x6e0>
  40dc78:	17fffff7 	b	40dc54 <_ZN13PriorityQueue7CalProbER2PT+0x6e0>
  40dc7c:	d503201f 	nop

000000000040dc80 <_ZN2PT6NewPTsEv>:
  40dc80:	a9bb7bfd 	stp	x29, x30, [sp, #-80]!
  40dc84:	910003fd 	mov	x29, sp
  40dc88:	a9025bf5 	stp	x21, x22, [sp, #32]
  40dc8c:	aa0003f6 	mov	x22, x0
  40dc90:	a9400001 	ldp	x1, x0, [x0]
  40dc94:	a90153f3 	stp	x19, x20, [sp, #16]
  40dc98:	aa0803f4 	mov	x20, x8
  40dc9c:	a9007d1f 	stp	xzr, xzr, [x8]
  40dca0:	f900091f 	str	xzr, [x8, #16]
  40dca4:	cb010000 	sub	x0, x0, x1
  40dca8:	f102c01f 	cmp	x0, #0xb0
  40dcac:	54000600 	b.eq	40dd6c <_ZN2PT6NewPTsEv+0xec>  // b.none
  40dcb0:	f94012c0 	ldr	x0, [x22, #32]
  40dcb4:	a9046bf9 	stp	x25, x26, [sp, #64]
  40dcb8:	b9401ad9 	ldr	w25, [x22, #24]
  40dcbc:	f94016c1 	ldr	x1, [x22, #40]
  40dcc0:	910082d5 	add	x21, x22, #0x20
  40dcc4:	93407f33 	sxtw	x19, w25
  40dcc8:	cb000021 	sub	x1, x1, x0
  40dccc:	9342fc21 	asr	x1, x1, #2
  40dcd0:	d1000421 	sub	x1, x1, #0x1
  40dcd4:	eb01027f 	cmp	x19, x1
  40dcd8:	54000462 	b.cs	40dd64 <_ZN2PT6NewPTsEv+0xe4>  // b.hs, b.nlast
  40dcdc:	a90363f7 	stp	x23, x24, [sp, #48]
  40dce0:	9100e2d8 	add	x24, x22, #0x38
  40dce4:	4b130337 	sub	w23, w25, w19
  40dce8:	1400000b 	b	40dd14 <_ZN2PT6NewPTsEv+0x94>
  40dcec:	a9400aa0 	ldp	x0, x2, [x21]
  40dcf0:	91000673 	add	x19, x19, #0x1
  40dcf4:	cb000042 	sub	x2, x2, x0
  40dcf8:	b87a6801 	ldr	w1, [x0, x26]
  40dcfc:	9342fc42 	asr	x2, x2, #2
  40dd00:	51000421 	sub	w1, w1, #0x1
  40dd04:	d1000442 	sub	x2, x2, #0x1
  40dd08:	b83a6801 	str	w1, [x0, x26]
  40dd0c:	eb13005f 	cmp	x2, x19
  40dd10:	54000289 	b.ls	40dd60 <_ZN2PT6NewPTsEv+0xe0>  // b.plast
  40dd14:	b8737801 	ldr	w1, [x0, x19, lsl #2]
  40dd18:	0b1302e3 	add	w3, w23, w19
  40dd1c:	f9400302 	ldr	x2, [x24]
  40dd20:	11000421 	add	w1, w1, #0x1
  40dd24:	b8337801 	str	w1, [x0, x19, lsl #2]
  40dd28:	d37ef67a 	lsl	x26, x19, #2
  40dd2c:	b8737840 	ldr	w0, [x2, x19, lsl #2]
  40dd30:	6b00003f 	cmp	w1, w0
  40dd34:	54fffdca 	b.ge	40dcec <_ZN2PT6NewPTsEv+0x6c>  // b.tcont
  40dd38:	a9408680 	ldp	x0, x1, [x20, #8]
  40dd3c:	b9001ac3 	str	w3, [x22, #24]
  40dd40:	eb01001f 	cmp	x0, x1
  40dd44:	540001e0 	b.eq	40dd80 <_ZN2PT6NewPTsEv+0x100>  // b.none
  40dd48:	aa1603e1 	mov	x1, x22
  40dd4c:	97fff2c1 	bl	40a850 <_ZN2PTC1ERKS_>
  40dd50:	f9400680 	ldr	x0, [x20, #8]
  40dd54:	91016000 	add	x0, x0, #0x58
  40dd58:	f9000680 	str	x0, [x20, #8]
  40dd5c:	17ffffe4 	b	40dcec <_ZN2PT6NewPTsEv+0x6c>
  40dd60:	a94363f7 	ldp	x23, x24, [sp, #48]
  40dd64:	b9001ad9 	str	w25, [x22, #24]
  40dd68:	a9446bf9 	ldp	x25, x26, [sp, #64]
  40dd6c:	aa1403e0 	mov	x0, x20
  40dd70:	a94153f3 	ldp	x19, x20, [sp, #16]
  40dd74:	a9425bf5 	ldp	x21, x22, [sp, #32]
  40dd78:	a8c57bfd 	ldp	x29, x30, [sp], #80
  40dd7c:	d65f03c0 	ret
  40dd80:	aa0003e1 	mov	x1, x0
  40dd84:	aa1603e2 	mov	x2, x22
  40dd88:	aa1403e0 	mov	x0, x20
  40dd8c:	97fff5bd 	bl	40b480 <_ZNSt6vectorI2PTSaIS0_EE17_M_realloc_insertIJRS0_EEEvN9__gnu_cxx17__normal_iteratorIPS0_S2_EEDpOT_>
  40dd90:	17ffffd7 	b	40dcec <_ZN2PT6NewPTsEv+0x6c>
  40dd94:	aa0003f3 	mov	x19, x0
  40dd98:	aa1403e0 	mov	x0, x20
  40dd9c:	9400074d 	bl	40fad0 <_ZNSt6vectorI2PTSaIS0_EED1Ev>
  40dda0:	aa1303e0 	mov	x0, x19
  40dda4:	97ffd0df 	bl	402120 <_Unwind_Resume@plt>
  40dda8:	d503201f 	nop
  40ddac:	d503201f 	nop

000000000040ddb0 <_ZN13PriorityQueue8GenerateE2PT>:
  40ddb0:	a9ac7bfd 	stp	x29, x30, [sp, #-320]!
  40ddb4:	910003fd 	mov	x29, sp
  40ddb8:	a90153f3 	stp	x19, x20, [sp, #16]
  40ddbc:	aa0103f3 	mov	x19, x1
  40ddc0:	a9025bf5 	stp	x21, x22, [sp, #32]
  40ddc4:	aa0003f5 	mov	x21, x0
  40ddc8:	a90363f7 	stp	x23, x24, [sp, #48]
  40ddcc:	97fffdea 	bl	40d574 <_ZN13PriorityQueue7CalProbER2PT>
  40ddd0:	a9400a63 	ldp	x3, x2, [x19]
  40ddd4:	cb030042 	sub	x2, x2, x3
  40ddd8:	f102c05f 	cmp	x2, #0xb0
  40dddc:	54002940 	b.eq	40e304 <_ZN13PriorityQueue8GenerateE2PT+0x554>  // b.none
  40dde0:	a9046bf9 	stp	x25, x26, [sp, #64]
  40dde4:	910203e0 	add	x0, sp, #0x80
  40dde8:	a9426676 	ldp	x22, x25, [x19, #32]
  40ddec:	a90573fb 	stp	x27, x28, [sp, #80]
  40ddf0:	a9077fe0 	stp	x0, xzr, [sp, #112]
  40ddf4:	390203ff 	strb	wzr, [sp, #128]
  40ddf8:	eb1902df 	cmp	x22, x25
  40ddfc:	54001ea0 	b.eq	40e1d0 <_ZN13PriorityQueue8GenerateE2PT+0x420>  // b.none
  40de00:	9104e3e0 	add	x0, sp, #0x138
  40de04:	910062bb 	add	x27, x21, #0x18
  40de08:	d2800037 	mov	x23, #0x1                   	// #1
  40de0c:	d2800014 	mov	x20, #0x0                   	// #0
  40de10:	f90033e0 	str	x0, [sp, #96]
  40de14:	14000015 	b	40de68 <_ZN13PriorityQueue8GenerateE2PT+0xb8>
  40de18:	7100081f 	cmp	w0, #0x2
  40de1c:	54000c00 	b.eq	40df9c <_ZN13PriorityQueue8GenerateE2PT+0x1ec>  // b.none
  40de20:	71000c1f 	cmp	w0, #0x3
  40de24:	540014c0 	b.eq	40e0bc <_ZN13PriorityQueue8GenerateE2PT+0x30c>  // b.none
  40de28:	f9400662 	ldr	x2, [x19, #8]
  40de2c:	d2917461 	mov	x1, #0x8ba3                	// #35747
  40de30:	f2b745c1 	movk	x1, #0xba2e, lsl #16
  40de34:	cb030042 	sub	x2, x2, x3
  40de38:	f2d45d01 	movk	x1, #0xa2e8, lsl #32
  40de3c:	f2e5d161 	movk	x1, #0x2e8b, lsl #48
  40de40:	9344fc40 	asr	x0, x2, #4
  40de44:	9b017c00 	mul	x0, x0, x1
  40de48:	d1000400 	sub	x0, x0, #0x1
  40de4c:	eb17001f 	cmp	x0, x23
  40de50:	54001c00 	b.eq	40e1d0 <_ZN13PriorityQueue8GenerateE2PT+0x420>  // b.none
  40de54:	910012d6 	add	x22, x22, #0x4
  40de58:	9102c294 	add	x20, x20, #0xb0
  40de5c:	910006f7 	add	x23, x23, #0x1
  40de60:	eb16033f 	cmp	x25, x22
  40de64:	54001b60 	b.eq	40e1d0 <_ZN13PriorityQueue8GenerateE2PT+0x420>  // b.none
  40de68:	b8746860 	ldr	w0, [x3, x20]
  40de6c:	8b140061 	add	x1, x3, x20
  40de70:	b94002d8 	ldr	w24, [x22]
  40de74:	7100041f 	cmp	w0, #0x1
  40de78:	54fffd01 	b.ne	40de18 <_ZN13PriorityQueue8GenerateE2PT+0x68>  // b.any
  40de7c:	910243e0 	add	x0, sp, #0x90
  40de80:	97fff158 	bl	40a3e0 <_ZN7segmentC1ERKS_>
  40de84:	910243e1 	add	x1, sp, #0x90
  40de88:	aa1b03e0 	mov	x0, x27
  40de8c:	97ffd852 	bl	403fd4 <_ZN5model10FindLetterE7segment>
  40de90:	f94026a3 	ldr	x3, [x21, #72]
  40de94:	2a0003e2 	mov	w2, w0
  40de98:	52801604 	mov	w4, #0xb0                  	// #176
  40de9c:	937b7f01 	sbfiz	x1, x24, #5, #32
  40dea0:	9101c3e0 	add	x0, sp, #0x70
  40dea4:	9b240c42 	smaddl	x2, w2, w4, x3
  40dea8:	f9400442 	ldr	x2, [x2, #8]
  40deac:	8b010043 	add	x3, x2, x1
  40deb0:	f8616841 	ldr	x1, [x2, x1]
  40deb4:	f9400462 	ldr	x2, [x3, #8]
  40deb8:	97ffcff2 	bl	401e80 <_ZNSt7__cxx1112basic_stringIcSt11char_traitsIcESaIcEE9_M_appendEPKcm@plt>
  40debc:	f9408ffa 	ldr	x26, [sp, #280]
  40dec0:	b40000fa 	cbz	x26, 40dedc <_ZN13PriorityQueue8GenerateE2PT+0x12c>
  40dec4:	d503201f 	nop
  40dec8:	aa1a03e0 	mov	x0, x26
  40decc:	d2800201 	mov	x1, #0x10                  	// #16
  40ded0:	f940035a 	ldr	x26, [x26]
  40ded4:	97ffd02f 	bl	401f90 <_ZdlPvm@plt>
  40ded8:	b5ffff9a 	cbnz	x26, 40dec8 <_ZN13PriorityQueue8GenerateE2PT+0x118>
  40dedc:	a9508be0 	ldp	x0, x2, [sp, #264]
  40dee0:	52800001 	mov	w1, #0x0                   	// #0
  40dee4:	d37df042 	lsl	x2, x2, #3
  40dee8:	97ffd002 	bl	401ef0 <memset@plt>
  40deec:	a95087e0 	ldp	x0, x1, [sp, #264]
  40def0:	a911ffff 	stp	xzr, xzr, [sp, #280]
  40def4:	f94033e2 	ldr	x2, [sp, #96]
  40def8:	eb02001f 	cmp	x0, x2
  40defc:	54000060 	b.eq	40df08 <_ZN13PriorityQueue8GenerateE2PT+0x158>  // b.none
  40df00:	d37df021 	lsl	x1, x1, #3
  40df04:	97ffd023 	bl	401f90 <_ZdlPvm@plt>
  40df08:	910343e0 	add	x0, sp, #0xd0
  40df0c:	97fff06d 	bl	40a0c0 <_ZNSt10_HashtableINSt7__cxx1112basic_stringIcSt11char_traitsIcESaIcEEESt4pairIKS5_iESaIS8_ENSt8__detail10_Select1stESt8equal_toIS5_ESt4hashIS5_ENSA_18_Mod_range_hashingENSA_20_Default_ranged_hashENSA_20_Prime_rehash_policyENSA_17_Hashtable_traitsILb1ELb0ELb1EEEE5clearEv>
  40df10:	a94d07e0 	ldp	x0, x1, [sp, #208]
  40df14:	910403e2 	add	x2, sp, #0x100
  40df18:	eb02001f 	cmp	x0, x2
  40df1c:	54000060 	b.eq	40df28 <_ZN13PriorityQueue8GenerateE2PT+0x178>  // b.none
  40df20:	d37df021 	lsl	x1, x1, #3
  40df24:	97ffd01b 	bl	401f90 <_ZdlPvm@plt>
  40df28:	f9405be0 	ldr	x0, [sp, #176]
  40df2c:	b4000080 	cbz	x0, 40df3c <_ZN13PriorityQueue8GenerateE2PT+0x18c>
  40df30:	f94063e1 	ldr	x1, [sp, #192]
  40df34:	cb000021 	sub	x1, x1, x0
  40df38:	97ffd016 	bl	401f90 <_ZdlPvm@plt>
  40df3c:	a949ebfc 	ldp	x28, x26, [sp, #152]
  40df40:	eb1a039f 	cmp	x28, x26
  40df44:	54000180 	b.eq	40df74 <_ZN13PriorityQueue8GenerateE2PT+0x1c4>  // b.none
  40df48:	aa1c03e1 	mov	x1, x28
  40df4c:	f8410420 	ldr	x0, [x1], #16
  40df50:	eb01001f 	cmp	x0, x1
  40df54:	54000080 	b.eq	40df64 <_ZN13PriorityQueue8GenerateE2PT+0x1b4>  // b.none
  40df58:	f9400b81 	ldr	x1, [x28, #16]
  40df5c:	91000421 	add	x1, x1, #0x1
  40df60:	97ffd00c 	bl	401f90 <_ZdlPvm@plt>
  40df64:	9100839c 	add	x28, x28, #0x20
  40df68:	eb1c035f 	cmp	x26, x28
  40df6c:	54fffee1 	b.ne	40df48 <_ZN13PriorityQueue8GenerateE2PT+0x198>  // b.any
  40df70:	f9404ffa 	ldr	x26, [sp, #152]
  40df74:	b40000ba 	cbz	x26, 40df88 <_ZN13PriorityQueue8GenerateE2PT+0x1d8>
  40df78:	f94057e1 	ldr	x1, [sp, #168]
  40df7c:	aa1a03e0 	mov	x0, x26
  40df80:	cb1a0021 	sub	x1, x1, x26
  40df84:	97ffd003 	bl	401f90 <_ZdlPvm@plt>
  40df88:	f9400263 	ldr	x3, [x19]
  40df8c:	8b140061 	add	x1, x3, x20
  40df90:	b8746860 	ldr	w0, [x3, x20]
  40df94:	7100081f 	cmp	w0, #0x2
  40df98:	54fff441 	b.ne	40de20 <_ZN13PriorityQueue8GenerateE2PT+0x70>  // b.any
  40df9c:	910243e0 	add	x0, sp, #0x90
  40dfa0:	97fff110 	bl	40a3e0 <_ZN7segmentC1ERKS_>
  40dfa4:	910243e1 	add	x1, sp, #0x90
  40dfa8:	aa1b03e0 	mov	x0, x27
  40dfac:	97ffd822 	bl	404034 <_ZN5model9FindDigitE7segment>
  40dfb0:	f94032a3 	ldr	x3, [x21, #96]
  40dfb4:	2a0003e2 	mov	w2, w0
  40dfb8:	52801604 	mov	w4, #0xb0                  	// #176
  40dfbc:	937b7f01 	sbfiz	x1, x24, #5, #32
  40dfc0:	9101c3e0 	add	x0, sp, #0x70
  40dfc4:	9b240c42 	smaddl	x2, w2, w4, x3
  40dfc8:	f9400442 	ldr	x2, [x2, #8]
  40dfcc:	8b010043 	add	x3, x2, x1
  40dfd0:	f8616841 	ldr	x1, [x2, x1]
  40dfd4:	f9400462 	ldr	x2, [x3, #8]
  40dfd8:	97ffcfaa 	bl	401e80 <_ZNSt7__cxx1112basic_stringIcSt11char_traitsIcESaIcEE9_M_appendEPKcm@plt>
  40dfdc:	f9408ffa 	ldr	x26, [sp, #280]
  40dfe0:	b40000fa 	cbz	x26, 40dffc <_ZN13PriorityQueue8GenerateE2PT+0x24c>
  40dfe4:	d503201f 	nop
  40dfe8:	aa1a03e0 	mov	x0, x26
  40dfec:	d2800201 	mov	x1, #0x10                  	// #16
  40dff0:	f940035a 	ldr	x26, [x26]
  40dff4:	97ffcfe7 	bl	401f90 <_ZdlPvm@plt>
  40dff8:	b5ffff9a 	cbnz	x26, 40dfe8 <_ZN13PriorityQueue8GenerateE2PT+0x238>
  40dffc:	a9508be0 	ldp	x0, x2, [sp, #264]
  40e000:	52800001 	mov	w1, #0x0                   	// #0
  40e004:	d37df042 	lsl	x2, x2, #3
  40e008:	97ffcfba 	bl	401ef0 <memset@plt>
  40e00c:	a95087e0 	ldp	x0, x1, [sp, #264]
  40e010:	a911ffff 	stp	xzr, xzr, [sp, #280]
  40e014:	f94033e2 	ldr	x2, [sp, #96]
  40e018:	eb02001f 	cmp	x0, x2
  40e01c:	54000060 	b.eq	40e028 <_ZN13PriorityQueue8GenerateE2PT+0x278>  // b.none
  40e020:	d37df021 	lsl	x1, x1, #3
  40e024:	97ffcfdb 	bl	401f90 <_ZdlPvm@plt>
  40e028:	910343e0 	add	x0, sp, #0xd0
  40e02c:	97fff025 	bl	40a0c0 <_ZNSt10_HashtableINSt7__cxx1112basic_stringIcSt11char_traitsIcESaIcEEESt4pairIKS5_iESaIS8_ENSt8__detail10_Select1stESt8equal_toIS5_ESt4hashIS5_ENSA_18_Mod_range_hashingENSA_20_Default_ranged_hashENSA_20_Prime_rehash_policyENSA_17_Hashtable_traitsILb1ELb0ELb1EEEE5clearEv>
  40e030:	a94d07e0 	ldp	x0, x1, [sp, #208]
  40e034:	910403e2 	add	x2, sp, #0x100
  40e038:	eb02001f 	cmp	x0, x2
  40e03c:	54000060 	b.eq	40e048 <_ZN13PriorityQueue8GenerateE2PT+0x298>  // b.none
  40e040:	d37df021 	lsl	x1, x1, #3
  40e044:	97ffcfd3 	bl	401f90 <_ZdlPvm@plt>
  40e048:	f9405be0 	ldr	x0, [sp, #176]
  40e04c:	b4000080 	cbz	x0, 40e05c <_ZN13PriorityQueue8GenerateE2PT+0x2ac>
  40e050:	f94063e1 	ldr	x1, [sp, #192]
  40e054:	cb000021 	sub	x1, x1, x0
  40e058:	97ffcfce 	bl	401f90 <_ZdlPvm@plt>
  40e05c:	a949f3fa 	ldp	x26, x28, [sp, #152]
  40e060:	eb1c035f 	cmp	x26, x28
  40e064:	54000180 	b.eq	40e094 <_ZN13PriorityQueue8GenerateE2PT+0x2e4>  // b.none
  40e068:	aa1a03e1 	mov	x1, x26
  40e06c:	f8410420 	ldr	x0, [x1], #16
  40e070:	eb01001f 	cmp	x0, x1
  40e074:	54000080 	b.eq	40e084 <_ZN13PriorityQueue8GenerateE2PT+0x2d4>  // b.none
  40e078:	f9400b41 	ldr	x1, [x26, #16]
  40e07c:	91000421 	add	x1, x1, #0x1
  40e080:	97ffcfc4 	bl	401f90 <_ZdlPvm@plt>
  40e084:	9100835a 	add	x26, x26, #0x20
  40e088:	eb1a039f 	cmp	x28, x26
  40e08c:	54fffee1 	b.ne	40e068 <_ZN13PriorityQueue8GenerateE2PT+0x2b8>  // b.any
  40e090:	f9404ffc 	ldr	x28, [sp, #152]
  40e094:	b40000bc 	cbz	x28, 40e0a8 <_ZN13PriorityQueue8GenerateE2PT+0x2f8>
  40e098:	f94057e1 	ldr	x1, [sp, #168]
  40e09c:	aa1c03e0 	mov	x0, x28
  40e0a0:	cb1c0021 	sub	x1, x1, x28
  40e0a4:	97ffcfbb 	bl	401f90 <_ZdlPvm@plt>
  40e0a8:	f9400263 	ldr	x3, [x19]
  40e0ac:	8b140061 	add	x1, x3, x20
  40e0b0:	b8746860 	ldr	w0, [x3, x20]
  40e0b4:	71000c1f 	cmp	w0, #0x3
  40e0b8:	54ffeb81 	b.ne	40de28 <_ZN13PriorityQueue8GenerateE2PT+0x78>  // b.any
  40e0bc:	910243e0 	add	x0, sp, #0x90
  40e0c0:	97fff0c8 	bl	40a3e0 <_ZN7segmentC1ERKS_>
  40e0c4:	910243e1 	add	x1, sp, #0x90
  40e0c8:	aa1b03e0 	mov	x0, x27
  40e0cc:	97ffd7f2 	bl	404094 <_ZN5model10FindSymbolE7segment>
  40e0d0:	f9403ea2 	ldr	x2, [x21, #120]
  40e0d4:	2a0003e1 	mov	w1, w0
  40e0d8:	52801603 	mov	w3, #0xb0                  	// #176
  40e0dc:	937b7f18 	sbfiz	x24, x24, #5, #32
  40e0e0:	9101c3e0 	add	x0, sp, #0x70
  40e0e4:	9b230821 	smaddl	x1, w1, w3, x2
  40e0e8:	f9400421 	ldr	x1, [x1, #8]
  40e0ec:	8b180022 	add	x2, x1, x24
  40e0f0:	f8786821 	ldr	x1, [x1, x24]
  40e0f4:	f9400442 	ldr	x2, [x2, #8]
  40e0f8:	97ffcf62 	bl	401e80 <_ZNSt7__cxx1112basic_stringIcSt11char_traitsIcESaIcEE9_M_appendEPKcm@plt>
  40e0fc:	f9408ff8 	ldr	x24, [sp, #280]
  40e100:	b40000f8 	cbz	x24, 40e11c <_ZN13PriorityQueue8GenerateE2PT+0x36c>
  40e104:	d503201f 	nop
  40e108:	aa1803e0 	mov	x0, x24
  40e10c:	d2800201 	mov	x1, #0x10                  	// #16
  40e110:	f9400318 	ldr	x24, [x24]
  40e114:	97ffcf9f 	bl	401f90 <_ZdlPvm@plt>
  40e118:	b5ffff98 	cbnz	x24, 40e108 <_ZN13PriorityQueue8GenerateE2PT+0x358>
  40e11c:	a9508be0 	ldp	x0, x2, [sp, #264]
  40e120:	52800001 	mov	w1, #0x0                   	// #0
  40e124:	d37df042 	lsl	x2, x2, #3
  40e128:	97ffcf72 	bl	401ef0 <memset@plt>
  40e12c:	a95087e0 	ldp	x0, x1, [sp, #264]
  40e130:	a911ffff 	stp	xzr, xzr, [sp, #280]
  40e134:	f94033e2 	ldr	x2, [sp, #96]
  40e138:	eb02001f 	cmp	x0, x2
  40e13c:	54000060 	b.eq	40e148 <_ZN13PriorityQueue8GenerateE2PT+0x398>  // b.none
  40e140:	d37df021 	lsl	x1, x1, #3
  40e144:	97ffcf93 	bl	401f90 <_ZdlPvm@plt>
  40e148:	910343e0 	add	x0, sp, #0xd0
  40e14c:	97ffefdd 	bl	40a0c0 <_ZNSt10_HashtableINSt7__cxx1112basic_stringIcSt11char_traitsIcESaIcEEESt4pairIKS5_iESaIS8_ENSt8__detail10_Select1stESt8equal_toIS5_ESt4hashIS5_ENSA_18_Mod_range_hashingENSA_20_Default_ranged_hashENSA_20_Prime_rehash_policyENSA_17_Hashtable_traitsILb1ELb0ELb1EEEE5clearEv>
  40e150:	a94d07e0 	ldp	x0, x1, [sp, #208]
  40e154:	910403e2 	add	x2, sp, #0x100
  40e158:	eb02001f 	cmp	x0, x2
  40e15c:	54000060 	b.eq	40e168 <_ZN13PriorityQueue8GenerateE2PT+0x3b8>  // b.none
  40e160:	d37df021 	lsl	x1, x1, #3
  40e164:	97ffcf8b 	bl	401f90 <_ZdlPvm@plt>
  40e168:	f9405be0 	ldr	x0, [sp, #176]
  40e16c:	b4000080 	cbz	x0, 40e17c <_ZN13PriorityQueue8GenerateE2PT+0x3cc>
  40e170:	f94063e1 	ldr	x1, [sp, #192]
  40e174:	cb000021 	sub	x1, x1, x0
  40e178:	97ffcf86 	bl	401f90 <_ZdlPvm@plt>
  40e17c:	a949f3f8 	ldp	x24, x28, [sp, #152]
  40e180:	eb1c031f 	cmp	x24, x28
  40e184:	54000180 	b.eq	40e1b4 <_ZN13PriorityQueue8GenerateE2PT+0x404>  // b.none
  40e188:	aa1803e1 	mov	x1, x24
  40e18c:	f8410420 	ldr	x0, [x1], #16
  40e190:	eb01001f 	cmp	x0, x1
  40e194:	54000080 	b.eq	40e1a4 <_ZN13PriorityQueue8GenerateE2PT+0x3f4>  // b.none
  40e198:	f9400b01 	ldr	x1, [x24, #16]
  40e19c:	91000421 	add	x1, x1, #0x1
  40e1a0:	97ffcf7c 	bl	401f90 <_ZdlPvm@plt>
  40e1a4:	91008318 	add	x24, x24, #0x20
  40e1a8:	eb18039f 	cmp	x28, x24
  40e1ac:	54fffee1 	b.ne	40e188 <_ZN13PriorityQueue8GenerateE2PT+0x3d8>  // b.any
  40e1b0:	f9404ffc 	ldr	x28, [sp, #152]
  40e1b4:	b40000bc 	cbz	x28, 40e1c8 <_ZN13PriorityQueue8GenerateE2PT+0x418>
  40e1b8:	f94057e1 	ldr	x1, [sp, #168]
  40e1bc:	aa1c03e0 	mov	x0, x28
  40e1c0:	cb1c0021 	sub	x1, x1, x28
  40e1c4:	97ffcf73 	bl	401f90 <_ZdlPvm@plt>
  40e1c8:	f9400263 	ldr	x3, [x19]
  40e1cc:	17ffff17 	b	40de28 <_ZN13PriorityQueue8GenerateE2PT+0x78>
  40e1d0:	d102c040 	sub	x0, x2, #0xb0
  40e1d4:	8b000061 	add	x1, x3, x0
  40e1d8:	b8606860 	ldr	w0, [x3, x0]
  40e1dc:	7100041f 	cmp	w0, #0x1
  40e1e0:	54001760 	b.eq	40e4cc <_ZN13PriorityQueue8GenerateE2PT+0x71c>  // b.none
  40e1e4:	7100081f 	cmp	w0, #0x2
  40e1e8:	54001fa0 	b.eq	40e5dc <_ZN13PriorityQueue8GenerateE2PT+0x82c>  // b.none
  40e1ec:	71000c1f 	cmp	w0, #0x3
  40e1f0:	54000ec0 	b.eq	40e3c8 <_ZN13PriorityQueue8GenerateE2PT+0x618>  // b.none
  40e1f4:	d291747b 	mov	x27, #0x8ba3                	// #35747
  40e1f8:	9344fc40 	asr	x0, x2, #4
  40e1fc:	f2b745db 	movk	x27, #0xba2e, lsl #16
  40e200:	f2d45d1b 	movk	x27, #0xa2e8, lsl #32
  40e204:	f2e5d17b 	movk	x27, #0x2e8b, lsl #48
  40e208:	f9401e61 	ldr	x1, [x19, #56]
  40e20c:	9b1b7c00 	mul	x0, x0, x27
  40e210:	d1000400 	sub	x0, x0, #0x1
  40e214:	b8607820 	ldr	w0, [x1, x0, lsl #2]
  40e218:	7100001f 	cmp	w0, #0x0
  40e21c:	5400058d 	b.le	40e2cc <_ZN13PriorityQueue8GenerateE2PT+0x51c>
  40e220:	f94037e0 	ldr	x0, [sp, #104]
  40e224:	910243f4 	add	x20, sp, #0x90
  40e228:	91004299 	add	x25, x20, #0x10
  40e22c:	910642bc 	add	x28, x21, #0x190
  40e230:	91002000 	add	x0, x0, #0x8
  40e234:	d2800016 	mov	x22, #0x0                   	// #0
  40e238:	f90033e0 	str	x0, [sp, #96]
  40e23c:	d503201f 	nop
  40e240:	f94033e0 	ldr	x0, [sp, #96]
  40e244:	d37bead7 	lsl	x23, x22, #5
  40e248:	a9470be1 	ldp	x1, x2, [sp, #112]
  40e24c:	f9400018 	ldr	x24, [x0]
  40e250:	aa1403e0 	mov	x0, x20
  40e254:	f9004bf9 	str	x25, [sp, #144]
  40e258:	8b17031a 	add	x26, x24, x23
  40e25c:	8b020022 	add	x2, x1, x2
  40e260:	97fffc90 	bl	40d4a0 <_ZNSt7__cxx1112basic_stringIcSt11char_traitsIcESaIcEE12_M_constructIPcEEvT_S7_St20forward_iterator_tag.isra.0>
  40e264:	f8776b01 	ldr	x1, [x24, x23]
  40e268:	aa1403e0 	mov	x0, x20
  40e26c:	f9400742 	ldr	x2, [x26, #8]
  40e270:	97ffcf04 	bl	401e80 <_ZNSt7__cxx1112basic_stringIcSt11char_traitsIcESaIcEE9_M_appendEPKcm@plt>
  40e274:	aa1403e1 	mov	x1, x20
  40e278:	aa1c03e0 	mov	x0, x28
  40e27c:	94000845 	bl	410390 <_ZNSt6vectorINSt7__cxx1112basic_stringIcSt11char_traitsIcESaIcEEESaIS5_EE12emplace_backIJRS5_EEEvDpOT_>
  40e280:	b9418aa1 	ldr	w1, [x21, #392]
  40e284:	f9404be0 	ldr	x0, [sp, #144]
  40e288:	11000421 	add	w1, w1, #0x1
  40e28c:	b9018aa1 	str	w1, [x21, #392]
  40e290:	eb19001f 	cmp	x0, x25
  40e294:	54000080 	b.eq	40e2a4 <_ZN13PriorityQueue8GenerateE2PT+0x4f4>  // b.none
  40e298:	f94053e1 	ldr	x1, [sp, #160]
  40e29c:	91000421 	add	x1, x1, #0x1
  40e2a0:	97ffcf3c 	bl	401f90 <_ZdlPvm@plt>
  40e2a4:	a9400262 	ldp	x2, x0, [x19]
  40e2a8:	910006d6 	add	x22, x22, #0x1
  40e2ac:	f9401e61 	ldr	x1, [x19, #56]
  40e2b0:	cb020000 	sub	x0, x0, x2
  40e2b4:	9344fc00 	asr	x0, x0, #4
  40e2b8:	9b1b7c00 	mul	x0, x0, x27
  40e2bc:	d1000400 	sub	x0, x0, #0x1
  40e2c0:	b8607820 	ldr	w0, [x1, x0, lsl #2]
  40e2c4:	6b16001f 	cmp	w0, w22
  40e2c8:	54fffbcc 	b.gt	40e240 <_ZN13PriorityQueue8GenerateE2PT+0x490>
  40e2cc:	f9403be0 	ldr	x0, [sp, #112]
  40e2d0:	910203e1 	add	x1, sp, #0x80
  40e2d4:	eb01001f 	cmp	x0, x1
  40e2d8:	54000080 	b.eq	40e2e8 <_ZN13PriorityQueue8GenerateE2PT+0x538>  // b.none
  40e2dc:	f94043e1 	ldr	x1, [sp, #128]
  40e2e0:	91000421 	add	x1, x1, #0x1
  40e2e4:	97ffcf2b 	bl	401f90 <_ZdlPvm@plt>
  40e2e8:	a9446bf9 	ldp	x25, x26, [sp, #64]
  40e2ec:	a94573fb 	ldp	x27, x28, [sp, #80]
  40e2f0:	a94153f3 	ldp	x19, x20, [sp, #16]
  40e2f4:	a9425bf5 	ldp	x21, x22, [sp, #32]
  40e2f8:	a94363f7 	ldp	x23, x24, [sp, #48]
  40e2fc:	a8d47bfd 	ldp	x29, x30, [sp], #320
  40e300:	d65f03c0 	ret
  40e304:	b9400060 	ldr	w0, [x3]
  40e308:	7100041f 	cmp	w0, #0x1
  40e30c:	54002e80 	b.eq	40e8dc <_ZN13PriorityQueue8GenerateE2PT+0xb2c>  // b.none
  40e310:	7100081f 	cmp	w0, #0x2
  40e314:	54002640 	b.eq	40e7dc <_ZN13PriorityQueue8GenerateE2PT+0xa2c>  // b.none
  40e318:	71000c1f 	cmp	w0, #0x3
  40e31c:	54001e60 	b.eq	40e6e8 <_ZN13PriorityQueue8GenerateE2PT+0x938>  // b.none
  40e320:	f9401e60 	ldr	x0, [x19, #56]
  40e324:	b9400000 	ldr	w0, [x0]
  40e328:	7100001f 	cmp	w0, #0x0
  40e32c:	54fffe2d 	b.le	40e2f0 <_ZN13PriorityQueue8GenerateE2PT+0x540>
  40e330:	910243f4 	add	x20, sp, #0x90
  40e334:	91002318 	add	x24, x24, #0x8
  40e338:	91004297 	add	x23, x20, #0x10
  40e33c:	a9046bf9 	stp	x25, x26, [sp, #64]
  40e340:	910642b9 	add	x25, x21, #0x190
  40e344:	d2800016 	mov	x22, #0x0                   	// #0
  40e348:	f9400302 	ldr	x2, [x24]
  40e34c:	d37beac1 	lsl	x1, x22, #5
  40e350:	f9004bf7 	str	x23, [sp, #144]
  40e354:	aa1403e0 	mov	x0, x20
  40e358:	8b010043 	add	x3, x2, x1
  40e35c:	f8616841 	ldr	x1, [x2, x1]
  40e360:	f9400462 	ldr	x2, [x3, #8]
  40e364:	8b020022 	add	x2, x1, x2
  40e368:	97fffc4e 	bl	40d4a0 <_ZNSt7__cxx1112basic_stringIcSt11char_traitsIcESaIcEE12_M_constructIPcEEvT_S7_St20forward_iterator_tag.isra.0>
  40e36c:	aa1403e1 	mov	x1, x20
  40e370:	aa1903e0 	mov	x0, x25
  40e374:	94000807 	bl	410390 <_ZNSt6vectorINSt7__cxx1112basic_stringIcSt11char_traitsIcESaIcEEESaIS5_EE12emplace_backIJRS5_EEEvDpOT_>
  40e378:	b9418aa1 	ldr	w1, [x21, #392]
  40e37c:	f9404be0 	ldr	x0, [sp, #144]
  40e380:	11000421 	add	w1, w1, #0x1
  40e384:	b9018aa1 	str	w1, [x21, #392]
  40e388:	eb17001f 	cmp	x0, x23
  40e38c:	54000080 	b.eq	40e39c <_ZN13PriorityQueue8GenerateE2PT+0x5ec>  // b.none
  40e390:	f94053e1 	ldr	x1, [sp, #160]
  40e394:	91000421 	add	x1, x1, #0x1
  40e398:	97ffcefe 	bl	401f90 <_ZdlPvm@plt>
  40e39c:	f9401e60 	ldr	x0, [x19, #56]
  40e3a0:	910006d6 	add	x22, x22, #0x1
  40e3a4:	b9400000 	ldr	w0, [x0]
  40e3a8:	6b16001f 	cmp	w0, w22
  40e3ac:	54fffcec 	b.gt	40e348 <_ZN13PriorityQueue8GenerateE2PT+0x598>
  40e3b0:	a94153f3 	ldp	x19, x20, [sp, #16]
  40e3b4:	a9425bf5 	ldp	x21, x22, [sp, #32]
  40e3b8:	a94363f7 	ldp	x23, x24, [sp, #48]
  40e3bc:	a9446bf9 	ldp	x25, x26, [sp, #64]
  40e3c0:	a8d47bfd 	ldp	x29, x30, [sp], #320
  40e3c4:	d65f03c0 	ret
  40e3c8:	910243f4 	add	x20, sp, #0x90
  40e3cc:	910062b6 	add	x22, x21, #0x18
  40e3d0:	aa1403e0 	mov	x0, x20
  40e3d4:	97fff003 	bl	40a3e0 <_ZN7segmentC1ERKS_>
  40e3d8:	aa1403e1 	mov	x1, x20
  40e3dc:	aa1603e0 	mov	x0, x22
  40e3e0:	97ffd72d 	bl	404094 <_ZN5model10FindSymbolE7segment>
  40e3e4:	f9403ea1 	ldr	x1, [x21, #120]
  40e3e8:	52801602 	mov	w2, #0xb0                  	// #176
  40e3ec:	f9408ff6 	ldr	x22, [sp, #280]
  40e3f0:	9b220400 	smaddl	x0, w0, w2, x1
  40e3f4:	f90037e0 	str	x0, [sp, #104]
  40e3f8:	b40000f6 	cbz	x22, 40e414 <_ZN13PriorityQueue8GenerateE2PT+0x664>
  40e3fc:	d503201f 	nop
  40e400:	aa1603e0 	mov	x0, x22
  40e404:	d2800201 	mov	x1, #0x10                  	// #16
  40e408:	f94002d6 	ldr	x22, [x22]
  40e40c:	97ffcee1 	bl	401f90 <_ZdlPvm@plt>
  40e410:	b5ffff96 	cbnz	x22, 40e400 <_ZN13PriorityQueue8GenerateE2PT+0x650>
  40e414:	a9508be0 	ldp	x0, x2, [sp, #264]
  40e418:	52800001 	mov	w1, #0x0                   	// #0
  40e41c:	d37df042 	lsl	x2, x2, #3
  40e420:	97ffceb4 	bl	401ef0 <memset@plt>
  40e424:	a95087e0 	ldp	x0, x1, [sp, #264]
  40e428:	9102a282 	add	x2, x20, #0xa8
  40e42c:	a911ffff 	stp	xzr, xzr, [sp, #280]
  40e430:	eb02001f 	cmp	x0, x2
  40e434:	54000060 	b.eq	40e440 <_ZN13PriorityQueue8GenerateE2PT+0x690>  // b.none
  40e438:	d37df021 	lsl	x1, x1, #3
  40e43c:	97ffced5 	bl	401f90 <_ZdlPvm@plt>
  40e440:	91010280 	add	x0, x20, #0x40
  40e444:	97ffef1f 	bl	40a0c0 <_ZNSt10_HashtableINSt7__cxx1112basic_stringIcSt11char_traitsIcESaIcEEESt4pairIKS5_iESaIS8_ENSt8__detail10_Select1stESt8equal_toIS5_ESt4hashIS5_ENSA_18_Mod_range_hashingENSA_20_Default_ranged_hashENSA_20_Prime_rehash_policyENSA_17_Hashtable_traitsILb1ELb0ELb1EEEE5clearEv>
  40e448:	a94d07e0 	ldp	x0, x1, [sp, #208]
  40e44c:	9101c294 	add	x20, x20, #0x70
  40e450:	eb14001f 	cmp	x0, x20
  40e454:	54000060 	b.eq	40e460 <_ZN13PriorityQueue8GenerateE2PT+0x6b0>  // b.none
  40e458:	d37df021 	lsl	x1, x1, #3
  40e45c:	97ffcecd 	bl	401f90 <_ZdlPvm@plt>
  40e460:	f9405be0 	ldr	x0, [sp, #176]
  40e464:	b4000080 	cbz	x0, 40e474 <_ZN13PriorityQueue8GenerateE2PT+0x6c4>
  40e468:	f94063e1 	ldr	x1, [sp, #192]
  40e46c:	cb000021 	sub	x1, x1, x0
  40e470:	97ffcec8 	bl	401f90 <_ZdlPvm@plt>
  40e474:	a949dbf4 	ldp	x20, x22, [sp, #152]
  40e478:	eb16029f 	cmp	x20, x22
  40e47c:	54000180 	b.eq	40e4ac <_ZN13PriorityQueue8GenerateE2PT+0x6fc>  // b.none
  40e480:	aa1403e1 	mov	x1, x20
  40e484:	f8410420 	ldr	x0, [x1], #16
  40e488:	eb01001f 	cmp	x0, x1
  40e48c:	54000080 	b.eq	40e49c <_ZN13PriorityQueue8GenerateE2PT+0x6ec>  // b.none
  40e490:	f9400a81 	ldr	x1, [x20, #16]
  40e494:	91000421 	add	x1, x1, #0x1
  40e498:	97ffcebe 	bl	401f90 <_ZdlPvm@plt>
  40e49c:	91008294 	add	x20, x20, #0x20
  40e4a0:	eb1402df 	cmp	x22, x20
  40e4a4:	54fffee1 	b.ne	40e480 <_ZN13PriorityQueue8GenerateE2PT+0x6d0>  // b.any
  40e4a8:	f9404ff6 	ldr	x22, [sp, #152]
  40e4ac:	b40000b6 	cbz	x22, 40e4c0 <_ZN13PriorityQueue8GenerateE2PT+0x710>
  40e4b0:	f94057e1 	ldr	x1, [sp, #168]
  40e4b4:	aa1603e0 	mov	x0, x22
  40e4b8:	cb160021 	sub	x1, x1, x22
  40e4bc:	97ffceb5 	bl	401f90 <_ZdlPvm@plt>
  40e4c0:	a9400a60 	ldp	x0, x2, [x19]
  40e4c4:	cb000042 	sub	x2, x2, x0
  40e4c8:	17ffff4b 	b	40e1f4 <_ZN13PriorityQueue8GenerateE2PT+0x444>
  40e4cc:	910243f4 	add	x20, sp, #0x90
  40e4d0:	910062b6 	add	x22, x21, #0x18
  40e4d4:	aa1403e0 	mov	x0, x20
  40e4d8:	97ffefc2 	bl	40a3e0 <_ZN7segmentC1ERKS_>
  40e4dc:	aa1403e1 	mov	x1, x20
  40e4e0:	aa1603e0 	mov	x0, x22
  40e4e4:	97ffd6bc 	bl	403fd4 <_ZN5model10FindLetterE7segment>
  40e4e8:	f94026a1 	ldr	x1, [x21, #72]
  40e4ec:	52801602 	mov	w2, #0xb0                  	// #176
  40e4f0:	f9408ff6 	ldr	x22, [sp, #280]
  40e4f4:	9b220400 	smaddl	x0, w0, w2, x1
  40e4f8:	f90037e0 	str	x0, [sp, #104]
  40e4fc:	b40000d6 	cbz	x22, 40e514 <_ZN13PriorityQueue8GenerateE2PT+0x764>
  40e500:	aa1603e0 	mov	x0, x22
  40e504:	d2800201 	mov	x1, #0x10                  	// #16
  40e508:	f94002d6 	ldr	x22, [x22]
  40e50c:	97ffcea1 	bl	401f90 <_ZdlPvm@plt>
  40e510:	b5ffff96 	cbnz	x22, 40e500 <_ZN13PriorityQueue8GenerateE2PT+0x750>
  40e514:	a9508be0 	ldp	x0, x2, [sp, #264]
  40e518:	52800001 	mov	w1, #0x0                   	// #0
  40e51c:	d37df042 	lsl	x2, x2, #3
  40e520:	97ffce74 	bl	401ef0 <memset@plt>
  40e524:	a95087e0 	ldp	x0, x1, [sp, #264]
  40e528:	9102a282 	add	x2, x20, #0xa8
  40e52c:	a911ffff 	stp	xzr, xzr, [sp, #280]
  40e530:	eb02001f 	cmp	x0, x2
  40e534:	54000060 	b.eq	40e540 <_ZN13PriorityQueue8GenerateE2PT+0x790>  // b.none
  40e538:	d37df021 	lsl	x1, x1, #3
  40e53c:	97ffce95 	bl	401f90 <_ZdlPvm@plt>
  40e540:	91010280 	add	x0, x20, #0x40
  40e544:	97ffeedf 	bl	40a0c0 <_ZNSt10_HashtableINSt7__cxx1112basic_stringIcSt11char_traitsIcESaIcEEESt4pairIKS5_iESaIS8_ENSt8__detail10_Select1stESt8equal_toIS5_ESt4hashIS5_ENSA_18_Mod_range_hashingENSA_20_Default_ranged_hashENSA_20_Prime_rehash_policyENSA_17_Hashtable_traitsILb1ELb0ELb1EEEE5clearEv>
  40e548:	a94d07e0 	ldp	x0, x1, [sp, #208]
  40e54c:	9101c294 	add	x20, x20, #0x70
  40e550:	eb14001f 	cmp	x0, x20
  40e554:	54000060 	b.eq	40e560 <_ZN13PriorityQueue8GenerateE2PT+0x7b0>  // b.none
  40e558:	d37df021 	lsl	x1, x1, #3
  40e55c:	97ffce8d 	bl	401f90 <_ZdlPvm@plt>
  40e560:	f9405be0 	ldr	x0, [sp, #176]
  40e564:	b4000080 	cbz	x0, 40e574 <_ZN13PriorityQueue8GenerateE2PT+0x7c4>
  40e568:	f94063e1 	ldr	x1, [sp, #192]
  40e56c:	cb000021 	sub	x1, x1, x0
  40e570:	97ffce88 	bl	401f90 <_ZdlPvm@plt>
  40e574:	a949dbf4 	ldp	x20, x22, [sp, #152]
  40e578:	eb16029f 	cmp	x20, x22
  40e57c:	54000180 	b.eq	40e5ac <_ZN13PriorityQueue8GenerateE2PT+0x7fc>  // b.none
  40e580:	aa1403e1 	mov	x1, x20
  40e584:	f8410420 	ldr	x0, [x1], #16
  40e588:	eb01001f 	cmp	x0, x1
  40e58c:	54000080 	b.eq	40e59c <_ZN13PriorityQueue8GenerateE2PT+0x7ec>  // b.none
  40e590:	f9400a81 	ldr	x1, [x20, #16]
  40e594:	91000421 	add	x1, x1, #0x1
  40e598:	97ffce7e 	bl	401f90 <_ZdlPvm@plt>
  40e59c:	91008294 	add	x20, x20, #0x20
  40e5a0:	eb1402df 	cmp	x22, x20
  40e5a4:	54fffee1 	b.ne	40e580 <_ZN13PriorityQueue8GenerateE2PT+0x7d0>  // b.any
  40e5a8:	f9404ff6 	ldr	x22, [sp, #152]
  40e5ac:	b40000b6 	cbz	x22, 40e5c0 <_ZN13PriorityQueue8GenerateE2PT+0x810>
  40e5b0:	f94057e1 	ldr	x1, [sp, #168]
  40e5b4:	aa1603e0 	mov	x0, x22
  40e5b8:	cb160021 	sub	x1, x1, x22
  40e5bc:	97ffce75 	bl	401f90 <_ZdlPvm@plt>
  40e5c0:	a9400a60 	ldp	x0, x2, [x19]
  40e5c4:	cb000042 	sub	x2, x2, x0
  40e5c8:	d102c043 	sub	x3, x2, #0xb0
  40e5cc:	8b030001 	add	x1, x0, x3
  40e5d0:	b8636800 	ldr	w0, [x0, x3]
  40e5d4:	7100081f 	cmp	w0, #0x2
  40e5d8:	54ffe0a1 	b.ne	40e1ec <_ZN13PriorityQueue8GenerateE2PT+0x43c>  // b.any
  40e5dc:	910243f4 	add	x20, sp, #0x90
  40e5e0:	910062b6 	add	x22, x21, #0x18
  40e5e4:	aa1403e0 	mov	x0, x20
  40e5e8:	97ffef7e 	bl	40a3e0 <_ZN7segmentC1ERKS_>
  40e5ec:	aa1403e1 	mov	x1, x20
  40e5f0:	aa1603e0 	mov	x0, x22
  40e5f4:	97ffd690 	bl	404034 <_ZN5model9FindDigitE7segment>
  40e5f8:	f94032a1 	ldr	x1, [x21, #96]
  40e5fc:	52801602 	mov	w2, #0xb0                  	// #176
  40e600:	f9408ff6 	ldr	x22, [sp, #280]
  40e604:	9b220400 	smaddl	x0, w0, w2, x1
  40e608:	f90037e0 	str	x0, [sp, #104]
  40e60c:	b40000d6 	cbz	x22, 40e624 <_ZN13PriorityQueue8GenerateE2PT+0x874>
  40e610:	aa1603e0 	mov	x0, x22
  40e614:	d2800201 	mov	x1, #0x10                  	// #16
  40e618:	f94002d6 	ldr	x22, [x22]
  40e61c:	97ffce5d 	bl	401f90 <_ZdlPvm@plt>
  40e620:	b5ffff96 	cbnz	x22, 40e610 <_ZN13PriorityQueue8GenerateE2PT+0x860>
  40e624:	a9508be0 	ldp	x0, x2, [sp, #264]
  40e628:	52800001 	mov	w1, #0x0                   	// #0
  40e62c:	d37df042 	lsl	x2, x2, #3
  40e630:	97ffce30 	bl	401ef0 <memset@plt>
  40e634:	a95087e0 	ldp	x0, x1, [sp, #264]
  40e638:	9102a282 	add	x2, x20, #0xa8
  40e63c:	a911ffff 	stp	xzr, xzr, [sp, #280]
  40e640:	eb02001f 	cmp	x0, x2
  40e644:	54000060 	b.eq	40e650 <_ZN13PriorityQueue8GenerateE2PT+0x8a0>  // b.none
  40e648:	d37df021 	lsl	x1, x1, #3
  40e64c:	97ffce51 	bl	401f90 <_ZdlPvm@plt>
  40e650:	91010280 	add	x0, x20, #0x40
  40e654:	97ffee9b 	bl	40a0c0 <_ZNSt10_HashtableINSt7__cxx1112basic_stringIcSt11char_traitsIcESaIcEEESt4pairIKS5_iESaIS8_ENSt8__detail10_Select1stESt8equal_toIS5_ESt4hashIS5_ENSA_18_Mod_range_hashingENSA_20_Default_ranged_hashENSA_20_Prime_rehash_policyENSA_17_Hashtable_traitsILb1ELb0ELb1EEEE5clearEv>
  40e658:	a94d07e0 	ldp	x0, x1, [sp, #208]
  40e65c:	9101c294 	add	x20, x20, #0x70
  40e660:	eb14001f 	cmp	x0, x20
  40e664:	54000060 	b.eq	40e670 <_ZN13PriorityQueue8GenerateE2PT+0x8c0>  // b.none
  40e668:	d37df021 	lsl	x1, x1, #3
  40e66c:	97ffce49 	bl	401f90 <_ZdlPvm@plt>
  40e670:	f9405be0 	ldr	x0, [sp, #176]
  40e674:	b4000080 	cbz	x0, 40e684 <_ZN13PriorityQueue8GenerateE2PT+0x8d4>
  40e678:	f94063e1 	ldr	x1, [sp, #192]
  40e67c:	cb000021 	sub	x1, x1, x0
  40e680:	97ffce44 	bl	401f90 <_ZdlPvm@plt>
  40e684:	a949dbf4 	ldp	x20, x22, [sp, #152]
  40e688:	eb16029f 	cmp	x20, x22
  40e68c:	54000180 	b.eq	40e6bc <_ZN13PriorityQueue8GenerateE2PT+0x90c>  // b.none
  40e690:	aa1403e1 	mov	x1, x20
  40e694:	f8410420 	ldr	x0, [x1], #16
  40e698:	eb01001f 	cmp	x0, x1
  40e69c:	54000080 	b.eq	40e6ac <_ZN13PriorityQueue8GenerateE2PT+0x8fc>  // b.none
  40e6a0:	f9400a81 	ldr	x1, [x20, #16]
  40e6a4:	91000421 	add	x1, x1, #0x1
  40e6a8:	97ffce3a 	bl	401f90 <_ZdlPvm@plt>
  40e6ac:	91008294 	add	x20, x20, #0x20
  40e6b0:	eb1402df 	cmp	x22, x20
  40e6b4:	54fffee1 	b.ne	40e690 <_ZN13PriorityQueue8GenerateE2PT+0x8e0>  // b.any
  40e6b8:	f9404ff6 	ldr	x22, [sp, #152]
  40e6bc:	b40000b6 	cbz	x22, 40e6d0 <_ZN13PriorityQueue8GenerateE2PT+0x920>
  40e6c0:	f94057e1 	ldr	x1, [sp, #168]
  40e6c4:	aa1603e0 	mov	x0, x22
  40e6c8:	cb160021 	sub	x1, x1, x22
  40e6cc:	97ffce31 	bl	401f90 <_ZdlPvm@plt>
  40e6d0:	a9400a60 	ldp	x0, x2, [x19]
  40e6d4:	cb000042 	sub	x2, x2, x0
  40e6d8:	d102c043 	sub	x3, x2, #0xb0
  40e6dc:	8b030001 	add	x1, x0, x3
  40e6e0:	b8636800 	ldr	w0, [x0, x3]
  40e6e4:	17fffec2 	b	40e1ec <_ZN13PriorityQueue8GenerateE2PT+0x43c>
  40e6e8:	910243f4 	add	x20, sp, #0x90
  40e6ec:	aa0303e1 	mov	x1, x3
  40e6f0:	aa1403e0 	mov	x0, x20
  40e6f4:	97ffef3b 	bl	40a3e0 <_ZN7segmentC1ERKS_>
  40e6f8:	aa1403e1 	mov	x1, x20
  40e6fc:	910062a0 	add	x0, x21, #0x18
  40e700:	97ffd665 	bl	404094 <_ZN5model10FindSymbolE7segment>
  40e704:	f9403ea1 	ldr	x1, [x21, #120]
  40e708:	52801602 	mov	w2, #0xb0                  	// #176
  40e70c:	f9408ff6 	ldr	x22, [sp, #280]
  40e710:	9b220418 	smaddl	x24, w0, w2, x1
  40e714:	b40000d6 	cbz	x22, 40e72c <_ZN13PriorityQueue8GenerateE2PT+0x97c>
  40e718:	aa1603e0 	mov	x0, x22
  40e71c:	d2800201 	mov	x1, #0x10                  	// #16
  40e720:	f94002d6 	ldr	x22, [x22]
  40e724:	97ffce1b 	bl	401f90 <_ZdlPvm@plt>
  40e728:	b5ffff96 	cbnz	x22, 40e718 <_ZN13PriorityQueue8GenerateE2PT+0x968>
  40e72c:	a9508be0 	ldp	x0, x2, [sp, #264]
  40e730:	52800001 	mov	w1, #0x0                   	// #0
  40e734:	d37df042 	lsl	x2, x2, #3
  40e738:	97ffcdee 	bl	401ef0 <memset@plt>
  40e73c:	a95087e0 	ldp	x0, x1, [sp, #264]
  40e740:	9102a282 	add	x2, x20, #0xa8
  40e744:	a911ffff 	stp	xzr, xzr, [sp, #280]
  40e748:	eb02001f 	cmp	x0, x2
  40e74c:	54000060 	b.eq	40e758 <_ZN13PriorityQueue8GenerateE2PT+0x9a8>  // b.none
  40e750:	d37df021 	lsl	x1, x1, #3
  40e754:	97ffce0f 	bl	401f90 <_ZdlPvm@plt>
  40e758:	91010280 	add	x0, x20, #0x40
  40e75c:	97ffee59 	bl	40a0c0 <_ZNSt10_HashtableINSt7__cxx1112basic_stringIcSt11char_traitsIcESaIcEEESt4pairIKS5_iESaIS8_ENSt8__detail10_Select1stESt8equal_toIS5_ESt4hashIS5_ENSA_18_Mod_range_hashingENSA_20_Default_ranged_hashENSA_20_Prime_rehash_policyENSA_17_Hashtable_traitsILb1ELb0ELb1EEEE5clearEv>
  40e760:	a94d07e0 	ldp	x0, x1, [sp, #208]
  40e764:	9101c294 	add	x20, x20, #0x70
  40e768:	eb14001f 	cmp	x0, x20
  40e76c:	54000060 	b.eq	40e778 <_ZN13PriorityQueue8GenerateE2PT+0x9c8>  // b.none
  40e770:	d37df021 	lsl	x1, x1, #3
  40e774:	97ffce07 	bl	401f90 <_ZdlPvm@plt>
  40e778:	f9405be0 	ldr	x0, [sp, #176]
  40e77c:	b4000080 	cbz	x0, 40e78c <_ZN13PriorityQueue8GenerateE2PT+0x9dc>
  40e780:	f94063e1 	ldr	x1, [sp, #192]
  40e784:	cb000021 	sub	x1, x1, x0
  40e788:	97ffce02 	bl	401f90 <_ZdlPvm@plt>
  40e78c:	a949dbf4 	ldp	x20, x22, [sp, #152]
  40e790:	eb16029f 	cmp	x20, x22
  40e794:	54000180 	b.eq	40e7c4 <_ZN13PriorityQueue8GenerateE2PT+0xa14>  // b.none
  40e798:	aa1403e1 	mov	x1, x20
  40e79c:	f8410420 	ldr	x0, [x1], #16
  40e7a0:	eb01001f 	cmp	x0, x1
  40e7a4:	54000080 	b.eq	40e7b4 <_ZN13PriorityQueue8GenerateE2PT+0xa04>  // b.none
  40e7a8:	f9400a81 	ldr	x1, [x20, #16]
  40e7ac:	91000421 	add	x1, x1, #0x1
  40e7b0:	97ffcdf8 	bl	401f90 <_ZdlPvm@plt>
  40e7b4:	91008294 	add	x20, x20, #0x20
  40e7b8:	eb1402df 	cmp	x22, x20
  40e7bc:	54fffee1 	b.ne	40e798 <_ZN13PriorityQueue8GenerateE2PT+0x9e8>  // b.any
  40e7c0:	f9404ff6 	ldr	x22, [sp, #152]
  40e7c4:	b4ffdaf6 	cbz	x22, 40e320 <_ZN13PriorityQueue8GenerateE2PT+0x570>
  40e7c8:	f94057e1 	ldr	x1, [sp, #168]
  40e7cc:	aa1603e0 	mov	x0, x22
  40e7d0:	cb160021 	sub	x1, x1, x22
  40e7d4:	97ffcdef 	bl	401f90 <_ZdlPvm@plt>
  40e7d8:	17fffed2 	b	40e320 <_ZN13PriorityQueue8GenerateE2PT+0x570>
  40e7dc:	910243f4 	add	x20, sp, #0x90
  40e7e0:	aa0303e1 	mov	x1, x3
  40e7e4:	aa1403e0 	mov	x0, x20
  40e7e8:	97ffeefe 	bl	40a3e0 <_ZN7segmentC1ERKS_>
  40e7ec:	aa1403e1 	mov	x1, x20
  40e7f0:	910062a0 	add	x0, x21, #0x18
  40e7f4:	97ffd610 	bl	404034 <_ZN5model9FindDigitE7segment>
  40e7f8:	f94032a1 	ldr	x1, [x21, #96]
  40e7fc:	52801602 	mov	w2, #0xb0                  	// #176
  40e800:	f9408ff6 	ldr	x22, [sp, #280]
  40e804:	9b220418 	smaddl	x24, w0, w2, x1
  40e808:	b40000f6 	cbz	x22, 40e824 <_ZN13PriorityQueue8GenerateE2PT+0xa74>
  40e80c:	d503201f 	nop
  40e810:	aa1603e0 	mov	x0, x22
  40e814:	d2800201 	mov	x1, #0x10                  	// #16
  40e818:	f94002d6 	ldr	x22, [x22]
  40e81c:	97ffcddd 	bl	401f90 <_ZdlPvm@plt>
  40e820:	b5ffff96 	cbnz	x22, 40e810 <_ZN13PriorityQueue8GenerateE2PT+0xa60>
  40e824:	a9508be0 	ldp	x0, x2, [sp, #264]
  40e828:	52800001 	mov	w1, #0x0                   	// #0
  40e82c:	d37df042 	lsl	x2, x2, #3
  40e830:	97ffcdb0 	bl	401ef0 <memset@plt>
  40e834:	a95087e0 	ldp	x0, x1, [sp, #264]
  40e838:	9102a282 	add	x2, x20, #0xa8
  40e83c:	a911ffff 	stp	xzr, xzr, [sp, #280]
  40e840:	eb02001f 	cmp	x0, x2
  40e844:	54000060 	b.eq	40e850 <_ZN13PriorityQueue8GenerateE2PT+0xaa0>  // b.none
  40e848:	d37df021 	lsl	x1, x1, #3
  40e84c:	97ffcdd1 	bl	401f90 <_ZdlPvm@plt>
  40e850:	91010280 	add	x0, x20, #0x40
  40e854:	97ffee1b 	bl	40a0c0 <_ZNSt10_HashtableINSt7__cxx1112basic_stringIcSt11char_traitsIcESaIcEEESt4pairIKS5_iESaIS8_ENSt8__detail10_Select1stESt8equal_toIS5_ESt4hashIS5_ENSA_18_Mod_range_hashingENSA_20_Default_ranged_hashENSA_20_Prime_rehash_policyENSA_17_Hashtable_traitsILb1ELb0ELb1EEEE5clearEv>
  40e858:	a94d07e0 	ldp	x0, x1, [sp, #208]
  40e85c:	9101c294 	add	x20, x20, #0x70
  40e860:	eb14001f 	cmp	x0, x20
  40e864:	54000060 	b.eq	40e870 <_ZN13PriorityQueue8GenerateE2PT+0xac0>  // b.none
  40e868:	d37df021 	lsl	x1, x1, #3
  40e86c:	97ffcdc9 	bl	401f90 <_ZdlPvm@plt>
  40e870:	f9405be0 	ldr	x0, [sp, #176]
  40e874:	b4000080 	cbz	x0, 40e884 <_ZN13PriorityQueue8GenerateE2PT+0xad4>
  40e878:	f94063e1 	ldr	x1, [sp, #192]
  40e87c:	cb000021 	sub	x1, x1, x0
  40e880:	97ffcdc4 	bl	401f90 <_ZdlPvm@plt>
  40e884:	a949dbf4 	ldp	x20, x22, [sp, #152]
  40e888:	eb16029f 	cmp	x20, x22
  40e88c:	54000180 	b.eq	40e8bc <_ZN13PriorityQueue8GenerateE2PT+0xb0c>  // b.none
  40e890:	aa1403e1 	mov	x1, x20
  40e894:	f8410420 	ldr	x0, [x1], #16
  40e898:	eb01001f 	cmp	x0, x1
  40e89c:	54000080 	b.eq	40e8ac <_ZN13PriorityQueue8GenerateE2PT+0xafc>  // b.none
  40e8a0:	f9400a81 	ldr	x1, [x20, #16]
  40e8a4:	91000421 	add	x1, x1, #0x1
  40e8a8:	97ffcdba 	bl	401f90 <_ZdlPvm@plt>
  40e8ac:	91008294 	add	x20, x20, #0x20
  40e8b0:	eb1402df 	cmp	x22, x20
  40e8b4:	54fffee1 	b.ne	40e890 <_ZN13PriorityQueue8GenerateE2PT+0xae0>  // b.any
  40e8b8:	f9404ff6 	ldr	x22, [sp, #152]
  40e8bc:	b40000b6 	cbz	x22, 40e8d0 <_ZN13PriorityQueue8GenerateE2PT+0xb20>
  40e8c0:	f94057e1 	ldr	x1, [sp, #168]
  40e8c4:	aa1603e0 	mov	x0, x22
  40e8c8:	cb160021 	sub	x1, x1, x22
  40e8cc:	97ffcdb1 	bl	401f90 <_ZdlPvm@plt>
  40e8d0:	f9400263 	ldr	x3, [x19]
  40e8d4:	b9400060 	ldr	w0, [x3]
  40e8d8:	17fffe90 	b	40e318 <_ZN13PriorityQueue8GenerateE2PT+0x568>
  40e8dc:	910243f4 	add	x20, sp, #0x90
  40e8e0:	aa0303e1 	mov	x1, x3
  40e8e4:	aa1403e0 	mov	x0, x20
  40e8e8:	97ffeebe 	bl	40a3e0 <_ZN7segmentC1ERKS_>
  40e8ec:	aa1403e1 	mov	x1, x20
  40e8f0:	910062a0 	add	x0, x21, #0x18
  40e8f4:	97ffd5b8 	bl	403fd4 <_ZN5model10FindLetterE7segment>
  40e8f8:	f94026a1 	ldr	x1, [x21, #72]
  40e8fc:	52801602 	mov	w2, #0xb0                  	// #176
  40e900:	f9408ff6 	ldr	x22, [sp, #280]
  40e904:	9b220418 	smaddl	x24, w0, w2, x1
  40e908:	b40000f6 	cbz	x22, 40e924 <_ZN13PriorityQueue8GenerateE2PT+0xb74>
  40e90c:	d503201f 	nop
  40e910:	aa1603e0 	mov	x0, x22
  40e914:	d2800201 	mov	x1, #0x10                  	// #16
  40e918:	f94002d6 	ldr	x22, [x22]
  40e91c:	97ffcd9d 	bl	401f90 <_ZdlPvm@plt>
  40e920:	b5ffff96 	cbnz	x22, 40e910 <_ZN13PriorityQueue8GenerateE2PT+0xb60>
  40e924:	a9508be0 	ldp	x0, x2, [sp, #264]
  40e928:	52800001 	mov	w1, #0x0                   	// #0
  40e92c:	d37df042 	lsl	x2, x2, #3
  40e930:	97ffcd70 	bl	401ef0 <memset@plt>
  40e934:	a95087e0 	ldp	x0, x1, [sp, #264]
  40e938:	9102a282 	add	x2, x20, #0xa8
  40e93c:	a911ffff 	stp	xzr, xzr, [sp, #280]
  40e940:	eb02001f 	cmp	x0, x2
  40e944:	54000060 	b.eq	40e950 <_ZN13PriorityQueue8GenerateE2PT+0xba0>  // b.none
  40e948:	d37df021 	lsl	x1, x1, #3
  40e94c:	97ffcd91 	bl	401f90 <_ZdlPvm@plt>
  40e950:	91010280 	add	x0, x20, #0x40
  40e954:	97ffeddb 	bl	40a0c0 <_ZNSt10_HashtableINSt7__cxx1112basic_stringIcSt11char_traitsIcESaIcEEESt4pairIKS5_iESaIS8_ENSt8__detail10_Select1stESt8equal_toIS5_ESt4hashIS5_ENSA_18_Mod_range_hashingENSA_20_Default_ranged_hashENSA_20_Prime_rehash_policyENSA_17_Hashtable_traitsILb1ELb0ELb1EEEE5clearEv>
  40e958:	a94d07e0 	ldp	x0, x1, [sp, #208]
  40e95c:	9101c294 	add	x20, x20, #0x70
  40e960:	eb14001f 	cmp	x0, x20
  40e964:	54000060 	b.eq	40e970 <_ZN13PriorityQueue8GenerateE2PT+0xbc0>  // b.none
  40e968:	d37df021 	lsl	x1, x1, #3
  40e96c:	97ffcd89 	bl	401f90 <_ZdlPvm@plt>
  40e970:	f9405be0 	ldr	x0, [sp, #176]
  40e974:	b4000080 	cbz	x0, 40e984 <_ZN13PriorityQueue8GenerateE2PT+0xbd4>
  40e978:	f94063e1 	ldr	x1, [sp, #192]
  40e97c:	cb000021 	sub	x1, x1, x0
  40e980:	97ffcd84 	bl	401f90 <_ZdlPvm@plt>
  40e984:	a949dbf4 	ldp	x20, x22, [sp, #152]
  40e988:	eb16029f 	cmp	x20, x22
  40e98c:	54000180 	b.eq	40e9bc <_ZN13PriorityQueue8GenerateE2PT+0xc0c>  // b.none
  40e990:	aa1403e1 	mov	x1, x20
  40e994:	f8410420 	ldr	x0, [x1], #16
  40e998:	eb01001f 	cmp	x0, x1
  40e99c:	54000080 	b.eq	40e9ac <_ZN13PriorityQueue8GenerateE2PT+0xbfc>  // b.none
  40e9a0:	f9400a81 	ldr	x1, [x20, #16]
  40e9a4:	91000421 	add	x1, x1, #0x1
  40e9a8:	97ffcd7a 	bl	401f90 <_ZdlPvm@plt>
  40e9ac:	91008294 	add	x20, x20, #0x20
  40e9b0:	eb1402df 	cmp	x22, x20
  40e9b4:	54fffee1 	b.ne	40e990 <_ZN13PriorityQueue8GenerateE2PT+0xbe0>  // b.any
  40e9b8:	f9404ff6 	ldr	x22, [sp, #152]
  40e9bc:	b40000b6 	cbz	x22, 40e9d0 <_ZN13PriorityQueue8GenerateE2PT+0xc20>
  40e9c0:	f94057e1 	ldr	x1, [sp, #168]
  40e9c4:	aa1603e0 	mov	x0, x22
  40e9c8:	cb160021 	sub	x1, x1, x22
  40e9cc:	97ffcd71 	bl	401f90 <_ZdlPvm@plt>
  40e9d0:	f9400263 	ldr	x3, [x19]
  40e9d4:	b9400060 	ldr	w0, [x3]
  40e9d8:	17fffe4e 	b	40e310 <_ZN13PriorityQueue8GenerateE2PT+0x560>
  40e9dc:	aa0003f3 	mov	x19, x0
  40e9e0:	aa1403e0 	mov	x0, x20
  40e9e4:	a9046bf9 	stp	x25, x26, [sp, #64]
  40e9e8:	a90573fb 	stp	x27, x28, [sp, #80]
  40e9ec:	97ffedd5 	bl	40a140 <_ZN7segmentD1Ev>
  40e9f0:	aa1303e0 	mov	x0, x19
  40e9f4:	97ffcdcb 	bl	402120 <_Unwind_Resume@plt>
  40e9f8:	17fffff9 	b	40e9dc <_ZN13PriorityQueue8GenerateE2PT+0xc2c>
  40e9fc:	aa0003f3 	mov	x19, x0
  40ea00:	aa1403e0 	mov	x0, x20
  40ea04:	97ffedcf 	bl	40a140 <_ZN7segmentD1Ev>
  40ea08:	9101c3e0 	add	x0, sp, #0x70
  40ea0c:	97ffcd75 	bl	401fe0 <_ZNSt7__cxx1112basic_stringIcSt11char_traitsIcESaIcEE10_M_disposeEv@plt>
  40ea10:	aa1303e0 	mov	x0, x19
  40ea14:	97ffcdc3 	bl	402120 <_Unwind_Resume@plt>
  40ea18:	17fffff9 	b	40e9fc <_ZN13PriorityQueue8GenerateE2PT+0xc4c>
  40ea1c:	17fffff0 	b	40e9dc <_ZN13PriorityQueue8GenerateE2PT+0xc2c>
  40ea20:	17fffff7 	b	40e9fc <_ZN13PriorityQueue8GenerateE2PT+0xc4c>
  40ea24:	aa0003f3 	mov	x19, x0
  40ea28:	aa1403e0 	mov	x0, x20
  40ea2c:	97ffcd6d 	bl	401fe0 <_ZNSt7__cxx1112basic_stringIcSt11char_traitsIcESaIcEE10_M_disposeEv@plt>
  40ea30:	17fffff6 	b	40ea08 <_ZN13PriorityQueue8GenerateE2PT+0xc58>
  40ea34:	17fffffc 	b	40ea24 <_ZN13PriorityQueue8GenerateE2PT+0xc74>
  40ea38:	aa0003f3 	mov	x19, x0
  40ea3c:	910243e0 	add	x0, sp, #0x90
  40ea40:	97ffedc0 	bl	40a140 <_ZN7segmentD1Ev>
  40ea44:	17fffff1 	b	40ea08 <_ZN13PriorityQueue8GenerateE2PT+0xc58>
  40ea48:	17fffffc 	b	40ea38 <_ZN13PriorityQueue8GenerateE2PT+0xc88>
  40ea4c:	aa0003f3 	mov	x19, x0
  40ea50:	17ffffee 	b	40ea08 <_ZN13PriorityQueue8GenerateE2PT+0xc58>
  40ea54:	17fffff9 	b	40ea38 <_ZN13PriorityQueue8GenerateE2PT+0xc88>
  40ea58:	aa0003f3 	mov	x19, x0
  40ea5c:	aa1403e0 	mov	x0, x20
  40ea60:	a90573fb 	stp	x27, x28, [sp, #80]
  40ea64:	97ffcd5f 	bl	401fe0 <_ZNSt7__cxx1112basic_stringIcSt11char_traitsIcESaIcEE10_M_disposeEv@plt>
  40ea68:	aa1303e0 	mov	x0, x19
  40ea6c:	97ffcdad 	bl	402120 <_Unwind_Resume@plt>

000000000040ea70 <_ZN13PriorityQueue7PopNextEv>:
  40ea70:	a9b37bfd 	stp	x29, x30, [sp, #-208]!
  40ea74:	910003fd 	mov	x29, sp
  40ea78:	a9025bf5 	stp	x21, x22, [sp, #32]
  40ea7c:	aa0003f6 	mov	x22, x0
  40ea80:	9101e3e0 	add	x0, sp, #0x78
  40ea84:	f94002c1 	ldr	x1, [x22]
  40ea88:	97ffef72 	bl	40a850 <_ZN2PTC1ERKS_>
  40ea8c:	9101e3e1 	add	x1, sp, #0x78
  40ea90:	aa1603e0 	mov	x0, x22
  40ea94:	97fffcc7 	bl	40ddb0 <_ZN13PriorityQueue8GenerateE2PT>
  40ea98:	f9405be0 	ldr	x0, [sp, #176]
  40ea9c:	a90153f3 	stp	x19, x20, [sp, #16]
  40eaa0:	a90363f7 	stp	x23, x24, [sp, #48]
  40eaa4:	a9046bf9 	stp	x25, x26, [sp, #64]
  40eaa8:	b4000080 	cbz	x0, 40eab8 <_ZN13PriorityQueue7PopNextEv+0x48>
  40eaac:	f94063e1 	ldr	x1, [sp, #192]
  40eab0:	cb000021 	sub	x1, x1, x0
  40eab4:	97ffcd37 	bl	401f90 <_ZdlPvm@plt>
  40eab8:	f9404fe0 	ldr	x0, [sp, #152]
  40eabc:	b4000080 	cbz	x0, 40eacc <_ZN13PriorityQueue7PopNextEv+0x5c>
  40eac0:	f94057e1 	ldr	x1, [sp, #168]
  40eac4:	cb000021 	sub	x1, x1, x0
  40eac8:	97ffcd32 	bl	401f90 <_ZdlPvm@plt>
  40eacc:	a947dff4 	ldp	x20, x23, [sp, #120]
  40ead0:	eb17029f 	cmp	x20, x23
  40ead4:	540006e0 	b.eq	40ebb0 <_ZN13PriorityQueue7PopNextEv+0x140>  // b.none
  40ead8:	f9404693 	ldr	x19, [x20, #136]
  40eadc:	b40000d3 	cbz	x19, 40eaf4 <_ZN13PriorityQueue7PopNextEv+0x84>
  40eae0:	aa1303e0 	mov	x0, x19
  40eae4:	d2800201 	mov	x1, #0x10                  	// #16
  40eae8:	f9400273 	ldr	x19, [x19]
  40eaec:	97ffcd29 	bl	401f90 <_ZdlPvm@plt>
  40eaf0:	b5ffff93 	cbnz	x19, 40eae0 <_ZN13PriorityQueue7PopNextEv+0x70>
  40eaf4:	a9478a80 	ldp	x0, x2, [x20, #120]
  40eaf8:	52800001 	mov	w1, #0x0                   	// #0
  40eafc:	d37df042 	lsl	x2, x2, #3
  40eb00:	97ffccfc 	bl	401ef0 <memset@plt>
  40eb04:	a9478680 	ldp	x0, x1, [x20, #120]
  40eb08:	9102a282 	add	x2, x20, #0xa8
  40eb0c:	a908fe9f 	stp	xzr, xzr, [x20, #136]
  40eb10:	eb02001f 	cmp	x0, x2
  40eb14:	54000060 	b.eq	40eb20 <_ZN13PriorityQueue7PopNextEv+0xb0>  // b.none
  40eb18:	d37df021 	lsl	x1, x1, #3
  40eb1c:	97ffcd1d 	bl	401f90 <_ZdlPvm@plt>
  40eb20:	91010280 	add	x0, x20, #0x40
  40eb24:	97ffed67 	bl	40a0c0 <_ZNSt10_HashtableINSt7__cxx1112basic_stringIcSt11char_traitsIcESaIcEEESt4pairIKS5_iESaIS8_ENSt8__detail10_Select1stESt8equal_toIS5_ESt4hashIS5_ENSA_18_Mod_range_hashingENSA_20_Default_ranged_hashENSA_20_Prime_rehash_policyENSA_17_Hashtable_traitsILb1ELb0ELb1EEEE5clearEv>
  40eb28:	a9440680 	ldp	x0, x1, [x20, #64]
  40eb2c:	9101c282 	add	x2, x20, #0x70
  40eb30:	eb02001f 	cmp	x0, x2
  40eb34:	54000060 	b.eq	40eb40 <_ZN13PriorityQueue7PopNextEv+0xd0>  // b.none
  40eb38:	d37df021 	lsl	x1, x1, #3
  40eb3c:	97ffcd15 	bl	401f90 <_ZdlPvm@plt>
  40eb40:	f9401280 	ldr	x0, [x20, #32]
  40eb44:	b4000080 	cbz	x0, 40eb54 <_ZN13PriorityQueue7PopNextEv+0xe4>
  40eb48:	f9401a81 	ldr	x1, [x20, #48]
  40eb4c:	cb000021 	sub	x1, x1, x0
  40eb50:	97ffcd10 	bl	401f90 <_ZdlPvm@plt>
  40eb54:	a940d693 	ldp	x19, x21, [x20, #8]
  40eb58:	eb15027f 	cmp	x19, x21
  40eb5c:	54000180 	b.eq	40eb8c <_ZN13PriorityQueue7PopNextEv+0x11c>  // b.none
  40eb60:	aa1303e1 	mov	x1, x19
  40eb64:	f8410420 	ldr	x0, [x1], #16
  40eb68:	eb01001f 	cmp	x0, x1
  40eb6c:	54000080 	b.eq	40eb7c <_ZN13PriorityQueue7PopNextEv+0x10c>  // b.none
  40eb70:	f9400a61 	ldr	x1, [x19, #16]
  40eb74:	91000421 	add	x1, x1, #0x1
  40eb78:	97ffcd06 	bl	401f90 <_ZdlPvm@plt>
  40eb7c:	91008273 	add	x19, x19, #0x20
  40eb80:	eb1302bf 	cmp	x21, x19
  40eb84:	54fffee1 	b.ne	40eb60 <_ZN13PriorityQueue7PopNextEv+0xf0>  // b.any
  40eb88:	f9400695 	ldr	x21, [x20, #8]
  40eb8c:	b40000b5 	cbz	x21, 40eba0 <_ZN13PriorityQueue7PopNextEv+0x130>
  40eb90:	f9400e81 	ldr	x1, [x20, #24]
  40eb94:	aa1503e0 	mov	x0, x21
  40eb98:	cb150021 	sub	x1, x1, x21
  40eb9c:	97ffccfd 	bl	401f90 <_ZdlPvm@plt>
  40eba0:	9102c294 	add	x20, x20, #0xb0
  40eba4:	eb1402ff 	cmp	x23, x20
  40eba8:	54fff981 	b.ne	40ead8 <_ZN13PriorityQueue7PopNextEv+0x68>  // b.any
  40ebac:	f9403ff7 	ldr	x23, [sp, #120]
  40ebb0:	b40000b7 	cbz	x23, 40ebc4 <_ZN13PriorityQueue7PopNextEv+0x154>
  40ebb4:	f94047e1 	ldr	x1, [sp, #136]
  40ebb8:	aa1703e0 	mov	x0, x23
  40ebbc:	cb170021 	sub	x1, x1, x23
  40ebc0:	97ffccf4 	bl	401f90 <_ZdlPvm@plt>
  40ebc4:	f94002c0 	ldr	x0, [x22]
  40ebc8:	910183e8 	add	x8, sp, #0x60
  40ebcc:	97fffc2d 	bl	40dc80 <_ZN2PT6NewPTsEv>
  40ebd0:	a94663f7 	ldp	x23, x24, [sp, #96]
  40ebd4:	eb1802ff 	cmp	x23, x24
  40ebd8:	54000d80 	b.eq	40ed88 <_ZN13PriorityQueue7PopNextEv+0x318>  // b.none
  40ebdc:	d503201f 	nop
  40ebe0:	aa1703e1 	mov	x1, x23
  40ebe4:	9101e3e0 	add	x0, sp, #0x78
  40ebe8:	97ffef1a 	bl	40a850 <_ZN2PTC1ERKS_>
  40ebec:	9101e3e1 	add	x1, sp, #0x78
  40ebf0:	aa1603e0 	mov	x0, x22
  40ebf4:	97fffa60 	bl	40d574 <_ZN13PriorityQueue7CalProbER2PT>
  40ebf8:	a94002c1 	ldp	x1, x0, [x22]
  40ebfc:	eb00003f 	cmp	x1, x0
  40ec00:	540002e0 	b.eq	40ec5c <_ZN13PriorityQueue7PopNextEv+0x1ec>  // b.none
  40ec04:	d1016003 	sub	x3, x0, #0x58
  40ec08:	aa0103e2 	mov	x2, x1
  40ec0c:	bd40cfe0 	ldr	s0, [sp, #204]
  40ec10:	14000009 	b	40ec34 <_ZN13PriorityQueue7PopNextEv+0x1c4>
  40ec14:	eb02003f 	cmp	x1, x2
  40ec18:	54002f80 	b.eq	40f208 <_ZN13PriorityQueue7PopNextEv+0x798>  // b.none
  40ec1c:	bd405441 	ldr	s1, [x2, #84]
  40ec20:	1e212010 	fcmpe	s0, s1
  40ec24:	54003029 	b.ls	40f228 <_ZN13PriorityQueue7PopNextEv+0x7b8>  // b.plast
  40ec28:	91016042 	add	x2, x2, #0x58
  40ec2c:	eb02001f 	cmp	x0, x2
  40ec30:	54000160 	b.eq	40ec5c <_ZN13PriorityQueue7PopNextEv+0x1ec>  // b.none
  40ec34:	eb02007f 	cmp	x3, x2
  40ec38:	54fffee1 	b.ne	40ec14 <_ZN13PriorityQueue7PopNextEv+0x1a4>  // b.any
  40ec3c:	f9400ac1 	ldr	x1, [x22, #16]
  40ec40:	eb00003f 	cmp	x1, x0
  40ec44:	54003040 	b.eq	40f24c <_ZN13PriorityQueue7PopNextEv+0x7dc>  // b.none
  40ec48:	9101e3e1 	add	x1, sp, #0x78
  40ec4c:	97ffef01 	bl	40a850 <_ZN2PTC1ERKS_>
  40ec50:	f94006c0 	ldr	x0, [x22, #8]
  40ec54:	91016000 	add	x0, x0, #0x58
  40ec58:	f90006c0 	str	x0, [x22, #8]
  40ec5c:	f9405be0 	ldr	x0, [sp, #176]
  40ec60:	b4000080 	cbz	x0, 40ec70 <_ZN13PriorityQueue7PopNextEv+0x200>
  40ec64:	f94063e1 	ldr	x1, [sp, #192]
  40ec68:	cb000021 	sub	x1, x1, x0
  40ec6c:	97ffccc9 	bl	401f90 <_ZdlPvm@plt>
  40ec70:	f9404fe0 	ldr	x0, [sp, #152]
  40ec74:	b4000080 	cbz	x0, 40ec84 <_ZN13PriorityQueue7PopNextEv+0x214>
  40ec78:	f94057e1 	ldr	x1, [sp, #168]
  40ec7c:	cb000021 	sub	x1, x1, x0
  40ec80:	97ffccc4 	bl	401f90 <_ZdlPvm@plt>
  40ec84:	a947d7f4 	ldp	x20, x21, [sp, #120]
  40ec88:	eb15029f 	cmp	x20, x21
  40ec8c:	540006e0 	b.eq	40ed68 <_ZN13PriorityQueue7PopNextEv+0x2f8>  // b.none
  40ec90:	f9404693 	ldr	x19, [x20, #136]
  40ec94:	b40000d3 	cbz	x19, 40ecac <_ZN13PriorityQueue7PopNextEv+0x23c>
  40ec98:	aa1303e0 	mov	x0, x19
  40ec9c:	d2800201 	mov	x1, #0x10                  	// #16
  40eca0:	f9400273 	ldr	x19, [x19]
  40eca4:	97ffccbb 	bl	401f90 <_ZdlPvm@plt>
  40eca8:	b5ffff93 	cbnz	x19, 40ec98 <_ZN13PriorityQueue7PopNextEv+0x228>
  40ecac:	a9478a80 	ldp	x0, x2, [x20, #120]
  40ecb0:	52800001 	mov	w1, #0x0                   	// #0
  40ecb4:	d37df042 	lsl	x2, x2, #3
  40ecb8:	97ffcc8e 	bl	401ef0 <memset@plt>
  40ecbc:	a9478680 	ldp	x0, x1, [x20, #120]
  40ecc0:	9102a282 	add	x2, x20, #0xa8
  40ecc4:	a908fe9f 	stp	xzr, xzr, [x20, #136]
  40ecc8:	eb02001f 	cmp	x0, x2
  40eccc:	54000060 	b.eq	40ecd8 <_ZN13PriorityQueue7PopNextEv+0x268>  // b.none
  40ecd0:	d37df021 	lsl	x1, x1, #3
  40ecd4:	97ffccaf 	bl	401f90 <_ZdlPvm@plt>
  40ecd8:	91010280 	add	x0, x20, #0x40
  40ecdc:	97ffecf9 	bl	40a0c0 <_ZNSt10_HashtableINSt7__cxx1112basic_stringIcSt11char_traitsIcESaIcEEESt4pairIKS5_iESaIS8_ENSt8__detail10_Select1stESt8equal_toIS5_ESt4hashIS5_ENSA_18_Mod_range_hashingENSA_20_Default_ranged_hashENSA_20_Prime_rehash_policyENSA_17_Hashtable_traitsILb1ELb0ELb1EEEE5clearEv>
  40ece0:	a9440680 	ldp	x0, x1, [x20, #64]
  40ece4:	9101c282 	add	x2, x20, #0x70
  40ece8:	eb02001f 	cmp	x0, x2
  40ecec:	54000060 	b.eq	40ecf8 <_ZN13PriorityQueue7PopNextEv+0x288>  // b.none
  40ecf0:	d37df021 	lsl	x1, x1, #3
  40ecf4:	97ffcca7 	bl	401f90 <_ZdlPvm@plt>
  40ecf8:	f9401280 	ldr	x0, [x20, #32]
  40ecfc:	b4000080 	cbz	x0, 40ed0c <_ZN13PriorityQueue7PopNextEv+0x29c>
  40ed00:	f9401a81 	ldr	x1, [x20, #48]
  40ed04:	cb000021 	sub	x1, x1, x0
  40ed08:	97ffcca2 	bl	401f90 <_ZdlPvm@plt>
  40ed0c:	a940e693 	ldp	x19, x25, [x20, #8]
  40ed10:	eb19027f 	cmp	x19, x25
  40ed14:	54000180 	b.eq	40ed44 <_ZN13PriorityQueue7PopNextEv+0x2d4>  // b.none
  40ed18:	aa1303e1 	mov	x1, x19
  40ed1c:	f8410420 	ldr	x0, [x1], #16
  40ed20:	eb01001f 	cmp	x0, x1
  40ed24:	54000080 	b.eq	40ed34 <_ZN13PriorityQueue7PopNextEv+0x2c4>  // b.none
  40ed28:	f9400a61 	ldr	x1, [x19, #16]
  40ed2c:	91000421 	add	x1, x1, #0x1
  40ed30:	97ffcc98 	bl	401f90 <_ZdlPvm@plt>
  40ed34:	91008273 	add	x19, x19, #0x20
  40ed38:	eb13033f 	cmp	x25, x19
  40ed3c:	54fffee1 	b.ne	40ed18 <_ZN13PriorityQueue7PopNextEv+0x2a8>  // b.any
  40ed40:	f9400699 	ldr	x25, [x20, #8]
  40ed44:	b40000b9 	cbz	x25, 40ed58 <_ZN13PriorityQueue7PopNextEv+0x2e8>
  40ed48:	f9400e81 	ldr	x1, [x20, #24]
  40ed4c:	aa1903e0 	mov	x0, x25
  40ed50:	cb190021 	sub	x1, x1, x25
  40ed54:	97ffcc8f 	bl	401f90 <_ZdlPvm@plt>
  40ed58:	9102c294 	add	x20, x20, #0xb0
  40ed5c:	eb1402bf 	cmp	x21, x20
  40ed60:	54fff981 	b.ne	40ec90 <_ZN13PriorityQueue7PopNextEv+0x220>  // b.any
  40ed64:	f9403ff5 	ldr	x21, [sp, #120]
  40ed68:	b40000b5 	cbz	x21, 40ed7c <_ZN13PriorityQueue7PopNextEv+0x30c>
  40ed6c:	f94047e1 	ldr	x1, [sp, #136]
  40ed70:	aa1503e0 	mov	x0, x21
  40ed74:	cb150021 	sub	x1, x1, x21
  40ed78:	97ffcc86 	bl	401f90 <_ZdlPvm@plt>
  40ed7c:	910162f7 	add	x23, x23, #0x58
  40ed80:	eb17031f 	cmp	x24, x23
  40ed84:	54fff2e1 	b.ne	40ebe0 <_ZN13PriorityQueue7PopNextEv+0x170>  // b.any
  40ed88:	a9405ed5 	ldp	x21, x23, [x22]
  40ed8c:	910162ba 	add	x26, x21, #0x58
  40ed90:	eb17035f 	cmp	x26, x23
  40ed94:	54000ee0 	b.eq	40ef70 <_ZN13PriorityQueue7PopNextEv+0x500>  // b.none
  40ed98:	cb1a02e0 	sub	x0, x23, x26
  40ed9c:	d2917461 	mov	x1, #0x8ba3                	// #35747
  40eda0:	f2b745c1 	movk	x1, #0xba2e, lsl #16
  40eda4:	9343fc19 	asr	x25, x0, #3
  40eda8:	f2d45d01 	movk	x1, #0xa2e8, lsl #32
  40edac:	f2e5d161 	movk	x1, #0x2e8b, lsl #48
  40edb0:	9b017f39 	mul	x25, x25, x1
  40edb4:	f100001f 	cmp	x0, #0x0
  40edb8:	54000dcd 	b.le	40ef70 <_ZN13PriorityQueue7PopNextEv+0x500>
  40edbc:	a90573fb 	stp	x27, x28, [sp, #80]
  40edc0:	a9405eb8 	ldp	x24, x23, [x21]
  40edc4:	f9402ea0 	ldr	x0, [x21, #88]
  40edc8:	f90002a0 	str	x0, [x21]
  40edcc:	f94032a0 	ldr	x0, [x21, #96]
  40edd0:	f90006a0 	str	x0, [x21, #8]
  40edd4:	f94036a0 	ldr	x0, [x21, #104]
  40edd8:	f9002ebf 	str	xzr, [x21, #88]
  40eddc:	f90032bf 	str	xzr, [x21, #96]
  40ede0:	aa1803f4 	mov	x20, x24
  40ede4:	f90036bf 	str	xzr, [x21, #104]
  40ede8:	f9400abb 	ldr	x27, [x21, #16]
  40edec:	f9000aa0 	str	x0, [x21, #16]
  40edf0:	eb17031f 	cmp	x24, x23
  40edf4:	540006c0 	b.eq	40eecc <_ZN13PriorityQueue7PopNextEv+0x45c>  // b.none
  40edf8:	f9404693 	ldr	x19, [x20, #136]
  40edfc:	b40000d3 	cbz	x19, 40ee14 <_ZN13PriorityQueue7PopNextEv+0x3a4>
  40ee00:	aa1303e0 	mov	x0, x19
  40ee04:	d2800201 	mov	x1, #0x10                  	// #16
  40ee08:	f9400273 	ldr	x19, [x19]
  40ee0c:	97ffcc61 	bl	401f90 <_ZdlPvm@plt>
  40ee10:	b5ffff93 	cbnz	x19, 40ee00 <_ZN13PriorityQueue7PopNextEv+0x390>
  40ee14:	a9478a80 	ldp	x0, x2, [x20, #120]
  40ee18:	52800001 	mov	w1, #0x0                   	// #0
  40ee1c:	d37df042 	lsl	x2, x2, #3
  40ee20:	97ffcc34 	bl	401ef0 <memset@plt>
  40ee24:	a9478680 	ldp	x0, x1, [x20, #120]
  40ee28:	9102a282 	add	x2, x20, #0xa8
  40ee2c:	a908fe9f 	stp	xzr, xzr, [x20, #136]
  40ee30:	eb02001f 	cmp	x0, x2
  40ee34:	54000060 	b.eq	40ee40 <_ZN13PriorityQueue7PopNextEv+0x3d0>  // b.none
  40ee38:	d37df021 	lsl	x1, x1, #3
  40ee3c:	97ffcc55 	bl	401f90 <_ZdlPvm@plt>
  40ee40:	91010280 	add	x0, x20, #0x40
  40ee44:	97ffec9f 	bl	40a0c0 <_ZNSt10_HashtableINSt7__cxx1112basic_stringIcSt11char_traitsIcESaIcEEESt4pairIKS5_iESaIS8_ENSt8__detail10_Select1stESt8equal_toIS5_ESt4hashIS5_ENSA_18_Mod_range_hashingENSA_20_Default_ranged_hashENSA_20_Prime_rehash_policyENSA_17_Hashtable_traitsILb1ELb0ELb1EEEE5clearEv>
  40ee48:	a9440680 	ldp	x0, x1, [x20, #64]
  40ee4c:	9101c282 	add	x2, x20, #0x70
  40ee50:	eb02001f 	cmp	x0, x2
  40ee54:	54000060 	b.eq	40ee60 <_ZN13PriorityQueue7PopNextEv+0x3f0>  // b.none
  40ee58:	d37df021 	lsl	x1, x1, #3
  40ee5c:	97ffcc4d 	bl	401f90 <_ZdlPvm@plt>
  40ee60:	f9401280 	ldr	x0, [x20, #32]
  40ee64:	b4000080 	cbz	x0, 40ee74 <_ZN13PriorityQueue7PopNextEv+0x404>
  40ee68:	f9401a81 	ldr	x1, [x20, #48]
  40ee6c:	cb000021 	sub	x1, x1, x0
  40ee70:	97ffcc48 	bl	401f90 <_ZdlPvm@plt>
  40ee74:	a940f293 	ldp	x19, x28, [x20, #8]
  40ee78:	eb1c027f 	cmp	x19, x28
  40ee7c:	54000180 	b.eq	40eeac <_ZN13PriorityQueue7PopNextEv+0x43c>  // b.none
  40ee80:	aa1303e1 	mov	x1, x19
  40ee84:	f8410420 	ldr	x0, [x1], #16
  40ee88:	eb01001f 	cmp	x0, x1
  40ee8c:	54000080 	b.eq	40ee9c <_ZN13PriorityQueue7PopNextEv+0x42c>  // b.none
  40ee90:	f9400a61 	ldr	x1, [x19, #16]
  40ee94:	91000421 	add	x1, x1, #0x1
  40ee98:	97ffcc3e 	bl	401f90 <_ZdlPvm@plt>
  40ee9c:	91008273 	add	x19, x19, #0x20
  40eea0:	eb13039f 	cmp	x28, x19
  40eea4:	54fffee1 	b.ne	40ee80 <_ZN13PriorityQueue7PopNextEv+0x410>  // b.any
  40eea8:	f940069c 	ldr	x28, [x20, #8]
  40eeac:	b40000bc 	cbz	x28, 40eec0 <_ZN13PriorityQueue7PopNextEv+0x450>
  40eeb0:	f9400e81 	ldr	x1, [x20, #24]
  40eeb4:	aa1c03e0 	mov	x0, x28
  40eeb8:	cb1c0021 	sub	x1, x1, x28
  40eebc:	97ffcc35 	bl	401f90 <_ZdlPvm@plt>
  40eec0:	9102c294 	add	x20, x20, #0xb0
  40eec4:	eb1402ff 	cmp	x23, x20
  40eec8:	54fff981 	b.ne	40edf8 <_ZN13PriorityQueue7PopNextEv+0x388>  // b.any
  40eecc:	b4000098 	cbz	x24, 40eedc <_ZN13PriorityQueue7PopNextEv+0x46c>
  40eed0:	cb180361 	sub	x1, x27, x24
  40eed4:	aa1803e0 	mov	x0, x24
  40eed8:	97ffcc2e 	bl	401f90 <_ZdlPvm@plt>
  40eedc:	b94072a1 	ldr	w1, [x21, #112]
  40eee0:	f9403ea2 	ldr	x2, [x21, #120]
  40eee4:	b9001aa1 	str	w1, [x21, #24]
  40eee8:	f94012a0 	ldr	x0, [x21, #32]
  40eeec:	f90012a2 	str	x2, [x21, #32]
  40eef0:	a9480aa1 	ldp	x1, x2, [x21, #128]
  40eef4:	f90016a1 	str	x1, [x21, #40]
  40eef8:	f9003ebf 	str	xzr, [x21, #120]
  40eefc:	a9087ebf 	stp	xzr, xzr, [x21, #128]
  40ef00:	f9401aa1 	ldr	x1, [x21, #48]
  40ef04:	f9001aa2 	str	x2, [x21, #48]
  40ef08:	b4000060 	cbz	x0, 40ef14 <_ZN13PriorityQueue7PopNextEv+0x4a4>
  40ef0c:	cb000021 	sub	x1, x1, x0
  40ef10:	97ffcc20 	bl	401f90 <_ZdlPvm@plt>
  40ef14:	f9401ea0 	ldr	x0, [x21, #56]
  40ef18:	f9404aa1 	ldr	x1, [x21, #144]
  40ef1c:	f9001ea1 	str	x1, [x21, #56]
  40ef20:	f9404ea1 	ldr	x1, [x21, #152]
  40ef24:	f90022a1 	str	x1, [x21, #64]
  40ef28:	f94052a2 	ldr	x2, [x21, #160]
  40ef2c:	f9004abf 	str	xzr, [x21, #144]
  40ef30:	f9004ebf 	str	xzr, [x21, #152]
  40ef34:	f90052bf 	str	xzr, [x21, #160]
  40ef38:	f94026a1 	ldr	x1, [x21, #72]
  40ef3c:	f90026a2 	str	x2, [x21, #72]
  40ef40:	b4000060 	cbz	x0, 40ef4c <_ZN13PriorityQueue7PopNextEv+0x4dc>
  40ef44:	cb000021 	sub	x1, x1, x0
  40ef48:	97ffcc12 	bl	401f90 <_ZdlPvm@plt>
  40ef4c:	2d5502a1 	ldp	s1, s0, [x21, #168]
  40ef50:	f1000739 	subs	x25, x25, #0x1
  40ef54:	2d0a02a1 	stp	s1, s0, [x21, #80]
  40ef58:	aa1a03f5 	mov	x21, x26
  40ef5c:	54000060 	b.eq	40ef68 <_ZN13PriorityQueue7PopNextEv+0x4f8>  // b.none
  40ef60:	9101635a 	add	x26, x26, #0x58
  40ef64:	17ffff97 	b	40edc0 <_ZN13PriorityQueue7PopNextEv+0x350>
  40ef68:	a94573fb 	ldp	x27, x28, [sp, #80]
  40ef6c:	f94006d7 	ldr	x23, [x22, #8]
  40ef70:	d10162e1 	sub	x1, x23, #0x58
  40ef74:	f85e02e0 	ldur	x0, [x23, #-32]
  40ef78:	f90006c1 	str	x1, [x22, #8]
  40ef7c:	b4000080 	cbz	x0, 40ef8c <_ZN13PriorityQueue7PopNextEv+0x51c>
  40ef80:	f85f02e1 	ldur	x1, [x23, #-16]
  40ef84:	cb000021 	sub	x1, x1, x0
  40ef88:	97ffcc02 	bl	401f90 <_ZdlPvm@plt>
  40ef8c:	f85c82e0 	ldur	x0, [x23, #-56]
  40ef90:	b4000080 	cbz	x0, 40efa0 <_ZN13PriorityQueue7PopNextEv+0x530>
  40ef94:	f85d82e1 	ldur	x1, [x23, #-40]
  40ef98:	cb000021 	sub	x1, x1, x0
  40ef9c:	97ffcbfd 	bl	401f90 <_ZdlPvm@plt>
  40efa0:	a97adaf4 	ldp	x20, x22, [x23, #-88]
  40efa4:	eb16029f 	cmp	x20, x22
  40efa8:	54000700 	b.eq	40f088 <_ZN13PriorityQueue7PopNextEv+0x618>  // b.none
  40efac:	d503201f 	nop
  40efb0:	f9404693 	ldr	x19, [x20, #136]
  40efb4:	b40000d3 	cbz	x19, 40efcc <_ZN13PriorityQueue7PopNextEv+0x55c>
  40efb8:	aa1303e0 	mov	x0, x19
  40efbc:	d2800201 	mov	x1, #0x10                  	// #16
  40efc0:	f9400273 	ldr	x19, [x19]
  40efc4:	97ffcbf3 	bl	401f90 <_ZdlPvm@plt>
  40efc8:	b5ffff93 	cbnz	x19, 40efb8 <_ZN13PriorityQueue7PopNextEv+0x548>
  40efcc:	a9478a80 	ldp	x0, x2, [x20, #120]
  40efd0:	52800001 	mov	w1, #0x0                   	// #0
  40efd4:	d37df042 	lsl	x2, x2, #3
  40efd8:	97ffcbc6 	bl	401ef0 <memset@plt>
  40efdc:	a9478680 	ldp	x0, x1, [x20, #120]
  40efe0:	9102a282 	add	x2, x20, #0xa8
  40efe4:	a908fe9f 	stp	xzr, xzr, [x20, #136]
  40efe8:	eb02001f 	cmp	x0, x2
  40efec:	54000060 	b.eq	40eff8 <_ZN13PriorityQueue7PopNextEv+0x588>  // b.none
  40eff0:	d37df021 	lsl	x1, x1, #3
  40eff4:	97ffcbe7 	bl	401f90 <_ZdlPvm@plt>
  40eff8:	91010280 	add	x0, x20, #0x40
  40effc:	97ffec31 	bl	40a0c0 <_ZNSt10_HashtableINSt7__cxx1112basic_stringIcSt11char_traitsIcESaIcEEESt4pairIKS5_iESaIS8_ENSt8__detail10_Select1stESt8equal_toIS5_ESt4hashIS5_ENSA_18_Mod_range_hashingENSA_20_Default_ranged_hashENSA_20_Prime_rehash_policyENSA_17_Hashtable_traitsILb1ELb0ELb1EEEE5clearEv>
  40f000:	a9440680 	ldp	x0, x1, [x20, #64]
  40f004:	9101c282 	add	x2, x20, #0x70
  40f008:	eb02001f 	cmp	x0, x2
  40f00c:	54000060 	b.eq	40f018 <_ZN13PriorityQueue7PopNextEv+0x5a8>  // b.none
  40f010:	d37df021 	lsl	x1, x1, #3
  40f014:	97ffcbdf 	bl	401f90 <_ZdlPvm@plt>
  40f018:	f9401280 	ldr	x0, [x20, #32]
  40f01c:	b4000080 	cbz	x0, 40f02c <_ZN13PriorityQueue7PopNextEv+0x5bc>
  40f020:	f9401a81 	ldr	x1, [x20, #48]
  40f024:	cb000021 	sub	x1, x1, x0
  40f028:	97ffcbda 	bl	401f90 <_ZdlPvm@plt>
  40f02c:	a940d693 	ldp	x19, x21, [x20, #8]
  40f030:	eb15027f 	cmp	x19, x21
  40f034:	54000180 	b.eq	40f064 <_ZN13PriorityQueue7PopNextEv+0x5f4>  // b.none
  40f038:	aa1303e1 	mov	x1, x19
  40f03c:	f8410420 	ldr	x0, [x1], #16
  40f040:	eb01001f 	cmp	x0, x1
  40f044:	54000080 	b.eq	40f054 <_ZN13PriorityQueue7PopNextEv+0x5e4>  // b.none
  40f048:	f9400a61 	ldr	x1, [x19, #16]
  40f04c:	91000421 	add	x1, x1, #0x1
  40f050:	97ffcbd0 	bl	401f90 <_ZdlPvm@plt>
  40f054:	91008273 	add	x19, x19, #0x20
  40f058:	eb1302bf 	cmp	x21, x19
  40f05c:	54fffee1 	b.ne	40f038 <_ZN13PriorityQueue7PopNextEv+0x5c8>  // b.any
  40f060:	f9400695 	ldr	x21, [x20, #8]
  40f064:	b40000b5 	cbz	x21, 40f078 <_ZN13PriorityQueue7PopNextEv+0x608>
  40f068:	f9400e81 	ldr	x1, [x20, #24]
  40f06c:	aa1503e0 	mov	x0, x21
  40f070:	cb150021 	sub	x1, x1, x21
  40f074:	97ffcbc7 	bl	401f90 <_ZdlPvm@plt>
  40f078:	9102c294 	add	x20, x20, #0xb0
  40f07c:	eb1402df 	cmp	x22, x20
  40f080:	54fff981 	b.ne	40efb0 <_ZN13PriorityQueue7PopNextEv+0x540>  // b.any
  40f084:	f85a82f6 	ldur	x22, [x23, #-88]
  40f088:	b40000b6 	cbz	x22, 40f09c <_ZN13PriorityQueue7PopNextEv+0x62c>
  40f08c:	f85b82e1 	ldur	x1, [x23, #-72]
  40f090:	aa1603e0 	mov	x0, x22
  40f094:	cb160021 	sub	x1, x1, x22
  40f098:	97ffcbbe 	bl	401f90 <_ZdlPvm@plt>
  40f09c:	a94663f7 	ldp	x23, x24, [sp, #96]
  40f0a0:	eb1802ff 	cmp	x23, x24
  40f0a4:	540009c0 	b.eq	40f1dc <_ZN13PriorityQueue7PopNextEv+0x76c>  // b.none
  40f0a8:	f9401ee0 	ldr	x0, [x23, #56]
  40f0ac:	b4000080 	cbz	x0, 40f0bc <_ZN13PriorityQueue7PopNextEv+0x64c>
  40f0b0:	f94026e1 	ldr	x1, [x23, #72]
  40f0b4:	cb000021 	sub	x1, x1, x0
  40f0b8:	97ffcbb6 	bl	401f90 <_ZdlPvm@plt>
  40f0bc:	f94012e0 	ldr	x0, [x23, #32]
  40f0c0:	b4000080 	cbz	x0, 40f0d0 <_ZN13PriorityQueue7PopNextEv+0x660>
  40f0c4:	f9401ae1 	ldr	x1, [x23, #48]
  40f0c8:	cb000021 	sub	x1, x1, x0
  40f0cc:	97ffcbb1 	bl	401f90 <_ZdlPvm@plt>
  40f0d0:	a9405af4 	ldp	x20, x22, [x23]
  40f0d4:	eb16029f 	cmp	x20, x22
  40f0d8:	54000700 	b.eq	40f1b8 <_ZN13PriorityQueue7PopNextEv+0x748>  // b.none
  40f0dc:	d503201f 	nop
  40f0e0:	f9404693 	ldr	x19, [x20, #136]
  40f0e4:	b40000d3 	cbz	x19, 40f0fc <_ZN13PriorityQueue7PopNextEv+0x68c>
  40f0e8:	aa1303e0 	mov	x0, x19
  40f0ec:	d2800201 	mov	x1, #0x10                  	// #16
  40f0f0:	f9400273 	ldr	x19, [x19]
  40f0f4:	97ffcba7 	bl	401f90 <_ZdlPvm@plt>
  40f0f8:	b5ffff93 	cbnz	x19, 40f0e8 <_ZN13PriorityQueue7PopNextEv+0x678>
  40f0fc:	a9478a80 	ldp	x0, x2, [x20, #120]
  40f100:	52800001 	mov	w1, #0x0                   	// #0
  40f104:	d37df042 	lsl	x2, x2, #3
  40f108:	97ffcb7a 	bl	401ef0 <memset@plt>
  40f10c:	a9478680 	ldp	x0, x1, [x20, #120]
  40f110:	9102a282 	add	x2, x20, #0xa8
  40f114:	a908fe9f 	stp	xzr, xzr, [x20, #136]
  40f118:	eb02001f 	cmp	x0, x2
  40f11c:	54000060 	b.eq	40f128 <_ZN13PriorityQueue7PopNextEv+0x6b8>  // b.none
  40f120:	d37df021 	lsl	x1, x1, #3
  40f124:	97ffcb9b 	bl	401f90 <_ZdlPvm@plt>
  40f128:	91010280 	add	x0, x20, #0x40
  40f12c:	97ffebe5 	bl	40a0c0 <_ZNSt10_HashtableINSt7__cxx1112basic_stringIcSt11char_traitsIcESaIcEEESt4pairIKS5_iESaIS8_ENSt8__detail10_Select1stESt8equal_toIS5_ESt4hashIS5_ENSA_18_Mod_range_hashingENSA_20_Default_ranged_hashENSA_20_Prime_rehash_policyENSA_17_Hashtable_traitsILb1ELb0ELb1EEEE5clearEv>
  40f130:	a9440680 	ldp	x0, x1, [x20, #64]
  40f134:	9101c282 	add	x2, x20, #0x70
  40f138:	eb02001f 	cmp	x0, x2
  40f13c:	54000060 	b.eq	40f148 <_ZN13PriorityQueue7PopNextEv+0x6d8>  // b.none
  40f140:	d37df021 	lsl	x1, x1, #3
  40f144:	97ffcb93 	bl	401f90 <_ZdlPvm@plt>
  40f148:	f9401280 	ldr	x0, [x20, #32]
  40f14c:	b4000080 	cbz	x0, 40f15c <_ZN13PriorityQueue7PopNextEv+0x6ec>
  40f150:	f9401a81 	ldr	x1, [x20, #48]
  40f154:	cb000021 	sub	x1, x1, x0
  40f158:	97ffcb8e 	bl	401f90 <_ZdlPvm@plt>
  40f15c:	a940d693 	ldp	x19, x21, [x20, #8]
  40f160:	eb15027f 	cmp	x19, x21
  40f164:	54000180 	b.eq	40f194 <_ZN13PriorityQueue7PopNextEv+0x724>  // b.none
  40f168:	aa1303e1 	mov	x1, x19
  40f16c:	f8410420 	ldr	x0, [x1], #16
  40f170:	eb01001f 	cmp	x0, x1
  40f174:	54000080 	b.eq	40f184 <_ZN13PriorityQueue7PopNextEv+0x714>  // b.none
  40f178:	f9400a61 	ldr	x1, [x19, #16]
  40f17c:	91000421 	add	x1, x1, #0x1
  40f180:	97ffcb84 	bl	401f90 <_ZdlPvm@plt>
  40f184:	91008273 	add	x19, x19, #0x20
  40f188:	eb1302bf 	cmp	x21, x19
  40f18c:	54fffee1 	b.ne	40f168 <_ZN13PriorityQueue7PopNextEv+0x6f8>  // b.any
  40f190:	f9400695 	ldr	x21, [x20, #8]
  40f194:	b40000b5 	cbz	x21, 40f1a8 <_ZN13PriorityQueue7PopNextEv+0x738>
  40f198:	f9400e81 	ldr	x1, [x20, #24]
  40f19c:	aa1503e0 	mov	x0, x21
  40f1a0:	cb150021 	sub	x1, x1, x21
  40f1a4:	97ffcb7b 	bl	401f90 <_ZdlPvm@plt>
  40f1a8:	9102c294 	add	x20, x20, #0xb0
  40f1ac:	eb1402df 	cmp	x22, x20
  40f1b0:	54fff981 	b.ne	40f0e0 <_ZN13PriorityQueue7PopNextEv+0x670>  // b.any
  40f1b4:	f94002f6 	ldr	x22, [x23]
  40f1b8:	b40000b6 	cbz	x22, 40f1cc <_ZN13PriorityQueue7PopNextEv+0x75c>
  40f1bc:	f9400ae1 	ldr	x1, [x23, #16]
  40f1c0:	aa1603e0 	mov	x0, x22
  40f1c4:	cb160021 	sub	x1, x1, x22
  40f1c8:	97ffcb72 	bl	401f90 <_ZdlPvm@plt>
  40f1cc:	910162f7 	add	x23, x23, #0x58
  40f1d0:	eb17031f 	cmp	x24, x23
  40f1d4:	54fff6a1 	b.ne	40f0a8 <_ZN13PriorityQueue7PopNextEv+0x638>  // b.any
  40f1d8:	f94033f8 	ldr	x24, [sp, #96]
  40f1dc:	b40000b8 	cbz	x24, 40f1f0 <_ZN13PriorityQueue7PopNextEv+0x780>
  40f1e0:	f9403be1 	ldr	x1, [sp, #112]
  40f1e4:	aa1803e0 	mov	x0, x24
  40f1e8:	cb180021 	sub	x1, x1, x24
  40f1ec:	97ffcb69 	bl	401f90 <_ZdlPvm@plt>
  40f1f0:	a94153f3 	ldp	x19, x20, [sp, #16]
  40f1f4:	a9425bf5 	ldp	x21, x22, [sp, #32]
  40f1f8:	a94363f7 	ldp	x23, x24, [sp, #48]
  40f1fc:	a9446bf9 	ldp	x25, x26, [sp, #64]
  40f200:	a8cd7bfd 	ldp	x29, x30, [sp], #208
  40f204:	d65f03c0 	ret
  40f208:	bd405421 	ldr	s1, [x1, #84]
  40f20c:	1e212010 	fcmpe	s0, s1
  40f210:	5400004c 	b.gt	40f218 <_ZN13PriorityQueue7PopNextEv+0x7a8>
  40f214:	17fffe85 	b	40ec28 <_ZN13PriorityQueue7PopNextEv+0x1b8>
  40f218:	9101e3e2 	add	x2, sp, #0x78
  40f21c:	aa1603e0 	mov	x0, x22
  40f220:	940002e0 	bl	40fda0 <_ZNSt6vectorI2PTSaIS0_EE14_M_emplace_auxIJRS0_EEEN9__gnu_cxx17__normal_iteratorIPS0_S2_EENS6_IPKS0_S2_EEDpOT_>
  40f224:	17fffe8e 	b	40ec5c <_ZN13PriorityQueue7PopNextEv+0x1ec>
  40f228:	bd40ac41 	ldr	s1, [x2, #172]
  40f22c:	1e212010 	fcmpe	s0, s1
  40f230:	5400004c 	b.gt	40f238 <_ZN13PriorityQueue7PopNextEv+0x7c8>
  40f234:	17fffe7d 	b	40ec28 <_ZN13PriorityQueue7PopNextEv+0x1b8>
  40f238:	91016041 	add	x1, x2, #0x58
  40f23c:	aa1603e0 	mov	x0, x22
  40f240:	9101e3e2 	add	x2, sp, #0x78
  40f244:	940002d7 	bl	40fda0 <_ZNSt6vectorI2PTSaIS0_EE14_M_emplace_auxIJRS0_EEEN9__gnu_cxx17__normal_iteratorIPS0_S2_EENS6_IPKS0_S2_EEDpOT_>
  40f248:	17fffe85 	b	40ec5c <_ZN13PriorityQueue7PopNextEv+0x1ec>
  40f24c:	aa0003e1 	mov	x1, x0
  40f250:	9101e3e2 	add	x2, sp, #0x78
  40f254:	aa1603e0 	mov	x0, x22
  40f258:	97fff08a 	bl	40b480 <_ZNSt6vectorI2PTSaIS0_EE17_M_realloc_insertIJRS0_EEEvN9__gnu_cxx17__normal_iteratorIPS0_S2_EEDpOT_>
  40f25c:	17fffe80 	b	40ec5c <_ZN13PriorityQueue7PopNextEv+0x1ec>
  40f260:	aa0003f3 	mov	x19, x0
  40f264:	9101e3e0 	add	x0, sp, #0x78
  40f268:	97ffebfe 	bl	40a260 <_ZN2PTD1Ev>
  40f26c:	910183e0 	add	x0, sp, #0x60
  40f270:	a90573fb 	stp	x27, x28, [sp, #80]
  40f274:	94000217 	bl	40fad0 <_ZNSt6vectorI2PTSaIS0_EED1Ev>
  40f278:	aa1303e0 	mov	x0, x19
  40f27c:	97ffcba9 	bl	402120 <_Unwind_Resume@plt>
  40f280:	aa0003f3 	mov	x19, x0
  40f284:	17fffffa 	b	40f26c <_ZN13PriorityQueue7PopNextEv+0x7fc>
  40f288:	a90153f3 	stp	x19, x20, [sp, #16]
  40f28c:	aa0003f3 	mov	x19, x0
  40f290:	9101e3e0 	add	x0, sp, #0x78
  40f294:	a90363f7 	stp	x23, x24, [sp, #48]
  40f298:	a9046bf9 	stp	x25, x26, [sp, #64]
  40f29c:	a90573fb 	stp	x27, x28, [sp, #80]
  40f2a0:	97ffebf0 	bl	40a260 <_ZN2PTD1Ev>
  40f2a4:	aa1303e0 	mov	x0, x19
  40f2a8:	97ffcb9e 	bl	402120 <_Unwind_Resume@plt>
  40f2ac:	d503201f 	nop

000000000040f2b0 <_ZN13PriorityQueue4initEv>:
  40f2b0:	d108c3ff 	sub	sp, sp, #0x230
  40f2b4:	a9007bfd 	stp	x29, x30, [sp]
  40f2b8:	910003fd 	mov	x29, sp
  40f2bc:	a9025bf5 	stp	x21, x22, [sp, #32]
  40f2c0:	aa0003f5 	mov	x21, x0
  40f2c4:	a9046bf9 	stp	x25, x26, [sp, #64]
  40f2c8:	a9570019 	ldp	x25, x0, [x0, #368]
  40f2cc:	f90037e0 	str	x0, [sp, #104]
  40f2d0:	eb00033f 	cmp	x25, x0
  40f2d4:	540020a0 	b.eq	40f6e8 <_ZN13PriorityQueue4initEv+0x438>  // b.none
  40f2d8:	a90363f7 	stp	x23, x24, [sp, #48]
  40f2dc:	9105e3f7 	add	x23, sp, #0x178
  40f2e0:	9108a3f8 	add	x24, sp, #0x228
  40f2e4:	a90153f3 	stp	x19, x20, [sp, #16]
  40f2e8:	a90573fb 	stp	x27, x28, [sp, #80]
  40f2ec:	d503201f 	nop
  40f2f0:	aa1903e1 	mov	x1, x25
  40f2f4:	9101e3e0 	add	x0, sp, #0x78
  40f2f8:	97ffed56 	bl	40a850 <_ZN2PTC1ERKS_>
  40f2fc:	a947dbf4 	ldp	x20, x22, [sp, #120]
  40f300:	eb16029f 	cmp	x20, x22
  40f304:	54000840 	b.eq	40f40c <_ZN13PriorityQueue4initEv+0x15c>  // b.none
  40f308:	910062bb 	add	x27, x21, #0x18
  40f30c:	5280161c 	mov	w28, #0xb0                  	// #176
  40f310:	aa1403e1 	mov	x1, x20
  40f314:	910343e0 	add	x0, sp, #0xd0
  40f318:	97ffec32 	bl	40a3e0 <_ZN7segmentC1ERKS_>
  40f31c:	b940d3e0 	ldr	w0, [sp, #208]
  40f320:	7100041f 	cmp	w0, #0x1
  40f324:	54002fe0 	b.eq	40f920 <_ZN13PriorityQueue4initEv+0x670>  // b.none
  40f328:	7100081f 	cmp	w0, #0x2
  40f32c:	54002700 	b.eq	40f80c <_ZN13PriorityQueue4initEv+0x55c>  // b.none
  40f330:	71000c1f 	cmp	w0, #0x3
  40f334:	54001e40 	b.eq	40f6fc <_ZN13PriorityQueue4initEv+0x44c>  // b.none
  40f338:	f940aff3 	ldr	x19, [sp, #344]
  40f33c:	b40000d3 	cbz	x19, 40f354 <_ZN13PriorityQueue4initEv+0xa4>
  40f340:	aa1303e0 	mov	x0, x19
  40f344:	d2800201 	mov	x1, #0x10                  	// #16
  40f348:	f9400273 	ldr	x19, [x19]
  40f34c:	97ffcb11 	bl	401f90 <_ZdlPvm@plt>
  40f350:	b5ffff93 	cbnz	x19, 40f340 <_ZN13PriorityQueue4initEv+0x90>
  40f354:	a9548be0 	ldp	x0, x2, [sp, #328]
  40f358:	52800001 	mov	w1, #0x0                   	// #0
  40f35c:	d37df042 	lsl	x2, x2, #3
  40f360:	97ffcae4 	bl	401ef0 <memset@plt>
  40f364:	a95487e0 	ldp	x0, x1, [sp, #328]
  40f368:	a915ffff 	stp	xzr, xzr, [sp, #344]
  40f36c:	eb17001f 	cmp	x0, x23
  40f370:	54000060 	b.eq	40f37c <_ZN13PriorityQueue4initEv+0xcc>  // b.none
  40f374:	d37df021 	lsl	x1, x1, #3
  40f378:	97ffcb06 	bl	401f90 <_ZdlPvm@plt>
  40f37c:	910443e0 	add	x0, sp, #0x110
  40f380:	97ffeb50 	bl	40a0c0 <_ZNSt10_HashtableINSt7__cxx1112basic_stringIcSt11char_traitsIcESaIcEEESt4pairIKS5_iESaIS8_ENSt8__detail10_Select1stESt8equal_toIS5_ESt4hashIS5_ENSA_18_Mod_range_hashingENSA_20_Default_ranged_hashENSA_20_Prime_rehash_policyENSA_17_Hashtable_traitsILb1ELb0ELb1EEEE5clearEv>
  40f384:	a95107e0 	ldp	x0, x1, [sp, #272]
  40f388:	910503e2 	add	x2, sp, #0x140
  40f38c:	eb02001f 	cmp	x0, x2
  40f390:	54000060 	b.eq	40f39c <_ZN13PriorityQueue4initEv+0xec>  // b.none
  40f394:	d37df021 	lsl	x1, x1, #3
  40f398:	97ffcafe 	bl	401f90 <_ZdlPvm@plt>
  40f39c:	f9407be0 	ldr	x0, [sp, #240]
  40f3a0:	b4000080 	cbz	x0, 40f3b0 <_ZN13PriorityQueue4initEv+0x100>
  40f3a4:	f94083e1 	ldr	x1, [sp, #256]
  40f3a8:	cb000021 	sub	x1, x1, x0
  40f3ac:	97ffcaf9 	bl	401f90 <_ZdlPvm@plt>
  40f3b0:	a94debf3 	ldp	x19, x26, [sp, #216]
  40f3b4:	eb1a027f 	cmp	x19, x26
  40f3b8:	540001a0 	b.eq	40f3ec <_ZN13PriorityQueue4initEv+0x13c>  // b.none
  40f3bc:	d503201f 	nop
  40f3c0:	aa1303e1 	mov	x1, x19
  40f3c4:	f8410420 	ldr	x0, [x1], #16
  40f3c8:	eb01001f 	cmp	x0, x1
  40f3cc:	54000080 	b.eq	40f3dc <_ZN13PriorityQueue4initEv+0x12c>  // b.none
  40f3d0:	f9400a61 	ldr	x1, [x19, #16]
  40f3d4:	91000421 	add	x1, x1, #0x1
  40f3d8:	97ffcaee 	bl	401f90 <_ZdlPvm@plt>
  40f3dc:	91008273 	add	x19, x19, #0x20
  40f3e0:	eb13035f 	cmp	x26, x19
  40f3e4:	54fffee1 	b.ne	40f3c0 <_ZN13PriorityQueue4initEv+0x110>  // b.any
  40f3e8:	f9406ffa 	ldr	x26, [sp, #216]
  40f3ec:	b40000ba 	cbz	x26, 40f400 <_ZN13PriorityQueue4initEv+0x150>
  40f3f0:	f94077e1 	ldr	x1, [sp, #232]
  40f3f4:	aa1a03e0 	mov	x0, x26
  40f3f8:	cb1a0021 	sub	x1, x1, x26
  40f3fc:	97ffcae5 	bl	401f90 <_ZdlPvm@plt>
  40f400:	9102c294 	add	x20, x20, #0xb0
  40f404:	eb1402df 	cmp	x22, x20
  40f408:	54fff841 	b.ne	40f310 <_ZN13PriorityQueue4initEv+0x60>  // b.any
  40f40c:	910062b3 	add	x19, x21, #0x18
  40f410:	9101e3e1 	add	x1, sp, #0x78
  40f414:	910603e0 	add	x0, sp, #0x180
  40f418:	97ffed0e 	bl	40a850 <_ZN2PTC1ERKS_>
  40f41c:	aa1303e0 	mov	x0, x19
  40f420:	910603e1 	add	x1, sp, #0x180
  40f424:	97ffd2bf 	bl	403f20 <_ZN5model6FindPTE2PT>
  40f428:	2a0003e2 	mov	w2, w0
  40f42c:	910343e1 	add	x1, sp, #0xd0
  40f430:	910242a0 	add	x0, x21, #0x90
  40f434:	b900d3e2 	str	w2, [sp, #208]
  40f438:	97fff23e 	bl	40bd30 <_ZNSt8__detail9_Map_baseIiSt4pairIKiiESaIS3_ENS_10_Select1stESt8equal_toIiESt4hashIiENS_18_Mod_range_hashingENS_20_Default_ranged_hashENS_20_Prime_rehash_policyENS_17_Hashtable_traitsILb0ELb0ELb1EEELb1EEixEOi>
  40f43c:	bd400000 	ldr	s0, [x0]
  40f440:	bd402aa1 	ldr	s1, [x21, #40]
  40f444:	f940dfe1 	ldr	x1, [sp, #440]
  40f448:	5e21d800 	scvtf	s0, s0
  40f44c:	5e21d821 	scvtf	s1, s1
  40f450:	1e211800 	fdiv	s0, s0, s1
  40f454:	bd00cbe0 	str	s0, [sp, #200]
  40f458:	b40000a1 	cbz	x1, 40f46c <_ZN13PriorityQueue4initEv+0x1bc>
  40f45c:	f940e7e2 	ldr	x2, [sp, #456]
  40f460:	aa0103e0 	mov	x0, x1
  40f464:	cb010041 	sub	x1, x2, x1
  40f468:	97ffcaca 	bl	401f90 <_ZdlPvm@plt>
  40f46c:	f940d3e0 	ldr	x0, [sp, #416]
  40f470:	b4000080 	cbz	x0, 40f480 <_ZN13PriorityQueue4initEv+0x1d0>
  40f474:	f940dbe1 	ldr	x1, [sp, #432]
  40f478:	cb000021 	sub	x1, x1, x0
  40f47c:	97ffcac5 	bl	401f90 <_ZdlPvm@plt>
  40f480:	a9585bf4 	ldp	x20, x22, [sp, #384]
  40f484:	eb16029f 	cmp	x20, x22
  40f488:	54000700 	b.eq	40f568 <_ZN13PriorityQueue4initEv+0x2b8>  // b.none
  40f48c:	d503201f 	nop
  40f490:	f9404693 	ldr	x19, [x20, #136]
  40f494:	b40000d3 	cbz	x19, 40f4ac <_ZN13PriorityQueue4initEv+0x1fc>
  40f498:	aa1303e0 	mov	x0, x19
  40f49c:	d2800201 	mov	x1, #0x10                  	// #16
  40f4a0:	f9400273 	ldr	x19, [x19]
  40f4a4:	97ffcabb 	bl	401f90 <_ZdlPvm@plt>
  40f4a8:	b5ffff93 	cbnz	x19, 40f498 <_ZN13PriorityQueue4initEv+0x1e8>
  40f4ac:	a9478a80 	ldp	x0, x2, [x20, #120]
  40f4b0:	52800001 	mov	w1, #0x0                   	// #0
  40f4b4:	d37df042 	lsl	x2, x2, #3
  40f4b8:	97ffca8e 	bl	401ef0 <memset@plt>
  40f4bc:	a9478680 	ldp	x0, x1, [x20, #120]
  40f4c0:	9102a282 	add	x2, x20, #0xa8
  40f4c4:	a908fe9f 	stp	xzr, xzr, [x20, #136]
  40f4c8:	eb02001f 	cmp	x0, x2
  40f4cc:	54000060 	b.eq	40f4d8 <_ZN13PriorityQueue4initEv+0x228>  // b.none
  40f4d0:	d37df021 	lsl	x1, x1, #3
  40f4d4:	97ffcaaf 	bl	401f90 <_ZdlPvm@plt>
  40f4d8:	91010280 	add	x0, x20, #0x40
  40f4dc:	97ffeaf9 	bl	40a0c0 <_ZNSt10_HashtableINSt7__cxx1112basic_stringIcSt11char_traitsIcESaIcEEESt4pairIKS5_iESaIS8_ENSt8__detail10_Select1stESt8equal_toIS5_ESt4hashIS5_ENSA_18_Mod_range_hashingENSA_20_Default_ranged_hashENSA_20_Prime_rehash_policyENSA_17_Hashtable_traitsILb1ELb0ELb1EEEE5clearEv>
  40f4e0:	a9440680 	ldp	x0, x1, [x20, #64]
  40f4e4:	9101c282 	add	x2, x20, #0x70
  40f4e8:	eb02001f 	cmp	x0, x2
  40f4ec:	54000060 	b.eq	40f4f8 <_ZN13PriorityQueue4initEv+0x248>  // b.none
  40f4f0:	d37df021 	lsl	x1, x1, #3
  40f4f4:	97ffcaa7 	bl	401f90 <_ZdlPvm@plt>
  40f4f8:	f9401280 	ldr	x0, [x20, #32]
  40f4fc:	b4000080 	cbz	x0, 40f50c <_ZN13PriorityQueue4initEv+0x25c>
  40f500:	f9401a81 	ldr	x1, [x20, #48]
  40f504:	cb000021 	sub	x1, x1, x0
  40f508:	97ffcaa2 	bl	401f90 <_ZdlPvm@plt>
  40f50c:	a940ee93 	ldp	x19, x27, [x20, #8]
  40f510:	eb1b027f 	cmp	x19, x27
  40f514:	54000180 	b.eq	40f544 <_ZN13PriorityQueue4initEv+0x294>  // b.none
  40f518:	aa1303e1 	mov	x1, x19
  40f51c:	f8410420 	ldr	x0, [x1], #16
  40f520:	eb01001f 	cmp	x0, x1
  40f524:	54000080 	b.eq	40f534 <_ZN13PriorityQueue4initEv+0x284>  // b.none
  40f528:	f9400a61 	ldr	x1, [x19, #16]
  40f52c:	91000421 	add	x1, x1, #0x1
  40f530:	97ffca98 	bl	401f90 <_ZdlPvm@plt>
  40f534:	91008273 	add	x19, x19, #0x20
  40f538:	eb13037f 	cmp	x27, x19
  40f53c:	54fffee1 	b.ne	40f518 <_ZN13PriorityQueue4initEv+0x268>  // b.any
  40f540:	f940069b 	ldr	x27, [x20, #8]
  40f544:	b40000bb 	cbz	x27, 40f558 <_ZN13PriorityQueue4initEv+0x2a8>
  40f548:	f9400e81 	ldr	x1, [x20, #24]
  40f54c:	aa1b03e0 	mov	x0, x27
  40f550:	cb1b0021 	sub	x1, x1, x27
  40f554:	97ffca8f 	bl	401f90 <_ZdlPvm@plt>
  40f558:	9102c294 	add	x20, x20, #0xb0
  40f55c:	eb1402df 	cmp	x22, x20
  40f560:	54fff981 	b.ne	40f490 <_ZN13PriorityQueue4initEv+0x1e0>  // b.any
  40f564:	f940c3f6 	ldr	x22, [sp, #384]
  40f568:	b40000b6 	cbz	x22, 40f57c <_ZN13PriorityQueue4initEv+0x2cc>
  40f56c:	f940cbe1 	ldr	x1, [sp, #400]
  40f570:	aa1603e0 	mov	x0, x22
  40f574:	cb160021 	sub	x1, x1, x22
  40f578:	97ffca86 	bl	401f90 <_ZdlPvm@plt>
  40f57c:	9101e3e1 	add	x1, sp, #0x78
  40f580:	aa1503e0 	mov	x0, x21
  40f584:	97fff7fc 	bl	40d574 <_ZN13PriorityQueue7CalProbER2PT>
  40f588:	a94086a0 	ldp	x0, x1, [x21, #8]
  40f58c:	eb01001f 	cmp	x0, x1
  40f590:	540025c0 	b.eq	40fa48 <_ZN13PriorityQueue4initEv+0x798>  // b.none
  40f594:	9101e3e1 	add	x1, sp, #0x78
  40f598:	97ffecae 	bl	40a850 <_ZN2PTC1ERKS_>
  40f59c:	f94006a0 	ldr	x0, [x21, #8]
  40f5a0:	91016000 	add	x0, x0, #0x58
  40f5a4:	f90006a0 	str	x0, [x21, #8]
  40f5a8:	f9405be0 	ldr	x0, [sp, #176]
  40f5ac:	b4000080 	cbz	x0, 40f5bc <_ZN13PriorityQueue4initEv+0x30c>
  40f5b0:	f94063e1 	ldr	x1, [sp, #192]
  40f5b4:	cb000021 	sub	x1, x1, x0
  40f5b8:	97ffca76 	bl	401f90 <_ZdlPvm@plt>
  40f5bc:	f9404fe0 	ldr	x0, [sp, #152]
  40f5c0:	b4000080 	cbz	x0, 40f5d0 <_ZN13PriorityQueue4initEv+0x320>
  40f5c4:	f94057e1 	ldr	x1, [sp, #168]
  40f5c8:	cb000021 	sub	x1, x1, x0
  40f5cc:	97ffca71 	bl	401f90 <_ZdlPvm@plt>
  40f5d0:	a947dbf4 	ldp	x20, x22, [sp, #120]
  40f5d4:	eb16029f 	cmp	x20, x22
  40f5d8:	54000700 	b.eq	40f6b8 <_ZN13PriorityQueue4initEv+0x408>  // b.none
  40f5dc:	d503201f 	nop
  40f5e0:	f9404693 	ldr	x19, [x20, #136]
  40f5e4:	b40000d3 	cbz	x19, 40f5fc <_ZN13PriorityQueue4initEv+0x34c>
  40f5e8:	aa1303e0 	mov	x0, x19
  40f5ec:	d2800201 	mov	x1, #0x10                  	// #16
  40f5f0:	f9400273 	ldr	x19, [x19]
  40f5f4:	97ffca67 	bl	401f90 <_ZdlPvm@plt>
  40f5f8:	b5ffff93 	cbnz	x19, 40f5e8 <_ZN13PriorityQueue4initEv+0x338>
  40f5fc:	a9478a80 	ldp	x0, x2, [x20, #120]
  40f600:	52800001 	mov	w1, #0x0                   	// #0
  40f604:	d37df042 	lsl	x2, x2, #3
  40f608:	97ffca3a 	bl	401ef0 <memset@plt>
  40f60c:	a9478680 	ldp	x0, x1, [x20, #120]
  40f610:	9102a282 	add	x2, x20, #0xa8
  40f614:	a908fe9f 	stp	xzr, xzr, [x20, #136]
  40f618:	eb02001f 	cmp	x0, x2
  40f61c:	54000060 	b.eq	40f628 <_ZN13PriorityQueue4initEv+0x378>  // b.none
  40f620:	d37df021 	lsl	x1, x1, #3
  40f624:	97ffca5b 	bl	401f90 <_ZdlPvm@plt>
  40f628:	91010280 	add	x0, x20, #0x40
  40f62c:	97ffeaa5 	bl	40a0c0 <_ZNSt10_HashtableINSt7__cxx1112basic_stringIcSt11char_traitsIcESaIcEEESt4pairIKS5_iESaIS8_ENSt8__detail10_Select1stESt8equal_toIS5_ESt4hashIS5_ENSA_18_Mod_range_hashingENSA_20_Default_ranged_hashENSA_20_Prime_rehash_policyENSA_17_Hashtable_traitsILb1ELb0ELb1EEEE5clearEv>
  40f630:	a9440680 	ldp	x0, x1, [x20, #64]
  40f634:	9101c282 	add	x2, x20, #0x70
  40f638:	eb02001f 	cmp	x0, x2
  40f63c:	54000060 	b.eq	40f648 <_ZN13PriorityQueue4initEv+0x398>  // b.none
  40f640:	d37df021 	lsl	x1, x1, #3
  40f644:	97ffca53 	bl	401f90 <_ZdlPvm@plt>
  40f648:	f9401280 	ldr	x0, [x20, #32]
  40f64c:	b4000080 	cbz	x0, 40f65c <_ZN13PriorityQueue4initEv+0x3ac>
  40f650:	f9401a81 	ldr	x1, [x20, #48]
  40f654:	cb000021 	sub	x1, x1, x0
  40f658:	97ffca4e 	bl	401f90 <_ZdlPvm@plt>
  40f65c:	a940ee93 	ldp	x19, x27, [x20, #8]
  40f660:	eb1b027f 	cmp	x19, x27
  40f664:	54000180 	b.eq	40f694 <_ZN13PriorityQueue4initEv+0x3e4>  // b.none
  40f668:	aa1303e1 	mov	x1, x19
  40f66c:	f8410420 	ldr	x0, [x1], #16
  40f670:	eb01001f 	cmp	x0, x1
  40f674:	54000080 	b.eq	40f684 <_ZN13PriorityQueue4initEv+0x3d4>  // b.none
  40f678:	f9400a61 	ldr	x1, [x19, #16]
  40f67c:	91000421 	add	x1, x1, #0x1
  40f680:	97ffca44 	bl	401f90 <_ZdlPvm@plt>
  40f684:	91008273 	add	x19, x19, #0x20
  40f688:	eb13037f 	cmp	x27, x19
  40f68c:	54fffee1 	b.ne	40f668 <_ZN13PriorityQueue4initEv+0x3b8>  // b.any
  40f690:	f940069b 	ldr	x27, [x20, #8]
  40f694:	b40000bb 	cbz	x27, 40f6a8 <_ZN13PriorityQueue4initEv+0x3f8>
  40f698:	f9400e81 	ldr	x1, [x20, #24]
  40f69c:	aa1b03e0 	mov	x0, x27
  40f6a0:	cb1b0021 	sub	x1, x1, x27
  40f6a4:	97ffca3b 	bl	401f90 <_ZdlPvm@plt>
  40f6a8:	9102c294 	add	x20, x20, #0xb0
  40f6ac:	eb1402df 	cmp	x22, x20
  40f6b0:	54fff981 	b.ne	40f5e0 <_ZN13PriorityQueue4initEv+0x330>  // b.any
  40f6b4:	f9403ff6 	ldr	x22, [sp, #120]
  40f6b8:	b40000b6 	cbz	x22, 40f6cc <_ZN13PriorityQueue4initEv+0x41c>
  40f6bc:	f94047e1 	ldr	x1, [sp, #136]
  40f6c0:	aa1603e0 	mov	x0, x22
  40f6c4:	cb160021 	sub	x1, x1, x22
  40f6c8:	97ffca32 	bl	401f90 <_ZdlPvm@plt>
  40f6cc:	f94037e0 	ldr	x0, [sp, #104]
  40f6d0:	91016339 	add	x25, x25, #0x58
  40f6d4:	eb19001f 	cmp	x0, x25
  40f6d8:	54ffe0c1 	b.ne	40f2f0 <_ZN13PriorityQueue4initEv+0x40>  // b.any
  40f6dc:	a94153f3 	ldp	x19, x20, [sp, #16]
  40f6e0:	a94363f7 	ldp	x23, x24, [sp, #48]
  40f6e4:	a94573fb 	ldp	x27, x28, [sp, #80]
  40f6e8:	a9407bfd 	ldp	x29, x30, [sp]
  40f6ec:	a9425bf5 	ldp	x21, x22, [sp, #32]
  40f6f0:	a9446bf9 	ldp	x25, x26, [sp, #64]
  40f6f4:	9108c3ff 	add	sp, sp, #0x230
  40f6f8:	d65f03c0 	ret
  40f6fc:	910343e1 	add	x1, sp, #0xd0
  40f700:	910603e0 	add	x0, sp, #0x180
  40f704:	97ffeb37 	bl	40a3e0 <_ZN7segmentC1ERKS_>
  40f708:	910603e1 	add	x1, sp, #0x180
  40f70c:	aa1b03e0 	mov	x0, x27
  40f710:	97ffd261 	bl	404094 <_ZN5model10FindSymbolE7segment>
  40f714:	f9403ea2 	ldr	x2, [x21, #120]
  40f718:	9b3c0800 	smaddl	x0, w0, w28, x2
  40f71c:	a94b8be1 	ldp	x1, x2, [sp, #184]
  40f720:	a9408003 	ldp	x3, x0, [x0, #8]
  40f724:	cb030000 	sub	x0, x0, x3
  40f728:	9345fc00 	asr	x0, x0, #5
  40f72c:	f9003be0 	str	x0, [sp, #112]
  40f730:	eb02003f 	cmp	x1, x2
  40f734:	54001820 	b.eq	40fa38 <_ZN13PriorityQueue4initEv+0x788>  // b.none
  40f738:	b8004420 	str	w0, [x1], #4
  40f73c:	f9005fe1 	str	x1, [sp, #184]
  40f740:	f94107f3 	ldr	x19, [sp, #520]
  40f744:	b40000d3 	cbz	x19, 40f75c <_ZN13PriorityQueue4initEv+0x4ac>
  40f748:	aa1303e0 	mov	x0, x19
  40f74c:	d2800201 	mov	x1, #0x10                  	// #16
  40f750:	f9400273 	ldr	x19, [x19]
  40f754:	97ffca0f 	bl	401f90 <_ZdlPvm@plt>
  40f758:	b5ffff93 	cbnz	x19, 40f748 <_ZN13PriorityQueue4initEv+0x498>
  40f75c:	a95f8be0 	ldp	x0, x2, [sp, #504]
  40f760:	52800001 	mov	w1, #0x0                   	// #0
  40f764:	d37df042 	lsl	x2, x2, #3
  40f768:	97ffc9e2 	bl	401ef0 <memset@plt>
  40f76c:	a95f87e0 	ldp	x0, x1, [sp, #504]
  40f770:	f90107ff 	str	xzr, [sp, #520]
  40f774:	f9010bff 	str	xzr, [sp, #528]
  40f778:	eb18001f 	cmp	x0, x24
  40f77c:	54000060 	b.eq	40f788 <_ZN13PriorityQueue4initEv+0x4d8>  // b.none
  40f780:	d37df021 	lsl	x1, x1, #3
  40f784:	97ffca03 	bl	401f90 <_ZdlPvm@plt>
  40f788:	910703e0 	add	x0, sp, #0x1c0
  40f78c:	97ffea4d 	bl	40a0c0 <_ZNSt10_HashtableINSt7__cxx1112basic_stringIcSt11char_traitsIcESaIcEEESt4pairIKS5_iESaIS8_ENSt8__detail10_Select1stESt8equal_toIS5_ESt4hashIS5_ENSA_18_Mod_range_hashingENSA_20_Default_ranged_hashENSA_20_Prime_rehash_policyENSA_17_Hashtable_traitsILb1ELb0ELb1EEEE5clearEv>
  40f790:	a95c07e0 	ldp	x0, x1, [sp, #448]
  40f794:	9107c3e2 	add	x2, sp, #0x1f0
  40f798:	eb02001f 	cmp	x0, x2
  40f79c:	54000060 	b.eq	40f7a8 <_ZN13PriorityQueue4initEv+0x4f8>  // b.none
  40f7a0:	d37df021 	lsl	x1, x1, #3
  40f7a4:	97ffc9fb 	bl	401f90 <_ZdlPvm@plt>
  40f7a8:	f940d3e0 	ldr	x0, [sp, #416]
  40f7ac:	b4000080 	cbz	x0, 40f7bc <_ZN13PriorityQueue4initEv+0x50c>
  40f7b0:	f940dbe1 	ldr	x1, [sp, #432]
  40f7b4:	cb000021 	sub	x1, x1, x0
  40f7b8:	97ffc9f6 	bl	401f90 <_ZdlPvm@plt>
  40f7bc:	a958ebf3 	ldp	x19, x26, [sp, #392]
  40f7c0:	eb1a027f 	cmp	x19, x26
  40f7c4:	54000180 	b.eq	40f7f4 <_ZN13PriorityQueue4initEv+0x544>  // b.none
  40f7c8:	aa1303e1 	mov	x1, x19
  40f7cc:	f8410420 	ldr	x0, [x1], #16
  40f7d0:	eb01001f 	cmp	x0, x1
  40f7d4:	54000080 	b.eq	40f7e4 <_ZN13PriorityQueue4initEv+0x534>  // b.none
  40f7d8:	f9400a61 	ldr	x1, [x19, #16]
  40f7dc:	91000421 	add	x1, x1, #0x1
  40f7e0:	97ffc9ec 	bl	401f90 <_ZdlPvm@plt>
  40f7e4:	91008273 	add	x19, x19, #0x20
  40f7e8:	eb13035f 	cmp	x26, x19
  40f7ec:	54fffee1 	b.ne	40f7c8 <_ZN13PriorityQueue4initEv+0x518>  // b.any
  40f7f0:	f940c7fa 	ldr	x26, [sp, #392]
  40f7f4:	b4ffda3a 	cbz	x26, 40f338 <_ZN13PriorityQueue4initEv+0x88>
  40f7f8:	f940cfe1 	ldr	x1, [sp, #408]
  40f7fc:	aa1a03e0 	mov	x0, x26
  40f800:	cb1a0021 	sub	x1, x1, x26
  40f804:	97ffc9e3 	bl	401f90 <_ZdlPvm@plt>
  40f808:	17fffecc 	b	40f338 <_ZN13PriorityQueue4initEv+0x88>
  40f80c:	910343e1 	add	x1, sp, #0xd0
  40f810:	910603e0 	add	x0, sp, #0x180
  40f814:	97ffeaf3 	bl	40a3e0 <_ZN7segmentC1ERKS_>
  40f818:	910603e1 	add	x1, sp, #0x180
  40f81c:	aa1b03e0 	mov	x0, x27
  40f820:	97ffd205 	bl	404034 <_ZN5model9FindDigitE7segment>
  40f824:	f94032a2 	ldr	x2, [x21, #96]
  40f828:	9b3c0800 	smaddl	x0, w0, w28, x2
  40f82c:	a94b8be1 	ldp	x1, x2, [sp, #184]
  40f830:	a9408003 	ldp	x3, x0, [x0, #8]
  40f834:	cb030000 	sub	x0, x0, x3
  40f838:	9345fc00 	asr	x0, x0, #5
  40f83c:	f9003be0 	str	x0, [sp, #112]
  40f840:	eb02003f 	cmp	x1, x2
  40f844:	54001140 	b.eq	40fa6c <_ZN13PriorityQueue4initEv+0x7bc>  // b.none
  40f848:	b8004420 	str	w0, [x1], #4
  40f84c:	f9005fe1 	str	x1, [sp, #184]
  40f850:	f94107f3 	ldr	x19, [sp, #520]
  40f854:	b40000d3 	cbz	x19, 40f86c <_ZN13PriorityQueue4initEv+0x5bc>
  40f858:	aa1303e0 	mov	x0, x19
  40f85c:	d2800201 	mov	x1, #0x10                  	// #16
  40f860:	f9400273 	ldr	x19, [x19]
  40f864:	97ffc9cb 	bl	401f90 <_ZdlPvm@plt>
  40f868:	b5ffff93 	cbnz	x19, 40f858 <_ZN13PriorityQueue4initEv+0x5a8>
  40f86c:	a95f8be0 	ldp	x0, x2, [sp, #504]
  40f870:	52800001 	mov	w1, #0x0                   	// #0
  40f874:	d37df042 	lsl	x2, x2, #3
  40f878:	97ffc99e 	bl	401ef0 <memset@plt>
  40f87c:	a95f87e0 	ldp	x0, x1, [sp, #504]
  40f880:	f90107ff 	str	xzr, [sp, #520]
  40f884:	f9010bff 	str	xzr, [sp, #528]
  40f888:	eb18001f 	cmp	x0, x24
  40f88c:	54000060 	b.eq	40f898 <_ZN13PriorityQueue4initEv+0x5e8>  // b.none
  40f890:	d37df021 	lsl	x1, x1, #3
  40f894:	97ffc9bf 	bl	401f90 <_ZdlPvm@plt>
  40f898:	910703e0 	add	x0, sp, #0x1c0
  40f89c:	97ffea09 	bl	40a0c0 <_ZNSt10_HashtableINSt7__cxx1112basic_stringIcSt11char_traitsIcESaIcEEESt4pairIKS5_iESaIS8_ENSt8__detail10_Select1stESt8equal_toIS5_ESt4hashIS5_ENSA_18_Mod_range_hashingENSA_20_Default_ranged_hashENSA_20_Prime_rehash_policyENSA_17_Hashtable_traitsILb1ELb0ELb1EEEE5clearEv>
  40f8a0:	a95c07e0 	ldp	x0, x1, [sp, #448]
  40f8a4:	9107c3e2 	add	x2, sp, #0x1f0
  40f8a8:	eb02001f 	cmp	x0, x2
  40f8ac:	54000060 	b.eq	40f8b8 <_ZN13PriorityQueue4initEv+0x608>  // b.none
  40f8b0:	d37df021 	lsl	x1, x1, #3
  40f8b4:	97ffc9b7 	bl	401f90 <_ZdlPvm@plt>
  40f8b8:	f940d3e0 	ldr	x0, [sp, #416]
  40f8bc:	b4000080 	cbz	x0, 40f8cc <_ZN13PriorityQueue4initEv+0x61c>
  40f8c0:	f940dbe1 	ldr	x1, [sp, #432]
  40f8c4:	cb000021 	sub	x1, x1, x0
  40f8c8:	97ffc9b2 	bl	401f90 <_ZdlPvm@plt>
  40f8cc:	a958ebf3 	ldp	x19, x26, [sp, #392]
  40f8d0:	eb1a027f 	cmp	x19, x26
  40f8d4:	54000180 	b.eq	40f904 <_ZN13PriorityQueue4initEv+0x654>  // b.none
  40f8d8:	aa1303e1 	mov	x1, x19
  40f8dc:	f8410420 	ldr	x0, [x1], #16
  40f8e0:	eb01001f 	cmp	x0, x1
  40f8e4:	54000080 	b.eq	40f8f4 <_ZN13PriorityQueue4initEv+0x644>  // b.none
  40f8e8:	f9400a61 	ldr	x1, [x19, #16]
  40f8ec:	91000421 	add	x1, x1, #0x1
  40f8f0:	97ffc9a8 	bl	401f90 <_ZdlPvm@plt>
  40f8f4:	91008273 	add	x19, x19, #0x20
  40f8f8:	eb13035f 	cmp	x26, x19
  40f8fc:	54fffee1 	b.ne	40f8d8 <_ZN13PriorityQueue4initEv+0x628>  // b.any
  40f900:	f940c7fa 	ldr	x26, [sp, #392]
  40f904:	b40000ba 	cbz	x26, 40f918 <_ZN13PriorityQueue4initEv+0x668>
  40f908:	f940cfe1 	ldr	x1, [sp, #408]
  40f90c:	aa1a03e0 	mov	x0, x26
  40f910:	cb1a0021 	sub	x1, x1, x26
  40f914:	97ffc99f 	bl	401f90 <_ZdlPvm@plt>
  40f918:	b940d3e0 	ldr	w0, [sp, #208]
  40f91c:	17fffe85 	b	40f330 <_ZN13PriorityQueue4initEv+0x80>
  40f920:	910343e1 	add	x1, sp, #0xd0
  40f924:	910603e0 	add	x0, sp, #0x180
  40f928:	97ffeaae 	bl	40a3e0 <_ZN7segmentC1ERKS_>
  40f92c:	910603e1 	add	x1, sp, #0x180
  40f930:	aa1b03e0 	mov	x0, x27
  40f934:	97ffd1a8 	bl	403fd4 <_ZN5model10FindLetterE7segment>
  40f938:	f94026a2 	ldr	x2, [x21, #72]
  40f93c:	9b3c0800 	smaddl	x0, w0, w28, x2
  40f940:	a94b8be1 	ldp	x1, x2, [sp, #184]
  40f944:	a9408003 	ldp	x3, x0, [x0, #8]
  40f948:	cb030000 	sub	x0, x0, x3
  40f94c:	9345fc00 	asr	x0, x0, #5
  40f950:	f9003be0 	str	x0, [sp, #112]
  40f954:	eb02003f 	cmp	x1, x2
  40f958:	54000820 	b.eq	40fa5c <_ZN13PriorityQueue4initEv+0x7ac>  // b.none
  40f95c:	b8004420 	str	w0, [x1], #4
  40f960:	f9005fe1 	str	x1, [sp, #184]
  40f964:	f94107f3 	ldr	x19, [sp, #520]
  40f968:	b40000f3 	cbz	x19, 40f984 <_ZN13PriorityQueue4initEv+0x6d4>
  40f96c:	d503201f 	nop
  40f970:	aa1303e0 	mov	x0, x19
  40f974:	d2800201 	mov	x1, #0x10                  	// #16
  40f978:	f9400273 	ldr	x19, [x19]
  40f97c:	97ffc985 	bl	401f90 <_ZdlPvm@plt>
  40f980:	b5ffff93 	cbnz	x19, 40f970 <_ZN13PriorityQueue4initEv+0x6c0>
  40f984:	a95f8be0 	ldp	x0, x2, [sp, #504]
  40f988:	52800001 	mov	w1, #0x0                   	// #0
  40f98c:	d37df042 	lsl	x2, x2, #3
  40f990:	97ffc958 	bl	401ef0 <memset@plt>
  40f994:	a95f87e0 	ldp	x0, x1, [sp, #504]
  40f998:	f90107ff 	str	xzr, [sp, #520]
  40f99c:	f9010bff 	str	xzr, [sp, #528]
  40f9a0:	eb18001f 	cmp	x0, x24
  40f9a4:	54000060 	b.eq	40f9b0 <_ZN13PriorityQueue4initEv+0x700>  // b.none
  40f9a8:	d37df021 	lsl	x1, x1, #3
  40f9ac:	97ffc979 	bl	401f90 <_ZdlPvm@plt>
  40f9b0:	910703e0 	add	x0, sp, #0x1c0
  40f9b4:	97ffe9c3 	bl	40a0c0 <_ZNSt10_HashtableINSt7__cxx1112basic_stringIcSt11char_traitsIcESaIcEEESt4pairIKS5_iESaIS8_ENSt8__detail10_Select1stESt8equal_toIS5_ESt4hashIS5_ENSA_18_Mod_range_hashingENSA_20_Default_ranged_hashENSA_20_Prime_rehash_policyENSA_17_Hashtable_traitsILb1ELb0ELb1EEEE5clearEv>
  40f9b8:	a95c07e0 	ldp	x0, x1, [sp, #448]
  40f9bc:	9107c3e2 	add	x2, sp, #0x1f0
  40f9c0:	eb02001f 	cmp	x0, x2
  40f9c4:	54000060 	b.eq	40f9d0 <_ZN13PriorityQueue4initEv+0x720>  // b.none
  40f9c8:	d37df021 	lsl	x1, x1, #3
  40f9cc:	97ffc971 	bl	401f90 <_ZdlPvm@plt>
  40f9d0:	f940d3e0 	ldr	x0, [sp, #416]
  40f9d4:	b4000080 	cbz	x0, 40f9e4 <_ZN13PriorityQueue4initEv+0x734>
  40f9d8:	f940dbe1 	ldr	x1, [sp, #432]
  40f9dc:	cb000021 	sub	x1, x1, x0
  40f9e0:	97ffc96c 	bl	401f90 <_ZdlPvm@plt>
  40f9e4:	a958ebf3 	ldp	x19, x26, [sp, #392]
  40f9e8:	eb1a027f 	cmp	x19, x26
  40f9ec:	54000180 	b.eq	40fa1c <_ZN13PriorityQueue4initEv+0x76c>  // b.none
  40f9f0:	aa1303e1 	mov	x1, x19
  40f9f4:	f8410420 	ldr	x0, [x1], #16
  40f9f8:	eb01001f 	cmp	x0, x1
  40f9fc:	54000080 	b.eq	40fa0c <_ZN13PriorityQueue4initEv+0x75c>  // b.none
  40fa00:	f9400a61 	ldr	x1, [x19, #16]
  40fa04:	91000421 	add	x1, x1, #0x1
  40fa08:	97ffc962 	bl	401f90 <_ZdlPvm@plt>
  40fa0c:	91008273 	add	x19, x19, #0x20
  40fa10:	eb13035f 	cmp	x26, x19
  40fa14:	54fffee1 	b.ne	40f9f0 <_ZN13PriorityQueue4initEv+0x740>  // b.any
  40fa18:	f940c7fa 	ldr	x26, [sp, #392]
  40fa1c:	b40000ba 	cbz	x26, 40fa30 <_ZN13PriorityQueue4initEv+0x780>
  40fa20:	f940cfe1 	ldr	x1, [sp, #408]
  40fa24:	aa1a03e0 	mov	x0, x26
  40fa28:	cb1a0021 	sub	x1, x1, x26
  40fa2c:	97ffc959 	bl	401f90 <_ZdlPvm@plt>
  40fa30:	b940d3e0 	ldr	w0, [sp, #208]
  40fa34:	17fffe3d 	b	40f328 <_ZN13PriorityQueue4initEv+0x78>
  40fa38:	9101c3e2 	add	x2, sp, #0x70
  40fa3c:	9102c3e0 	add	x0, sp, #0xb0
  40fa40:	9400008c 	bl	40fc70 <_ZNSt6vectorIiSaIiEE17_M_realloc_insertIJmEEEvN9__gnu_cxx17__normal_iteratorIPiS1_EEDpOT_>
  40fa44:	17ffff3f 	b	40f740 <_ZN13PriorityQueue4initEv+0x490>
  40fa48:	aa0003e1 	mov	x1, x0
  40fa4c:	9101e3e2 	add	x2, sp, #0x78
  40fa50:	aa1503e0 	mov	x0, x21
  40fa54:	97ffee8b 	bl	40b480 <_ZNSt6vectorI2PTSaIS0_EE17_M_realloc_insertIJRS0_EEEvN9__gnu_cxx17__normal_iteratorIPS0_S2_EEDpOT_>
  40fa58:	17fffed4 	b	40f5a8 <_ZN13PriorityQueue4initEv+0x2f8>
  40fa5c:	9101c3e2 	add	x2, sp, #0x70
  40fa60:	9102c3e0 	add	x0, sp, #0xb0
  40fa64:	94000083 	bl	40fc70 <_ZNSt6vectorIiSaIiEE17_M_realloc_insertIJmEEEvN9__gnu_cxx17__normal_iteratorIPiS1_EEDpOT_>
  40fa68:	17ffffbf 	b	40f964 <_ZN13PriorityQueue4initEv+0x6b4>
  40fa6c:	9101c3e2 	add	x2, sp, #0x70
  40fa70:	9102c3e0 	add	x0, sp, #0xb0
  40fa74:	9400007f 	bl	40fc70 <_ZNSt6vectorIiSaIiEE17_M_realloc_insertIJmEEEvN9__gnu_cxx17__normal_iteratorIPiS1_EEDpOT_>
  40fa78:	17ffff76 	b	40f850 <_ZN13PriorityQueue4initEv+0x5a0>
  40fa7c:	aa0003f3 	mov	x19, x0
  40fa80:	9101e3e0 	add	x0, sp, #0x78
  40fa84:	97ffe9f7 	bl	40a260 <_ZN2PTD1Ev>
  40fa88:	aa1303e0 	mov	x0, x19
  40fa8c:	97ffc9a5 	bl	402120 <_Unwind_Resume@plt>
  40fa90:	aa0003f3 	mov	x19, x0
  40fa94:	910603e0 	add	x0, sp, #0x180
  40fa98:	97ffe9aa 	bl	40a140 <_ZN7segmentD1Ev>
  40fa9c:	aa1303e1 	mov	x1, x19
  40faa0:	910343e0 	add	x0, sp, #0xd0
  40faa4:	aa0103f3 	mov	x19, x1
  40faa8:	97ffe9a6 	bl	40a140 <_ZN7segmentD1Ev>
  40faac:	17fffff5 	b	40fa80 <_ZN13PriorityQueue4initEv+0x7d0>
  40fab0:	17fffff8 	b	40fa90 <_ZN13PriorityQueue4initEv+0x7e0>
  40fab4:	aa0003e1 	mov	x1, x0
  40fab8:	17fffffa 	b	40faa0 <_ZN13PriorityQueue4initEv+0x7f0>
  40fabc:	aa0003f3 	mov	x19, x0
  40fac0:	910603e0 	add	x0, sp, #0x180
  40fac4:	97ffe9e7 	bl	40a260 <_ZN2PTD1Ev>
  40fac8:	17ffffee 	b	40fa80 <_ZN13PriorityQueue4initEv+0x7d0>
  40facc:	17fffff1 	b	40fa90 <_ZN13PriorityQueue4initEv+0x7e0>

000000000040fad0 <_ZNSt6vectorI2PTSaIS0_EED1Ev>:
  40fad0:	a9bb7bfd 	stp	x29, x30, [sp, #-80]!
  40fad4:	910003fd 	mov	x29, sp
  40fad8:	a9025bf5 	stp	x21, x22, [sp, #32]
  40fadc:	a90363f7 	stp	x23, x24, [sp, #48]
  40fae0:	aa0003f8 	mov	x24, x0
  40fae4:	a9405c16 	ldp	x22, x23, [x0]
  40fae8:	eb1702df 	cmp	x22, x23
  40faec:	54000a40 	b.eq	40fc34 <_ZNSt6vectorI2PTSaIS0_EED1Ev+0x164>  // b.none
  40faf0:	a90153f3 	stp	x19, x20, [sp, #16]
  40faf4:	f90023f9 	str	x25, [sp, #64]
  40faf8:	f9401ec0 	ldr	x0, [x22, #56]
  40fafc:	b4000080 	cbz	x0, 40fb0c <_ZNSt6vectorI2PTSaIS0_EED1Ev+0x3c>
  40fb00:	f94026c1 	ldr	x1, [x22, #72]
  40fb04:	cb000021 	sub	x1, x1, x0
  40fb08:	97ffc922 	bl	401f90 <_ZdlPvm@plt>
  40fb0c:	f94012c0 	ldr	x0, [x22, #32]
  40fb10:	b4000080 	cbz	x0, 40fb20 <_ZNSt6vectorI2PTSaIS0_EED1Ev+0x50>
  40fb14:	f9401ac1 	ldr	x1, [x22, #48]
  40fb18:	cb000021 	sub	x1, x1, x0
  40fb1c:	97ffc91d 	bl	401f90 <_ZdlPvm@plt>
  40fb20:	a94056d4 	ldp	x20, x21, [x22]
  40fb24:	eb15029f 	cmp	x20, x21
  40fb28:	54000700 	b.eq	40fc08 <_ZNSt6vectorI2PTSaIS0_EED1Ev+0x138>  // b.none
  40fb2c:	d503201f 	nop
  40fb30:	f9404693 	ldr	x19, [x20, #136]
  40fb34:	b40000d3 	cbz	x19, 40fb4c <_ZNSt6vectorI2PTSaIS0_EED1Ev+0x7c>
  40fb38:	aa1303e0 	mov	x0, x19
  40fb3c:	d2800201 	mov	x1, #0x10                  	// #16
  40fb40:	f9400273 	ldr	x19, [x19]
  40fb44:	97ffc913 	bl	401f90 <_ZdlPvm@plt>
  40fb48:	b5ffff93 	cbnz	x19, 40fb38 <_ZNSt6vectorI2PTSaIS0_EED1Ev+0x68>
  40fb4c:	a9478a80 	ldp	x0, x2, [x20, #120]
  40fb50:	52800001 	mov	w1, #0x0                   	// #0
  40fb54:	d37df042 	lsl	x2, x2, #3
  40fb58:	97ffc8e6 	bl	401ef0 <memset@plt>
  40fb5c:	a9478680 	ldp	x0, x1, [x20, #120]
  40fb60:	9102a282 	add	x2, x20, #0xa8
  40fb64:	a908fe9f 	stp	xzr, xzr, [x20, #136]
  40fb68:	eb02001f 	cmp	x0, x2
  40fb6c:	54000060 	b.eq	40fb78 <_ZNSt6vectorI2PTSaIS0_EED1Ev+0xa8>  // b.none
  40fb70:	d37df021 	lsl	x1, x1, #3
  40fb74:	97ffc907 	bl	401f90 <_ZdlPvm@plt>
  40fb78:	91010280 	add	x0, x20, #0x40
  40fb7c:	97ffe951 	bl	40a0c0 <_ZNSt10_HashtableINSt7__cxx1112basic_stringIcSt11char_traitsIcESaIcEEESt4pairIKS5_iESaIS8_ENSt8__detail10_Select1stESt8equal_toIS5_ESt4hashIS5_ENSA_18_Mod_range_hashingENSA_20_Default_ranged_hashENSA_20_Prime_rehash_policyENSA_17_Hashtable_traitsILb1ELb0ELb1EEEE5clearEv>
  40fb80:	a9440680 	ldp	x0, x1, [x20, #64]
  40fb84:	9101c282 	add	x2, x20, #0x70
  40fb88:	eb02001f 	cmp	x0, x2
  40fb8c:	54000060 	b.eq	40fb98 <_ZNSt6vectorI2PTSaIS0_EED1Ev+0xc8>  // b.none
  40fb90:	d37df021 	lsl	x1, x1, #3
  40fb94:	97ffc8ff 	bl	401f90 <_ZdlPvm@plt>
  40fb98:	f9401280 	ldr	x0, [x20, #32]
  40fb9c:	b4000080 	cbz	x0, 40fbac <_ZNSt6vectorI2PTSaIS0_EED1Ev+0xdc>
  40fba0:	f9401a81 	ldr	x1, [x20, #48]
  40fba4:	cb000021 	sub	x1, x1, x0
  40fba8:	97ffc8fa 	bl	401f90 <_ZdlPvm@plt>
  40fbac:	a940e693 	ldp	x19, x25, [x20, #8]
  40fbb0:	eb19027f 	cmp	x19, x25
  40fbb4:	54000180 	b.eq	40fbe4 <_ZNSt6vectorI2PTSaIS0_EED1Ev+0x114>  // b.none
  40fbb8:	aa1303e1 	mov	x1, x19
  40fbbc:	f8410420 	ldr	x0, [x1], #16
  40fbc0:	eb01001f 	cmp	x0, x1
  40fbc4:	54000080 	b.eq	40fbd4 <_ZNSt6vectorI2PTSaIS0_EED1Ev+0x104>  // b.none
  40fbc8:	f9400a61 	ldr	x1, [x19, #16]
  40fbcc:	91000421 	add	x1, x1, #0x1
  40fbd0:	97ffc8f0 	bl	401f90 <_ZdlPvm@plt>
  40fbd4:	91008273 	add	x19, x19, #0x20
  40fbd8:	eb13033f 	cmp	x25, x19
  40fbdc:	54fffee1 	b.ne	40fbb8 <_ZNSt6vectorI2PTSaIS0_EED1Ev+0xe8>  // b.any
  40fbe0:	f9400699 	ldr	x25, [x20, #8]
  40fbe4:	b40000b9 	cbz	x25, 40fbf8 <_ZNSt6vectorI2PTSaIS0_EED1Ev+0x128>
  40fbe8:	f9400e81 	ldr	x1, [x20, #24]
  40fbec:	aa1903e0 	mov	x0, x25
  40fbf0:	cb190021 	sub	x1, x1, x25
  40fbf4:	97ffc8e7 	bl	401f90 <_ZdlPvm@plt>
  40fbf8:	9102c294 	add	x20, x20, #0xb0
  40fbfc:	eb1402bf 	cmp	x21, x20
  40fc00:	54fff981 	b.ne	40fb30 <_ZNSt6vectorI2PTSaIS0_EED1Ev+0x60>  // b.any
  40fc04:	f94002d5 	ldr	x21, [x22]
  40fc08:	b40000b5 	cbz	x21, 40fc1c <_ZNSt6vectorI2PTSaIS0_EED1Ev+0x14c>
  40fc0c:	f9400ac1 	ldr	x1, [x22, #16]
  40fc10:	aa1503e0 	mov	x0, x21
  40fc14:	cb150021 	sub	x1, x1, x21
  40fc18:	97ffc8de 	bl	401f90 <_ZdlPvm@plt>
  40fc1c:	910162d6 	add	x22, x22, #0x58
  40fc20:	eb1602ff 	cmp	x23, x22
  40fc24:	54fff6a1 	b.ne	40faf8 <_ZNSt6vectorI2PTSaIS0_EED1Ev+0x28>  // b.any
  40fc28:	a94153f3 	ldp	x19, x20, [sp, #16]
  40fc2c:	f9400317 	ldr	x23, [x24]
  40fc30:	f94023f9 	ldr	x25, [sp, #64]
  40fc34:	b4000117 	cbz	x23, 40fc54 <_ZNSt6vectorI2PTSaIS0_EED1Ev+0x184>
  40fc38:	f9400b01 	ldr	x1, [x24, #16]
  40fc3c:	aa1703e0 	mov	x0, x23
  40fc40:	a9425bf5 	ldp	x21, x22, [sp, #32]
  40fc44:	cb170021 	sub	x1, x1, x23
  40fc48:	a94363f7 	ldp	x23, x24, [sp, #48]
  40fc4c:	a8c57bfd 	ldp	x29, x30, [sp], #80
  40fc50:	17ffc8d0 	b	401f90 <_ZdlPvm@plt>
  40fc54:	a9425bf5 	ldp	x21, x22, [sp, #32]
  40fc58:	a94363f7 	ldp	x23, x24, [sp, #48]
  40fc5c:	a8c57bfd 	ldp	x29, x30, [sp], #80
  40fc60:	d65f03c0 	ret
  40fc64:	d503201f 	nop
  40fc68:	d503201f 	nop
  40fc6c:	d503201f 	nop

000000000040fc70 <_ZNSt6vectorIiSaIiEE17_M_realloc_insertIJmEEEvN9__gnu_cxx17__normal_iteratorIPiS1_EEDpOT_>:
  40fc70:	a9ba7bfd 	stp	x29, x30, [sp, #-96]!
  40fc74:	910003fd 	mov	x29, sp
  40fc78:	a9025bf5 	stp	x21, x22, [sp, #32]
  40fc7c:	a9046bf9 	stp	x25, x26, [sp, #64]
  40fc80:	a9405419 	ldp	x25, x21, [x0]
  40fc84:	a90153f3 	stp	x19, x20, [sp, #16]
  40fc88:	a90363f7 	stp	x23, x24, [sp, #48]
  40fc8c:	aa0103f8 	mov	x24, x1
  40fc90:	92fc0001 	mov	x1, #0x1fffffffffffffff    	// #2305843009213693951
  40fc94:	a90573fb 	stp	x27, x28, [sp, #80]
  40fc98:	cb1902a3 	sub	x3, x21, x25
  40fc9c:	9342fc63 	asr	x3, x3, #2
  40fca0:	eb01007f 	cmp	x3, x1
  40fca4:	54000760 	b.eq	40fd90 <_ZNSt6vectorIiSaIiEE17_M_realloc_insertIJmEEEvN9__gnu_cxx17__normal_iteratorIPiS1_EEDpOT_+0x120>  // b.none
  40fca8:	f100007f 	cmp	x3, #0x0
  40fcac:	aa0003f4 	mov	x20, x0
  40fcb0:	9a9f1460 	csinc	x0, x3, xzr, ne  // ne = any
  40fcb4:	aa0203fb 	mov	x27, x2
  40fcb8:	cb19031a 	sub	x26, x24, x25
  40fcbc:	ab000063 	adds	x3, x3, x0
  40fcc0:	54000542 	b.cs	40fd68 <_ZNSt6vectorIiSaIiEE17_M_realloc_insertIJmEEEvN9__gnu_cxx17__normal_iteratorIPiS1_EEDpOT_+0xf8>  // b.hs, b.nlast
  40fcc4:	b50005e3 	cbnz	x3, 40fd80 <_ZNSt6vectorIiSaIiEE17_M_realloc_insertIJmEEEvN9__gnu_cxx17__normal_iteratorIPiS1_EEDpOT_+0x110>
  40fcc8:	d2800013 	mov	x19, #0x0                   	// #0
  40fccc:	d2800017 	mov	x23, #0x0                   	// #0
  40fcd0:	91001356 	add	x22, x26, #0x4
  40fcd4:	cb1802b5 	sub	x21, x21, x24
  40fcd8:	f9400360 	ldr	x0, [x27]
  40fcdc:	8b1602f6 	add	x22, x23, x22
  40fce0:	b83a6ae0 	str	w0, [x23, x26]
  40fce4:	8b1502db 	add	x27, x22, x21
  40fce8:	f9400a9c 	ldr	x28, [x20, #16]
  40fcec:	f100035f 	cmp	x26, #0x0
  40fcf0:	5400022c 	b.gt	40fd34 <_ZNSt6vectorIiSaIiEE17_M_realloc_insertIJmEEEvN9__gnu_cxx17__normal_iteratorIPiS1_EEDpOT_+0xc4>
  40fcf4:	f10002bf 	cmp	x21, #0x0
  40fcf8:	540002cc 	b.gt	40fd50 <_ZNSt6vectorIiSaIiEE17_M_realloc_insertIJmEEEvN9__gnu_cxx17__normal_iteratorIPiS1_EEDpOT_+0xe0>
  40fcfc:	b5000159 	cbnz	x25, 40fd24 <_ZNSt6vectorIiSaIiEE17_M_realloc_insertIJmEEEvN9__gnu_cxx17__normal_iteratorIPiS1_EEDpOT_+0xb4>
  40fd00:	a9425bf5 	ldp	x21, x22, [sp, #32]
  40fd04:	a9446bf9 	ldp	x25, x26, [sp, #64]
  40fd08:	a9006e97 	stp	x23, x27, [x20]
  40fd0c:	f9000a93 	str	x19, [x20, #16]
  40fd10:	a94153f3 	ldp	x19, x20, [sp, #16]
  40fd14:	a94363f7 	ldp	x23, x24, [sp, #48]
  40fd18:	a94573fb 	ldp	x27, x28, [sp, #80]
  40fd1c:	a8c67bfd 	ldp	x29, x30, [sp], #96
  40fd20:	d65f03c0 	ret
  40fd24:	cb190381 	sub	x1, x28, x25
  40fd28:	aa1903e0 	mov	x0, x25
  40fd2c:	97ffc899 	bl	401f90 <_ZdlPvm@plt>
  40fd30:	17fffff4 	b	40fd00 <_ZNSt6vectorIiSaIiEE17_M_realloc_insertIJmEEEvN9__gnu_cxx17__normal_iteratorIPiS1_EEDpOT_+0x90>
  40fd34:	aa1903e1 	mov	x1, x25
  40fd38:	aa1a03e2 	mov	x2, x26
  40fd3c:	aa1703e0 	mov	x0, x23
  40fd40:	97ffc8ac 	bl	401ff0 <memmove@plt>
  40fd44:	cb190381 	sub	x1, x28, x25
  40fd48:	f10002bf 	cmp	x21, #0x0
  40fd4c:	54fffeed 	b.le	40fd28 <_ZNSt6vectorIiSaIiEE17_M_realloc_insertIJmEEEvN9__gnu_cxx17__normal_iteratorIPiS1_EEDpOT_+0xb8>
  40fd50:	aa1503e2 	mov	x2, x21
  40fd54:	aa1803e1 	mov	x1, x24
  40fd58:	aa1603e0 	mov	x0, x22
  40fd5c:	97ffc829 	bl	401e00 <memcpy@plt>
  40fd60:	b4fffd19 	cbz	x25, 40fd00 <_ZNSt6vectorIiSaIiEE17_M_realloc_insertIJmEEEvN9__gnu_cxx17__normal_iteratorIPiS1_EEDpOT_+0x90>
  40fd64:	17fffff0 	b	40fd24 <_ZNSt6vectorIiSaIiEE17_M_realloc_insertIJmEEEvN9__gnu_cxx17__normal_iteratorIPiS1_EEDpOT_+0xb4>
  40fd68:	b27ef3f3 	mov	x19, #0x7ffffffffffffffc    	// #9223372036854775804
  40fd6c:	aa1303e0 	mov	x0, x19
  40fd70:	97ffc884 	bl	401f80 <_Znwm@plt>
  40fd74:	aa0003f7 	mov	x23, x0
  40fd78:	8b130013 	add	x19, x0, x19
  40fd7c:	17ffffd5 	b	40fcd0 <_ZNSt6vectorIiSaIiEE17_M_realloc_insertIJmEEEvN9__gnu_cxx17__normal_iteratorIPiS1_EEDpOT_+0x60>
  40fd80:	eb01007f 	cmp	x3, x1
  40fd84:	9a819063 	csel	x3, x3, x1, ls  // ls = plast
  40fd88:	d37ef473 	lsl	x19, x3, #2
  40fd8c:	17fffff8 	b	40fd6c <_ZNSt6vectorIiSaIiEE17_M_realloc_insertIJmEEEvN9__gnu_cxx17__normal_iteratorIPiS1_EEDpOT_+0xfc>
  40fd90:	f0000000 	adrp	x0, 412000 <_Z19MD5Hash_simdversionPKNSt7__cxx1112basic_stringIcSt11char_traitsIcESaIcEEEP12__Uint32x4_t+0x1000>
  40fd94:	91392000 	add	x0, x0, #0xe48
  40fd98:	97ffc84e 	bl	401ed0 <_ZSt20__throw_length_errorPKc@plt>
  40fd9c:	d503201f 	nop

000000000040fda0 <_ZNSt6vectorI2PTSaIS0_EE14_M_emplace_auxIJRS0_EEEN9__gnu_cxx17__normal_iteratorIPS0_S2_EENS6_IPKS0_S2_EEDpOT_>:
  40fda0:	a9b37bfd 	stp	x29, x30, [sp, #-208]!
  40fda4:	910003fd 	mov	x29, sp
  40fda8:	a90573fb 	stp	x27, x28, [sp, #80]
  40fdac:	a940141b 	ldp	x27, x5, [x0]
  40fdb0:	a90363f7 	stp	x23, x24, [sp, #48]
  40fdb4:	aa0003f8 	mov	x24, x0
  40fdb8:	cb1b0026 	sub	x6, x1, x27
  40fdbc:	f90033e6 	str	x6, [sp, #96]
  40fdc0:	f9400806 	ldr	x6, [x0, #16]
  40fdc4:	eb0600bf 	cmp	x5, x6
  40fdc8:	54002d20 	b.eq	41036c <_ZNSt6vectorI2PTSaIS0_EE14_M_emplace_auxIJRS0_EEEN9__gnu_cxx17__normal_iteratorIPS0_S2_EENS6_IPKS0_S2_EEDpOT_+0x5cc>  // b.none
  40fdcc:	eb0100bf 	cmp	x5, x1
  40fdd0:	54002b40 	b.eq	410338 <_ZNSt6vectorI2PTSaIS0_EE14_M_emplace_auxIJRS0_EEEN9__gnu_cxx17__normal_iteratorIPS0_S2_EENS6_IPKS0_S2_EEDpOT_+0x598>  // b.none
  40fdd4:	aa0203e1 	mov	x1, x2
  40fdd8:	9101e3e0 	add	x0, sp, #0x78
  40fddc:	a90153f3 	stp	x19, x20, [sp, #16]
  40fde0:	a9025bf5 	stp	x21, x22, [sp, #32]
  40fde4:	a9046bf9 	stp	x25, x26, [sp, #64]
  40fde8:	f9003bf8 	str	x24, [sp, #112]
  40fdec:	97ffea99 	bl	40a850 <_ZN2PTC1ERKS_>
  40fdf0:	a9400301 	ldp	x1, x0, [x24]
  40fdf4:	d2917466 	mov	x6, #0x8ba3                	// #35747
  40fdf8:	f2b745c6 	movk	x6, #0xba2e, lsl #16
  40fdfc:	f2d45d06 	movk	x6, #0xa2e8, lsl #32
  40fe00:	f2e5d166 	movk	x6, #0x2e8b, lsl #48
  40fe04:	a97a9c08 	ldp	x8, x7, [x0, #-88]
  40fe08:	a9001c08 	stp	x8, x7, [x0]
  40fe0c:	bc5f8000 	ldur	s0, [x0, #-8]
  40fe10:	f85b8005 	ldur	x5, [x0, #-72]
  40fe14:	f9000805 	str	x5, [x0, #16]
  40fe18:	f94033e8 	ldr	x8, [sp, #96]
  40fe1c:	aa0103e9 	mov	x9, x1
  40fe20:	f85d0005 	ldur	x5, [x0, #-48]
  40fe24:	f9001405 	str	x5, [x0, #40]
  40fe28:	b85c0001 	ldur	w1, [x0, #-64]
  40fe2c:	d1016014 	sub	x20, x0, #0x58
  40fe30:	f85c8004 	ldur	x4, [x0, #-56]
  40fe34:	8b08013a 	add	x26, x9, x8
  40fe38:	f85d8005 	ldur	x5, [x0, #-40]
  40fe3c:	a93afc1f 	stp	xzr, xzr, [x0, #-88]
  40fe40:	f85e0003 	ldur	x3, [x0, #-32]
  40fe44:	f81b801f 	stur	xzr, [x0, #-72]
  40fe48:	f81c801f 	stur	xzr, [x0, #-56]
  40fe4c:	f81d001f 	stur	xzr, [x0, #-48]
  40fe50:	f81d801f 	stur	xzr, [x0, #-40]
  40fe54:	f81e001f 	stur	xzr, [x0, #-32]
  40fe58:	b9001801 	str	w1, [x0, #24]
  40fe5c:	cb1a0281 	sub	x1, x20, x26
  40fe60:	f9001004 	str	x4, [x0, #32]
  40fe64:	91016004 	add	x4, x0, #0x58
  40fe68:	f9001805 	str	x5, [x0, #48]
  40fe6c:	9343fc37 	asr	x23, x1, #3
  40fe70:	f9001c03 	str	x3, [x0, #56]
  40fe74:	f90037e9 	str	x9, [sp, #104]
  40fe78:	f85e8005 	ldur	x5, [x0, #-24]
  40fe7c:	f81e801f 	stur	xzr, [x0, #-24]
  40fe80:	f85f0003 	ldur	x3, [x0, #-16]
  40fe84:	f81f001f 	stur	xzr, [x0, #-16]
  40fe88:	a9040c05 	stp	x5, x3, [x0, #64]
  40fe8c:	9b067ef7 	mul	x23, x23, x6
  40fe90:	bd005000 	str	s0, [x0, #80]
  40fe94:	bc5fc000 	ldur	s0, [x0, #-4]
  40fe98:	bd005400 	str	s0, [x0, #84]
  40fe9c:	f9000704 	str	x4, [x24, #8]
  40fea0:	f100003f 	cmp	x1, #0x0
  40fea4:	54000ced 	b.le	410040 <_ZNSt6vectorI2PTSaIS0_EE14_M_emplace_auxIJRS0_EEEN9__gnu_cxx17__normal_iteratorIPS0_S2_EENS6_IPKS0_S2_EEDpOT_+0x2a0>
  40fea8:	d2800019 	mov	x25, #0x0                   	// #0
  40feac:	d2800015 	mov	x21, #0x0                   	// #0
  40feb0:	d2800016 	mov	x22, #0x0                   	// #0
  40feb4:	d503201f 	nop
  40feb8:	f85a8e80 	ldr	x0, [x20, #-88]!
  40febc:	aa1603f3 	mov	x19, x22
  40fec0:	f9400681 	ldr	x1, [x20, #8]
  40fec4:	a9058680 	stp	x0, x1, [x20, #88]
  40fec8:	f9400a80 	ldr	x0, [x20, #16]
  40fecc:	a9007e9f 	stp	xzr, xzr, [x20]
  40fed0:	f9000a9f 	str	xzr, [x20, #16]
  40fed4:	f9003680 	str	x0, [x20, #104]
  40fed8:	eb1602bf 	cmp	x21, x22
  40fedc:	540006c0 	b.eq	40ffb4 <_ZNSt6vectorI2PTSaIS0_EE14_M_emplace_auxIJRS0_EEEN9__gnu_cxx17__normal_iteratorIPS0_S2_EENS6_IPKS0_S2_EEDpOT_+0x214>  // b.none
  40fee0:	f9404660 	ldr	x0, [x19, #136]
  40fee4:	b40000c0 	cbz	x0, 40fefc <_ZNSt6vectorI2PTSaIS0_EE14_M_emplace_auxIJRS0_EEEN9__gnu_cxx17__normal_iteratorIPS0_S2_EENS6_IPKS0_S2_EEDpOT_+0x15c>
  40fee8:	f940001b 	ldr	x27, [x0]
  40feec:	d2800201 	mov	x1, #0x10                  	// #16
  40fef0:	97ffc828 	bl	401f90 <_ZdlPvm@plt>
  40fef4:	aa1b03e0 	mov	x0, x27
  40fef8:	b5ffff9b 	cbnz	x27, 40fee8 <_ZNSt6vectorI2PTSaIS0_EE14_M_emplace_auxIJRS0_EEEN9__gnu_cxx17__normal_iteratorIPS0_S2_EENS6_IPKS0_S2_EEDpOT_+0x148>
  40fefc:	a9478a60 	ldp	x0, x2, [x19, #120]
  40ff00:	52800001 	mov	w1, #0x0                   	// #0
  40ff04:	d37df042 	lsl	x2, x2, #3
  40ff08:	97ffc7fa 	bl	401ef0 <memset@plt>
  40ff0c:	a9478660 	ldp	x0, x1, [x19, #120]
  40ff10:	9102a262 	add	x2, x19, #0xa8
  40ff14:	a908fe7f 	stp	xzr, xzr, [x19, #136]
  40ff18:	eb02001f 	cmp	x0, x2
  40ff1c:	54000060 	b.eq	40ff28 <_ZNSt6vectorI2PTSaIS0_EE14_M_emplace_auxIJRS0_EEEN9__gnu_cxx17__normal_iteratorIPS0_S2_EENS6_IPKS0_S2_EEDpOT_+0x188>  // b.none
  40ff20:	d37df021 	lsl	x1, x1, #3
  40ff24:	97ffc81b 	bl	401f90 <_ZdlPvm@plt>
  40ff28:	91010260 	add	x0, x19, #0x40
  40ff2c:	97ffe865 	bl	40a0c0 <_ZNSt10_HashtableINSt7__cxx1112basic_stringIcSt11char_traitsIcESaIcEEESt4pairIKS5_iESaIS8_ENSt8__detail10_Select1stESt8equal_toIS5_ESt4hashIS5_ENSA_18_Mod_range_hashingENSA_20_Default_ranged_hashENSA_20_Prime_rehash_policyENSA_17_Hashtable_traitsILb1ELb0ELb1EEEE5clearEv>
  40ff30:	a9440660 	ldp	x0, x1, [x19, #64]
  40ff34:	9101c262 	add	x2, x19, #0x70
  40ff38:	eb02001f 	cmp	x0, x2
  40ff3c:	54000060 	b.eq	40ff48 <_ZNSt6vectorI2PTSaIS0_EE14_M_emplace_auxIJRS0_EEEN9__gnu_cxx17__normal_iteratorIPS0_S2_EENS6_IPKS0_S2_EEDpOT_+0x1a8>  // b.none
  40ff40:	d37df021 	lsl	x1, x1, #3
  40ff44:	97ffc813 	bl	401f90 <_ZdlPvm@plt>
  40ff48:	f9401260 	ldr	x0, [x19, #32]
  40ff4c:	b4000080 	cbz	x0, 40ff5c <_ZNSt6vectorI2PTSaIS0_EE14_M_emplace_auxIJRS0_EEEN9__gnu_cxx17__normal_iteratorIPS0_S2_EENS6_IPKS0_S2_EEDpOT_+0x1bc>
  40ff50:	f9401a61 	ldr	x1, [x19, #48]
  40ff54:	cb000021 	sub	x1, x1, x0
  40ff58:	97ffc80e 	bl	401f90 <_ZdlPvm@plt>
  40ff5c:	a940f27b 	ldp	x27, x28, [x19, #8]
  40ff60:	eb1c037f 	cmp	x27, x28
  40ff64:	54000180 	b.eq	40ff94 <_ZNSt6vectorI2PTSaIS0_EE14_M_emplace_auxIJRS0_EEEN9__gnu_cxx17__normal_iteratorIPS0_S2_EENS6_IPKS0_S2_EEDpOT_+0x1f4>  // b.none
  40ff68:	aa1b03e1 	mov	x1, x27
  40ff6c:	f8410420 	ldr	x0, [x1], #16
  40ff70:	eb01001f 	cmp	x0, x1
  40ff74:	54000080 	b.eq	40ff84 <_ZNSt6vectorI2PTSaIS0_EE14_M_emplace_auxIJRS0_EEEN9__gnu_cxx17__normal_iteratorIPS0_S2_EENS6_IPKS0_S2_EEDpOT_+0x1e4>  // b.none
  40ff78:	f9400b61 	ldr	x1, [x27, #16]
  40ff7c:	91000421 	add	x1, x1, #0x1
  40ff80:	97ffc804 	bl	401f90 <_ZdlPvm@plt>
  40ff84:	9100837b 	add	x27, x27, #0x20
  40ff88:	eb1b039f 	cmp	x28, x27
  40ff8c:	54fffee1 	b.ne	40ff68 <_ZNSt6vectorI2PTSaIS0_EE14_M_emplace_auxIJRS0_EEEN9__gnu_cxx17__normal_iteratorIPS0_S2_EENS6_IPKS0_S2_EEDpOT_+0x1c8>  // b.any
  40ff90:	f940067c 	ldr	x28, [x19, #8]
  40ff94:	b40000bc 	cbz	x28, 40ffa8 <_ZNSt6vectorI2PTSaIS0_EE14_M_emplace_auxIJRS0_EEEN9__gnu_cxx17__normal_iteratorIPS0_S2_EENS6_IPKS0_S2_EEDpOT_+0x208>
  40ff98:	f9400e61 	ldr	x1, [x19, #24]
  40ff9c:	aa1c03e0 	mov	x0, x28
  40ffa0:	cb1c0021 	sub	x1, x1, x28
  40ffa4:	97ffc7fb 	bl	401f90 <_ZdlPvm@plt>
  40ffa8:	9102c273 	add	x19, x19, #0xb0
  40ffac:	eb15027f 	cmp	x19, x21
  40ffb0:	54fff981 	b.ne	40fee0 <_ZNSt6vectorI2PTSaIS0_EE14_M_emplace_auxIJRS0_EEEN9__gnu_cxx17__normal_iteratorIPS0_S2_EENS6_IPKS0_S2_EEDpOT_+0x140>  // b.any
  40ffb4:	b4000096 	cbz	x22, 40ffc4 <_ZNSt6vectorI2PTSaIS0_EE14_M_emplace_auxIJRS0_EEEN9__gnu_cxx17__normal_iteratorIPS0_S2_EENS6_IPKS0_S2_EEDpOT_+0x224>
  40ffb8:	cb160321 	sub	x1, x25, x22
  40ffbc:	aa1603e0 	mov	x0, x22
  40ffc0:	97ffc7f4 	bl	401f90 <_ZdlPvm@plt>
  40ffc4:	a9420683 	ldp	x3, x1, [x20, #32]
  40ffc8:	a9027e9f 	stp	xzr, xzr, [x20, #32]
  40ffcc:	b9401a84 	ldr	w4, [x20, #24]
  40ffd0:	f9403e80 	ldr	x0, [x20, #120]
  40ffd4:	b9007284 	str	w4, [x20, #112]
  40ffd8:	f9401a82 	ldr	x2, [x20, #48]
  40ffdc:	f9001a9f 	str	xzr, [x20, #48]
  40ffe0:	a9078683 	stp	x3, x1, [x20, #120]
  40ffe4:	f9404681 	ldr	x1, [x20, #136]
  40ffe8:	f9004682 	str	x2, [x20, #136]
  40ffec:	b4000060 	cbz	x0, 40fff8 <_ZNSt6vectorI2PTSaIS0_EE14_M_emplace_auxIJRS0_EEEN9__gnu_cxx17__normal_iteratorIPS0_S2_EENS6_IPKS0_S2_EEDpOT_+0x258>
  40fff0:	cb000021 	sub	x1, x1, x0
  40fff4:	97ffc7e7 	bl	401f90 <_ZdlPvm@plt>
  40fff8:	a9438683 	ldp	x3, x1, [x20, #56]
  40fffc:	a903fe9f 	stp	xzr, xzr, [x20, #56]
  410000:	f9404a80 	ldr	x0, [x20, #144]
  410004:	a9090683 	stp	x3, x1, [x20, #144]
  410008:	f9402682 	ldr	x2, [x20, #72]
  41000c:	f900269f 	str	xzr, [x20, #72]
  410010:	f9405281 	ldr	x1, [x20, #160]
  410014:	f9005282 	str	x2, [x20, #160]
  410018:	b4000060 	cbz	x0, 410024 <_ZNSt6vectorI2PTSaIS0_EE14_M_emplace_auxIJRS0_EEEN9__gnu_cxx17__normal_iteratorIPS0_S2_EENS6_IPKS0_S2_EEDpOT_+0x284>
  41001c:	cb000021 	sub	x1, x1, x0
  410020:	97ffc7dc 	bl	401f90 <_ZdlPvm@plt>
  410024:	2d4a0281 	ldp	s1, s0, [x20, #80]
  410028:	f10006f7 	subs	x23, x23, #0x1
  41002c:	2d150281 	stp	s1, s0, [x20, #168]
  410030:	54000080 	b.eq	410040 <_ZNSt6vectorI2PTSaIS0_EE14_M_emplace_auxIJRS0_EEEN9__gnu_cxx17__normal_iteratorIPS0_S2_EENS6_IPKS0_S2_EEDpOT_+0x2a0>  // b.none
  410034:	a9405696 	ldp	x22, x21, [x20]
  410038:	f9400a99 	ldr	x25, [x20, #16]
  41003c:	17ffff9f 	b	40feb8 <_ZNSt6vectorI2PTSaIS0_EE14_M_emplace_auxIJRS0_EEEN9__gnu_cxx17__normal_iteratorIPS0_S2_EENS6_IPKS0_S2_EEDpOT_+0x118>
  410040:	a9460fe4 	ldp	x4, x3, [sp, #96]
  410044:	a940df55 	ldp	x21, x23, [x26, #8]
  410048:	a94787e2 	ldp	x2, x1, [sp, #120]
  41004c:	f8646876 	ldr	x22, [x3, x4]
  410050:	f94047e0 	ldr	x0, [sp, #136]
  410054:	f8246862 	str	x2, [x3, x4]
  410058:	a9008341 	stp	x1, x0, [x26, #8]
  41005c:	aa1603f4 	mov	x20, x22
  410060:	a907ffff 	stp	xzr, xzr, [sp, #120]
  410064:	f90047ff 	str	xzr, [sp, #136]
  410068:	eb1502df 	cmp	x22, x21
  41006c:	540006c0 	b.eq	410144 <_ZNSt6vectorI2PTSaIS0_EE14_M_emplace_auxIJRS0_EEEN9__gnu_cxx17__normal_iteratorIPS0_S2_EENS6_IPKS0_S2_EEDpOT_+0x3a4>  // b.none
  410070:	f9404693 	ldr	x19, [x20, #136]
  410074:	b40000d3 	cbz	x19, 41008c <_ZNSt6vectorI2PTSaIS0_EE14_M_emplace_auxIJRS0_EEEN9__gnu_cxx17__normal_iteratorIPS0_S2_EENS6_IPKS0_S2_EEDpOT_+0x2ec>
  410078:	aa1303e0 	mov	x0, x19
  41007c:	d2800201 	mov	x1, #0x10                  	// #16
  410080:	f9400273 	ldr	x19, [x19]
  410084:	97ffc7c3 	bl	401f90 <_ZdlPvm@plt>
  410088:	b5ffff93 	cbnz	x19, 410078 <_ZNSt6vectorI2PTSaIS0_EE14_M_emplace_auxIJRS0_EEEN9__gnu_cxx17__normal_iteratorIPS0_S2_EENS6_IPKS0_S2_EEDpOT_+0x2d8>
  41008c:	a9478a80 	ldp	x0, x2, [x20, #120]
  410090:	52800001 	mov	w1, #0x0                   	// #0
  410094:	d37df042 	lsl	x2, x2, #3
  410098:	97ffc796 	bl	401ef0 <memset@plt>
  41009c:	a9478680 	ldp	x0, x1, [x20, #120]
  4100a0:	9102a282 	add	x2, x20, #0xa8
  4100a4:	a908fe9f 	stp	xzr, xzr, [x20, #136]
  4100a8:	eb02001f 	cmp	x0, x2
  4100ac:	54000060 	b.eq	4100b8 <_ZNSt6vectorI2PTSaIS0_EE14_M_emplace_auxIJRS0_EEEN9__gnu_cxx17__normal_iteratorIPS0_S2_EENS6_IPKS0_S2_EEDpOT_+0x318>  // b.none
  4100b0:	d37df021 	lsl	x1, x1, #3
  4100b4:	97ffc7b7 	bl	401f90 <_ZdlPvm@plt>
  4100b8:	91010280 	add	x0, x20, #0x40
  4100bc:	97ffe801 	bl	40a0c0 <_ZNSt10_HashtableINSt7__cxx1112basic_stringIcSt11char_traitsIcESaIcEEESt4pairIKS5_iESaIS8_ENSt8__detail10_Select1stESt8equal_toIS5_ESt4hashIS5_ENSA_18_Mod_range_hashingENSA_20_Default_ranged_hashENSA_20_Prime_rehash_policyENSA_17_Hashtable_traitsILb1ELb0ELb1EEEE5clearEv>
  4100c0:	a9440680 	ldp	x0, x1, [x20, #64]
  4100c4:	9101c282 	add	x2, x20, #0x70
  4100c8:	eb02001f 	cmp	x0, x2
  4100cc:	54000060 	b.eq	4100d8 <_ZNSt6vectorI2PTSaIS0_EE14_M_emplace_auxIJRS0_EEEN9__gnu_cxx17__normal_iteratorIPS0_S2_EENS6_IPKS0_S2_EEDpOT_+0x338>  // b.none
  4100d0:	d37df021 	lsl	x1, x1, #3
  4100d4:	97ffc7af 	bl	401f90 <_ZdlPvm@plt>
  4100d8:	f9401280 	ldr	x0, [x20, #32]
  4100dc:	b4000080 	cbz	x0, 4100ec <_ZNSt6vectorI2PTSaIS0_EE14_M_emplace_auxIJRS0_EEEN9__gnu_cxx17__normal_iteratorIPS0_S2_EENS6_IPKS0_S2_EEDpOT_+0x34c>
  4100e0:	f9401a81 	ldr	x1, [x20, #48]
  4100e4:	cb000021 	sub	x1, x1, x0
  4100e8:	97ffc7aa 	bl	401f90 <_ZdlPvm@plt>
  4100ec:	a940e693 	ldp	x19, x25, [x20, #8]
  4100f0:	eb19027f 	cmp	x19, x25
  4100f4:	54000180 	b.eq	410124 <_ZNSt6vectorI2PTSaIS0_EE14_M_emplace_auxIJRS0_EEEN9__gnu_cxx17__normal_iteratorIPS0_S2_EENS6_IPKS0_S2_EEDpOT_+0x384>  // b.none
  4100f8:	aa1303e1 	mov	x1, x19
  4100fc:	f8410420 	ldr	x0, [x1], #16
  410100:	eb01001f 	cmp	x0, x1
  410104:	54000080 	b.eq	410114 <_ZNSt6vectorI2PTSaIS0_EE14_M_emplace_auxIJRS0_EEEN9__gnu_cxx17__normal_iteratorIPS0_S2_EENS6_IPKS0_S2_EEDpOT_+0x374>  // b.none
  410108:	f9400a61 	ldr	x1, [x19, #16]
  41010c:	91000421 	add	x1, x1, #0x1
  410110:	97ffc7a0 	bl	401f90 <_ZdlPvm@plt>
  410114:	91008273 	add	x19, x19, #0x20
  410118:	eb13033f 	cmp	x25, x19
  41011c:	54fffee1 	b.ne	4100f8 <_ZNSt6vectorI2PTSaIS0_EE14_M_emplace_auxIJRS0_EEEN9__gnu_cxx17__normal_iteratorIPS0_S2_EENS6_IPKS0_S2_EEDpOT_+0x358>  // b.any
  410120:	f9400699 	ldr	x25, [x20, #8]
  410124:	b40000b9 	cbz	x25, 410138 <_ZNSt6vectorI2PTSaIS0_EE14_M_emplace_auxIJRS0_EEEN9__gnu_cxx17__normal_iteratorIPS0_S2_EENS6_IPKS0_S2_EEDpOT_+0x398>
  410128:	f9400e81 	ldr	x1, [x20, #24]
  41012c:	aa1903e0 	mov	x0, x25
  410130:	cb190021 	sub	x1, x1, x25
  410134:	97ffc797 	bl	401f90 <_ZdlPvm@plt>
  410138:	9102c294 	add	x20, x20, #0xb0
  41013c:	eb1402bf 	cmp	x21, x20
  410140:	54fff981 	b.ne	410070 <_ZNSt6vectorI2PTSaIS0_EE14_M_emplace_auxIJRS0_EEEN9__gnu_cxx17__normal_iteratorIPS0_S2_EENS6_IPKS0_S2_EEDpOT_+0x2d0>  // b.any
  410144:	b4000096 	cbz	x22, 410154 <_ZNSt6vectorI2PTSaIS0_EE14_M_emplace_auxIJRS0_EEEN9__gnu_cxx17__normal_iteratorIPS0_S2_EENS6_IPKS0_S2_EEDpOT_+0x3b4>
  410148:	cb1602e1 	sub	x1, x23, x22
  41014c:	aa1603e0 	mov	x0, x22
  410150:	97ffc790 	bl	401f90 <_ZdlPvm@plt>
  410154:	b94093e0 	ldr	w0, [sp, #144]
  410158:	a94993e5 	ldp	x5, x4, [sp, #152]
  41015c:	f94057e3 	ldr	x3, [sp, #168]
  410160:	b9001b40 	str	w0, [x26, #24]
  410164:	f9401340 	ldr	x0, [x26, #32]
  410168:	f9001345 	str	x5, [x26, #32]
  41016c:	f9401b41 	ldr	x1, [x26, #48]
  410170:	a9028f44 	stp	x4, x3, [x26, #40]
  410174:	a909ffff 	stp	xzr, xzr, [sp, #152]
  410178:	f90057ff 	str	xzr, [sp, #168]
  41017c:	b4000060 	cbz	x0, 410188 <_ZNSt6vectorI2PTSaIS0_EE14_M_emplace_auxIJRS0_EEEN9__gnu_cxx17__normal_iteratorIPS0_S2_EENS6_IPKS0_S2_EEDpOT_+0x3e8>
  410180:	cb000021 	sub	x1, x1, x0
  410184:	97ffc783 	bl	401f90 <_ZdlPvm@plt>
  410188:	f9401f40 	ldr	x0, [x26, #56]
  41018c:	a94b13e5 	ldp	x5, x4, [sp, #176]
  410190:	f94063e3 	ldr	x3, [sp, #192]
  410194:	a9039345 	stp	x5, x4, [x26, #56]
  410198:	f9402741 	ldr	x1, [x26, #72]
  41019c:	f9002743 	str	x3, [x26, #72]
  4101a0:	a90b7fff 	stp	xzr, xzr, [sp, #176]
  4101a4:	f90063ff 	str	xzr, [sp, #192]
  4101a8:	b4000ae0 	cbz	x0, 410304 <_ZNSt6vectorI2PTSaIS0_EE14_M_emplace_auxIJRS0_EEEN9__gnu_cxx17__normal_iteratorIPS0_S2_EENS6_IPKS0_S2_EEDpOT_+0x564>
  4101ac:	cb000021 	sub	x1, x1, x0
  4101b0:	97ffc778 	bl	401f90 <_ZdlPvm@plt>
  4101b4:	2d5903e1 	ldp	s1, s0, [sp, #200]
  4101b8:	f9405be0 	ldr	x0, [sp, #176]
  4101bc:	f94063e1 	ldr	x1, [sp, #192]
  4101c0:	2d0a0341 	stp	s1, s0, [x26, #80]
  4101c4:	cb000021 	sub	x1, x1, x0
  4101c8:	b4000040 	cbz	x0, 4101d0 <_ZNSt6vectorI2PTSaIS0_EE14_M_emplace_auxIJRS0_EEEN9__gnu_cxx17__normal_iteratorIPS0_S2_EENS6_IPKS0_S2_EEDpOT_+0x430>
  4101cc:	97ffc771 	bl	401f90 <_ZdlPvm@plt>
  4101d0:	f9404fe0 	ldr	x0, [sp, #152]
  4101d4:	b4000080 	cbz	x0, 4101e4 <_ZNSt6vectorI2PTSaIS0_EE14_M_emplace_auxIJRS0_EEEN9__gnu_cxx17__normal_iteratorIPS0_S2_EENS6_IPKS0_S2_EEDpOT_+0x444>
  4101d8:	f94057e1 	ldr	x1, [sp, #168]
  4101dc:	cb000021 	sub	x1, x1, x0
  4101e0:	97ffc76c 	bl	401f90 <_ZdlPvm@plt>
  4101e4:	a947dbf4 	ldp	x20, x22, [sp, #120]
  4101e8:	eb16029f 	cmp	x20, x22
  4101ec:	540006e0 	b.eq	4102c8 <_ZNSt6vectorI2PTSaIS0_EE14_M_emplace_auxIJRS0_EEEN9__gnu_cxx17__normal_iteratorIPS0_S2_EENS6_IPKS0_S2_EEDpOT_+0x528>  // b.none
  4101f0:	f9404693 	ldr	x19, [x20, #136]
  4101f4:	b40000d3 	cbz	x19, 41020c <_ZNSt6vectorI2PTSaIS0_EE14_M_emplace_auxIJRS0_EEEN9__gnu_cxx17__normal_iteratorIPS0_S2_EENS6_IPKS0_S2_EEDpOT_+0x46c>
  4101f8:	aa1303e0 	mov	x0, x19
  4101fc:	d2800201 	mov	x1, #0x10                  	// #16
  410200:	f9400273 	ldr	x19, [x19]
  410204:	97ffc763 	bl	401f90 <_ZdlPvm@plt>
  410208:	b5ffff93 	cbnz	x19, 4101f8 <_ZNSt6vectorI2PTSaIS0_EE14_M_emplace_auxIJRS0_EEEN9__gnu_cxx17__normal_iteratorIPS0_S2_EENS6_IPKS0_S2_EEDpOT_+0x458>
  41020c:	a9478a80 	ldp	x0, x2, [x20, #120]
  410210:	52800001 	mov	w1, #0x0                   	// #0
  410214:	d37df042 	lsl	x2, x2, #3
  410218:	97ffc736 	bl	401ef0 <memset@plt>
  41021c:	a9478680 	ldp	x0, x1, [x20, #120]
  410220:	9102a282 	add	x2, x20, #0xa8
  410224:	a908fe9f 	stp	xzr, xzr, [x20, #136]
  410228:	eb02001f 	cmp	x0, x2
  41022c:	54000060 	b.eq	410238 <_ZNSt6vectorI2PTSaIS0_EE14_M_emplace_auxIJRS0_EEEN9__gnu_cxx17__normal_iteratorIPS0_S2_EENS6_IPKS0_S2_EEDpOT_+0x498>  // b.none
  410230:	d37df021 	lsl	x1, x1, #3
  410234:	97ffc757 	bl	401f90 <_ZdlPvm@plt>
  410238:	91010280 	add	x0, x20, #0x40
  41023c:	97ffe7a1 	bl	40a0c0 <_ZNSt10_HashtableINSt7__cxx1112basic_stringIcSt11char_traitsIcESaIcEEESt4pairIKS5_iESaIS8_ENSt8__detail10_Select1stESt8equal_toIS5_ESt4hashIS5_ENSA_18_Mod_range_hashingENSA_20_Default_ranged_hashENSA_20_Prime_rehash_policyENSA_17_Hashtable_traitsILb1ELb0ELb1EEEE5clearEv>
  410240:	a9440680 	ldp	x0, x1, [x20, #64]
  410244:	9101c282 	add	x2, x20, #0x70
  410248:	eb02001f 	cmp	x0, x2
  41024c:	54000060 	b.eq	410258 <_ZNSt6vectorI2PTSaIS0_EE14_M_emplace_auxIJRS0_EEEN9__gnu_cxx17__normal_iteratorIPS0_S2_EENS6_IPKS0_S2_EEDpOT_+0x4b8>  // b.none
  410250:	d37df021 	lsl	x1, x1, #3
  410254:	97ffc74f 	bl	401f90 <_ZdlPvm@plt>
  410258:	f9401280 	ldr	x0, [x20, #32]
  41025c:	b4000080 	cbz	x0, 41026c <_ZNSt6vectorI2PTSaIS0_EE14_M_emplace_auxIJRS0_EEEN9__gnu_cxx17__normal_iteratorIPS0_S2_EENS6_IPKS0_S2_EEDpOT_+0x4cc>
  410260:	f9401a81 	ldr	x1, [x20, #48]
  410264:	cb000021 	sub	x1, x1, x0
  410268:	97ffc74a 	bl	401f90 <_ZdlPvm@plt>
  41026c:	a940d693 	ldp	x19, x21, [x20, #8]
  410270:	eb15027f 	cmp	x19, x21
  410274:	54000180 	b.eq	4102a4 <_ZNSt6vectorI2PTSaIS0_EE14_M_emplace_auxIJRS0_EEEN9__gnu_cxx17__normal_iteratorIPS0_S2_EENS6_IPKS0_S2_EEDpOT_+0x504>  // b.none
  410278:	aa1303e1 	mov	x1, x19
  41027c:	f8410420 	ldr	x0, [x1], #16
  410280:	eb01001f 	cmp	x0, x1
  410284:	54000080 	b.eq	410294 <_ZNSt6vectorI2PTSaIS0_EE14_M_emplace_auxIJRS0_EEEN9__gnu_cxx17__normal_iteratorIPS0_S2_EENS6_IPKS0_S2_EEDpOT_+0x4f4>  // b.none
  410288:	f9400a61 	ldr	x1, [x19, #16]
  41028c:	91000421 	add	x1, x1, #0x1
  410290:	97ffc740 	bl	401f90 <_ZdlPvm@plt>
  410294:	91008273 	add	x19, x19, #0x20
  410298:	eb1302bf 	cmp	x21, x19
  41029c:	54fffee1 	b.ne	410278 <_ZNSt6vectorI2PTSaIS0_EE14_M_emplace_auxIJRS0_EEEN9__gnu_cxx17__normal_iteratorIPS0_S2_EENS6_IPKS0_S2_EEDpOT_+0x4d8>  // b.any
  4102a0:	f9400695 	ldr	x21, [x20, #8]
  4102a4:	b40000b5 	cbz	x21, 4102b8 <_ZNSt6vectorI2PTSaIS0_EE14_M_emplace_auxIJRS0_EEEN9__gnu_cxx17__normal_iteratorIPS0_S2_EENS6_IPKS0_S2_EEDpOT_+0x518>
  4102a8:	f9400e81 	ldr	x1, [x20, #24]
  4102ac:	aa1503e0 	mov	x0, x21
  4102b0:	cb150021 	sub	x1, x1, x21
  4102b4:	97ffc737 	bl	401f90 <_ZdlPvm@plt>
  4102b8:	9102c294 	add	x20, x20, #0xb0
  4102bc:	eb1402df 	cmp	x22, x20
  4102c0:	54fff981 	b.ne	4101f0 <_ZNSt6vectorI2PTSaIS0_EE14_M_emplace_auxIJRS0_EEEN9__gnu_cxx17__normal_iteratorIPS0_S2_EENS6_IPKS0_S2_EEDpOT_+0x450>  // b.any
  4102c4:	f9403ff6 	ldr	x22, [sp, #120]
  4102c8:	b4000256 	cbz	x22, 410310 <_ZNSt6vectorI2PTSaIS0_EE14_M_emplace_auxIJRS0_EEEN9__gnu_cxx17__normal_iteratorIPS0_S2_EENS6_IPKS0_S2_EEDpOT_+0x570>
  4102cc:	f94047e1 	ldr	x1, [sp, #136]
  4102d0:	aa1603e0 	mov	x0, x22
  4102d4:	cb160021 	sub	x1, x1, x22
  4102d8:	97ffc72e 	bl	401f90 <_ZdlPvm@plt>
  4102dc:	f9400300 	ldr	x0, [x24]
  4102e0:	f94033e1 	ldr	x1, [sp, #96]
  4102e4:	a94153f3 	ldp	x19, x20, [sp, #16]
  4102e8:	8b010000 	add	x0, x0, x1
  4102ec:	a9425bf5 	ldp	x21, x22, [sp, #32]
  4102f0:	a94363f7 	ldp	x23, x24, [sp, #48]
  4102f4:	a9446bf9 	ldp	x25, x26, [sp, #64]
  4102f8:	a94573fb 	ldp	x27, x28, [sp, #80]
  4102fc:	a8cd7bfd 	ldp	x29, x30, [sp], #208
  410300:	d65f03c0 	ret
  410304:	2d5903e1 	ldp	s1, s0, [sp, #200]
  410308:	2d0a0341 	stp	s1, s0, [x26, #80]
  41030c:	17ffffb1 	b	4101d0 <_ZNSt6vectorI2PTSaIS0_EE14_M_emplace_auxIJRS0_EEEN9__gnu_cxx17__normal_iteratorIPS0_S2_EENS6_IPKS0_S2_EEDpOT_+0x430>
  410310:	f9400300 	ldr	x0, [x24]
  410314:	f94033e1 	ldr	x1, [sp, #96]
  410318:	a94153f3 	ldp	x19, x20, [sp, #16]
  41031c:	8b010000 	add	x0, x0, x1
  410320:	a9425bf5 	ldp	x21, x22, [sp, #32]
  410324:	a94363f7 	ldp	x23, x24, [sp, #48]
  410328:	a9446bf9 	ldp	x25, x26, [sp, #64]
  41032c:	a94573fb 	ldp	x27, x28, [sp, #80]
  410330:	a8cd7bfd 	ldp	x29, x30, [sp], #208
  410334:	d65f03c0 	ret
  410338:	aa0203e1 	mov	x1, x2
  41033c:	aa0503e0 	mov	x0, x5
  410340:	97ffe944 	bl	40a850 <_ZN2PTC1ERKS_>
  410344:	f9400700 	ldr	x0, [x24, #8]
  410348:	f94033e1 	ldr	x1, [sp, #96]
  41034c:	91016000 	add	x0, x0, #0x58
  410350:	f9000700 	str	x0, [x24, #8]
  410354:	f9400300 	ldr	x0, [x24]
  410358:	a94363f7 	ldp	x23, x24, [sp, #48]
  41035c:	8b010000 	add	x0, x0, x1
  410360:	a94573fb 	ldp	x27, x28, [sp, #80]
  410364:	a8cd7bfd 	ldp	x29, x30, [sp], #208
  410368:	d65f03c0 	ret
  41036c:	97ffec45 	bl	40b480 <_ZNSt6vectorI2PTSaIS0_EE17_M_realloc_insertIJRS0_EEEvN9__gnu_cxx17__normal_iteratorIPS0_S2_EEDpOT_>
  410370:	f9400300 	ldr	x0, [x24]
  410374:	f94033e1 	ldr	x1, [sp, #96]
  410378:	a94363f7 	ldp	x23, x24, [sp, #48]
  41037c:	8b010000 	add	x0, x0, x1
  410380:	a94573fb 	ldp	x27, x28, [sp, #80]
  410384:	a8cd7bfd 	ldp	x29, x30, [sp], #208
  410388:	d65f03c0 	ret
  41038c:	d503201f 	nop

0000000000410390 <_ZNSt6vectorINSt7__cxx1112basic_stringIcSt11char_traitsIcESaIcEEESaIS5_EE12emplace_backIJRS5_EEEvDpOT_>:
  410390:	aa0103e2 	mov	x2, x1
  410394:	a9408c01 	ldp	x1, x3, [x0, #8]
  410398:	eb03003f 	cmp	x1, x3
  41039c:	54000240 	b.eq	4103e4 <_ZNSt6vectorINSt7__cxx1112basic_stringIcSt11char_traitsIcESaIcEEESaIS5_EE12emplace_backIJRS5_EEEvDpOT_+0x54>  // b.none
  4103a0:	a9be7bfd 	stp	x29, x30, [sp, #-32]!
  4103a4:	910003fd 	mov	x29, sp
  4103a8:	f9400443 	ldr	x3, [x2, #8]
  4103ac:	f9000bf3 	str	x19, [sp, #16]
  4103b0:	aa0003f3 	mov	x19, x0
  4103b4:	91004020 	add	x0, x1, #0x10
  4103b8:	f9000020 	str	x0, [x1]
  4103bc:	aa0103e0 	mov	x0, x1
  4103c0:	f9400041 	ldr	x1, [x2]
  4103c4:	8b030022 	add	x2, x1, x3
  4103c8:	97fff436 	bl	40d4a0 <_ZNSt7__cxx1112basic_stringIcSt11char_traitsIcESaIcEE12_M_constructIPcEEvT_S7_St20forward_iterator_tag.isra.0>
  4103cc:	f9400660 	ldr	x0, [x19, #8]
  4103d0:	91008000 	add	x0, x0, #0x20
  4103d4:	f9000660 	str	x0, [x19, #8]
  4103d8:	f9400bf3 	ldr	x19, [sp, #16]
  4103dc:	a8c27bfd 	ldp	x29, x30, [sp], #32
  4103e0:	d65f03c0 	ret
  4103e4:	17ffeae7 	b	40af80 <_ZNSt6vectorINSt7__cxx1112basic_stringIcSt11char_traitsIcESaIcEEESaIS5_EE17_M_realloc_insertIJRS5_EEEvN9__gnu_cxx17__normal_iteratorIPS5_S7_EEDpOT_>
  4103e8:	d503201f 	nop
  4103ec:	d503201f 	nop

00000000004103f0 <_Z13StringProcessRKNSt7__cxx1112basic_stringIcSt11char_traitsIcESaIcEEEPi>:
  4103f0:	a9bc7bfd 	stp	x29, x30, [sp, #-64]!
  4103f4:	910003fd 	mov	x29, sp
  4103f8:	a9025bf5 	stp	x21, x22, [sp, #32]
  4103fc:	aa0103f6 	mov	x22, x1
  410400:	a9401415 	ldp	x21, x5, [x0]
  410404:	a90153f3 	stp	x19, x20, [sp, #16]
  410408:	a90363f7 	stp	x23, x24, [sp, #48]
  41040c:	531d70a2 	lsl	w2, w5, #3
  410410:	6b0203e0 	negs	w0, w2
  410414:	12002042 	and	w2, w2, #0x1ff
  410418:	12002000 	and	w0, w0, #0x1ff
  41041c:	5a804440 	csneg	w0, w2, w0, mi  // mi = first
  410420:	7107001f 	cmp	w0, #0x1c0
  410424:	540004cd 	b.le	4104bc <_Z13StringProcessRKNSt7__cxx1112basic_stringIcSt11char_traitsIcESaIcEEEPi+0xcc>
  410428:	52807804 	mov	w4, #0x3c0                 	// #960
  41042c:	4b000084 	sub	w4, w4, w0
  410430:	13037c84 	asr	w4, w4, #3
  410434:	51000497 	sub	w23, w4, #0x1
  410438:	93407ef7 	sxtw	x23, w23
  41043c:	0b050093 	add	w19, w4, w5
  410440:	93407cb4 	sxtw	x20, w5
  410444:	11002278 	add	w24, w19, #0x8
  410448:	93407f00 	sxtw	x0, w24
  41044c:	97ffc661 	bl	401dd0 <_Znam@plt>
  410450:	aa1503e1 	mov	x1, x21
  410454:	aa0003f5 	mov	x21, x0
  410458:	aa1403e2 	mov	x2, x20
  41045c:	97ffc669 	bl	401e00 <memcpy@plt>
  410460:	12800fe3 	mov	w3, #0xffffff80            	// #-128
  410464:	91000680 	add	x0, x20, #0x1
  410468:	38346aa3 	strb	w3, [x21, x20]
  41046c:	aa1703e2 	mov	x2, x23
  410470:	8b0002a0 	add	x0, x21, x0
  410474:	52800001 	mov	w1, #0x0                   	// #0
  410478:	97ffc69e 	bl	401ef0 <memset@plt>
  41047c:	8b33c2a4 	add	x4, x21, w19, sxtw
  410480:	d37df285 	lsl	x5, x20, #3
  410484:	d2800002 	mov	x2, #0x0                   	// #0
  410488:	531d7043 	lsl	w3, w2, #3
  41048c:	9ac324a3 	lsr	x3, x5, x3
  410490:	38226883 	strb	w3, [x4, x2]
  410494:	91000442 	add	x2, x2, #0x1
  410498:	f100205f 	cmp	x2, #0x8
  41049c:	54ffff61 	b.ne	410488 <_Z13StringProcessRKNSt7__cxx1112basic_stringIcSt11char_traitsIcESaIcEEEPi+0x98>  // b.any
  4104a0:	a94153f3 	ldp	x19, x20, [sp, #16]
  4104a4:	b90002d8 	str	w24, [x22]
  4104a8:	aa1503e0 	mov	x0, x21
  4104ac:	a9425bf5 	ldp	x21, x22, [sp, #32]
  4104b0:	a94363f7 	ldp	x23, x24, [sp, #48]
  4104b4:	a8c47bfd 	ldp	x29, x30, [sp], #64
  4104b8:	d65f03c0 	ret
  4104bc:	540000e0 	b.eq	4104d8 <_Z13StringProcessRKNSt7__cxx1112basic_stringIcSt11char_traitsIcESaIcEEEPi+0xe8>  // b.none
  4104c0:	52803804 	mov	w4, #0x1c0                 	// #448
  4104c4:	4b000084 	sub	w4, w4, w0
  4104c8:	13037c84 	asr	w4, w4, #3
  4104cc:	51000497 	sub	w23, w4, #0x1
  4104d0:	93407ef7 	sxtw	x23, w23
  4104d4:	17ffffda 	b	41043c <_Z13StringProcessRKNSt7__cxx1112basic_stringIcSt11char_traitsIcESaIcEEEPi+0x4c>
  4104d8:	52800804 	mov	w4, #0x40                  	// #64
  4104dc:	d28007f7 	mov	x23, #0x3f                  	// #63
  4104e0:	17ffffd7 	b	41043c <_Z13StringProcessRKNSt7__cxx1112basic_stringIcSt11char_traitsIcESaIcEEEPi+0x4c>

00000000004104e4 <_Z7MD5HashRKNSt7__cxx1112basic_stringIcSt11char_traitsIcESaIcEEEPj>:
  4104e4:	a9b57bfd 	stp	x29, x30, [sp, #-176]!
  4104e8:	910003fd 	mov	x29, sp
  4104ec:	a90153f3 	stp	x19, x20, [sp, #16]
  4104f0:	aa0003f4 	mov	x20, x0
  4104f4:	aa0103f3 	mov	x19, x1
  4104f8:	d2800080 	mov	x0, #0x4                   	// #4
  4104fc:	a9025bf5 	stp	x21, x22, [sp, #32]
  410500:	97ffc634 	bl	401dd0 <_Znam@plt>
  410504:	aa0003e1 	mov	x1, x0
  410508:	aa1403e0 	mov	x0, x20
  41050c:	aa0103f4 	mov	x20, x1
  410510:	f90037e1 	str	x1, [sp, #104]
  410514:	97ffffb7 	bl	4103f0 <_Z13StringProcessRKNSt7__cxx1112basic_stringIcSt11char_traitsIcESaIcEEEPi>
  410518:	aa0003f5 	mov	x21, x0
  41051c:	d2846023 	mov	x3, #0x2301                	// #8961
  410520:	d29b9fc2 	mov	x2, #0xdcfe                	// #56574
  410524:	b9400281 	ldr	w1, [x20]
  410528:	f2ace8a3 	movk	x3, #0x6745, lsl #16
  41052c:	f2b31742 	movk	x2, #0x98ba, lsl #16
  410530:	f2d57123 	movk	x3, #0xab89, lsl #32
  410534:	f2ca8ec2 	movk	x2, #0x5476, lsl #32
  410538:	7100003f 	cmp	w1, #0x0
  41053c:	1100fc34 	add	w20, w1, #0x3f
  410540:	f2fdf9a3 	movk	x3, #0xefcd, lsl #48
  410544:	f2e20642 	movk	x2, #0x1032, lsl #48
  410548:	a9000a63 	stp	x3, x2, [x19]
  41054c:	1a81b294 	csel	w20, w20, w1, lt  // lt = tstop
  410550:	7100fc3f 	cmp	w1, #0x3f
  410554:	5400550d 	b.le	410ff4 <_Z7MD5HashRKNSt7__cxx1112basic_stringIcSt11char_traitsIcESaIcEEEPj+0xb10>
  410558:	52846036 	mov	w22, #0x2301                	// #8961
  41055c:	a9046bf9 	stp	x25, x26, [sp, #64]
  410560:	13067e99 	asr	w25, w20, #6
  410564:	52957134 	mov	w20, #0xab89                	// #43913
  410568:	a90573fb 	stp	x27, x28, [sp, #80]
  41056c:	528a8edb 	mov	w27, #0x5476                	// #21622
  410570:	529b9fdc 	mov	w28, #0xdcfe                	// #56574
  410574:	72a2065b 	movk	w27, #0x1032, lsl #16
  410578:	72b3175c 	movk	w28, #0x98ba, lsl #16
  41057c:	72bdf9b4 	movk	w20, #0xefcd, lsl #16
  410580:	72ace8b6 	movk	w22, #0x6745, lsl #16
  410584:	a90363f7 	stp	x23, x24, [sp, #48]
  410588:	d2800018 	mov	x24, #0x0                   	// #0
  41058c:	52800017 	mov	w23, #0x0                   	// #0
  410590:	8b1802a0 	add	x0, x21, x24
  410594:	9101c3e4 	add	x4, sp, #0x70
  410598:	9102c3e6 	add	x6, sp, #0xb0
  41059c:	d503201f 	nop
  4105a0:	39400c03 	ldrb	w3, [x0, #3]
  4105a4:	91001000 	add	x0, x0, #0x4
  4105a8:	385fe001 	ldurb	w1, [x0, #-2]
  4105ac:	385fc005 	ldurb	w5, [x0, #-4]
  4105b0:	385fd002 	ldurb	w2, [x0, #-3]
  4105b4:	53081c63 	lsl	w3, w3, #24
  4105b8:	2a014061 	orr	w1, w3, w1, lsl #16
  4105bc:	2a0220a2 	orr	w2, w5, w2, lsl #8
  4105c0:	2a020021 	orr	w1, w1, w2
  4105c4:	b8004481 	str	w1, [x4], #4
  4105c8:	eb0400df 	cmp	x6, x4
  4105cc:	54fffea1 	b.ne	4105a0 <_Z7MD5HashRKNSt7__cxx1112basic_stringIcSt11char_traitsIcESaIcEEEPj+0xbc>  // b.any
  4105d0:	97ffc608 	bl	401df0 <_ZNSt6chrono3_V212system_clock3nowEv@plt>
  4105d4:	110006f7 	add	w23, w23, #0x1
  4105d8:	294e27fa 	ldp	w26, w9, [sp, #112]
  4105dc:	4a1b0380 	eor	w0, w28, w27
  4105e0:	0a140000 	and	w0, w0, w20
  4105e4:	52948f01 	mov	w1, #0xa478                	// #42104
  4105e8:	4a1b0000 	eor	w0, w0, w27
  4105ec:	72baed41 	movk	w1, #0xd76a, lsl #16
  4105f0:	0b160000 	add	w0, w0, w22
  4105f4:	0b010341 	add	w1, w26, w1
  4105f8:	0b010000 	add	w0, w0, w1
  4105fc:	4a1c0283 	eor	w3, w20, w28
  410600:	5296eac1 	mov	w1, #0xb756                	// #46934
  410604:	528e1b64 	mov	w4, #0x70db                	// #28891
  410608:	72bd18e1 	movk	w1, #0xe8c7, lsl #16
  41060c:	13806400 	ror	w0, w0, #25
  410610:	0b140000 	add	w0, w0, w20
  410614:	0b010121 	add	w1, w9, w1
  410618:	0a000063 	and	w3, w3, w0
  41061c:	4a140002 	eor	w2, w0, w20
  410620:	4a1c0063 	eor	w3, w3, w28
  410624:	72a48404 	movk	w4, #0x2420, lsl #16
  410628:	0b1b0063 	add	w3, w3, w27
  41062c:	5298c556 	mov	w22, #0xc62a                	// #50730
  410630:	0b010063 	add	w3, w3, w1
  410634:	5299ddc1 	mov	w1, #0xceee                	// #52974
  410638:	294f2fed 	ldp	w13, w11, [sp, #120]
  41063c:	13835063 	ror	w3, w3, #20
  410640:	0b000063 	add	w3, w3, w0
  410644:	72b837a1 	movk	w1, #0xc1bd, lsl #16
  410648:	0a030042 	and	w2, w2, w3
  41064c:	0b0401a7 	add	w7, w13, w4
  410650:	4a140042 	eor	w2, w2, w20
  410654:	b94083e4 	ldr	w4, [sp, #128]
  410658:	0b1c0042 	add	w2, w2, w28
  41065c:	0b010165 	add	w5, w11, w1
  410660:	0b070042 	add	w2, w2, w7
  410664:	5281f5e1 	mov	w1, #0xfaf                 	// #4015
  410668:	72beaf81 	movk	w1, #0xf57c, lsl #16
  41066c:	0b01008e 	add	w14, w4, w1
  410670:	4a030001 	eor	w1, w0, w3
  410674:	13823c42 	ror	w2, w2, #15
  410678:	0b030042 	add	w2, w2, w3
  41067c:	72a8f0f6 	movk	w22, #0x4787, lsl #16
  410680:	0a020021 	and	w1, w1, w2
  410684:	4a02006a 	eor	w10, w3, w2
  410688:	4a000021 	eor	w1, w1, w0
  41068c:	5288c26c 	mov	w12, #0x4613                	// #17939
  410690:	0b140021 	add	w1, w1, w20
  410694:	72b5060c 	movk	w12, #0xa830, lsl #16
  410698:	0b050021 	add	w1, w1, w5
  41069c:	5292a027 	mov	w7, #0x9501                	// #38145
  4106a0:	29509bf1 	ldp	w17, w6, [sp, #132]
  4106a4:	13812821 	ror	w1, w1, #10
  4106a8:	0b020021 	add	w1, w1, w2
  4106ac:	72bfa8c7 	movk	w7, #0xfd46, lsl #16
  4106b0:	0a01014a 	and	w10, w10, w1
  4106b4:	4a01005b 	eor	w27, w2, w1
  4106b8:	4a03014a 	eor	w10, w10, w3
  4106bc:	0b160236 	add	w22, w17, w22
  4106c0:	0b000140 	add	w0, w10, w0
  4106c4:	0b0c00cc 	add	w12, w6, w12
  4106c8:	0b0e0000 	add	w0, w0, w14
  4106cc:	52931b05 	mov	w5, #0x98d8                	// #39128
  4106d0:	2951a3f2 	ldp	w18, w8, [sp, #140]
  4106d4:	13806400 	ror	w0, w0, #25
  4106d8:	0b010000 	add	w0, w0, w1
  4106dc:	72ad3005 	movk	w5, #0x6980, lsl #16
  4106e0:	0a00037b 	and	w27, w27, w0
  4106e4:	0b070247 	add	w7, w18, w7
  4106e8:	4a02037b 	eor	w27, w27, w2
  4106ec:	0b050105 	add	w5, w8, w5
  4106f0:	0b030363 	add	w3, w27, w3
  4106f4:	4a00003b 	eor	w27, w1, w0
  4106f8:	0b160063 	add	w3, w3, w22
  4106fc:	b94097ef 	ldr	w15, [sp, #148]
  410700:	529ef5f4 	mov	w20, #0xf7af                	// #63407
  410704:	129489d0 	mov	w16, #0xffff5bb1            	// #-42063
  410708:	72b16894 	movk	w20, #0x8b44, lsl #16
  41070c:	13835063 	ror	w3, w3, #20
  410710:	0b000063 	add	w3, w3, w0
  410714:	0b1401f4 	add	w20, w15, w20
  410718:	0a03037b 	and	w27, w27, w3
  41071c:	529af7d6 	mov	w22, #0xd7be                	// #55230
  410720:	4a01037b 	eor	w27, w27, w1
  410724:	72b12b96 	movk	w22, #0x895c, lsl #16
  410728:	0b020362 	add	w2, w27, w2
  41072c:	4a03001b 	eor	w27, w0, w3
  410730:	0b0c0042 	add	w2, w2, w12
  410734:	5296681c 	mov	w28, #0xb340                	// #45888
  410738:	29533bea 	ldp	w10, w14, [sp, #152]
  41073c:	13823c42 	ror	w2, w2, #15
  410740:	0b030042 	add	w2, w2, w3
  410744:	72b8081c 	movk	w28, #0xc040, lsl #16
  410748:	0a02037b 	and	w27, w27, w2
  41074c:	0b100150 	add	w16, w10, w16
  410750:	4a00037b 	eor	w27, w27, w0
  410754:	0b1601d6 	add	w22, w14, w22
  410758:	0b010361 	add	w1, w27, w1
  41075c:	4a02007b 	eor	w27, w3, w2
  410760:	0b070021 	add	w1, w1, w7
  410764:	52822447 	mov	w7, #0x1122                	// #4386
  410768:	72ad7207 	movk	w7, #0x6b90, lsl #16
  41076c:	0b1c00dc 	add	w28, w6, w28
  410770:	91010318 	add	x24, x24, #0x40
  410774:	13812821 	ror	w1, w1, #10
  410778:	0b020021 	add	w1, w1, w2
  41077c:	0a01037b 	and	w27, w27, w1
  410780:	4a03037b 	eor	w27, w27, w3
  410784:	0b000360 	add	w0, w27, w0
  410788:	4a01005b 	eor	w27, w2, w1
  41078c:	0b050000 	add	w0, w0, w5
  410790:	295417ec 	ldp	w12, w5, [sp, #160]
  410794:	13806400 	ror	w0, w0, #25
  410798:	0b010000 	add	w0, w0, w1
  41079c:	0a00037b 	and	w27, w27, w0
  4107a0:	0b070187 	add	w7, w12, w7
  4107a4:	4a02037b 	eor	w27, w27, w2
  4107a8:	0b030363 	add	w3, w27, w3
  4107ac:	4a00003b 	eor	w27, w1, w0
  4107b0:	0b140063 	add	w3, w3, w20
  4107b4:	528e3274 	mov	w20, #0x7193                	// #29075
  4107b8:	72bfb314 	movk	w20, #0xfd98, lsl #16
  4107bc:	0b1400b4 	add	w20, w5, w20
  4107c0:	13835063 	ror	w3, w3, #20
  4107c4:	0b000063 	add	w3, w3, w0
  4107c8:	0a03037b 	and	w27, w27, w3
  4107cc:	4a01037b 	eor	w27, w27, w1
  4107d0:	0b020362 	add	w2, w27, w2
  4107d4:	4a03001b 	eor	w27, w0, w3
  4107d8:	0b100042 	add	w2, w2, w16
  4107dc:	13823c42 	ror	w2, w2, #15
  4107e0:	0b030042 	add	w2, w2, w3
  4107e4:	0a02037b 	and	w27, w27, w2
  4107e8:	4a00037b 	eor	w27, w27, w0
  4107ec:	0b010361 	add	w1, w27, w1
  4107f0:	4a02007b 	eor	w27, w3, w2
  4107f4:	0b160021 	add	w1, w1, w22
  4107f8:	528871d6 	mov	w22, #0x438e                	// #17294
  4107fc:	72b4cf36 	movk	w22, #0xa679, lsl #16
  410800:	13812821 	ror	w1, w1, #10
  410804:	0b020021 	add	w1, w1, w2
  410808:	0a01037b 	and	w27, w27, w1
  41080c:	4a03037b 	eor	w27, w27, w3
  410810:	0b000360 	add	w0, w27, w0
  410814:	4a01005b 	eor	w27, w2, w1
  410818:	0b070000 	add	w0, w0, w7
  41081c:	29551ff0 	ldp	w16, w7, [sp, #168]
  410820:	13806400 	ror	w0, w0, #25
  410824:	0b010000 	add	w0, w0, w1
  410828:	0a00037b 	and	w27, w27, w0
  41082c:	0b160216 	add	w22, w16, w22
  410830:	4a02037b 	eor	w27, w27, w2
  410834:	0b030363 	add	w3, w27, w3
  410838:	4a00003b 	eor	w27, w1, w0
  41083c:	0b140063 	add	w3, w3, w20
  410840:	52810434 	mov	w20, #0x821                 	// #2081
  410844:	72a93694 	movk	w20, #0x49b4, lsl #16
  410848:	0b1400f4 	add	w20, w7, w20
  41084c:	13835063 	ror	w3, w3, #20
  410850:	0b000063 	add	w3, w3, w0
  410854:	0a03037b 	and	w27, w27, w3
  410858:	4a01037b 	eor	w27, w27, w1
  41085c:	0b020362 	add	w2, w27, w2
  410860:	4a03001b 	eor	w27, w0, w3
  410864:	0b160042 	add	w2, w2, w22
  410868:	5284ac56 	mov	w22, #0x2562                	// #9570
  41086c:	72bec3d6 	movk	w22, #0xf61e, lsl #16
  410870:	0b160136 	add	w22, w9, w22
  410874:	13823c42 	ror	w2, w2, #15
  410878:	0b030042 	add	w2, w2, w3
  41087c:	0a02037b 	and	w27, w27, w2
  410880:	4a00037b 	eor	w27, w27, w0
  410884:	0b010361 	add	w1, w27, w1
  410888:	528b4a3b 	mov	w27, #0x5a51                	// #23121
  41088c:	0b140021 	add	w1, w1, w20
  410890:	72a4cbdb 	movk	w27, #0x265e, lsl #16
  410894:	0b1b01db 	add	w27, w14, w27
  410898:	13812821 	ror	w1, w1, #10
  41089c:	0b020021 	add	w1, w1, w2
  4108a0:	4a010054 	eor	w20, w2, w1
  4108a4:	0a030294 	and	w20, w20, w3
  4108a8:	4a020294 	eor	w20, w20, w2
  4108ac:	0b000280 	add	w0, w20, w0
  4108b0:	0b160000 	add	w0, w0, w22
  4108b4:	5298f556 	mov	w22, #0xc7aa                	// #51114
  4108b8:	72bd36d6 	movk	w22, #0xe9b6, lsl #16
  4108bc:	0b160356 	add	w22, w26, w22
  4108c0:	13806c00 	ror	w0, w0, #27
  4108c4:	0b010000 	add	w0, w0, w1
  4108c8:	4a000034 	eor	w20, w1, w0
  4108cc:	0a020294 	and	w20, w20, w2
  4108d0:	4a010294 	eor	w20, w20, w1
  4108d4:	0b030283 	add	w3, w20, w3
  4108d8:	0b1c0063 	add	w3, w3, w28
  4108dc:	52820bbc 	mov	w28, #0x105d                	// #4189
  4108e0:	72bac5fc 	movk	w28, #0xd62f, lsl #16
  4108e4:	0b1c023c 	add	w28, w17, w28
  4108e8:	13835c63 	ror	w3, w3, #23
  4108ec:	0b000063 	add	w3, w3, w0
  4108f0:	4a030014 	eor	w20, w0, w3
  4108f4:	0a010294 	and	w20, w20, w1
  4108f8:	4a000294 	eor	w20, w20, w0
  4108fc:	0b020282 	add	w2, w20, w2
  410900:	0b1b0042 	add	w2, w2, w27
  410904:	52828a7b 	mov	w27, #0x1453                	// #5203
  410908:	72a0489b 	movk	w27, #0x244, lsl #16
  41090c:	0b1b015b 	add	w27, w10, w27
  410910:	13824842 	ror	w2, w2, #18
  410914:	0b030042 	add	w2, w2, w3
  410918:	4a020074 	eor	w20, w3, w2
  41091c:	0a000294 	and	w20, w20, w0
  410920:	4a030294 	eor	w20, w20, w3
  410924:	0b010281 	add	w1, w20, w1
  410928:	0b160021 	add	w1, w1, w22
  41092c:	529cd036 	mov	w22, #0xe681                	// #59009
  410930:	72bb1436 	movk	w22, #0xd8a1, lsl #16
  410934:	0b1600f6 	add	w22, w7, w22
  410938:	13813021 	ror	w1, w1, #12
  41093c:	0b020021 	add	w1, w1, w2
  410940:	4a010054 	eor	w20, w2, w1
  410944:	0a030294 	and	w20, w20, w3
  410948:	4a020294 	eor	w20, w20, w2
  41094c:	0b000280 	add	w0, w20, w0
  410950:	0b1c0000 	add	w0, w0, w28
  410954:	529f791c 	mov	w28, #0xfbc8                	// #64456
  410958:	72bcfa7c 	movk	w28, #0xe7d3, lsl #16
  41095c:	0b1c009c 	add	w28, w4, w28
  410960:	13806c00 	ror	w0, w0, #27
  410964:	0b010000 	add	w0, w0, w1
  410968:	4a000034 	eor	w20, w1, w0
  41096c:	0a020294 	and	w20, w20, w2
  410970:	4a010294 	eor	w20, w20, w1
  410974:	0b030283 	add	w3, w20, w3
  410978:	0b1b0063 	add	w3, w3, w27
  41097c:	5299bcdb 	mov	w27, #0xcde6                	// #52710
  410980:	72a43c3b 	movk	w27, #0x21e1, lsl #16
  410984:	0b1b01fb 	add	w27, w15, w27
  410988:	13835c63 	ror	w3, w3, #23
  41098c:	0b000063 	add	w3, w3, w0
  410990:	4a030014 	eor	w20, w0, w3
  410994:	0a010294 	and	w20, w20, w1
  410998:	4a000294 	eor	w20, w20, w0
  41099c:	0b020282 	add	w2, w20, w2
  4109a0:	0b160042 	add	w2, w2, w22
  4109a4:	5280fad6 	mov	w22, #0x7d6                 	// #2006
  4109a8:	72b866f6 	movk	w22, #0xc337, lsl #16
  4109ac:	0b160216 	add	w22, w16, w22
  4109b0:	13824842 	ror	w2, w2, #18
  4109b4:	0b030042 	add	w2, w2, w3
  4109b8:	4a020074 	eor	w20, w3, w2
  4109bc:	0a000294 	and	w20, w20, w0
  4109c0:	4a030294 	eor	w20, w20, w3
  4109c4:	0b010281 	add	w1, w20, w1
  4109c8:	0b1c0021 	add	w1, w1, w28
  4109cc:	5281b0fc 	mov	w28, #0xd87                 	// #3463
  4109d0:	72be9abc 	movk	w28, #0xf4d5, lsl #16
  4109d4:	0b1c017c 	add	w28, w11, w28
  4109d8:	13813021 	ror	w1, w1, #12
  4109dc:	0b020021 	add	w1, w1, w2
  4109e0:	4a010054 	eor	w20, w2, w1
  4109e4:	0a030294 	and	w20, w20, w3
  4109e8:	4a020294 	eor	w20, w20, w2
  4109ec:	0b000280 	add	w0, w20, w0
  4109f0:	0b1b0000 	add	w0, w0, w27
  4109f4:	52829dbb 	mov	w27, #0x14ed                	// #5357
  4109f8:	72a8ab5b 	movk	w27, #0x455a, lsl #16
  4109fc:	0b1b011b 	add	w27, w8, w27
  410a00:	13806c00 	ror	w0, w0, #27
  410a04:	0b010000 	add	w0, w0, w1
  410a08:	4a000034 	eor	w20, w1, w0
  410a0c:	0a020294 	and	w20, w20, w2
  410a10:	4a010294 	eor	w20, w20, w1
  410a14:	0b030283 	add	w3, w20, w3
  410a18:	0b160063 	add	w3, w3, w22
  410a1c:	529d20b6 	mov	w22, #0xe905                	// #59653
  410a20:	72b53c76 	movk	w22, #0xa9e3, lsl #16
  410a24:	0b1600b6 	add	w22, w5, w22
  410a28:	13835c63 	ror	w3, w3, #23
  410a2c:	0b000063 	add	w3, w3, w0
  410a30:	4a030014 	eor	w20, w0, w3
  410a34:	0a010294 	and	w20, w20, w1
  410a38:	4a000294 	eor	w20, w20, w0
  410a3c:	0b020282 	add	w2, w20, w2
  410a40:	0b1c0042 	add	w2, w2, w28
  410a44:	52947f1c 	mov	w28, #0xa3f8                	// #41976
  410a48:	72bf9dfc 	movk	w28, #0xfcef, lsl #16
  410a4c:	0b1c01bc 	add	w28, w13, w28
  410a50:	13824842 	ror	w2, w2, #18
  410a54:	0b030042 	add	w2, w2, w3
  410a58:	4a020074 	eor	w20, w3, w2
  410a5c:	0a000294 	and	w20, w20, w0
  410a60:	4a030294 	eor	w20, w20, w3
  410a64:	0b010281 	add	w1, w20, w1
  410a68:	0b1b0021 	add	w1, w1, w27
  410a6c:	52805b3b 	mov	w27, #0x2d9                 	// #729
  410a70:	72acedfb 	movk	w27, #0x676f, lsl #16
  410a74:	0b1b025b 	add	w27, w18, w27
  410a78:	13813021 	ror	w1, w1, #12
  410a7c:	0b020021 	add	w1, w1, w2
  410a80:	4a010054 	eor	w20, w2, w1
  410a84:	0a030294 	and	w20, w20, w3
  410a88:	4a020294 	eor	w20, w20, w2
  410a8c:	0b000280 	add	w0, w20, w0
  410a90:	0b160000 	add	w0, w0, w22
  410a94:	52899156 	mov	w22, #0x4c8a                	// #19594
  410a98:	72b1a556 	movk	w22, #0x8d2a, lsl #16
  410a9c:	0b160196 	add	w22, w12, w22
  410aa0:	13806c00 	ror	w0, w0, #27
  410aa4:	0b010000 	add	w0, w0, w1
  410aa8:	4a000034 	eor	w20, w1, w0
  410aac:	0a020294 	and	w20, w20, w2
  410ab0:	4a010294 	eor	w20, w20, w1
  410ab4:	0b030283 	add	w3, w20, w3
  410ab8:	0b1c0063 	add	w3, w3, w28
  410abc:	13835c63 	ror	w3, w3, #23
  410ac0:	0b000063 	add	w3, w3, w0
  410ac4:	4a030014 	eor	w20, w0, w3
  410ac8:	0a010294 	and	w20, w20, w1
  410acc:	4a000294 	eor	w20, w20, w0
  410ad0:	0b020282 	add	w2, w20, w2
  410ad4:	51417234 	sub	w20, w17, #0x5c, lsl #12
  410ad8:	0b1b0042 	add	w2, w2, w27
  410adc:	511afa94 	sub	w20, w20, #0x6be
  410ae0:	13824842 	ror	w2, w2, #18
  410ae4:	0b030042 	add	w2, w2, w3
  410ae8:	4a02007b 	eor	w27, w3, w2
  410aec:	0a00037c 	and	w28, w27, w0
  410af0:	4a03039c 	eor	w28, w28, w3
  410af4:	0b010381 	add	w1, w28, w1
  410af8:	529ed03c 	mov	w28, #0xf681                	// #63105
  410afc:	0b160036 	add	w22, w1, w22
  410b00:	72b0ee3c 	movk	w28, #0x8771, lsl #16
  410b04:	0b1c011c 	add	w28, w8, w28
  410b08:	139632d6 	ror	w22, w22, #12
  410b0c:	0b0202d6 	add	w22, w22, w2
  410b10:	4a16037b 	eor	w27, w27, w22
  410b14:	4a160041 	eor	w1, w2, w22
  410b18:	0b000360 	add	w0, w27, w0
  410b1c:	528c245b 	mov	w27, #0x6122                	// #24866
  410b20:	0b140000 	add	w0, w0, w20
  410b24:	72adb3bb 	movk	w27, #0x6d9d, lsl #16
  410b28:	0b1b01db 	add	w27, w14, w27
  410b2c:	13807000 	ror	w0, w0, #28
  410b30:	0b160000 	add	w0, w0, w22
  410b34:	4a000034 	eor	w20, w1, w0
  410b38:	0b030294 	add	w20, w20, w3
  410b3c:	4a0002c3 	eor	w3, w22, w0
  410b40:	0b1c0294 	add	w20, w20, w28
  410b44:	5287019c 	mov	w28, #0x380c                	// #14348
  410b48:	72bfbcbc 	movk	w28, #0xfde5, lsl #16
  410b4c:	0b1c021c 	add	w28, w16, w28
  410b50:	13945694 	ror	w20, w20, #21
  410b54:	0b000294 	add	w20, w20, w0
  410b58:	4a140063 	eor	w3, w3, w20
  410b5c:	0b020063 	add	w3, w3, w2
  410b60:	4a140002 	eor	w2, w0, w20
  410b64:	0b1b0063 	add	w3, w3, w27
  410b68:	529d489b 	mov	w27, #0xea44                	// #59972
  410b6c:	72b497db 	movk	w27, #0xa4be, lsl #16
  410b70:	0b1b013b 	add	w27, w9, w27
  410b74:	13834063 	ror	w3, w3, #16
  410b78:	0b140063 	add	w3, w3, w20
  410b7c:	4a030042 	eor	w2, w2, w3
  410b80:	4a030281 	eor	w1, w20, w3
  410b84:	0b160042 	add	w2, w2, w22
  410b88:	5299f536 	mov	w22, #0xcfa9                	// #53161
  410b8c:	0b1c0042 	add	w2, w2, w28
  410b90:	72a97bd6 	movk	w22, #0x4bde, lsl #16
  410b94:	0b160096 	add	w22, w4, w22
  410b98:	52896c1c 	mov	w28, #0x4b60                	// #19296
  410b9c:	72bed77c 	movk	w28, #0xf6bb, lsl #16
  410ba0:	13822442 	ror	w2, w2, #9
  410ba4:	0b030042 	add	w2, w2, w3
  410ba8:	0b1c025c 	add	w28, w18, w28
  410bac:	4a020021 	eor	w1, w1, w2
  410bb0:	0b000021 	add	w1, w1, w0
  410bb4:	4a020060 	eor	w0, w3, w2
  410bb8:	0b1b0021 	add	w1, w1, w27
  410bbc:	13817021 	ror	w1, w1, #28
  410bc0:	0b020021 	add	w1, w1, w2
  410bc4:	4a010000 	eor	w0, w0, w1
  410bc8:	0b140000 	add	w0, w0, w20
  410bcc:	4a010054 	eor	w20, w2, w1
  410bd0:	0b160000 	add	w0, w0, w22
  410bd4:	52978e16 	mov	w22, #0xbc70                	// #48240
  410bd8:	72b7d7f6 	movk	w22, #0xbebf, lsl #16
  410bdc:	0b160156 	add	w22, w10, w22
  410be0:	5144014a 	sub	w10, w10, #0x100, lsl #12
  410be4:	13805400 	ror	w0, w0, #21
  410be8:	0b010000 	add	w0, w0, w1
  410bec:	512e0d4a 	sub	w10, w10, #0xb83
  410bf0:	4a000294 	eor	w20, w20, w0
  410bf4:	4a00003b 	eor	w27, w1, w0
  410bf8:	0b030283 	add	w3, w20, w3
  410bfc:	528fd8d4 	mov	w20, #0x7ec6                	// #32454
  410c00:	0b1c0063 	add	w3, w3, w28
  410c04:	72a51374 	movk	w20, #0x289b, lsl #16
  410c08:	0b1400b4 	add	w20, w5, w20
  410c0c:	13834063 	ror	w3, w3, #16
  410c10:	0b000063 	add	w3, w3, w0
  410c14:	4a03037b 	eor	w27, w27, w3
  410c18:	0b020362 	add	w2, w27, w2
  410c1c:	4a03001b 	eor	w27, w0, w3
  410c20:	0b160042 	add	w2, w2, w22
  410c24:	5284ff56 	mov	w22, #0x27fa                	// #10234
  410c28:	72bd5436 	movk	w22, #0xeaa1, lsl #16
  410c2c:	0b160356 	add	w22, w26, w22
  410c30:	13822442 	ror	w2, w2, #9
  410c34:	0b030042 	add	w2, w2, w3
  410c38:	4a02037b 	eor	w27, w27, w2
  410c3c:	0b010361 	add	w1, w27, w1
  410c40:	4a02007b 	eor	w27, w3, w2
  410c44:	0b140021 	add	w1, w1, w20
  410c48:	528610b4 	mov	w20, #0x3085                	// #12421
  410c4c:	72ba9df4 	movk	w20, #0xd4ef, lsl #16
  410c50:	0b140174 	add	w20, w11, w20
  410c54:	13817021 	ror	w1, w1, #28
  410c58:	0b020021 	add	w1, w1, w2
  410c5c:	4a01037b 	eor	w27, w27, w1
  410c60:	0b000360 	add	w0, w27, w0
  410c64:	4a01005b 	eor	w27, w2, w1
  410c68:	0b160000 	add	w0, w0, w22
  410c6c:	5283a0b6 	mov	w22, #0x1d05                	// #7429
  410c70:	72a09116 	movk	w22, #0x488, lsl #16
  410c74:	0b1600d6 	add	w22, w6, w22
  410c78:	13805400 	ror	w0, w0, #21
  410c7c:	0b010000 	add	w0, w0, w1
  410c80:	4a00037b 	eor	w27, w27, w0
  410c84:	0b030363 	add	w3, w27, w3
  410c88:	4a00003b 	eor	w27, w1, w0
  410c8c:	0b140063 	add	w3, w3, w20
  410c90:	529a0734 	mov	w20, #0xd039                	// #53305
  410c94:	72bb3a94 	movk	w20, #0xd9d4, lsl #16
  410c98:	0b1401f4 	add	w20, w15, w20
  410c9c:	13834063 	ror	w3, w3, #16
  410ca0:	0b000063 	add	w3, w3, w0
  410ca4:	4a03037b 	eor	w27, w27, w3
  410ca8:	0b020362 	add	w2, w27, w2
  410cac:	4a03001b 	eor	w27, w0, w3
  410cb0:	0b160042 	add	w2, w2, w22
  410cb4:	52933cb6 	mov	w22, #0x99e5                	// #39397
  410cb8:	72bcdb76 	movk	w22, #0xe6db, lsl #16
  410cbc:	0b160196 	add	w22, w12, w22
  410cc0:	13822442 	ror	w2, w2, #9
  410cc4:	0b030042 	add	w2, w2, w3
  410cc8:	4a02037b 	eor	w27, w27, w2
  410ccc:	0b010361 	add	w1, w27, w1
  410cd0:	4a02007b 	eor	w27, w3, w2
  410cd4:	0b140021 	add	w1, w1, w20
  410cd8:	528f9f14 	mov	w20, #0x7cf8                	// #31992
  410cdc:	72a3f454 	movk	w20, #0x1fa2, lsl #16
  410ce0:	0b1400f4 	add	w20, w7, w20
  410ce4:	13817021 	ror	w1, w1, #28
  410ce8:	0b020021 	add	w1, w1, w2
  410cec:	4a01037b 	eor	w27, w27, w1
  410cf0:	0b000360 	add	w0, w27, w0
  410cf4:	4a01005b 	eor	w27, w2, w1
  410cf8:	0b160000 	add	w0, w0, w22
  410cfc:	528accb6 	mov	w22, #0x5665                	// #22117
  410d00:	72b89596 	movk	w22, #0xc4ac, lsl #16
  410d04:	0b1601b6 	add	w22, w13, w22
  410d08:	13805400 	ror	w0, w0, #21
  410d0c:	0b010000 	add	w0, w0, w1
  410d10:	4a00037b 	eor	w27, w27, w0
  410d14:	0b030363 	add	w3, w27, w3
  410d18:	4a00003b 	eor	w27, w1, w0
  410d1c:	0b140063 	add	w3, w3, w20
  410d20:	52844894 	mov	w20, #0x2244                	// #8772
  410d24:	72be8534 	movk	w20, #0xf429, lsl #16
  410d28:	0b140354 	add	w20, w26, w20
  410d2c:	529ff2fa 	mov	w26, #0xff97                	// #65431
  410d30:	13834063 	ror	w3, w3, #16
  410d34:	0b000063 	add	w3, w3, w0
  410d38:	72a8655a 	movk	w26, #0x432a, lsl #16
  410d3c:	0b1a0252 	add	w18, w18, w26
  410d40:	4a03037a 	eor	w26, w27, w3
  410d44:	0b020342 	add	w2, w26, w2
  410d48:	528474fb 	mov	w27, #0x23a7                	// #9127
  410d4c:	0b160042 	add	w2, w2, w22
  410d50:	52940736 	mov	w22, #0xa039                	// #41017
  410d54:	72bf9276 	movk	w22, #0xfc93, lsl #16
  410d58:	0b160231 	add	w17, w17, w22
  410d5c:	528b3876 	mov	w22, #0x59c3                	// #22979
  410d60:	13822442 	ror	w2, w2, #9
  410d64:	0b030042 	add	w2, w2, w3
  410d68:	72acab76 	movk	w22, #0x655b, lsl #16
  410d6c:	0b16018c 	add	w12, w12, w22
  410d70:	2a200056 	orn	w22, w2, w0
  410d74:	4a0302d6 	eor	w22, w22, w3
  410d78:	72b5729b 	movk	w27, #0xab94, lsl #16
  410d7c:	0b0102c1 	add	w1, w22, w1
  410d80:	0b1b0210 	add	w16, w16, w27
  410d84:	0b140021 	add	w1, w1, w20
  410d88:	528fc9f4 	mov	w20, #0x7e4f                	// #32335
  410d8c:	72adf514 	movk	w20, #0x6fa8, lsl #16
  410d90:	0b140108 	add	w8, w8, w20
  410d94:	5299925a 	mov	w26, #0xcc92                	// #52370
  410d98:	13816821 	ror	w1, w1, #26
  410d9c:	0b020021 	add	w1, w1, w2
  410da0:	72b1e19a 	movk	w26, #0x8f0c, lsl #16
  410da4:	2a230034 	orn	w20, w1, w3
  410da8:	0b1a016b 	add	w11, w11, w26
  410dac:	4a020294 	eor	w20, w20, w2
  410db0:	528bba36 	mov	w22, #0x5dd1                	// #24017
  410db4:	0b000280 	add	w0, w20, w0
  410db8:	529e46b4 	mov	w20, #0xf235                	// #62005
  410dbc:	0b120000 	add	w0, w0, w18
  410dc0:	52823432 	mov	w18, #0x11a1                	// #4513
  410dc4:	72a9c112 	movk	w18, #0x4e08, lsl #16
  410dc8:	0b1200a5 	add	w5, w5, w18
  410dcc:	528fd052 	mov	w18, #0x7e82                	// #32386
  410dd0:	13805800 	ror	w0, w0, #22
  410dd4:	0b010000 	add	w0, w0, w1
  410dd8:	72beea72 	movk	w18, #0xf753, lsl #16
  410ddc:	0b120084 	add	w4, w4, w18
  410de0:	2a220012 	orn	w18, w0, w2
  410de4:	4a010252 	eor	w18, w18, w1
  410de8:	72b7a754 	movk	w20, #0xbd3a, lsl #16
  410dec:	0b030252 	add	w18, w18, w3
  410df0:	0b1401ce 	add	w14, w14, w20
  410df4:	0b100252 	add	w18, w18, w16
  410df8:	72b0b096 	movk	w22, #0x8584, lsl #16
  410dfc:	0b160129 	add	w9, w9, w22
  410e00:	529cdc16 	mov	w22, #0xe6e0                	// #59104
  410e04:	72bfc596 	movk	w22, #0xfe2c, lsl #16
  410e08:	13924652 	ror	w18, w18, #17
  410e0c:	0b000252 	add	w18, w18, w0
  410e10:	0b1600e7 	add	w7, w7, w22
  410e14:	2a210254 	orn	w20, w18, w1
  410e18:	52886296 	mov	w22, #0x4314                	// #17172
  410e1c:	4a000294 	eor	w20, w20, w0
  410e20:	72b46036 	movk	w22, #0xa301, lsl #16
  410e24:	0b020282 	add	w2, w20, w2
  410e28:	0b1600c6 	add	w6, w6, w22
  410e2c:	0b110051 	add	w17, w2, w17
  410e30:	529a5763 	mov	w3, #0xd2bb                	// #53947
  410e34:	72a55ae3 	movk	w3, #0x2ad7, lsl #16
  410e38:	0b0301ad 	add	w13, w13, w3
  410e3c:	529a7223 	mov	w3, #0xd391                	// #54161
  410e40:	13912e31 	ror	w17, w17, #11
  410e44:	0b120231 	add	w17, w17, w18
  410e48:	72bd70c3 	movk	w3, #0xeb86, lsl #16
  410e4c:	2a200222 	orn	w2, w17, w0
  410e50:	0b0301e3 	add	w3, w15, w3
  410e54:	4a120042 	eor	w2, w2, w18
  410e58:	0b010041 	add	w1, w2, w1
  410e5c:	0b0c002c 	add	w12, w1, w12
  410e60:	29404276 	ldp	w22, w16, [x19]
  410e64:	138c698c 	ror	w12, w12, #26
  410e68:	0b11018c 	add	w12, w12, w17
  410e6c:	2a320182 	orn	w2, w12, w18
  410e70:	4a110042 	eor	w2, w2, w17
  410e74:	0b000042 	add	w2, w2, w0
  410e78:	0b0b0042 	add	w2, w2, w11
  410e7c:	29416e6f 	ldp	w15, w27, [x19, #8]
  410e80:	13825842 	ror	w2, w2, #22
  410e84:	0b0c0042 	add	w2, w2, w12
  410e88:	2a310041 	orn	w1, w2, w17
  410e8c:	4a0c0021 	eor	w1, w1, w12
  410e90:	0b120021 	add	w1, w1, w18
  410e94:	0b0a0021 	add	w1, w1, w10
  410e98:	13814421 	ror	w1, w1, #17
  410e9c:	0b020021 	add	w1, w1, w2
  410ea0:	2a2c0020 	orn	w0, w1, w12
  410ea4:	4a020000 	eor	w0, w0, w2
  410ea8:	0b110000 	add	w0, w0, w17
  410eac:	0b090000 	add	w0, w0, w9
  410eb0:	13802c00 	ror	w0, w0, #11
  410eb4:	0b010000 	add	w0, w0, w1
  410eb8:	2a220009 	orn	w9, w0, w2
  410ebc:	4a010129 	eor	w9, w9, w1
  410ec0:	0b0c0129 	add	w9, w9, w12
  410ec4:	0b080128 	add	w8, w9, w8
  410ec8:	13886908 	ror	w8, w8, #26
  410ecc:	0b000108 	add	w8, w8, w0
  410ed0:	2a210109 	orn	w9, w8, w1
  410ed4:	4a000129 	eor	w9, w9, w0
  410ed8:	0b020122 	add	w2, w9, w2
  410edc:	0b070047 	add	w7, w2, w7
  410ee0:	138758e7 	ror	w7, w7, #22
  410ee4:	0b0800e7 	add	w7, w7, w8
  410ee8:	2a2000e2 	orn	w2, w7, w0
  410eec:	4a080042 	eor	w2, w2, w8
  410ef0:	0b010042 	add	w2, w2, w1
  410ef4:	0b060042 	add	w2, w2, w6
  410ef8:	13824442 	ror	w2, w2, #17
  410efc:	0b070042 	add	w2, w2, w7
  410f00:	2a280041 	orn	w1, w2, w8
  410f04:	4a070021 	eor	w1, w1, w7
  410f08:	0b000021 	add	w1, w1, w0
  410f0c:	0b050021 	add	w1, w1, w5
  410f10:	13812c21 	ror	w1, w1, #11
  410f14:	0b020021 	add	w1, w1, w2
  410f18:	2a270020 	orn	w0, w1, w7
  410f1c:	4a020000 	eor	w0, w0, w2
  410f20:	0b080000 	add	w0, w0, w8
  410f24:	0b040000 	add	w0, w0, w4
  410f28:	13806800 	ror	w0, w0, #26
  410f2c:	0b010000 	add	w0, w0, w1
  410f30:	2a220004 	orn	w4, w0, w2
  410f34:	0b160016 	add	w22, w0, w22
  410f38:	4a010084 	eor	w4, w4, w1
  410f3c:	0b070084 	add	w4, w4, w7
  410f40:	0b0e0084 	add	w4, w4, w14
  410f44:	13845884 	ror	w4, w4, #22
  410f48:	0b000084 	add	w4, w4, w0
  410f4c:	2a21009c 	orn	w28, w4, w1
  410f50:	0b1b009b 	add	w27, w4, w27
  410f54:	4a00039c 	eor	w28, w28, w0
  410f58:	0b02039c 	add	w28, w28, w2
  410f5c:	0b0d039c 	add	w28, w28, w13
  410f60:	139c479c 	ror	w28, w28, #17
  410f64:	0b04039c 	add	w28, w28, w4
  410f68:	2a200394 	orn	w20, w28, w0
  410f6c:	0b100390 	add	w16, w28, w16
  410f70:	4a040294 	eor	w20, w20, w4
  410f74:	0b0f039c 	add	w28, w28, w15
  410f78:	0b010294 	add	w20, w20, w1
  410f7c:	29016e7c 	stp	w28, w27, [x19, #8]
  410f80:	0b030294 	add	w20, w20, w3
  410f84:	13942e94 	ror	w20, w20, #11
  410f88:	0b100294 	add	w20, w20, w16
  410f8c:	29005276 	stp	w22, w20, [x19]
  410f90:	6b17033f 	cmp	w25, w23
  410f94:	54ffafec 	b.gt	410590 <_Z7MD5HashRKNSt7__cxx1112basic_stringIcSt11char_traitsIcESaIcEEEPj+0xac>
  410f98:	a94363f7 	ldp	x23, x24, [sp, #48]
  410f9c:	5ac00ac2 	rev	w2, w22
  410fa0:	a9446bf9 	ldp	x25, x26, [sp, #64]
  410fa4:	a94573fb 	ldp	x27, x28, [sp, #80]
  410fa8:	d2800000 	mov	x0, #0x0                   	// #0
  410fac:	b8206a62 	str	w2, [x19, x0]
  410fb0:	91001000 	add	x0, x0, #0x4
  410fb4:	f100401f 	cmp	x0, #0x10
  410fb8:	540000e0 	b.eq	410fd4 <_Z7MD5HashRKNSt7__cxx1112basic_stringIcSt11char_traitsIcESaIcEEEPj+0xaf0>  // b.none
  410fbc:	b8606a62 	ldr	w2, [x19, x0]
  410fc0:	5ac00842 	rev	w2, w2
  410fc4:	b8206a62 	str	w2, [x19, x0]
  410fc8:	91001000 	add	x0, x0, #0x4
  410fcc:	f100401f 	cmp	x0, #0x10
  410fd0:	54ffff61 	b.ne	410fbc <_Z7MD5HashRKNSt7__cxx1112basic_stringIcSt11char_traitsIcESaIcEEEPj+0xad8>  // b.any
  410fd4:	b4000075 	cbz	x21, 410fe0 <_Z7MD5HashRKNSt7__cxx1112basic_stringIcSt11char_traitsIcESaIcEEEPj+0xafc>
  410fd8:	aa1503e0 	mov	x0, x21
  410fdc:	97ffc415 	bl	402030 <_ZdaPv@plt>
  410fe0:	a94153f3 	ldp	x19, x20, [sp, #16]
  410fe4:	a9425bf5 	ldp	x21, x22, [sp, #32]
  410fe8:	f94037e0 	ldr	x0, [sp, #104]
  410fec:	a8cb7bfd 	ldp	x29, x30, [sp], #176
  410ff0:	17ffc410 	b	402030 <_ZdaPv@plt>
  410ff4:	5288ace2 	mov	w2, #0x4567                	// #17767
  410ff8:	72a02462 	movk	w2, #0x123, lsl #16
  410ffc:	17ffffeb 	b	410fa8 <_Z7MD5HashRKNSt7__cxx1112basic_stringIcSt11char_traitsIcESaIcEEEPj+0xac4>

0000000000411000 <_Z19MD5Hash_simdversionPKNSt7__cxx1112basic_stringIcSt11char_traitsIcESaIcEEEP12__Uint32x4_t>:
  411000:	d10ac3ff 	sub	sp, sp, #0x2b0
  411004:	d2802002 	mov	x2, #0x100                 	// #256
  411008:	a9007bfd 	stp	x29, x30, [sp]
  41100c:	910003fd 	mov	x29, sp
  411010:	a90153f3 	stp	x19, x20, [sp, #16]
  411014:	9106c3f3 	add	x19, sp, #0x1b0
  411018:	aa0103f4 	mov	x20, x1
  41101c:	52800001 	mov	w1, #0x0                   	// #0
  411020:	a9025bf5 	stp	x21, x22, [sp, #32]
  411024:	aa0003f6 	mov	x22, x0
  411028:	aa1303e0 	mov	x0, x19
  41102c:	97ffc3b1 	bl	401ef0 <memset@plt>
  411030:	aa1603f5 	mov	x21, x22
  411034:	aa1603e9 	mov	x9, x22
  411038:	aa1303e6 	mov	x6, x19
  41103c:	aa1303e0 	mov	x0, x19
  411040:	5280000a 	mov	w10, #0x0                   	// #0
  411044:	5280100b 	mov	w11, #0x80                  	// #128
  411048:	f9400525 	ldr	x5, [x9, #8]
  41104c:	f100dcbf 	cmp	x5, #0x37
  411050:	54005fa8 	b.hi	411c44 <_Z19MD5Hash_simdversionPKNSt7__cxx1112basic_stringIcSt11char_traitsIcESaIcEEEP12__Uint32x4_t+0xc44>  // b.pmore
  411054:	93407d47 	sxtw	x7, w10
  411058:	d2800002 	mov	x2, #0x0                   	// #0
  41105c:	f9400128 	ldr	x8, [x9]
  411060:	b40001a5 	cbz	x5, 411094 <_Z19MD5Hash_simdversionPKNSt7__cxx1112basic_stringIcSt11char_traitsIcESaIcEEEP12__Uint32x4_t+0x94>
  411064:	d503201f 	nop
  411068:	927ef444 	and	x4, x2, #0xfffffffffffffffc
  41106c:	38626903 	ldrb	w3, [x8, x2]
  411070:	8b070084 	add	x4, x4, x7
  411074:	d37d0441 	ubfiz	x1, x2, #3, #2
  411078:	91000442 	add	x2, x2, #0x1
  41107c:	1ac12063 	lsl	w3, w3, w1
  411080:	b8647a61 	ldr	w1, [x19, x4, lsl #2]
  411084:	2a010063 	orr	w3, w3, w1
  411088:	b8247a63 	str	w3, [x19, x4, lsl #2]
  41108c:	eb0200bf 	cmp	x5, x2
  411090:	54fffec1 	b.ne	411068 <_Z19MD5Hash_simdversionPKNSt7__cxx1112basic_stringIcSt11char_traitsIcESaIcEEEP12__Uint32x4_t+0x68>  // b.any
  411094:	927ef4a2 	and	x2, x5, #0xfffffffffffffffc
  411098:	d37d04a1 	ubfiz	x1, x5, #3, #2
  41109c:	8b070042 	add	x2, x2, x7
  4110a0:	d37df0a5 	lsl	x5, x5, #3
  4110a4:	1ac12161 	lsl	w1, w11, w1
  4110a8:	1100054a 	add	w10, w10, #0x1
  4110ac:	91008129 	add	x9, x9, #0x20
  4110b0:	91001000 	add	x0, x0, #0x4
  4110b4:	b8627a63 	ldr	w3, [x19, x2, lsl #2]
  4110b8:	2a030021 	orr	w1, w1, w3
  4110bc:	b8227a61 	str	w1, [x19, x2, lsl #2]
  4110c0:	b900dc05 	str	w5, [x0, #220]
  4110c4:	b900ec1f 	str	wzr, [x0, #236]
  4110c8:	7100115f 	cmp	w10, #0x4
  4110cc:	54fffbe1 	b.ne	411048 <_Z19MD5Hash_simdversionPKNSt7__cxx1112basic_stringIcSt11char_traitsIcESaIcEEEP12__Uint32x4_t+0x48>  // b.any
  4110d0:	91040273 	add	x19, x19, #0x100
  4110d4:	9102c3e0 	add	x0, sp, #0xb0
  4110d8:	6d0527e8 	stp	d8, d9, [sp, #80]
  4110dc:	6d062fea 	stp	d10, d11, [sp, #96]
  4110e0:	6d0737ec 	stp	d12, d13, [sp, #112]
  4110e4:	6d083fee 	stp	d14, d15, [sp, #128]
  4110e8:	3cc104c0 	ldr	q0, [x6], #16
  4110ec:	3c810400 	str	q0, [x0], #16
  4110f0:	eb06027f 	cmp	x19, x6
  4110f4:	54ffffa1 	b.ne	4110e8 <_Z19MD5Hash_simdversionPKNSt7__cxx1112basic_stringIcSt11char_traitsIcESaIcEEEP12__Uint32x4_t+0xe8>  // b.any
  4110f8:	d0000000 	adrp	x0, 413000 <_IO_stdin_used+0x670>
  4110fc:	b0000001 	adrp	x1, 412000 <_Z19MD5Hash_simdversionPKNSt7__cxx1112basic_stringIcSt11char_traitsIcESaIcEEEP12__Uint32x4_t+0x1000>
  411100:	ad45cfe7 	ldp	q7, q19, [sp, #176]
  411104:	3dc0b000 	ldr	q0, [x0, #704]
  411108:	d2800000 	mov	x0, #0x0                   	// #0
  41110c:	3dc3a428 	ldr	q8, [x1, #3728]
  411110:	b0000001 	adrp	x1, 412000 <_Z19MD5Hash_simdversionPKNSt7__cxx1112basic_stringIcSt11char_traitsIcESaIcEEEP12__Uint32x4_t+0x1000>
  411114:	4ea084e0 	add	v0.4s, v7.4s, v0.4s
  411118:	4f03e6e1 	movi	v1.16b, #0x77
  41111c:	3dc3a82a 	ldr	q10, [x1, #3744]
  411120:	d0000001 	adrp	x1, 413000 <_IO_stdin_used+0x670>
  411124:	4f275403 	shl	v3.4s, v0.4s, #7
  411128:	6f270400 	ushr	v0.4s, v0.4s, #25
  41112c:	3dc0b422 	ldr	q2, [x1, #720]
  411130:	d0000001 	adrp	x1, 413000 <_IO_stdin_used+0x670>
  411134:	ad46d7ec 	ldp	q12, q21, [sp, #208]
  411138:	4ea01c60 	orr	v0.16b, v3.16b, v0.16b
  41113c:	4ea28662 	add	v2.4s, v19.4s, v2.4s
  411140:	3dc0b823 	ldr	q3, [x1, #736]
  411144:	d0000001 	adrp	x1, 413000 <_IO_stdin_used+0x670>
  411148:	4ea88400 	add	v0.4s, v0.4s, v8.4s
  41114c:	3dc0bc2d 	ldr	q13, [x1, #752]
  411150:	b0000001 	adrp	x1, 412000 <_Z19MD5Hash_simdversionPKNSt7__cxx1112basic_stringIcSt11char_traitsIcESaIcEEEP12__Uint32x4_t+0x1000>
  411154:	4ea38583 	add	v3.4s, v12.4s, v3.4s
  411158:	4e211c01 	and	v1.16b, v0.16b, v1.16b
  41115c:	3dc3c024 	ldr	q4, [x1, #3840]
  411160:	b0000001 	adrp	x1, 412000 <_Z19MD5Hash_simdversionPKNSt7__cxx1112basic_stringIcSt11char_traitsIcESaIcEEEP12__Uint32x4_t+0x1000>
  411164:	ad47dfef 	ldp	q15, q23, [sp, #240]
  411168:	6e2a1c21 	eor	v1.16b, v1.16b, v10.16b
  41116c:	4ead86ad 	add	v13.4s, v21.4s, v13.4s
  411170:	4ea485e4 	add	v4.4s, v15.4s, v4.4s
  411174:	3dc3c430 	ldr	q16, [x1, #3856]
  411178:	b0000001 	adrp	x1, 412000 <_Z19MD5Hash_simdversionPKNSt7__cxx1112basic_stringIcSt11char_traitsIcESaIcEEEP12__Uint32x4_t+0x1000>
  41117c:	4ea28421 	add	v1.4s, v1.4s, v2.4s
  411180:	4ea08484 	add	v4.4s, v4.4s, v0.4s
  411184:	4eb086f0 	add	v16.4s, v23.4s, v16.4s
  411188:	3dc3c839 	ldr	q25, [x1, #3872]
  41118c:	b0000001 	adrp	x1, 412000 <_Z19MD5Hash_simdversionPKNSt7__cxx1112basic_stringIcSt11char_traitsIcESaIcEEEP12__Uint32x4_t+0x1000>
  411190:	4f2c5422 	shl	v2.4s, v1.4s, #12
  411194:	6f2c0421 	ushr	v1.4s, v1.4s, #20
  411198:	ad489be9 	ldp	q9, q6, [sp, #272]
  41119c:	3dc3cc25 	ldr	q5, [x1, #3888]
  4111a0:	b0000001 	adrp	x1, 412000 <_Z19MD5Hash_simdversionPKNSt7__cxx1112basic_stringIcSt11char_traitsIcESaIcEEEP12__Uint32x4_t+0x1000>
  4111a4:	4ea11c42 	orr	v2.16b, v2.16b, v1.16b
  4111a8:	4eb98539 	add	v25.4s, v9.4s, v25.4s
  4111ac:	4ea584c5 	add	v5.4s, v6.4s, v5.4s
  4111b0:	3dc3d02b 	ldr	q11, [x1, #3904]
  4111b4:	b0000001 	adrp	x1, 412000 <_Z19MD5Hash_simdversionPKNSt7__cxx1112basic_stringIcSt11char_traitsIcESaIcEEEP12__Uint32x4_t+0x1000>
  4111b8:	4ea08442 	add	v2.4s, v2.4s, v0.4s
  4111bc:	ad49bbf2 	ldp	q18, q14, [sp, #304]
  4111c0:	3dc3d431 	ldr	q17, [x1, #3920]
  4111c4:	b0000001 	adrp	x1, 412000 <_Z19MD5Hash_simdversionPKNSt7__cxx1112basic_stringIcSt11char_traitsIcESaIcEEEP12__Uint32x4_t+0x1000>
  4111c8:	4ea21c41 	mov	v1.16b, v2.16b
  4111cc:	4ea28610 	add	v16.4s, v16.4s, v2.4s
  4111d0:	4eab864b 	add	v11.4s, v18.4s, v11.4s
  4111d4:	4eb185d1 	add	v17.4s, v14.4s, v17.4s
  4111d8:	6e681c01 	bsl	v1.16b, v0.16b, v8.16b
  4111dc:	3dc057f4 	ldr	q20, [sp, #336]
  4111e0:	4ea38421 	add	v1.4s, v1.4s, v3.4s
  4111e4:	4f315423 	shl	v3.4s, v1.4s, #17
  4111e8:	6f310421 	ushr	v1.4s, v1.4s, #15
  4111ec:	4ea11c61 	orr	v1.16b, v3.16b, v1.16b
  4111f0:	3dc3d823 	ldr	q3, [x1, #3936]
  4111f4:	b0000001 	adrp	x1, 412000 <_Z19MD5Hash_simdversionPKNSt7__cxx1112basic_stringIcSt11char_traitsIcESaIcEEEP12__Uint32x4_t+0x1000>
  4111f8:	4ea28421 	add	v1.4s, v1.4s, v2.4s
  4111fc:	4ea38683 	add	v3.4s, v20.4s, v3.4s
  411200:	3dc3dc3a 	ldr	q26, [x1, #3952]
  411204:	b0000001 	adrp	x1, 412000 <_Z19MD5Hash_simdversionPKNSt7__cxx1112basic_stringIcSt11char_traitsIcESaIcEEEP12__Uint32x4_t+0x1000>
  411208:	6ea11c40 	bit	v0.16b, v2.16b, v1.16b
  41120c:	4ea18739 	add	v25.4s, v25.4s, v1.4s
  411210:	3dc3e038 	ldr	q24, [x1, #3968]
  411214:	b0000001 	adrp	x1, 412000 <_Z19MD5Hash_simdversionPKNSt7__cxx1112basic_stringIcSt11char_traitsIcESaIcEEEP12__Uint32x4_t+0x1000>
  411218:	4ead8400 	add	v0.4s, v0.4s, v13.4s
  41121c:	4f365416 	shl	v22.4s, v0.4s, #22
  411220:	6f360400 	ushr	v0.4s, v0.4s, #10
  411224:	4ea01ec0 	orr	v0.16b, v22.16b, v0.16b
  411228:	ad4b5bed 	ldp	q13, q22, [sp, #352]
  41122c:	4ea18400 	add	v0.4s, v0.4s, v1.4s
  411230:	4eba85ba 	add	v26.4s, v13.4s, v26.4s
  411234:	4eb886d8 	add	v24.4s, v22.4s, v24.4s
  411238:	6ea01c22 	bit	v2.16b, v1.16b, v0.16b
  41123c:	4ea084a5 	add	v5.4s, v5.4s, v0.4s
  411240:	4ea48442 	add	v2.4s, v2.4s, v4.4s
  411244:	4f275444 	shl	v4.4s, v2.4s, #7
  411248:	6f270442 	ushr	v2.4s, v2.4s, #25
  41124c:	4ea21c82 	orr	v2.16b, v4.16b, v2.16b
  411250:	3dc3e424 	ldr	q4, [x1, #3984]
  411254:	b0000001 	adrp	x1, 412000 <_Z19MD5Hash_simdversionPKNSt7__cxx1112basic_stringIcSt11char_traitsIcESaIcEEEP12__Uint32x4_t+0x1000>
  411258:	4ea08442 	add	v2.4s, v2.4s, v0.4s
  41125c:	6ea21c01 	bit	v1.16b, v0.16b, v2.16b
  411260:	4ea2856b 	add	v11.4s, v11.4s, v2.4s
  411264:	4eb08421 	add	v1.4s, v1.4s, v16.4s
  411268:	4f2c5430 	shl	v16.4s, v1.4s, #12
  41126c:	6f2c0421 	ushr	v1.4s, v1.4s, #20
  411270:	4ea11e01 	orr	v1.16b, v16.16b, v1.16b
  411274:	4ea28421 	add	v1.4s, v1.4s, v2.4s
  411278:	6ea11c40 	bit	v0.16b, v2.16b, v1.16b
  41127c:	4ea18631 	add	v17.4s, v17.4s, v1.4s
  411280:	4eb98400 	add	v0.4s, v0.4s, v25.4s
  411284:	4f315419 	shl	v25.4s, v0.4s, #17
  411288:	6f310400 	ushr	v0.4s, v0.4s, #15
  41128c:	4ea01f20 	orr	v0.16b, v25.16b, v0.16b
  411290:	3dc3e839 	ldr	q25, [x1, #4000]
  411294:	b0000001 	adrp	x1, 412000 <_Z19MD5Hash_simdversionPKNSt7__cxx1112basic_stringIcSt11char_traitsIcESaIcEEEP12__Uint32x4_t+0x1000>
  411298:	4ea18400 	add	v0.4s, v0.4s, v1.4s
  41129c:	6ea01c22 	bit	v2.16b, v1.16b, v0.16b
  4112a0:	4ea08463 	add	v3.4s, v3.4s, v0.4s
  4112a4:	4ea58442 	add	v2.4s, v2.4s, v5.4s
  4112a8:	4f365445 	shl	v5.4s, v2.4s, #22
  4112ac:	6f360442 	ushr	v2.4s, v2.4s, #10
  4112b0:	4ea21ca2 	orr	v2.16b, v5.16b, v2.16b
  4112b4:	ad4c17f0 	ldp	q16, q5, [sp, #384]
  4112b8:	4ea08442 	add	v2.4s, v2.4s, v0.4s
  4112bc:	4ea48604 	add	v4.4s, v16.4s, v4.4s
  4112c0:	4eb984b9 	add	v25.4s, v5.4s, v25.4s
  4112c4:	6ea21c01 	bit	v1.16b, v0.16b, v2.16b
  4112c8:	4ea2875a 	add	v26.4s, v26.4s, v2.4s
  4112cc:	4eab8421 	add	v1.4s, v1.4s, v11.4s
  4112d0:	4f27542b 	shl	v11.4s, v1.4s, #7
  4112d4:	6f270421 	ushr	v1.4s, v1.4s, #25
  4112d8:	4ea11d61 	orr	v1.16b, v11.16b, v1.16b
  4112dc:	3dc3ec2b 	ldr	q11, [x1, #4016]
  4112e0:	b0000001 	adrp	x1, 412000 <_Z19MD5Hash_simdversionPKNSt7__cxx1112basic_stringIcSt11char_traitsIcESaIcEEEP12__Uint32x4_t+0x1000>
  4112e4:	4ea28421 	add	v1.4s, v1.4s, v2.4s
  4112e8:	6ea11c40 	bit	v0.16b, v2.16b, v1.16b
  4112ec:	4ea18718 	add	v24.4s, v24.4s, v1.4s
  4112f0:	4eb18400 	add	v0.4s, v0.4s, v17.4s
  4112f4:	4f2c5411 	shl	v17.4s, v0.4s, #12
  4112f8:	6f2c0400 	ushr	v0.4s, v0.4s, #20
  4112fc:	4ea01e20 	orr	v0.16b, v17.16b, v0.16b
  411300:	3dc06bf1 	ldr	q17, [sp, #416]
  411304:	4ea18400 	add	v0.4s, v0.4s, v1.4s
  411308:	4eab862b 	add	v11.4s, v17.4s, v11.4s
  41130c:	6ea01c22 	bit	v2.16b, v1.16b, v0.16b
  411310:	4ea08484 	add	v4.4s, v4.4s, v0.4s
  411314:	4ea38442 	add	v2.4s, v2.4s, v3.4s
  411318:	4f315443 	shl	v3.4s, v2.4s, #17
  41131c:	6f310442 	ushr	v2.4s, v2.4s, #15
  411320:	4ea21c62 	orr	v2.16b, v3.16b, v2.16b
  411324:	3dc3f023 	ldr	q3, [x1, #4032]
  411328:	b0000001 	adrp	x1, 412000 <_Z19MD5Hash_simdversionPKNSt7__cxx1112basic_stringIcSt11char_traitsIcESaIcEEEP12__Uint32x4_t+0x1000>
  41132c:	4ea08442 	add	v2.4s, v2.4s, v0.4s
  411330:	4ea38663 	add	v3.4s, v19.4s, v3.4s
  411334:	6ea21c01 	bit	v1.16b, v0.16b, v2.16b
  411338:	4ea28739 	add	v25.4s, v25.4s, v2.4s
  41133c:	4eba8421 	add	v1.4s, v1.4s, v26.4s
  411340:	4f36543a 	shl	v26.4s, v1.4s, #22
  411344:	6f360421 	ushr	v1.4s, v1.4s, #10
  411348:	4ea11f41 	orr	v1.16b, v26.16b, v1.16b
  41134c:	3dc3f43a 	ldr	q26, [x1, #4048]
  411350:	b0000001 	adrp	x1, 412000 <_Z19MD5Hash_simdversionPKNSt7__cxx1112basic_stringIcSt11char_traitsIcESaIcEEEP12__Uint32x4_t+0x1000>
  411354:	4ea28421 	add	v1.4s, v1.4s, v2.4s
  411358:	4eba853a 	add	v26.4s, v9.4s, v26.4s
  41135c:	6ea11c40 	bit	v0.16b, v2.16b, v1.16b
  411360:	4ea1856b 	add	v11.4s, v11.4s, v1.4s
  411364:	4eb88400 	add	v0.4s, v0.4s, v24.4s
  411368:	4f275418 	shl	v24.4s, v0.4s, #7
  41136c:	6f270400 	ushr	v0.4s, v0.4s, #25
  411370:	4ea01f00 	orr	v0.16b, v24.16b, v0.16b
  411374:	3dc3f838 	ldr	q24, [x1, #4064]
  411378:	b0000001 	adrp	x1, 412000 <_Z19MD5Hash_simdversionPKNSt7__cxx1112basic_stringIcSt11char_traitsIcESaIcEEEP12__Uint32x4_t+0x1000>
  41137c:	4ea18400 	add	v0.4s, v0.4s, v1.4s
  411380:	4eb885b8 	add	v24.4s, v13.4s, v24.4s
  411384:	6ea01c22 	bit	v2.16b, v1.16b, v0.16b
  411388:	4ea08463 	add	v3.4s, v3.4s, v0.4s
  41138c:	4ea48442 	add	v2.4s, v2.4s, v4.4s
  411390:	4f2c5444 	shl	v4.4s, v2.4s, #12
  411394:	6f2c0442 	ushr	v2.4s, v2.4s, #20
  411398:	4ea21c82 	orr	v2.16b, v4.16b, v2.16b
  41139c:	3dc3fc24 	ldr	q4, [x1, #4080]
  4113a0:	d0000001 	adrp	x1, 413000 <_IO_stdin_used+0x670>
  4113a4:	4ea08442 	add	v2.4s, v2.4s, v0.4s
  4113a8:	4ea484e4 	add	v4.4s, v7.4s, v4.4s
  4113ac:	6ea21c01 	bit	v1.16b, v0.16b, v2.16b
  4113b0:	4ea2875a 	add	v26.4s, v26.4s, v2.4s
  4113b4:	4eb98421 	add	v1.4s, v1.4s, v25.4s
  4113b8:	4f315439 	shl	v25.4s, v1.4s, #17
  4113bc:	6f310421 	ushr	v1.4s, v1.4s, #15
  4113c0:	4ea11f21 	orr	v1.16b, v25.16b, v1.16b
  4113c4:	3dc00039 	ldr	q25, [x1]
  4113c8:	d0000001 	adrp	x1, 413000 <_IO_stdin_used+0x670>
  4113cc:	4ea28421 	add	v1.4s, v1.4s, v2.4s
  4113d0:	4eb986f9 	add	v25.4s, v23.4s, v25.4s
  4113d4:	6ea11c40 	bit	v0.16b, v2.16b, v1.16b
  4113d8:	4ea18718 	add	v24.4s, v24.4s, v1.4s
  4113dc:	4eab8400 	add	v0.4s, v0.4s, v11.4s
  4113e0:	4f36540b 	shl	v11.4s, v0.4s, #22
  4113e4:	6f360400 	ushr	v0.4s, v0.4s, #10
  4113e8:	4ea01d60 	orr	v0.16b, v11.16b, v0.16b
  4113ec:	3dc0042b 	ldr	q11, [x1, #16]
  4113f0:	d0000001 	adrp	x1, 413000 <_IO_stdin_used+0x670>
  4113f4:	4ea18400 	add	v0.4s, v0.4s, v1.4s
  4113f8:	4eab868b 	add	v11.4s, v20.4s, v11.4s
  4113fc:	6e611c02 	bsl	v2.16b, v0.16b, v1.16b
  411400:	4ea08484 	add	v4.4s, v4.4s, v0.4s
  411404:	4ea38442 	add	v2.4s, v2.4s, v3.4s
  411408:	4f255443 	shl	v3.4s, v2.4s, #5
  41140c:	6f250442 	ushr	v2.4s, v2.4s, #27
  411410:	4ea21c62 	orr	v2.16b, v3.16b, v2.16b
  411414:	3dc00823 	ldr	q3, [x1, #32]
  411418:	d0000001 	adrp	x1, 413000 <_IO_stdin_used+0x670>
  41141c:	4ea08442 	add	v2.4s, v2.4s, v0.4s
  411420:	4ea38623 	add	v3.4s, v17.4s, v3.4s
  411424:	6e601c41 	bsl	v1.16b, v2.16b, v0.16b
  411428:	4ea28739 	add	v25.4s, v25.4s, v2.4s
  41142c:	4eba8421 	add	v1.4s, v1.4s, v26.4s
  411430:	4f29543a 	shl	v26.4s, v1.4s, #9
  411434:	6f290421 	ushr	v1.4s, v1.4s, #23
  411438:	4ea11f41 	orr	v1.16b, v26.16b, v1.16b
  41143c:	3dc00c3a 	ldr	q26, [x1, #48]
  411440:	d0000001 	adrp	x1, 413000 <_IO_stdin_used+0x670>
  411444:	4ea28421 	add	v1.4s, v1.4s, v2.4s
  411448:	4eba85fa 	add	v26.4s, v15.4s, v26.4s
  41144c:	6e621c20 	bsl	v0.16b, v1.16b, v2.16b
  411450:	4ea1856b 	add	v11.4s, v11.4s, v1.4s
  411454:	4eb88400 	add	v0.4s, v0.4s, v24.4s
  411458:	4f2e5418 	shl	v24.4s, v0.4s, #14
  41145c:	6f2e0400 	ushr	v0.4s, v0.4s, #18
  411460:	4ea01f00 	orr	v0.16b, v24.16b, v0.16b
  411464:	3dc01038 	ldr	q24, [x1, #64]
  411468:	d0000001 	adrp	x1, 413000 <_IO_stdin_used+0x670>
  41146c:	4ea18400 	add	v0.4s, v0.4s, v1.4s
  411470:	4eb885d8 	add	v24.4s, v14.4s, v24.4s
  411474:	6e611c02 	bsl	v2.16b, v0.16b, v1.16b
  411478:	4ea08463 	add	v3.4s, v3.4s, v0.4s
  41147c:	4ea48442 	add	v2.4s, v2.4s, v4.4s
  411480:	4f345444 	shl	v4.4s, v2.4s, #20
  411484:	6f340442 	ushr	v2.4s, v2.4s, #12
  411488:	4ea21c82 	orr	v2.16b, v4.16b, v2.16b
  41148c:	3dc01424 	ldr	q4, [x1, #80]
  411490:	d0000001 	adrp	x1, 413000 <_IO_stdin_used+0x670>
  411494:	4ea08442 	add	v2.4s, v2.4s, v0.4s
  411498:	4ea484a4 	add	v4.4s, v5.4s, v4.4s
  41149c:	6e601c41 	bsl	v1.16b, v2.16b, v0.16b
  4114a0:	4ea2875a 	add	v26.4s, v26.4s, v2.4s
  4114a4:	4eb98421 	add	v1.4s, v1.4s, v25.4s
  4114a8:	4f255439 	shl	v25.4s, v1.4s, #5
  4114ac:	6f250421 	ushr	v1.4s, v1.4s, #27
  4114b0:	4ea11f21 	orr	v1.16b, v25.16b, v1.16b
  4114b4:	3dc01839 	ldr	q25, [x1, #96]
  4114b8:	d0000001 	adrp	x1, 413000 <_IO_stdin_used+0x670>
  4114bc:	4ea28421 	add	v1.4s, v1.4s, v2.4s
  4114c0:	4eb986b9 	add	v25.4s, v21.4s, v25.4s
  4114c4:	6e621c20 	bsl	v0.16b, v1.16b, v2.16b
  4114c8:	4ea18718 	add	v24.4s, v24.4s, v1.4s
  4114cc:	4eab8400 	add	v0.4s, v0.4s, v11.4s
  4114d0:	4f29540b 	shl	v11.4s, v0.4s, #9
  4114d4:	6f290400 	ushr	v0.4s, v0.4s, #23
  4114d8:	4ea01d60 	orr	v0.16b, v11.16b, v0.16b
  4114dc:	3dc01c2b 	ldr	q11, [x1, #112]
  4114e0:	d0000001 	adrp	x1, 413000 <_IO_stdin_used+0x670>
  4114e4:	4ea18400 	add	v0.4s, v0.4s, v1.4s
  4114e8:	4eab864b 	add	v11.4s, v18.4s, v11.4s
  4114ec:	6e611c02 	bsl	v2.16b, v0.16b, v1.16b
  4114f0:	4ea08484 	add	v4.4s, v4.4s, v0.4s
  4114f4:	4ea38442 	add	v2.4s, v2.4s, v3.4s
  4114f8:	4f2e5443 	shl	v3.4s, v2.4s, #14
  4114fc:	6f2e0442 	ushr	v2.4s, v2.4s, #18
  411500:	4ea21c62 	orr	v2.16b, v3.16b, v2.16b
  411504:	3dc02023 	ldr	q3, [x1, #128]
  411508:	d0000001 	adrp	x1, 413000 <_IO_stdin_used+0x670>
  41150c:	4ea08442 	add	v2.4s, v2.4s, v0.4s
  411510:	4ea38603 	add	v3.4s, v16.4s, v3.4s
  411514:	6e601c41 	bsl	v1.16b, v2.16b, v0.16b
  411518:	4ea28739 	add	v25.4s, v25.4s, v2.4s
  41151c:	4eba8421 	add	v1.4s, v1.4s, v26.4s
  411520:	4f34543a 	shl	v26.4s, v1.4s, #20
  411524:	6f340421 	ushr	v1.4s, v1.4s, #12
  411528:	4ea11f41 	orr	v1.16b, v26.16b, v1.16b
  41152c:	3dc0243a 	ldr	q26, [x1, #144]
  411530:	d0000001 	adrp	x1, 413000 <_IO_stdin_used+0x670>
  411534:	4ea28421 	add	v1.4s, v1.4s, v2.4s
  411538:	4eba859a 	add	v26.4s, v12.4s, v26.4s
  41153c:	6e621c20 	bsl	v0.16b, v1.16b, v2.16b
  411540:	4ea1856b 	add	v11.4s, v11.4s, v1.4s
  411544:	4eb88400 	add	v0.4s, v0.4s, v24.4s
  411548:	4f255418 	shl	v24.4s, v0.4s, #5
  41154c:	6f250400 	ushr	v0.4s, v0.4s, #27
  411550:	4ea01f00 	orr	v0.16b, v24.16b, v0.16b
  411554:	3dc02838 	ldr	q24, [x1, #160]
  411558:	d0000001 	adrp	x1, 413000 <_IO_stdin_used+0x670>
  41155c:	4ea18400 	add	v0.4s, v0.4s, v1.4s
  411560:	4eb884d8 	add	v24.4s, v6.4s, v24.4s
  411564:	6e611c02 	bsl	v2.16b, v0.16b, v1.16b
  411568:	4ea08463 	add	v3.4s, v3.4s, v0.4s
  41156c:	4ea48442 	add	v2.4s, v2.4s, v4.4s
  411570:	4f295444 	shl	v4.4s, v2.4s, #9
  411574:	6f290442 	ushr	v2.4s, v2.4s, #23
  411578:	4ea21c82 	orr	v2.16b, v4.16b, v2.16b
  41157c:	3dc02c24 	ldr	q4, [x1, #176]
  411580:	d0000001 	adrp	x1, 413000 <_IO_stdin_used+0x670>
  411584:	4ea08442 	add	v2.4s, v2.4s, v0.4s
  411588:	4ea486c4 	add	v4.4s, v22.4s, v4.4s
  41158c:	6e601c41 	bsl	v1.16b, v2.16b, v0.16b
  411590:	4ea2875a 	add	v26.4s, v26.4s, v2.4s
  411594:	4eb98421 	add	v1.4s, v1.4s, v25.4s
  411598:	4f2e5439 	shl	v25.4s, v1.4s, #14
  41159c:	6f2e0421 	ushr	v1.4s, v1.4s, #18
  4115a0:	4ea11f21 	orr	v1.16b, v25.16b, v1.16b
  4115a4:	3dc03039 	ldr	q25, [x1, #192]
  4115a8:	d0000001 	adrp	x1, 413000 <_IO_stdin_used+0x670>
  4115ac:	4ea28421 	add	v1.4s, v1.4s, v2.4s
  4115b0:	4eb986f9 	add	v25.4s, v23.4s, v25.4s
  4115b4:	6e621c20 	bsl	v0.16b, v1.16b, v2.16b
  4115b8:	4ea18718 	add	v24.4s, v24.4s, v1.4s
  4115bc:	4eab8400 	add	v0.4s, v0.4s, v11.4s
  4115c0:	4f34540b 	shl	v11.4s, v0.4s, #20
  4115c4:	6f340400 	ushr	v0.4s, v0.4s, #12
  4115c8:	4ea01d60 	orr	v0.16b, v11.16b, v0.16b
  4115cc:	3dc0342b 	ldr	q11, [x1, #208]
  4115d0:	d0000001 	adrp	x1, 413000 <_IO_stdin_used+0x670>
  4115d4:	4ea18400 	add	v0.4s, v0.4s, v1.4s
  4115d8:	4eab864b 	add	v11.4s, v18.4s, v11.4s
  4115dc:	6e611c02 	bsl	v2.16b, v0.16b, v1.16b
  4115e0:	4ea08484 	add	v4.4s, v4.4s, v0.4s
  4115e4:	4ea38442 	add	v2.4s, v2.4s, v3.4s
  4115e8:	4f255443 	shl	v3.4s, v2.4s, #5
  4115ec:	6f250442 	ushr	v2.4s, v2.4s, #27
  4115f0:	4ea21c62 	orr	v2.16b, v3.16b, v2.16b
  4115f4:	3dc03823 	ldr	q3, [x1, #224]
  4115f8:	d0000001 	adrp	x1, 413000 <_IO_stdin_used+0x670>
  4115fc:	4ea08442 	add	v2.4s, v2.4s, v0.4s
  411600:	4ea385a3 	add	v3.4s, v13.4s, v3.4s
  411604:	6e601c41 	bsl	v1.16b, v2.16b, v0.16b
  411608:	4ea28739 	add	v25.4s, v25.4s, v2.4s
  41160c:	4eba8421 	add	v1.4s, v1.4s, v26.4s
  411610:	4f29543a 	shl	v26.4s, v1.4s, #9
  411614:	6f290421 	ushr	v1.4s, v1.4s, #23
  411618:	4ea11f41 	orr	v1.16b, v26.16b, v1.16b
  41161c:	3dc03c3a 	ldr	q26, [x1, #240]
  411620:	d0000001 	adrp	x1, 413000 <_IO_stdin_used+0x670>
  411624:	4ea28421 	add	v1.4s, v1.4s, v2.4s
  411628:	4eba84ba 	add	v26.4s, v5.4s, v26.4s
  41162c:	6e621c20 	bsl	v0.16b, v1.16b, v2.16b
  411630:	4ea1857c 	add	v28.4s, v11.4s, v1.4s
  411634:	4eb88400 	add	v0.4s, v0.4s, v24.4s
  411638:	3dc04038 	ldr	q24, [x1, #256]
  41163c:	d0000001 	adrp	x1, 413000 <_IO_stdin_used+0x670>
  411640:	4f2e540b 	shl	v11.4s, v0.4s, #14
  411644:	6f2e0400 	ushr	v0.4s, v0.4s, #18
  411648:	4eb88678 	add	v24.4s, v19.4s, v24.4s
  41164c:	3dc0443b 	ldr	q27, [x1, #272]
  411650:	d0000001 	adrp	x1, 413000 <_IO_stdin_used+0x670>
  411654:	4ea01d60 	orr	v0.16b, v11.16b, v0.16b
  411658:	3dc0482b 	ldr	q11, [x1, #288]
  41165c:	d0000001 	adrp	x1, 413000 <_IO_stdin_used+0x670>
  411660:	4ebb85fb 	add	v27.4s, v15.4s, v27.4s
  411664:	4ea18400 	add	v0.4s, v0.4s, v1.4s
  411668:	4eab84cb 	add	v11.4s, v6.4s, v11.4s
  41166c:	6e611c02 	bsl	v2.16b, v0.16b, v1.16b
  411670:	6e201c21 	eor	v1.16b, v1.16b, v0.16b
  411674:	4ea08463 	add	v3.4s, v3.4s, v0.4s
  411678:	4ea28484 	add	v4.4s, v4.4s, v2.4s
  41167c:	4f345482 	shl	v2.4s, v4.4s, #20
  411680:	6f340484 	ushr	v4.4s, v4.4s, #12
  411684:	4ea41c42 	orr	v2.16b, v2.16b, v4.16b
  411688:	4ea08442 	add	v2.4s, v2.4s, v0.4s
  41168c:	6e221c21 	eor	v1.16b, v1.16b, v2.16b
  411690:	6e221c00 	eor	v0.16b, v0.16b, v2.16b
  411694:	4ea2875a 	add	v26.4s, v26.4s, v2.4s
  411698:	4ea18739 	add	v25.4s, v25.4s, v1.4s
  41169c:	4f245721 	shl	v1.4s, v25.4s, #4
  4116a0:	6f240739 	ushr	v25.4s, v25.4s, #28
  4116a4:	4eb91c21 	orr	v1.16b, v1.16b, v25.16b
  4116a8:	4ea28421 	add	v1.4s, v1.4s, v2.4s
  4116ac:	6e211c00 	eor	v0.16b, v0.16b, v1.16b
  4116b0:	6e211c42 	eor	v2.16b, v2.16b, v1.16b
  4116b4:	4ea18719 	add	v25.4s, v24.4s, v1.4s
  4116b8:	4ebc8400 	add	v0.4s, v0.4s, v28.4s
  4116bc:	4f2b5404 	shl	v4.4s, v0.4s, #11
  4116c0:	6f2b0400 	ushr	v0.4s, v0.4s, #21
  4116c4:	4ea01c80 	orr	v0.16b, v4.16b, v0.16b
  4116c8:	3dc04c24 	ldr	q4, [x1, #304]
  4116cc:	d0000001 	adrp	x1, 413000 <_IO_stdin_used+0x670>
  4116d0:	4ea18400 	add	v0.4s, v0.4s, v1.4s
  4116d4:	4ea48684 	add	v4.4s, v20.4s, v4.4s
  4116d8:	6e201c58 	eor	v24.16b, v2.16b, v0.16b
  4116dc:	6e201c22 	eor	v2.16b, v1.16b, v0.16b
  4116e0:	4ea0877b 	add	v27.4s, v27.4s, v0.4s
  4116e4:	4eb88463 	add	v3.4s, v3.4s, v24.4s
  4116e8:	3dc05038 	ldr	q24, [x1, #320]
  4116ec:	d0000001 	adrp	x1, 413000 <_IO_stdin_used+0x670>
  4116f0:	4f305461 	shl	v1.4s, v3.4s, #16
  4116f4:	6f300463 	ushr	v3.4s, v3.4s, #16
  4116f8:	4eb88618 	add	v24.4s, v16.4s, v24.4s
  4116fc:	4ea31c21 	orr	v1.16b, v1.16b, v3.16b
  411700:	4ea08421 	add	v1.4s, v1.4s, v0.4s
  411704:	6e211c42 	eor	v2.16b, v2.16b, v1.16b
  411708:	6e211c03 	eor	v3.16b, v0.16b, v1.16b
  41170c:	4ea1856b 	add	v11.4s, v11.4s, v1.4s
  411710:	4eba8440 	add	v0.4s, v2.4s, v26.4s
  411714:	3dc0543a 	ldr	q26, [x1, #336]
  411718:	d0000001 	adrp	x1, 413000 <_IO_stdin_used+0x670>
  41171c:	4f375402 	shl	v2.4s, v0.4s, #23
  411720:	6f370400 	ushr	v0.4s, v0.4s, #9
  411724:	4eba84fa 	add	v26.4s, v7.4s, v26.4s
  411728:	4ea01c40 	orr	v0.16b, v2.16b, v0.16b
  41172c:	4ea18400 	add	v0.4s, v0.4s, v1.4s
  411730:	6e201c63 	eor	v3.16b, v3.16b, v0.16b
  411734:	6e201c22 	eor	v2.16b, v1.16b, v0.16b
  411738:	4ea08484 	add	v4.4s, v4.4s, v0.4s
  41173c:	4eb98461 	add	v1.4s, v3.4s, v25.4s
  411740:	3dc05839 	ldr	q25, [x1, #352]
  411744:	d0000001 	adrp	x1, 413000 <_IO_stdin_used+0x670>
  411748:	4f245423 	shl	v3.4s, v1.4s, #4
  41174c:	6f240421 	ushr	v1.4s, v1.4s, #28
  411750:	4eb986b9 	add	v25.4s, v21.4s, v25.4s
  411754:	4ea11c61 	orr	v1.16b, v3.16b, v1.16b
  411758:	4ea08421 	add	v1.4s, v1.4s, v0.4s
  41175c:	6e211c42 	eor	v2.16b, v2.16b, v1.16b
  411760:	6e211c03 	eor	v3.16b, v0.16b, v1.16b
  411764:	4ea18718 	add	v24.4s, v24.4s, v1.4s
  411768:	4ebb8440 	add	v0.4s, v2.4s, v27.4s
  41176c:	3dc05c3b 	ldr	q27, [x1, #368]
  411770:	d0000001 	adrp	x1, 413000 <_IO_stdin_used+0x670>
  411774:	4f2b5402 	shl	v2.4s, v0.4s, #11
  411778:	6f2b0400 	ushr	v0.4s, v0.4s, #21
  41177c:	4ebb853b 	add	v27.4s, v9.4s, v27.4s
  411780:	4ea01c40 	orr	v0.16b, v2.16b, v0.16b
  411784:	4ea18400 	add	v0.4s, v0.4s, v1.4s
  411788:	6e201c63 	eor	v3.16b, v3.16b, v0.16b
  41178c:	6e201c22 	eor	v2.16b, v1.16b, v0.16b
  411790:	4ea0875a 	add	v26.4s, v26.4s, v0.4s
  411794:	4eab8461 	add	v1.4s, v3.4s, v11.4s
  411798:	3dc0602b 	ldr	q11, [x1, #384]
  41179c:	d0000001 	adrp	x1, 413000 <_IO_stdin_used+0x670>
  4117a0:	4f305423 	shl	v3.4s, v1.4s, #16
  4117a4:	6f300421 	ushr	v1.4s, v1.4s, #16
  4117a8:	4eab85cb 	add	v11.4s, v14.4s, v11.4s
  4117ac:	4ea11c61 	orr	v1.16b, v3.16b, v1.16b
  4117b0:	4ea08421 	add	v1.4s, v1.4s, v0.4s
  4117b4:	6e211c42 	eor	v2.16b, v2.16b, v1.16b
  4117b8:	6e211c03 	eor	v3.16b, v0.16b, v1.16b
  4117bc:	4ea18739 	add	v25.4s, v25.4s, v1.4s
  4117c0:	4ea48440 	add	v0.4s, v2.4s, v4.4s
  4117c4:	4f375402 	shl	v2.4s, v0.4s, #23
  4117c8:	6f370400 	ushr	v0.4s, v0.4s, #9
  4117cc:	4ea01c40 	orr	v0.16b, v2.16b, v0.16b
  4117d0:	3dc06422 	ldr	q2, [x1, #400]
  4117d4:	d0000001 	adrp	x1, 413000 <_IO_stdin_used+0x670>
  4117d8:	4ea18400 	add	v0.4s, v0.4s, v1.4s
  4117dc:	4ea286c2 	add	v2.4s, v22.4s, v2.4s
  4117e0:	6e201c63 	eor	v3.16b, v3.16b, v0.16b
  4117e4:	6e201c24 	eor	v4.16b, v1.16b, v0.16b
  4117e8:	4ea0877b 	add	v27.4s, v27.4s, v0.4s
  4117ec:	4eb88461 	add	v1.4s, v3.4s, v24.4s
  4117f0:	4f245423 	shl	v3.4s, v1.4s, #4
  4117f4:	6f240421 	ushr	v1.4s, v1.4s, #28
  4117f8:	4ea11c61 	orr	v1.16b, v3.16b, v1.16b
  4117fc:	3dc06823 	ldr	q3, [x1, #416]
  411800:	d0000001 	adrp	x1, 413000 <_IO_stdin_used+0x670>
  411804:	4ea08421 	add	v1.4s, v1.4s, v0.4s
  411808:	4ea38623 	add	v3.4s, v17.4s, v3.4s
  41180c:	6e211c84 	eor	v4.16b, v4.16b, v1.16b
  411810:	6e211c18 	eor	v24.16b, v0.16b, v1.16b
  411814:	4ea1856b 	add	v11.4s, v11.4s, v1.4s
  411818:	4eba8480 	add	v0.4s, v4.4s, v26.4s
  41181c:	4f2b5404 	shl	v4.4s, v0.4s, #11
  411820:	6f2b0400 	ushr	v0.4s, v0.4s, #21
  411824:	4ea01c80 	orr	v0.16b, v4.16b, v0.16b
  411828:	3dc06c24 	ldr	q4, [x1, #432]
  41182c:	d0000001 	adrp	x1, 413000 <_IO_stdin_used+0x670>
  411830:	4ea18400 	add	v0.4s, v0.4s, v1.4s
  411834:	4ea48584 	add	v4.4s, v12.4s, v4.4s
  411838:	6e201f18 	eor	v24.16b, v24.16b, v0.16b
  41183c:	6e201c21 	eor	v1.16b, v1.16b, v0.16b
  411840:	4ea08442 	add	v2.4s, v2.4s, v0.4s
  411844:	4eb98718 	add	v24.4s, v24.4s, v25.4s
  411848:	3dc07039 	ldr	q25, [x1, #448]
  41184c:	d0000001 	adrp	x1, 413000 <_IO_stdin_used+0x670>
  411850:	4f30571a 	shl	v26.4s, v24.4s, #16
  411854:	6f300718 	ushr	v24.4s, v24.4s, #16
  411858:	4eb984f9 	add	v25.4s, v7.4s, v25.4s
  41185c:	4eb81f5a 	orr	v26.16b, v26.16b, v24.16b
  411860:	3dc07438 	ldr	q24, [x1, #464]
  411864:	d0000001 	adrp	x1, 413000 <_IO_stdin_used+0x670>
  411868:	4ea0875a 	add	v26.4s, v26.4s, v0.4s
  41186c:	4eb884d8 	add	v24.4s, v6.4s, v24.4s
  411870:	6e3a1c21 	eor	v1.16b, v1.16b, v26.16b
  411874:	6e3a1c07 	eor	v7.16b, v0.16b, v26.16b
  411878:	4eba8463 	add	v3.4s, v3.4s, v26.4s
  41187c:	4ebb8420 	add	v0.4s, v1.4s, v27.4s
  411880:	4f375401 	shl	v1.4s, v0.4s, #23
  411884:	6f370400 	ushr	v0.4s, v0.4s, #9
  411888:	4ea01c20 	orr	v0.16b, v1.16b, v0.16b
  41188c:	3dc07821 	ldr	q1, [x1, #480]
  411890:	d0000001 	adrp	x1, 413000 <_IO_stdin_used+0x670>
  411894:	4eba8400 	add	v0.4s, v0.4s, v26.4s
  411898:	4ea184a1 	add	v1.4s, v5.4s, v1.4s
  41189c:	3dc07c26 	ldr	q6, [x1, #496]
  4118a0:	d0000001 	adrp	x1, 413000 <_IO_stdin_used+0x670>
  4118a4:	6e201ce5 	eor	v5.16b, v7.16b, v0.16b
  4118a8:	6e201f47 	eor	v7.16b, v26.16b, v0.16b
  4118ac:	4ea686f7 	add	v23.4s, v23.4s, v6.4s
  4118b0:	4ea08484 	add	v4.4s, v4.4s, v0.4s
  4118b4:	4eab84a5 	add	v5.4s, v5.4s, v11.4s
  4118b8:	3dc0802b 	ldr	q11, [x1, #512]
  4118bc:	d0000001 	adrp	x1, 413000 <_IO_stdin_used+0x670>
  4118c0:	4f2454a6 	shl	v6.4s, v5.4s, #4
  4118c4:	6f2404a5 	ushr	v5.4s, v5.4s, #28
  4118c8:	4eab86d6 	add	v22.4s, v22.4s, v11.4s
  4118cc:	3dc0842b 	ldr	q11, [x1, #528]
  4118d0:	d0000001 	adrp	x1, 413000 <_IO_stdin_used+0x670>
  4118d4:	4ea51cc6 	orr	v6.16b, v6.16b, v5.16b
  4118d8:	3dc08825 	ldr	q5, [x1, #544]
  4118dc:	d0000001 	adrp	x1, 413000 <_IO_stdin_used+0x670>
  4118e0:	4eab86b5 	add	v21.4s, v21.4s, v11.4s
  4118e4:	4ea084c6 	add	v6.4s, v6.4s, v0.4s
  4118e8:	4ea58694 	add	v20.4s, v20.4s, v5.4s
  4118ec:	3dc08c2b 	ldr	q11, [x1, #560]
  4118f0:	d0000001 	adrp	x1, 413000 <_IO_stdin_used+0x670>
  4118f4:	6e261ce7 	eor	v7.16b, v7.16b, v6.16b
  4118f8:	6e261c05 	eor	v5.16b, v0.16b, v6.16b
  4118fc:	4ea68739 	add	v25.4s, v25.4s, v6.4s
  411900:	4eab8673 	add	v19.4s, v19.4s, v11.4s
  411904:	4ea78442 	add	v2.4s, v2.4s, v7.4s
  411908:	3dc09027 	ldr	q7, [x1, #576]
  41190c:	d0000001 	adrp	x1, 413000 <_IO_stdin_used+0x670>
  411910:	4f2b5440 	shl	v0.4s, v2.4s, #11
  411914:	6f2b0442 	ushr	v2.4s, v2.4s, #21
  411918:	4ea78652 	add	v18.4s, v18.4s, v7.4s
  41191c:	3dc09427 	ldr	q7, [x1, #592]
  411920:	d0000001 	adrp	x1, 413000 <_IO_stdin_used+0x670>
  411924:	4ea21c02 	orr	v2.16b, v0.16b, v2.16b
  411928:	3dc09820 	ldr	q0, [x1, #608]
  41192c:	d0000001 	adrp	x1, 413000 <_IO_stdin_used+0x670>
  411930:	4ea78631 	add	v17.4s, v17.4s, v7.4s
  411934:	4ea68442 	add	v2.4s, v2.4s, v6.4s
  411938:	4ea08529 	add	v9.4s, v9.4s, v0.4s
  41193c:	3dc09c27 	ldr	q7, [x1, #624]
  411940:	d0000001 	adrp	x1, 413000 <_IO_stdin_used+0x670>
  411944:	6e221ca5 	eor	v5.16b, v5.16b, v2.16b
  411948:	6e221cc0 	eor	v0.16b, v6.16b, v2.16b
  41194c:	4ea28718 	add	v24.4s, v24.4s, v2.4s
  411950:	4ea78610 	add	v16.4s, v16.4s, v7.4s
  411954:	4ea384a3 	add	v3.4s, v5.4s, v3.4s
  411958:	3dc0a027 	ldr	q7, [x1, #640]
  41195c:	d0000001 	adrp	x1, 413000 <_IO_stdin_used+0x670>
  411960:	4f305465 	shl	v5.4s, v3.4s, #16
  411964:	6f300463 	ushr	v3.4s, v3.4s, #16
  411968:	4ea785ef 	add	v15.4s, v15.4s, v7.4s
  41196c:	3dc0a426 	ldr	q6, [x1, #656]
  411970:	d0000001 	adrp	x1, 413000 <_IO_stdin_used+0x670>
  411974:	4ea31ca3 	orr	v3.16b, v5.16b, v3.16b
  411978:	4f0707e7 	movi	v7.4s, #0xff
  41197c:	4ea685ad 	add	v13.4s, v13.4s, v6.4s
  411980:	3dc0a826 	ldr	q6, [x1, #672]
  411984:	d0000001 	adrp	x1, 413000 <_IO_stdin_used+0x670>
  411988:	4ea28463 	add	v3.4s, v3.4s, v2.4s
  41198c:	3dc0ac25 	ldr	q5, [x1, #688]
  411990:	b0000001 	adrp	x1, 412000 <_Z19MD5Hash_simdversionPKNSt7__cxx1112basic_stringIcSt11char_traitsIcESaIcEEEP12__Uint32x4_t+0x1000>
  411994:	4ea6858c 	add	v12.4s, v12.4s, v6.4s
  411998:	6e231c00 	eor	v0.16b, v0.16b, v3.16b
  41199c:	4ea3843a 	add	v26.4s, v1.4s, v3.4s
  4119a0:	4ea585ce 	add	v14.4s, v14.4s, v5.4s
  4119a4:	3dc3ac2b 	ldr	q11, [x1, #3760]
  4119a8:	b0000001 	adrp	x1, 412000 <_Z19MD5Hash_simdversionPKNSt7__cxx1112basic_stringIcSt11char_traitsIcESaIcEEEP12__Uint32x4_t+0x1000>
  4119ac:	4ea48400 	add	v0.4s, v0.4s, v4.4s
  4119b0:	3dc3a021 	ldr	q1, [x1, #3712]
  4119b4:	4f0727e6 	movi	v6.4s, #0xff, lsl #8
  4119b8:	4f375404 	shl	v4.4s, v0.4s, #23
  4119bc:	6f370400 	ushr	v0.4s, v0.4s, #9
  4119c0:	4f0747e5 	movi	v5.4s, #0xff, lsl #16
  4119c4:	4ea01c80 	orr	v0.16b, v4.16b, v0.16b
  4119c8:	4f0767e4 	movi	v4.4s, #0xff, lsl #24
  4119cc:	4ea38400 	add	v0.4s, v0.4s, v3.4s
  4119d0:	4ee21c02 	orn	v2.16b, v0.16b, v2.16b
  4119d4:	4ea086f7 	add	v23.4s, v23.4s, v0.4s
  4119d8:	6e231c42 	eor	v2.16b, v2.16b, v3.16b
  4119dc:	4eb98442 	add	v2.4s, v2.4s, v25.4s
  4119e0:	4f265459 	shl	v25.4s, v2.4s, #6
  4119e4:	6f260442 	ushr	v2.4s, v2.4s, #26
  4119e8:	4ea21f22 	orr	v2.16b, v25.16b, v2.16b
  4119ec:	4ea08442 	add	v2.4s, v2.4s, v0.4s
  4119f0:	4ee31c43 	orn	v3.16b, v2.16b, v3.16b
  4119f4:	4ea286d6 	add	v22.4s, v22.4s, v2.4s
  4119f8:	6e201c63 	eor	v3.16b, v3.16b, v0.16b
  4119fc:	4eb88463 	add	v3.4s, v3.4s, v24.4s
  411a00:	4f2a5478 	shl	v24.4s, v3.4s, #10
  411a04:	6f2a0463 	ushr	v3.4s, v3.4s, #22
  411a08:	4ea31f03 	orr	v3.16b, v24.16b, v3.16b
  411a0c:	4ea28463 	add	v3.4s, v3.4s, v2.4s
  411a10:	4ee01c60 	orn	v0.16b, v3.16b, v0.16b
  411a14:	4ea386b5 	add	v21.4s, v21.4s, v3.4s
  411a18:	6e221c00 	eor	v0.16b, v0.16b, v2.16b
  411a1c:	4eba8400 	add	v0.4s, v0.4s, v26.4s
  411a20:	4f2f5418 	shl	v24.4s, v0.4s, #15
  411a24:	6f2f0400 	ushr	v0.4s, v0.4s, #17
  411a28:	4ea01f00 	orr	v0.16b, v24.16b, v0.16b
  411a2c:	4ea38400 	add	v0.4s, v0.4s, v3.4s
  411a30:	4ee21c02 	orn	v2.16b, v0.16b, v2.16b
  411a34:	4ea08694 	add	v20.4s, v20.4s, v0.4s
  411a38:	6e231c42 	eor	v2.16b, v2.16b, v3.16b
  411a3c:	4eb78442 	add	v2.4s, v2.4s, v23.4s
  411a40:	4f355457 	shl	v23.4s, v2.4s, #21
  411a44:	6f350442 	ushr	v2.4s, v2.4s, #11
  411a48:	4ea21ee2 	orr	v2.16b, v23.16b, v2.16b
  411a4c:	4ea08442 	add	v2.4s, v2.4s, v0.4s
  411a50:	4ee31c43 	orn	v3.16b, v2.16b, v3.16b
  411a54:	4ea28673 	add	v19.4s, v19.4s, v2.4s
  411a58:	6e201c63 	eor	v3.16b, v3.16b, v0.16b
  411a5c:	4eb68463 	add	v3.4s, v3.4s, v22.4s
  411a60:	4f265476 	shl	v22.4s, v3.4s, #6
  411a64:	6f260463 	ushr	v3.4s, v3.4s, #26
  411a68:	4ea31ed6 	orr	v22.16b, v22.16b, v3.16b
  411a6c:	4ea286d6 	add	v22.4s, v22.4s, v2.4s
  411a70:	4ee01ec0 	orn	v0.16b, v22.16b, v0.16b
  411a74:	4eb68652 	add	v18.4s, v18.4s, v22.4s
  411a78:	6e221c00 	eor	v0.16b, v0.16b, v2.16b
  411a7c:	4eb58400 	add	v0.4s, v0.4s, v21.4s
  411a80:	4f2a5403 	shl	v3.4s, v0.4s, #10
  411a84:	6f2a0400 	ushr	v0.4s, v0.4s, #22
  411a88:	4ea01c60 	orr	v0.16b, v3.16b, v0.16b
  411a8c:	4eb68400 	add	v0.4s, v0.4s, v22.4s
  411a90:	4ee21c02 	orn	v2.16b, v0.16b, v2.16b
  411a94:	4ea08631 	add	v17.4s, v17.4s, v0.4s
  411a98:	6e361c42 	eor	v2.16b, v2.16b, v22.16b
  411a9c:	4eb48442 	add	v2.4s, v2.4s, v20.4s
  411aa0:	4f2f5443 	shl	v3.4s, v2.4s, #15
  411aa4:	6f2f0442 	ushr	v2.4s, v2.4s, #17
  411aa8:	4ea21c63 	orr	v3.16b, v3.16b, v2.16b
  411aac:	4ea08463 	add	v3.4s, v3.4s, v0.4s
  411ab0:	4ef61c62 	orn	v2.16b, v3.16b, v22.16b
  411ab4:	4ea38534 	add	v20.4s, v9.4s, v3.4s
  411ab8:	6e201c42 	eor	v2.16b, v2.16b, v0.16b
  411abc:	4eb38442 	add	v2.4s, v2.4s, v19.4s
  411ac0:	4f355449 	shl	v9.4s, v2.4s, #21
  411ac4:	6f350442 	ushr	v2.4s, v2.4s, #11
  411ac8:	4ea21d22 	orr	v2.16b, v9.16b, v2.16b
  411acc:	4ea38442 	add	v2.4s, v2.4s, v3.4s
  411ad0:	4ee01c40 	orn	v0.16b, v2.16b, v0.16b
  411ad4:	4ea28610 	add	v16.4s, v16.4s, v2.4s
  411ad8:	6e231c00 	eor	v0.16b, v0.16b, v3.16b
  411adc:	4eb28400 	add	v0.4s, v0.4s, v18.4s
  411ae0:	4f265409 	shl	v9.4s, v0.4s, #6
  411ae4:	6f260400 	ushr	v0.4s, v0.4s, #26
  411ae8:	4ea01d20 	orr	v0.16b, v9.16b, v0.16b
  411aec:	4ea28400 	add	v0.4s, v0.4s, v2.4s
  411af0:	4ee31c03 	orn	v3.16b, v0.16b, v3.16b
  411af4:	4ea085ef 	add	v15.4s, v15.4s, v0.4s
  411af8:	6e221c63 	eor	v3.16b, v3.16b, v2.16b
  411afc:	4eb18463 	add	v3.4s, v3.4s, v17.4s
  411b00:	4f2a5469 	shl	v9.4s, v3.4s, #10
  411b04:	6f2a0463 	ushr	v3.4s, v3.4s, #22
  411b08:	4ea31d29 	orr	v9.16b, v9.16b, v3.16b
  411b0c:	4ea08529 	add	v9.4s, v9.4s, v0.4s
  411b10:	4ee21d22 	orn	v2.16b, v9.16b, v2.16b
  411b14:	4ea985ad 	add	v13.4s, v13.4s, v9.4s
  411b18:	6e201c42 	eor	v2.16b, v2.16b, v0.16b
  411b1c:	4eb48442 	add	v2.4s, v2.4s, v20.4s
  411b20:	4f2f5443 	shl	v3.4s, v2.4s, #15
  411b24:	6f2f0442 	ushr	v2.4s, v2.4s, #17
  411b28:	4ea21c63 	orr	v3.16b, v3.16b, v2.16b
  411b2c:	4ea98463 	add	v3.4s, v3.4s, v9.4s
  411b30:	4ee01c60 	orn	v0.16b, v3.16b, v0.16b
  411b34:	4ea3858c 	add	v12.4s, v12.4s, v3.4s
  411b38:	6e291c00 	eor	v0.16b, v0.16b, v9.16b
  411b3c:	4eb08400 	add	v0.4s, v0.4s, v16.4s
  411b40:	4f355402 	shl	v2.4s, v0.4s, #21
  411b44:	6f350400 	ushr	v0.4s, v0.4s, #11
  411b48:	4ea01c42 	orr	v2.16b, v2.16b, v0.16b
  411b4c:	4ea38442 	add	v2.4s, v2.4s, v3.4s
  411b50:	4ee91c49 	orn	v9.16b, v2.16b, v9.16b
  411b54:	4ea285ce 	add	v14.4s, v14.4s, v2.4s
  411b58:	6e231d29 	eor	v9.16b, v9.16b, v3.16b
  411b5c:	4eaf8529 	add	v9.4s, v9.4s, v15.4s
  411b60:	4f265520 	shl	v0.4s, v9.4s, #6
  411b64:	6f260529 	ushr	v9.4s, v9.4s, #26
  411b68:	4ea91c00 	orr	v0.16b, v0.16b, v9.16b
  411b6c:	4ea28400 	add	v0.4s, v0.4s, v2.4s
  411b70:	4ee31c03 	orn	v3.16b, v0.16b, v3.16b
  411b74:	4ea18401 	add	v1.4s, v0.4s, v1.4s
  411b78:	6e221c63 	eor	v3.16b, v3.16b, v2.16b
  411b7c:	4ead8463 	add	v3.4s, v3.4s, v13.4s
  411b80:	4f2a5469 	shl	v9.4s, v3.4s, #10
  411b84:	6f2a0463 	ushr	v3.4s, v3.4s, #22
  411b88:	4ea31d23 	orr	v3.16b, v9.16b, v3.16b
  411b8c:	4ea08463 	add	v3.4s, v3.4s, v0.4s
  411b90:	4ee21c62 	orn	v2.16b, v3.16b, v2.16b
  411b94:	4ea3856b 	add	v11.4s, v11.4s, v3.4s
  411b98:	6e201c42 	eor	v2.16b, v2.16b, v0.16b
  411b9c:	4eac8442 	add	v2.4s, v2.4s, v12.4s
  411ba0:	4f2f5449 	shl	v9.4s, v2.4s, #15
  411ba4:	6f2f0442 	ushr	v2.4s, v2.4s, #17
  411ba8:	4ea21d29 	orr	v9.16b, v9.16b, v2.16b
  411bac:	4ea38529 	add	v9.4s, v9.4s, v3.4s
  411bb0:	4ee01d20 	orn	v0.16b, v9.16b, v0.16b
  411bb4:	4ea9854a 	add	v10.4s, v10.4s, v9.4s
  411bb8:	6e231c00 	eor	v0.16b, v0.16b, v3.16b
  411bbc:	ad012e8a 	stp	q10, q11, [x20, #32]
  411bc0:	4eae8400 	add	v0.4s, v0.4s, v14.4s
  411bc4:	4f355402 	shl	v2.4s, v0.4s, #21
  411bc8:	6f350400 	ushr	v0.4s, v0.4s, #11
  411bcc:	4ea01c40 	orr	v0.16b, v2.16b, v0.16b
  411bd0:	4ea88400 	add	v0.4s, v0.4s, v8.4s
  411bd4:	4ea98400 	add	v0.4s, v0.4s, v9.4s
  411bd8:	ad000281 	stp	q1, q0, [x20]
  411bdc:	4e271c20 	and	v0.16b, v1.16b, v7.16b
  411be0:	4e261c23 	and	v3.16b, v1.16b, v6.16b
  411be4:	4e251c22 	and	v2.16b, v1.16b, v5.16b
  411be8:	4e241c21 	and	v1.16b, v1.16b, v4.16b
  411bec:	4f385400 	shl	v0.4s, v0.4s, #24
  411bf0:	4f285463 	shl	v3.4s, v3.4s, #8
  411bf4:	6f380442 	ushr	v2.4s, v2.4s, #8
  411bf8:	6f280421 	ushr	v1.4s, v1.4s, #24
  411bfc:	4ea31c00 	orr	v0.16b, v0.16b, v3.16b
  411c00:	4ea21c00 	orr	v0.16b, v0.16b, v2.16b
  411c04:	4ea11c00 	orr	v0.16b, v0.16b, v1.16b
  411c08:	3ca06a80 	str	q0, [x20, x0]
  411c0c:	91004000 	add	x0, x0, #0x10
  411c10:	f101001f 	cmp	x0, #0x40
  411c14:	54000060 	b.eq	411c20 <_Z19MD5Hash_simdversionPKNSt7__cxx1112basic_stringIcSt11char_traitsIcESaIcEEEP12__Uint32x4_t+0xc20>  // b.none
  411c18:	3ce06a81 	ldr	q1, [x20, x0]
  411c1c:	17fffff0 	b	411bdc <_Z19MD5Hash_simdversionPKNSt7__cxx1112basic_stringIcSt11char_traitsIcESaIcEEEP12__Uint32x4_t+0xbdc>
  411c20:	6d4527e8 	ldp	d8, d9, [sp, #80]
  411c24:	6d462fea 	ldp	d10, d11, [sp, #96]
  411c28:	6d4737ec 	ldp	d12, d13, [sp, #112]
  411c2c:	6d483fee 	ldp	d14, d15, [sp, #128]
  411c30:	a9407bfd 	ldp	x29, x30, [sp]
  411c34:	a94153f3 	ldp	x19, x20, [sp, #16]
  411c38:	a9425bf5 	ldp	x21, x22, [sp, #32]
  411c3c:	910ac3ff 	add	sp, sp, #0x2b0
  411c40:	d65f03c0 	ret
  411c44:	a90363f7 	stp	x23, x24, [sp, #48]
  411c48:	9102c3f7 	add	x23, sp, #0xb0
  411c4c:	910243f8 	add	x24, sp, #0x90
  411c50:	a9046bf9 	stp	x25, x26, [sp, #64]
  411c54:	aa1703f9 	mov	x25, x23
  411c58:	910202da 	add	x26, x22, #0x80
  411c5c:	aa1803e1 	mov	x1, x24
  411c60:	aa1603e0 	mov	x0, x22
  411c64:	910082d6 	add	x22, x22, #0x20
  411c68:	97fff9e2 	bl	4103f0 <_Z13StringProcessRKNSt7__cxx1112basic_stringIcSt11char_traitsIcESaIcEEEPi>
  411c6c:	f8008720 	str	x0, [x25], #8
  411c70:	91001318 	add	x24, x24, #0x4
  411c74:	eb16035f 	cmp	x26, x22
  411c78:	54ffff21 	b.ne	411c5c <_Z19MD5Hash_simdversionPKNSt7__cxx1112basic_stringIcSt11char_traitsIcESaIcEEEP12__Uint32x4_t+0xc5c>  // b.any
  411c7c:	295203e1 	ldp	w1, w0, [sp, #144]
  411c80:	6b00003f 	cmp	w1, w0
  411c84:	54006381 	b.ne	4128f4 <_Z19MD5Hash_simdversionPKNSt7__cxx1112basic_stringIcSt11char_traitsIcESaIcEEEP12__Uint32x4_t+0x18f4>  // b.any
  411c88:	b9409be0 	ldr	w0, [sp, #152]
  411c8c:	6b00003f 	cmp	w1, w0
  411c90:	54006321 	b.ne	4128f4 <_Z19MD5Hash_simdversionPKNSt7__cxx1112basic_stringIcSt11char_traitsIcESaIcEEEP12__Uint32x4_t+0x18f4>  // b.any
  411c94:	b9409fe0 	ldr	w0, [sp, #156]
  411c98:	6d0527e8 	stp	d8, d9, [sp, #80]
  411c9c:	6d062fea 	stp	d10, d11, [sp, #96]
  411ca0:	6d0737ec 	stp	d12, d13, [sp, #112]
  411ca4:	6d083fee 	stp	d14, d15, [sp, #128]
  411ca8:	6b01001f 	cmp	w0, w1
  411cac:	540061c1 	b.ne	4128e4 <_Z19MD5Hash_simdversionPKNSt7__cxx1112basic_stringIcSt11char_traitsIcESaIcEEEP12__Uint32x4_t+0x18e4>  // b.any
  411cb0:	b0000001 	adrp	x1, 412000 <_Z19MD5Hash_simdversionPKNSt7__cxx1112basic_stringIcSt11char_traitsIcESaIcEEEP12__Uint32x4_t+0x1000>
  411cb4:	7100001f 	cmp	w0, #0x0
  411cb8:	1100fc0f 	add	w15, w0, #0x3f
  411cbc:	3dc3a024 	ldr	q4, [x1, #3712]
  411cc0:	b0000001 	adrp	x1, 412000 <_Z19MD5Hash_simdversionPKNSt7__cxx1112basic_stringIcSt11char_traitsIcESaIcEEEP12__Uint32x4_t+0x1000>
  411cc4:	1a80b1ef 	csel	w15, w15, w0, lt  // lt = tstop
  411cc8:	3dc3a423 	ldr	q3, [x1, #3728]
  411ccc:	b0000001 	adrp	x1, 412000 <_Z19MD5Hash_simdversionPKNSt7__cxx1112basic_stringIcSt11char_traitsIcESaIcEEEP12__Uint32x4_t+0x1000>
  411cd0:	13067def 	asr	w15, w15, #6
  411cd4:	3dc3a826 	ldr	q6, [x1, #3744]
  411cd8:	b0000001 	adrp	x1, 412000 <_Z19MD5Hash_simdversionPKNSt7__cxx1112basic_stringIcSt11char_traitsIcESaIcEEEP12__Uint32x4_t+0x1000>
  411cdc:	ad000e84 	stp	q4, q3, [x20]
  411ce0:	3dc3ac27 	ldr	q7, [x1, #3760]
  411ce4:	ad011e86 	stp	q6, q7, [x20, #32]
  411ce8:	7100fc1f 	cmp	w0, #0x3f
  411cec:	5400642d 	b.le	412970 <_Z19MD5Hash_simdversionPKNSt7__cxx1112basic_stringIcSt11char_traitsIcESaIcEEEP12__Uint32x4_t+0x1970>
  411cf0:	b0000000 	adrp	x0, 412000 <_Z19MD5Hash_simdversionPKNSt7__cxx1112basic_stringIcSt11char_traitsIcESaIcEEEP12__Uint32x4_t+0x1000>
  411cf4:	910283e9 	add	x9, sp, #0xa0
  411cf8:	910ac3ed 	add	x13, sp, #0x2b0
  411cfc:	d280000e 	mov	x14, #0x0                   	// #0
  411d00:	3dc3b00e 	ldr	q14, [x0, #3776]
  411d04:	b0000000 	adrp	x0, 412000 <_Z19MD5Hash_simdversionPKNSt7__cxx1112basic_stringIcSt11char_traitsIcESaIcEEEP12__Uint32x4_t+0x1000>
  411d08:	3dc3b40d 	ldr	q13, [x0, #3792]
  411d0c:	b0000000 	adrp	x0, 412000 <_Z19MD5Hash_simdversionPKNSt7__cxx1112basic_stringIcSt11char_traitsIcESaIcEEEP12__Uint32x4_t+0x1000>
  411d10:	3dc3b80c 	ldr	q12, [x0, #3808]
  411d14:	d503201f 	nop
  411d18:	aa1303ec 	mov	x12, x19
  411d1c:	d37ae5c6 	lsl	x6, x14, #6
  411d20:	910004c1 	add	x1, x6, #0x1
  411d24:	910008cb 	add	x11, x6, #0x2
  411d28:	91000cca 	add	x10, x6, #0x3
  411d2c:	d2800022 	mov	x2, #0x1                   	// #1
  411d30:	9102c3e0 	add	x0, sp, #0xb0
  411d34:	8b020927 	add	x7, x9, x2, lsl #2
  411d38:	8b020c00 	add	x0, x0, x2, lsl #3
  411d3c:	91000442 	add	x2, x2, #0x1
  411d40:	f85f8003 	ldur	x3, [x0, #-8]
  411d44:	386b6865 	ldrb	w5, [x3, x11]
  411d48:	38616860 	ldrb	w0, [x3, x1]
  411d4c:	386a6864 	ldrb	w4, [x3, x10]
  411d50:	38666868 	ldrb	w8, [x3, x6]
  411d54:	53103ca3 	lsl	w3, w5, #16
  411d58:	2a002060 	orr	w0, w3, w0, lsl #8
  411d5c:	2a046103 	orr	w3, w8, w4, lsl #24
  411d60:	2a030000 	orr	w0, w0, w3
  411d64:	b81fc0e0 	stur	w0, [x7, #-4]
  411d68:	f100145f 	cmp	x2, #0x5
  411d6c:	54fffe21 	b.ne	411d30 <_Z19MD5Hash_simdversionPKNSt7__cxx1112basic_stringIcSt11char_traitsIcESaIcEEEP12__Uint32x4_t+0xd30>  // b.any
  411d70:	3dc00120 	ldr	q0, [x9]
  411d74:	910010c6 	add	x6, x6, #0x4
  411d78:	3c810580 	str	q0, [x12], #16
  411d7c:	eb0c01bf 	cmp	x13, x12
  411d80:	54fffd01 	b.ne	411d20 <_Z19MD5Hash_simdversionPKNSt7__cxx1112basic_stringIcSt11char_traitsIcESaIcEEEP12__Uint32x4_t+0xd20>  // b.any
  411d84:	ad4dcbf9 	ldp	q25, q18, [sp, #432]
  411d88:	b0000000 	adrp	x0, 412000 <_Z19MD5Hash_simdversionPKNSt7__cxx1112basic_stringIcSt11char_traitsIcESaIcEEEP12__Uint32x4_t+0x1000>
  411d8c:	4ea31c60 	mov	v0.16b, v3.16b
  411d90:	910005ce 	add	x14, x14, #0x1
  411d94:	ad4ed3ea 	ldp	q10, q20, [sp, #464]
  411d98:	4eae8721 	add	v1.4s, v25.4s, v14.4s
  411d9c:	6e671cc0 	bsl	v0.16b, v6.16b, v7.16b
  411da0:	ad4fdbeb 	ldp	q11, q22, [sp, #496]
  411da4:	4ea48421 	add	v1.4s, v1.4s, v4.4s
  411da8:	4ead8645 	add	v5.4s, v18.4s, v13.4s
  411dac:	ad50e3f0 	ldp	q16, q24, [sp, #528]
  411db0:	4ea18400 	add	v0.4s, v0.4s, v1.4s
  411db4:	3dc3bc01 	ldr	q1, [x0, #3824]
  411db8:	b0000000 	adrp	x0, 412000 <_Z19MD5Hash_simdversionPKNSt7__cxx1112basic_stringIcSt11char_traitsIcESaIcEEEP12__Uint32x4_t+0x1000>
  411dbc:	4ea784a5 	add	v5.4s, v5.4s, v7.4s
  411dc0:	3dc08ff1 	ldr	q17, [sp, #560]
  411dc4:	4ea18682 	add	v2.4s, v20.4s, v1.4s
  411dc8:	4f275401 	shl	v1.4s, v0.4s, #7
  411dcc:	6f270400 	ushr	v0.4s, v0.4s, #25
  411dd0:	ad52a7f3 	ldp	q19, q9, [sp, #592]
  411dd4:	4eac8555 	add	v21.4s, v10.4s, v12.4s
  411dd8:	4ea01c20 	orr	v0.16b, v1.16b, v0.16b
  411ddc:	3dc3c001 	ldr	q1, [x0, #3840]
  411de0:	b0000000 	adrp	x0, 412000 <_Z19MD5Hash_simdversionPKNSt7__cxx1112basic_stringIcSt11char_traitsIcESaIcEEEP12__Uint32x4_t+0x1000>
  411de4:	4ea686b5 	add	v21.4s, v21.4s, v6.4s
  411de8:	4ea38400 	add	v0.4s, v0.4s, v3.4s
  411dec:	4ea1856f 	add	v15.4s, v11.4s, v1.4s
  411df0:	3dc3c401 	ldr	q1, [x0, #3856]
  411df4:	b0000000 	adrp	x0, 412000 <_Z19MD5Hash_simdversionPKNSt7__cxx1112basic_stringIcSt11char_traitsIcESaIcEEEP12__Uint32x4_t+0x1000>
  411df8:	4ea38442 	add	v2.4s, v2.4s, v3.4s
  411dfc:	3dc3c808 	ldr	q8, [x0, #3872]
  411e00:	b0000000 	adrp	x0, 412000 <_Z19MD5Hash_simdversionPKNSt7__cxx1112basic_stringIcSt11char_traitsIcESaIcEEEP12__Uint32x4_t+0x1000>
  411e04:	4ea186de 	add	v30.4s, v22.4s, v1.4s
  411e08:	4ea01c01 	mov	v1.16b, v0.16b
  411e0c:	4ea88617 	add	v23.4s, v16.4s, v8.4s
  411e10:	4ea085ef 	add	v15.4s, v15.4s, v0.4s
  411e14:	6e661c61 	bsl	v1.16b, v3.16b, v6.16b
  411e18:	4ea58421 	add	v1.4s, v1.4s, v5.4s
  411e1c:	3dc3cc05 	ldr	q5, [x0, #3888]
  411e20:	b0000000 	adrp	x0, 412000 <_Z19MD5Hash_simdversionPKNSt7__cxx1112basic_stringIcSt11char_traitsIcESaIcEEEP12__Uint32x4_t+0x1000>
  411e24:	3dc3d008 	ldr	q8, [x0, #3904]
  411e28:	b0000000 	adrp	x0, 412000 <_Z19MD5Hash_simdversionPKNSt7__cxx1112basic_stringIcSt11char_traitsIcESaIcEEEP12__Uint32x4_t+0x1000>
  411e2c:	4ea5871d 	add	v29.4s, v24.4s, v5.4s
  411e30:	4f2c5425 	shl	v5.4s, v1.4s, #12
  411e34:	6f2c0421 	ushr	v1.4s, v1.4s, #20
  411e38:	4ea8863a 	add	v26.4s, v17.4s, v8.4s
  411e3c:	3dc093e8 	ldr	q8, [sp, #576]
  411e40:	4ea11ca1 	orr	v1.16b, v5.16b, v1.16b
  411e44:	3dc3d405 	ldr	q5, [x0, #3920]
  411e48:	b0000000 	adrp	x0, 412000 <_Z19MD5Hash_simdversionPKNSt7__cxx1112basic_stringIcSt11char_traitsIcESaIcEEEP12__Uint32x4_t+0x1000>
  411e4c:	4ea08421 	add	v1.4s, v1.4s, v0.4s
  411e50:	4ea5851c 	add	v28.4s, v8.4s, v5.4s
  411e54:	3dc3d805 	ldr	q5, [x0, #3936]
  411e58:	b0000000 	adrp	x0, 412000 <_Z19MD5Hash_simdversionPKNSt7__cxx1112basic_stringIcSt11char_traitsIcESaIcEEEP12__Uint32x4_t+0x1000>
  411e5c:	4ea187de 	add	v30.4s, v30.4s, v1.4s
  411e60:	4ea5867b 	add	v27.4s, v19.4s, v5.4s
  411e64:	4ea11c25 	mov	v5.16b, v1.16b
  411e68:	6e631c05 	bsl	v5.16b, v0.16b, v3.16b
  411e6c:	4eb584a5 	add	v5.4s, v5.4s, v21.4s
  411e70:	3dc3dc15 	ldr	q21, [x0, #3952]
  411e74:	b0000000 	adrp	x0, 412000 <_Z19MD5Hash_simdversionPKNSt7__cxx1112basic_stringIcSt11char_traitsIcESaIcEEEP12__Uint32x4_t+0x1000>
  411e78:	4eb5853f 	add	v31.4s, v9.4s, v21.4s
  411e7c:	4f3154b5 	shl	v21.4s, v5.4s, #17
  411e80:	6f3104a5 	ushr	v5.4s, v5.4s, #15
  411e84:	4ea51ea5 	orr	v5.16b, v21.16b, v5.16b
  411e88:	4ea184a5 	add	v5.4s, v5.4s, v1.4s
  411e8c:	6ea51c20 	bit	v0.16b, v1.16b, v5.16b
  411e90:	4ea586f7 	add	v23.4s, v23.4s, v5.4s
  411e94:	4ea28400 	add	v0.4s, v0.4s, v2.4s
  411e98:	4f365402 	shl	v2.4s, v0.4s, #22
  411e9c:	6f360400 	ushr	v0.4s, v0.4s, #10
  411ea0:	4ea01c40 	orr	v0.16b, v2.16b, v0.16b
  411ea4:	3dc3e002 	ldr	q2, [x0, #3968]
  411ea8:	b0000000 	adrp	x0, 412000 <_Z19MD5Hash_simdversionPKNSt7__cxx1112basic_stringIcSt11char_traitsIcESaIcEEEP12__Uint32x4_t+0x1000>
  411eac:	4ea58400 	add	v0.4s, v0.4s, v5.4s
  411eb0:	6ea01ca1 	bit	v1.16b, v5.16b, v0.16b
  411eb4:	4ea087bd 	add	v29.4s, v29.4s, v0.4s
  411eb8:	4eaf8421 	add	v1.4s, v1.4s, v15.4s
  411ebc:	4f27542f 	shl	v15.4s, v1.4s, #7
  411ec0:	6f270421 	ushr	v1.4s, v1.4s, #25
  411ec4:	4ea11de1 	orr	v1.16b, v15.16b, v1.16b
  411ec8:	ad53bff5 	ldp	q21, q15, [sp, #624]
  411ecc:	4ea08421 	add	v1.4s, v1.4s, v0.4s
  411ed0:	4ea286a2 	add	v2.4s, v21.4s, v2.4s
  411ed4:	6ea11c05 	bit	v5.16b, v0.16b, v1.16b
  411ed8:	4ea1875a 	add	v26.4s, v26.4s, v1.4s
  411edc:	4ebe84a5 	add	v5.4s, v5.4s, v30.4s
  411ee0:	4f2c54be 	shl	v30.4s, v5.4s, #12
  411ee4:	6f2c04a5 	ushr	v5.4s, v5.4s, #20
  411ee8:	4ea51fc5 	orr	v5.16b, v30.16b, v5.16b
  411eec:	3dc3e41e 	ldr	q30, [x0, #3984]
  411ef0:	b0000000 	adrp	x0, 412000 <_Z19MD5Hash_simdversionPKNSt7__cxx1112basic_stringIcSt11char_traitsIcESaIcEEEP12__Uint32x4_t+0x1000>
  411ef4:	4ea184a5 	add	v5.4s, v5.4s, v1.4s
  411ef8:	4ebe85fe 	add	v30.4s, v15.4s, v30.4s
  411efc:	6ea51c20 	bit	v0.16b, v1.16b, v5.16b
  411f00:	4ea5879c 	add	v28.4s, v28.4s, v5.4s
  411f04:	4eb78400 	add	v0.4s, v0.4s, v23.4s
  411f08:	4f315417 	shl	v23.4s, v0.4s, #17
  411f0c:	6f310400 	ushr	v0.4s, v0.4s, #15
  411f10:	4ea01ee0 	orr	v0.16b, v23.16b, v0.16b
  411f14:	4ea58400 	add	v0.4s, v0.4s, v5.4s
  411f18:	6ea01ca1 	bit	v1.16b, v5.16b, v0.16b
  411f1c:	4ea0877b 	add	v27.4s, v27.4s, v0.4s
  411f20:	4ebd8421 	add	v1.4s, v1.4s, v29.4s
  411f24:	4f36543d 	shl	v29.4s, v1.4s, #22
  411f28:	6f360421 	ushr	v1.4s, v1.4s, #10
  411f2c:	4ea11fa1 	orr	v1.16b, v29.16b, v1.16b
  411f30:	3dc3e81d 	ldr	q29, [x0, #4000]
  411f34:	b0000000 	adrp	x0, 412000 <_Z19MD5Hash_simdversionPKNSt7__cxx1112basic_stringIcSt11char_traitsIcESaIcEEEP12__Uint32x4_t+0x1000>
  411f38:	4ea08421 	add	v1.4s, v1.4s, v0.4s
  411f3c:	6ea11c05 	bit	v5.16b, v0.16b, v1.16b
  411f40:	4ea187ff 	add	v31.4s, v31.4s, v1.4s
  411f44:	4eba84a5 	add	v5.4s, v5.4s, v26.4s
  411f48:	4f2754ba 	shl	v26.4s, v5.4s, #7
  411f4c:	6f2704a5 	ushr	v5.4s, v5.4s, #25
  411f50:	4ea51f5a 	orr	v26.16b, v26.16b, v5.16b
  411f54:	ad5497f7 	ldp	q23, q5, [sp, #656]
  411f58:	4ea1875a 	add	v26.4s, v26.4s, v1.4s
  411f5c:	4ebd86fd 	add	v29.4s, v23.4s, v29.4s
  411f60:	6eba1c20 	bit	v0.16b, v1.16b, v26.16b
  411f64:	4eba8442 	add	v2.4s, v2.4s, v26.4s
  411f68:	4ebc8400 	add	v0.4s, v0.4s, v28.4s
  411f6c:	4f2c541c 	shl	v28.4s, v0.4s, #12
  411f70:	6f2c0400 	ushr	v0.4s, v0.4s, #20
  411f74:	4ea01f80 	orr	v0.16b, v28.16b, v0.16b
  411f78:	3dc3ec1c 	ldr	q28, [x0, #4016]
  411f7c:	b0000000 	adrp	x0, 412000 <_Z19MD5Hash_simdversionPKNSt7__cxx1112basic_stringIcSt11char_traitsIcESaIcEEEP12__Uint32x4_t+0x1000>
  411f80:	4eba8400 	add	v0.4s, v0.4s, v26.4s
  411f84:	4ebc84bc 	add	v28.4s, v5.4s, v28.4s
  411f88:	6ea01f41 	bit	v1.16b, v26.16b, v0.16b
  411f8c:	4ea087de 	add	v30.4s, v30.4s, v0.4s
  411f90:	4ebb8421 	add	v1.4s, v1.4s, v27.4s
  411f94:	4f31543b 	shl	v27.4s, v1.4s, #17
  411f98:	6f310421 	ushr	v1.4s, v1.4s, #15
  411f9c:	4ea11f61 	orr	v1.16b, v27.16b, v1.16b
  411fa0:	3dc3f01b 	ldr	q27, [x0, #4032]
  411fa4:	b0000000 	adrp	x0, 412000 <_Z19MD5Hash_simdversionPKNSt7__cxx1112basic_stringIcSt11char_traitsIcESaIcEEEP12__Uint32x4_t+0x1000>
  411fa8:	4ea08421 	add	v1.4s, v1.4s, v0.4s
  411fac:	4ebb865b 	add	v27.4s, v18.4s, v27.4s
  411fb0:	6ea11c1a 	bit	v26.16b, v0.16b, v1.16b
  411fb4:	4ea187bd 	add	v29.4s, v29.4s, v1.4s
  411fb8:	4ebf875a 	add	v26.4s, v26.4s, v31.4s
  411fbc:	4f36575f 	shl	v31.4s, v26.4s, #22
  411fc0:	6f36075a 	ushr	v26.4s, v26.4s, #10
  411fc4:	4eba1ffa 	orr	v26.16b, v31.16b, v26.16b
  411fc8:	3dc3f41f 	ldr	q31, [x0, #4048]
  411fcc:	b0000000 	adrp	x0, 412000 <_Z19MD5Hash_simdversionPKNSt7__cxx1112basic_stringIcSt11char_traitsIcESaIcEEEP12__Uint32x4_t+0x1000>
  411fd0:	4ea1875a 	add	v26.4s, v26.4s, v1.4s
  411fd4:	4ebf861f 	add	v31.4s, v16.4s, v31.4s
  411fd8:	6eba1c20 	bit	v0.16b, v1.16b, v26.16b
  411fdc:	4eba879c 	add	v28.4s, v28.4s, v26.4s
  411fe0:	4ea28400 	add	v0.4s, v0.4s, v2.4s
  411fe4:	4f275402 	shl	v2.4s, v0.4s, #7
  411fe8:	6f270400 	ushr	v0.4s, v0.4s, #25
  411fec:	4ea01c40 	orr	v0.16b, v2.16b, v0.16b
  411ff0:	3dc3f802 	ldr	q2, [x0, #4064]
  411ff4:	b0000000 	adrp	x0, 412000 <_Z19MD5Hash_simdversionPKNSt7__cxx1112basic_stringIcSt11char_traitsIcESaIcEEEP12__Uint32x4_t+0x1000>
  411ff8:	4eba8400 	add	v0.4s, v0.4s, v26.4s
  411ffc:	4ea28522 	add	v2.4s, v9.4s, v2.4s
  412000:	6ea01f41 	bit	v1.16b, v26.16b, v0.16b
  412004:	4ea0877b 	add	v27.4s, v27.4s, v0.4s
  412008:	4ebe8421 	add	v1.4s, v1.4s, v30.4s
  41200c:	4f2c543e 	shl	v30.4s, v1.4s, #12
  412010:	6f2c0421 	ushr	v1.4s, v1.4s, #20
  412014:	4ea11fc1 	orr	v1.16b, v30.16b, v1.16b
  412018:	3dc3fc1e 	ldr	q30, [x0, #4080]
  41201c:	b0000000 	adrp	x0, 413000 <_IO_stdin_used+0x670>
  412020:	4ea08421 	add	v1.4s, v1.4s, v0.4s
  412024:	4ebe873e 	add	v30.4s, v25.4s, v30.4s
  412028:	6ea11c1a 	bit	v26.16b, v0.16b, v1.16b
  41202c:	4ea187ff 	add	v31.4s, v31.4s, v1.4s
  412030:	4ebd875a 	add	v26.4s, v26.4s, v29.4s
  412034:	4f31575d 	shl	v29.4s, v26.4s, #17
  412038:	6f31075a 	ushr	v26.4s, v26.4s, #15
  41203c:	4eba1fba 	orr	v26.16b, v29.16b, v26.16b
  412040:	3dc0001d 	ldr	q29, [x0]
  412044:	b0000000 	adrp	x0, 413000 <_IO_stdin_used+0x670>
  412048:	4ea1875a 	add	v26.4s, v26.4s, v1.4s
  41204c:	4ebd86dd 	add	v29.4s, v22.4s, v29.4s
  412050:	6eba1c20 	bit	v0.16b, v1.16b, v26.16b
  412054:	4eba8442 	add	v2.4s, v2.4s, v26.4s
  412058:	4ebc8400 	add	v0.4s, v0.4s, v28.4s
  41205c:	4f36541c 	shl	v28.4s, v0.4s, #22
  412060:	6f360400 	ushr	v0.4s, v0.4s, #10
  412064:	4ea01f80 	orr	v0.16b, v28.16b, v0.16b
  412068:	3dc0041c 	ldr	q28, [x0, #16]
  41206c:	b0000000 	adrp	x0, 413000 <_IO_stdin_used+0x670>
  412070:	4eba8400 	add	v0.4s, v0.4s, v26.4s
  412074:	4ebc867c 	add	v28.4s, v19.4s, v28.4s
  412078:	6e7a1c01 	bsl	v1.16b, v0.16b, v26.16b
  41207c:	4ea087de 	add	v30.4s, v30.4s, v0.4s
  412080:	4ebb8421 	add	v1.4s, v1.4s, v27.4s
  412084:	4f25543b 	shl	v27.4s, v1.4s, #5
  412088:	6f250421 	ushr	v1.4s, v1.4s, #27
  41208c:	4ea11f61 	orr	v1.16b, v27.16b, v1.16b
  412090:	3dc0081b 	ldr	q27, [x0, #32]
  412094:	b0000000 	adrp	x0, 413000 <_IO_stdin_used+0x670>
  412098:	4ea08421 	add	v1.4s, v1.4s, v0.4s
  41209c:	4ebb84bb 	add	v27.4s, v5.4s, v27.4s
  4120a0:	6e601c3a 	bsl	v26.16b, v1.16b, v0.16b
  4120a4:	4ea187bd 	add	v29.4s, v29.4s, v1.4s
  4120a8:	4ebf875a 	add	v26.4s, v26.4s, v31.4s
  4120ac:	4f29575f 	shl	v31.4s, v26.4s, #9
  4120b0:	6f29075a 	ushr	v26.4s, v26.4s, #23
  4120b4:	4eba1ffa 	orr	v26.16b, v31.16b, v26.16b
  4120b8:	3dc00c1f 	ldr	q31, [x0, #48]
  4120bc:	b0000000 	adrp	x0, 413000 <_IO_stdin_used+0x670>
  4120c0:	4ea1875a 	add	v26.4s, v26.4s, v1.4s
  4120c4:	4ebf857f 	add	v31.4s, v11.4s, v31.4s
  4120c8:	6e611f40 	bsl	v0.16b, v26.16b, v1.16b
  4120cc:	4eba879c 	add	v28.4s, v28.4s, v26.4s
  4120d0:	4ea28400 	add	v0.4s, v0.4s, v2.4s
  4120d4:	4f2e5402 	shl	v2.4s, v0.4s, #14
  4120d8:	6f2e0400 	ushr	v0.4s, v0.4s, #18
  4120dc:	4ea01c40 	orr	v0.16b, v2.16b, v0.16b
  4120e0:	3dc01002 	ldr	q2, [x0, #64]
  4120e4:	b0000000 	adrp	x0, 413000 <_IO_stdin_used+0x670>
  4120e8:	4eba8400 	add	v0.4s, v0.4s, v26.4s
  4120ec:	4ea28502 	add	v2.4s, v8.4s, v2.4s
  4120f0:	6e7a1c01 	bsl	v1.16b, v0.16b, v26.16b
  4120f4:	4ea0877b 	add	v27.4s, v27.4s, v0.4s
  4120f8:	4ebe8421 	add	v1.4s, v1.4s, v30.4s
  4120fc:	4f34543e 	shl	v30.4s, v1.4s, #20
  412100:	6f340421 	ushr	v1.4s, v1.4s, #12
  412104:	4ea11fc1 	orr	v1.16b, v30.16b, v1.16b
  412108:	3dc0141e 	ldr	q30, [x0, #80]
  41210c:	b0000000 	adrp	x0, 413000 <_IO_stdin_used+0x670>
  412110:	4ea08421 	add	v1.4s, v1.4s, v0.4s
  412114:	4ebe86fe 	add	v30.4s, v23.4s, v30.4s
  412118:	6e601c3a 	bsl	v26.16b, v1.16b, v0.16b
  41211c:	4ea187ff 	add	v31.4s, v31.4s, v1.4s
  412120:	4ebd875a 	add	v26.4s, v26.4s, v29.4s
  412124:	4f25575d 	shl	v29.4s, v26.4s, #5
  412128:	6f25075a 	ushr	v26.4s, v26.4s, #27
  41212c:	4eba1fba 	orr	v26.16b, v29.16b, v26.16b
  412130:	3dc0181d 	ldr	q29, [x0, #96]
  412134:	b0000000 	adrp	x0, 413000 <_IO_stdin_used+0x670>
  412138:	4ea1875a 	add	v26.4s, v26.4s, v1.4s
  41213c:	4ebd869d 	add	v29.4s, v20.4s, v29.4s
  412140:	6e611f40 	bsl	v0.16b, v26.16b, v1.16b
  412144:	4eba8442 	add	v2.4s, v2.4s, v26.4s
  412148:	4ebc8400 	add	v0.4s, v0.4s, v28.4s
  41214c:	4f29541c 	shl	v28.4s, v0.4s, #9
  412150:	6f290400 	ushr	v0.4s, v0.4s, #23
  412154:	4ea01f80 	orr	v0.16b, v28.16b, v0.16b
  412158:	3dc01c1c 	ldr	q28, [x0, #112]
  41215c:	b0000000 	adrp	x0, 413000 <_IO_stdin_used+0x670>
  412160:	4eba8400 	add	v0.4s, v0.4s, v26.4s
  412164:	4ebc863c 	add	v28.4s, v17.4s, v28.4s
  412168:	6e7a1c01 	bsl	v1.16b, v0.16b, v26.16b
  41216c:	4ea087de 	add	v30.4s, v30.4s, v0.4s
  412170:	4ebb8421 	add	v1.4s, v1.4s, v27.4s
  412174:	4f2e543b 	shl	v27.4s, v1.4s, #14
  412178:	6f2e0421 	ushr	v1.4s, v1.4s, #18
  41217c:	4ea11f61 	orr	v1.16b, v27.16b, v1.16b
  412180:	3dc0201b 	ldr	q27, [x0, #128]
  412184:	b0000000 	adrp	x0, 413000 <_IO_stdin_used+0x670>
  412188:	4ea08421 	add	v1.4s, v1.4s, v0.4s
  41218c:	4ebb85fb 	add	v27.4s, v15.4s, v27.4s
  412190:	6e601c3a 	bsl	v26.16b, v1.16b, v0.16b
  412194:	4ea187bd 	add	v29.4s, v29.4s, v1.4s
  412198:	4ebf875a 	add	v26.4s, v26.4s, v31.4s
  41219c:	4f34575f 	shl	v31.4s, v26.4s, #20
  4121a0:	6f34075a 	ushr	v26.4s, v26.4s, #12
  4121a4:	4eba1ffa 	orr	v26.16b, v31.16b, v26.16b
  4121a8:	3dc0241f 	ldr	q31, [x0, #144]
  4121ac:	b0000000 	adrp	x0, 413000 <_IO_stdin_used+0x670>
  4121b0:	4ea1875a 	add	v26.4s, v26.4s, v1.4s
  4121b4:	4ebf855f 	add	v31.4s, v10.4s, v31.4s
  4121b8:	6e611f40 	bsl	v0.16b, v26.16b, v1.16b
  4121bc:	4eba879c 	add	v28.4s, v28.4s, v26.4s
  4121c0:	4ea28400 	add	v0.4s, v0.4s, v2.4s
  4121c4:	4f255402 	shl	v2.4s, v0.4s, #5
  4121c8:	6f250400 	ushr	v0.4s, v0.4s, #27
  4121cc:	4ea01c40 	orr	v0.16b, v2.16b, v0.16b
  4121d0:	3dc02802 	ldr	q2, [x0, #160]
  4121d4:	b0000000 	adrp	x0, 413000 <_IO_stdin_used+0x670>
  4121d8:	4eba8400 	add	v0.4s, v0.4s, v26.4s
  4121dc:	4ea28702 	add	v2.4s, v24.4s, v2.4s
  4121e0:	6e7a1c01 	bsl	v1.16b, v0.16b, v26.16b
  4121e4:	4ea0877b 	add	v27.4s, v27.4s, v0.4s
  4121e8:	4ebe8421 	add	v1.4s, v1.4s, v30.4s
  4121ec:	4f29543e 	shl	v30.4s, v1.4s, #9
  4121f0:	6f290421 	ushr	v1.4s, v1.4s, #23
  4121f4:	4ea11fc1 	orr	v1.16b, v30.16b, v1.16b
  4121f8:	3dc02c1e 	ldr	q30, [x0, #176]
  4121fc:	b0000000 	adrp	x0, 413000 <_IO_stdin_used+0x670>
  412200:	4ea08421 	add	v1.4s, v1.4s, v0.4s
  412204:	4ebe86be 	add	v30.4s, v21.4s, v30.4s
  412208:	6e601c3a 	bsl	v26.16b, v1.16b, v0.16b
  41220c:	4ea187ff 	add	v31.4s, v31.4s, v1.4s
  412210:	4ebd875a 	add	v26.4s, v26.4s, v29.4s
  412214:	4f2e575d 	shl	v29.4s, v26.4s, #14
  412218:	6f2e075a 	ushr	v26.4s, v26.4s, #18
  41221c:	4eba1fba 	orr	v26.16b, v29.16b, v26.16b
  412220:	3dc0301d 	ldr	q29, [x0, #192]
  412224:	b0000000 	adrp	x0, 413000 <_IO_stdin_used+0x670>
  412228:	4ea1875a 	add	v26.4s, v26.4s, v1.4s
  41222c:	4ebd86dd 	add	v29.4s, v22.4s, v29.4s
  412230:	6e611f40 	bsl	v0.16b, v26.16b, v1.16b
  412234:	4eba8442 	add	v2.4s, v2.4s, v26.4s
  412238:	4ebc8400 	add	v0.4s, v0.4s, v28.4s
  41223c:	4f34541c 	shl	v28.4s, v0.4s, #20
  412240:	6f340400 	ushr	v0.4s, v0.4s, #12
  412244:	4ea01f80 	orr	v0.16b, v28.16b, v0.16b
  412248:	3dc0341c 	ldr	q28, [x0, #208]
  41224c:	b0000000 	adrp	x0, 413000 <_IO_stdin_used+0x670>
  412250:	4eba8400 	add	v0.4s, v0.4s, v26.4s
  412254:	4ebc863c 	add	v28.4s, v17.4s, v28.4s
  412258:	6e7a1c01 	bsl	v1.16b, v0.16b, v26.16b
  41225c:	4ea087de 	add	v30.4s, v30.4s, v0.4s
  412260:	4ebb8421 	add	v1.4s, v1.4s, v27.4s
  412264:	4f25543b 	shl	v27.4s, v1.4s, #5
  412268:	6f250421 	ushr	v1.4s, v1.4s, #27
  41226c:	4ea11f61 	orr	v1.16b, v27.16b, v1.16b
  412270:	3dc0381b 	ldr	q27, [x0, #224]
  412274:	b0000000 	adrp	x0, 413000 <_IO_stdin_used+0x670>
  412278:	4ea08421 	add	v1.4s, v1.4s, v0.4s
  41227c:	4ebb853b 	add	v27.4s, v9.4s, v27.4s
  412280:	6e601c3a 	bsl	v26.16b, v1.16b, v0.16b
  412284:	4ea187bd 	add	v29.4s, v29.4s, v1.4s
  412288:	4ebf875a 	add	v26.4s, v26.4s, v31.4s
  41228c:	4f29575f 	shl	v31.4s, v26.4s, #9
  412290:	6f29075a 	ushr	v26.4s, v26.4s, #23
  412294:	4eba1ffa 	orr	v26.16b, v31.16b, v26.16b
  412298:	3dc03c1f 	ldr	q31, [x0, #240]
  41229c:	b0000000 	adrp	x0, 413000 <_IO_stdin_used+0x670>
  4122a0:	4ea1875a 	add	v26.4s, v26.4s, v1.4s
  4122a4:	4ebf86ff 	add	v31.4s, v23.4s, v31.4s
  4122a8:	6e611f40 	bsl	v0.16b, v26.16b, v1.16b
  4122ac:	4eba879c 	add	v28.4s, v28.4s, v26.4s
  4122b0:	4ea28400 	add	v0.4s, v0.4s, v2.4s
  4122b4:	4f2e5402 	shl	v2.4s, v0.4s, #14
  4122b8:	6f2e0400 	ushr	v0.4s, v0.4s, #18
  4122bc:	4ea01c40 	orr	v0.16b, v2.16b, v0.16b
  4122c0:	3dc04002 	ldr	q2, [x0, #256]
  4122c4:	b0000000 	adrp	x0, 413000 <_IO_stdin_used+0x670>
  4122c8:	4eba8400 	add	v0.4s, v0.4s, v26.4s
  4122cc:	4ea28642 	add	v2.4s, v18.4s, v2.4s
  4122d0:	6e7a1c01 	bsl	v1.16b, v0.16b, v26.16b
  4122d4:	6e201f5a 	eor	v26.16b, v26.16b, v0.16b
  4122d8:	4ea0877b 	add	v27.4s, v27.4s, v0.4s
  4122dc:	4ebe8421 	add	v1.4s, v1.4s, v30.4s
  4122e0:	4f34543e 	shl	v30.4s, v1.4s, #20
  4122e4:	6f340421 	ushr	v1.4s, v1.4s, #12
  4122e8:	4ea11fc1 	orr	v1.16b, v30.16b, v1.16b
  4122ec:	3dc0441e 	ldr	q30, [x0, #272]
  4122f0:	b0000000 	adrp	x0, 413000 <_IO_stdin_used+0x670>
  4122f4:	4ea08421 	add	v1.4s, v1.4s, v0.4s
  4122f8:	4ebe857e 	add	v30.4s, v11.4s, v30.4s
  4122fc:	6e211f5a 	eor	v26.16b, v26.16b, v1.16b
  412300:	6e211c00 	eor	v0.16b, v0.16b, v1.16b
  412304:	4ea187ff 	add	v31.4s, v31.4s, v1.4s
  412308:	4eba87bd 	add	v29.4s, v29.4s, v26.4s
  41230c:	4f2457ba 	shl	v26.4s, v29.4s, #4
  412310:	6f2407bd 	ushr	v29.4s, v29.4s, #28
  412314:	4ebd1f5a 	orr	v26.16b, v26.16b, v29.16b
  412318:	3dc0481d 	ldr	q29, [x0, #288]
  41231c:	b0000000 	adrp	x0, 413000 <_IO_stdin_used+0x670>
  412320:	4ea1875a 	add	v26.4s, v26.4s, v1.4s
  412324:	4ebd871d 	add	v29.4s, v24.4s, v29.4s
  412328:	6e3a1c00 	eor	v0.16b, v0.16b, v26.16b
  41232c:	6e3a1c21 	eor	v1.16b, v1.16b, v26.16b
  412330:	4eba8442 	add	v2.4s, v2.4s, v26.4s
  412334:	4ebc8400 	add	v0.4s, v0.4s, v28.4s
  412338:	4f2b541c 	shl	v28.4s, v0.4s, #11
  41233c:	6f2b0400 	ushr	v0.4s, v0.4s, #21
  412340:	4ea01f80 	orr	v0.16b, v28.16b, v0.16b
  412344:	3dc04c1c 	ldr	q28, [x0, #304]
  412348:	b0000000 	adrp	x0, 413000 <_IO_stdin_used+0x670>
  41234c:	4eba8400 	add	v0.4s, v0.4s, v26.4s
  412350:	4ebc867c 	add	v28.4s, v19.4s, v28.4s
  412354:	6e201c21 	eor	v1.16b, v1.16b, v0.16b
  412358:	6e201f5a 	eor	v26.16b, v26.16b, v0.16b
  41235c:	4ea087de 	add	v30.4s, v30.4s, v0.4s
  412360:	4ebb8421 	add	v1.4s, v1.4s, v27.4s
  412364:	4f30543b 	shl	v27.4s, v1.4s, #16
  412368:	6f300421 	ushr	v1.4s, v1.4s, #16
  41236c:	4ea11f61 	orr	v1.16b, v27.16b, v1.16b
  412370:	3dc0501b 	ldr	q27, [x0, #320]
  412374:	b0000000 	adrp	x0, 413000 <_IO_stdin_used+0x670>
  412378:	4ea08421 	add	v1.4s, v1.4s, v0.4s
  41237c:	4ebb85fb 	add	v27.4s, v15.4s, v27.4s
  412380:	6e211f5a 	eor	v26.16b, v26.16b, v1.16b
  412384:	6e211c00 	eor	v0.16b, v0.16b, v1.16b
  412388:	4ea187bd 	add	v29.4s, v29.4s, v1.4s
  41238c:	4ebf875a 	add	v26.4s, v26.4s, v31.4s
  412390:	4f37575f 	shl	v31.4s, v26.4s, #23
  412394:	6f37075a 	ushr	v26.4s, v26.4s, #9
  412398:	4eba1ffa 	orr	v26.16b, v31.16b, v26.16b
  41239c:	3dc0541f 	ldr	q31, [x0, #336]
  4123a0:	b0000000 	adrp	x0, 413000 <_IO_stdin_used+0x670>
  4123a4:	4ea1875a 	add	v26.4s, v26.4s, v1.4s
  4123a8:	4ebf873f 	add	v31.4s, v25.4s, v31.4s
  4123ac:	6e3a1c00 	eor	v0.16b, v0.16b, v26.16b
  4123b0:	6e3a1c21 	eor	v1.16b, v1.16b, v26.16b
  4123b4:	4eba879c 	add	v28.4s, v28.4s, v26.4s
  4123b8:	4ea28400 	add	v0.4s, v0.4s, v2.4s
  4123bc:	4f245402 	shl	v2.4s, v0.4s, #4
  4123c0:	6f240400 	ushr	v0.4s, v0.4s, #28
  4123c4:	4ea01c40 	orr	v0.16b, v2.16b, v0.16b
  4123c8:	3dc05802 	ldr	q2, [x0, #352]
  4123cc:	b0000000 	adrp	x0, 413000 <_IO_stdin_used+0x670>
  4123d0:	4eba8400 	add	v0.4s, v0.4s, v26.4s
  4123d4:	4ea28682 	add	v2.4s, v20.4s, v2.4s
  4123d8:	6e201c21 	eor	v1.16b, v1.16b, v0.16b
  4123dc:	6e201f5a 	eor	v26.16b, v26.16b, v0.16b
  4123e0:	4ea0877b 	add	v27.4s, v27.4s, v0.4s
  4123e4:	4ebe8421 	add	v1.4s, v1.4s, v30.4s
  4123e8:	4f2b543e 	shl	v30.4s, v1.4s, #11
  4123ec:	6f2b0421 	ushr	v1.4s, v1.4s, #21
  4123f0:	4ea11fc1 	orr	v1.16b, v30.16b, v1.16b
  4123f4:	3dc05c1e 	ldr	q30, [x0, #368]
  4123f8:	b0000000 	adrp	x0, 413000 <_IO_stdin_used+0x670>
  4123fc:	4ea08421 	add	v1.4s, v1.4s, v0.4s
  412400:	4ebe861e 	add	v30.4s, v16.4s, v30.4s
  412404:	6e211f5a 	eor	v26.16b, v26.16b, v1.16b
  412408:	6e211c00 	eor	v0.16b, v0.16b, v1.16b
  41240c:	4ea187ff 	add	v31.4s, v31.4s, v1.4s
  412410:	4ebd875a 	add	v26.4s, v26.4s, v29.4s
  412414:	4f30575d 	shl	v29.4s, v26.4s, #16
  412418:	6f30075a 	ushr	v26.4s, v26.4s, #16
  41241c:	4eba1fba 	orr	v26.16b, v29.16b, v26.16b
  412420:	3dc0601d 	ldr	q29, [x0, #384]
  412424:	b0000000 	adrp	x0, 413000 <_IO_stdin_used+0x670>
  412428:	4ea1875a 	add	v26.4s, v26.4s, v1.4s
  41242c:	4ebd851d 	add	v29.4s, v8.4s, v29.4s
  412430:	6e3a1c00 	eor	v0.16b, v0.16b, v26.16b
  412434:	6e3a1c21 	eor	v1.16b, v1.16b, v26.16b
  412438:	4eba8442 	add	v2.4s, v2.4s, v26.4s
  41243c:	4ebc8400 	add	v0.4s, v0.4s, v28.4s
  412440:	4f37541c 	shl	v28.4s, v0.4s, #23
  412444:	6f370400 	ushr	v0.4s, v0.4s, #9
  412448:	4ea01f80 	orr	v0.16b, v28.16b, v0.16b
  41244c:	3dc0641c 	ldr	q28, [x0, #400]
  412450:	b0000000 	adrp	x0, 413000 <_IO_stdin_used+0x670>
  412454:	4eba8400 	add	v0.4s, v0.4s, v26.4s
  412458:	4ebc86bc 	add	v28.4s, v21.4s, v28.4s
  41245c:	6e201c21 	eor	v1.16b, v1.16b, v0.16b
  412460:	6e201f5a 	eor	v26.16b, v26.16b, v0.16b
  412464:	4ea087de 	add	v30.4s, v30.4s, v0.4s
  412468:	4ebb8421 	add	v1.4s, v1.4s, v27.4s
  41246c:	4f24543b 	shl	v27.4s, v1.4s, #4
  412470:	6f240421 	ushr	v1.4s, v1.4s, #28
  412474:	4ea11f61 	orr	v1.16b, v27.16b, v1.16b
  412478:	3dc0681b 	ldr	q27, [x0, #416]
  41247c:	b0000000 	adrp	x0, 413000 <_IO_stdin_used+0x670>
  412480:	4ea08421 	add	v1.4s, v1.4s, v0.4s
  412484:	4ebb84bb 	add	v27.4s, v5.4s, v27.4s
  412488:	6e211f5a 	eor	v26.16b, v26.16b, v1.16b
  41248c:	6e211c00 	eor	v0.16b, v0.16b, v1.16b
  412490:	4ea187bd 	add	v29.4s, v29.4s, v1.4s
  412494:	4ebf875a 	add	v26.4s, v26.4s, v31.4s
  412498:	4f2b575f 	shl	v31.4s, v26.4s, #11
  41249c:	6f2b075a 	ushr	v26.4s, v26.4s, #21
  4124a0:	4eba1fff 	orr	v31.16b, v31.16b, v26.16b
  4124a4:	3dc06c1a 	ldr	q26, [x0, #432]
  4124a8:	b0000000 	adrp	x0, 413000 <_IO_stdin_used+0x670>
  4124ac:	4ea187ff 	add	v31.4s, v31.4s, v1.4s
  4124b0:	4eba855a 	add	v26.4s, v10.4s, v26.4s
  4124b4:	6e3f1c00 	eor	v0.16b, v0.16b, v31.16b
  4124b8:	6e3f1c21 	eor	v1.16b, v1.16b, v31.16b
  4124bc:	4ebf879c 	add	v28.4s, v28.4s, v31.4s
  4124c0:	4ea28400 	add	v0.4s, v0.4s, v2.4s
  4124c4:	4f305402 	shl	v2.4s, v0.4s, #16
  4124c8:	6f300400 	ushr	v0.4s, v0.4s, #16
  4124cc:	4ea01c42 	orr	v2.16b, v2.16b, v0.16b
  4124d0:	3dc07000 	ldr	q0, [x0, #448]
  4124d4:	b0000000 	adrp	x0, 413000 <_IO_stdin_used+0x670>
  4124d8:	4ebf8442 	add	v2.4s, v2.4s, v31.4s
  4124dc:	4ea08739 	add	v25.4s, v25.4s, v0.4s
  4124e0:	6e221c21 	eor	v1.16b, v1.16b, v2.16b
  4124e4:	6e221fe0 	eor	v0.16b, v31.16b, v2.16b
  4124e8:	4ea2877b 	add	v27.4s, v27.4s, v2.4s
  4124ec:	3dc0741f 	ldr	q31, [x0, #464]
  4124f0:	b0000000 	adrp	x0, 413000 <_IO_stdin_used+0x670>
  4124f4:	4ebe8421 	add	v1.4s, v1.4s, v30.4s
  4124f8:	4ebf8718 	add	v24.4s, v24.4s, v31.4s
  4124fc:	4f37543e 	shl	v30.4s, v1.4s, #23
  412500:	6f370421 	ushr	v1.4s, v1.4s, #9
  412504:	4ea11fc1 	orr	v1.16b, v30.16b, v1.16b
  412508:	3dc0781e 	ldr	q30, [x0, #480]
  41250c:	b0000000 	adrp	x0, 413000 <_IO_stdin_used+0x670>
  412510:	4ea28421 	add	v1.4s, v1.4s, v2.4s
  412514:	4ebe86f7 	add	v23.4s, v23.4s, v30.4s
  412518:	3dc07c1e 	ldr	q30, [x0, #496]
  41251c:	b0000000 	adrp	x0, 413000 <_IO_stdin_used+0x670>
  412520:	6e211c00 	eor	v0.16b, v0.16b, v1.16b
  412524:	6e211c42 	eor	v2.16b, v2.16b, v1.16b
  412528:	4ea1875a 	add	v26.4s, v26.4s, v1.4s
  41252c:	4ebe86d6 	add	v22.4s, v22.4s, v30.4s
  412530:	4ebd8400 	add	v0.4s, v0.4s, v29.4s
  412534:	3dc0801e 	ldr	q30, [x0, #512]
  412538:	b0000000 	adrp	x0, 413000 <_IO_stdin_used+0x670>
  41253c:	4f24541d 	shl	v29.4s, v0.4s, #4
  412540:	6f240400 	ushr	v0.4s, v0.4s, #28
  412544:	4ebe86b5 	add	v21.4s, v21.4s, v30.4s
  412548:	3dc0841e 	ldr	q30, [x0, #528]
  41254c:	b0000000 	adrp	x0, 413000 <_IO_stdin_used+0x670>
  412550:	4ea01fa0 	orr	v0.16b, v29.16b, v0.16b
  412554:	3dc0881d 	ldr	q29, [x0, #544]
  412558:	b0000000 	adrp	x0, 413000 <_IO_stdin_used+0x670>
  41255c:	4ebe8694 	add	v20.4s, v20.4s, v30.4s
  412560:	4ea18400 	add	v0.4s, v0.4s, v1.4s
  412564:	4ebd8673 	add	v19.4s, v19.4s, v29.4s
  412568:	3dc08c1d 	ldr	q29, [x0, #560]
  41256c:	b0000000 	adrp	x0, 413000 <_IO_stdin_used+0x670>
  412570:	6e201c42 	eor	v2.16b, v2.16b, v0.16b
  412574:	6e201c21 	eor	v1.16b, v1.16b, v0.16b
  412578:	4ea08739 	add	v25.4s, v25.4s, v0.4s
  41257c:	4ebd8652 	add	v18.4s, v18.4s, v29.4s
  412580:	4ebc8442 	add	v2.4s, v2.4s, v28.4s
  412584:	3dc0901d 	ldr	q29, [x0, #576]
  412588:	b0000000 	adrp	x0, 413000 <_IO_stdin_used+0x670>
  41258c:	4f2b545c 	shl	v28.4s, v2.4s, #11
  412590:	6f2b0442 	ushr	v2.4s, v2.4s, #21
  412594:	4ebd8631 	add	v17.4s, v17.4s, v29.4s
  412598:	3dc0941d 	ldr	q29, [x0, #592]
  41259c:	b0000000 	adrp	x0, 413000 <_IO_stdin_used+0x670>
  4125a0:	4ea21f82 	orr	v2.16b, v28.16b, v2.16b
  4125a4:	3dc0981c 	ldr	q28, [x0, #608]
  4125a8:	b0000000 	adrp	x0, 413000 <_IO_stdin_used+0x670>
  4125ac:	4ebd84a5 	add	v5.4s, v5.4s, v29.4s
  4125b0:	4ea08442 	add	v2.4s, v2.4s, v0.4s
  4125b4:	4ebc8610 	add	v16.4s, v16.4s, v28.4s
  4125b8:	3dc09c1c 	ldr	q28, [x0, #624]
  4125bc:	b0000000 	adrp	x0, 413000 <_IO_stdin_used+0x670>
  4125c0:	6e221c21 	eor	v1.16b, v1.16b, v2.16b
  4125c4:	6e221c00 	eor	v0.16b, v0.16b, v2.16b
  4125c8:	4ea28718 	add	v24.4s, v24.4s, v2.4s
  4125cc:	4ebc85ef 	add	v15.4s, v15.4s, v28.4s
  4125d0:	4ebb8421 	add	v1.4s, v1.4s, v27.4s
  4125d4:	3dc0a01d 	ldr	q29, [x0, #640]
  4125d8:	b0000000 	adrp	x0, 413000 <_IO_stdin_used+0x670>
  4125dc:	4f30543b 	shl	v27.4s, v1.4s, #16
  4125e0:	6f300421 	ushr	v1.4s, v1.4s, #16
  4125e4:	4ebd856b 	add	v11.4s, v11.4s, v29.4s
  4125e8:	3dc0a41c 	ldr	q28, [x0, #656]
  4125ec:	b0000000 	adrp	x0, 413000 <_IO_stdin_used+0x670>
  4125f0:	4ea11f61 	orr	v1.16b, v27.16b, v1.16b
  4125f4:	4ebc8529 	add	v9.4s, v9.4s, v28.4s
  4125f8:	3dc0a81c 	ldr	q28, [x0, #672]
  4125fc:	b0000000 	adrp	x0, 413000 <_IO_stdin_used+0x670>
  412600:	4ea28421 	add	v1.4s, v1.4s, v2.4s
  412604:	3dc0ac1b 	ldr	q27, [x0, #688]
  412608:	4ebc854a 	add	v10.4s, v10.4s, v28.4s
  41260c:	6e211c00 	eor	v0.16b, v0.16b, v1.16b
  412610:	4ea186f7 	add	v23.4s, v23.4s, v1.4s
  412614:	4ebb8508 	add	v8.4s, v8.4s, v27.4s
  412618:	4eba8400 	add	v0.4s, v0.4s, v26.4s
  41261c:	4f37541a 	shl	v26.4s, v0.4s, #23
  412620:	6f370400 	ushr	v0.4s, v0.4s, #9
  412624:	4ea01f40 	orr	v0.16b, v26.16b, v0.16b
  412628:	4ea18400 	add	v0.4s, v0.4s, v1.4s
  41262c:	4ee21c02 	orn	v2.16b, v0.16b, v2.16b
  412630:	4ea086d6 	add	v22.4s, v22.4s, v0.4s
  412634:	6e211c42 	eor	v2.16b, v2.16b, v1.16b
  412638:	4eb98442 	add	v2.4s, v2.4s, v25.4s
  41263c:	4f265459 	shl	v25.4s, v2.4s, #6
  412640:	6f260442 	ushr	v2.4s, v2.4s, #26
  412644:	4ea21f22 	orr	v2.16b, v25.16b, v2.16b
  412648:	4ea08442 	add	v2.4s, v2.4s, v0.4s
  41264c:	4ee11c41 	orn	v1.16b, v2.16b, v1.16b
  412650:	4ea286b5 	add	v21.4s, v21.4s, v2.4s
  412654:	6e201c21 	eor	v1.16b, v1.16b, v0.16b
  412658:	4eb88421 	add	v1.4s, v1.4s, v24.4s
  41265c:	4f2a5438 	shl	v24.4s, v1.4s, #10
  412660:	6f2a0421 	ushr	v1.4s, v1.4s, #22
  412664:	4ea11f01 	orr	v1.16b, v24.16b, v1.16b
  412668:	4ea28421 	add	v1.4s, v1.4s, v2.4s
  41266c:	4ee01c20 	orn	v0.16b, v1.16b, v0.16b
  412670:	4ea18694 	add	v20.4s, v20.4s, v1.4s
  412674:	6e221c00 	eor	v0.16b, v0.16b, v2.16b
  412678:	4eb78400 	add	v0.4s, v0.4s, v23.4s
  41267c:	4f2f5417 	shl	v23.4s, v0.4s, #15
  412680:	6f2f0400 	ushr	v0.4s, v0.4s, #17
  412684:	4ea01ee0 	orr	v0.16b, v23.16b, v0.16b
  412688:	4ea18400 	add	v0.4s, v0.4s, v1.4s
  41268c:	4ee21c02 	orn	v2.16b, v0.16b, v2.16b
  412690:	4ea08673 	add	v19.4s, v19.4s, v0.4s
  412694:	6e211c42 	eor	v2.16b, v2.16b, v1.16b
  412698:	4eb68442 	add	v2.4s, v2.4s, v22.4s
  41269c:	4f355456 	shl	v22.4s, v2.4s, #21
  4126a0:	6f350442 	ushr	v2.4s, v2.4s, #11
  4126a4:	4ea21ed6 	orr	v22.16b, v22.16b, v2.16b
  4126a8:	4ea086d6 	add	v22.4s, v22.4s, v0.4s
  4126ac:	4ee11ec1 	orn	v1.16b, v22.16b, v1.16b
  4126b0:	4eb68652 	add	v18.4s, v18.4s, v22.4s
  4126b4:	6e201c21 	eor	v1.16b, v1.16b, v0.16b
  4126b8:	4eb58421 	add	v1.4s, v1.4s, v21.4s
  4126bc:	4f265422 	shl	v2.4s, v1.4s, #6
  4126c0:	6f260421 	ushr	v1.4s, v1.4s, #26
  4126c4:	4ea11c42 	orr	v2.16b, v2.16b, v1.16b
  4126c8:	4eb68442 	add	v2.4s, v2.4s, v22.4s
  4126cc:	4ee01c40 	orn	v0.16b, v2.16b, v0.16b
  4126d0:	4ea28631 	add	v17.4s, v17.4s, v2.4s
  4126d4:	6e361c00 	eor	v0.16b, v0.16b, v22.16b
  4126d8:	4eb48400 	add	v0.4s, v0.4s, v20.4s
  4126dc:	4f2a5401 	shl	v1.4s, v0.4s, #10
  4126e0:	6f2a0400 	ushr	v0.4s, v0.4s, #22
  4126e4:	4ea01c21 	orr	v1.16b, v1.16b, v0.16b
  4126e8:	4ea28421 	add	v1.4s, v1.4s, v2.4s
  4126ec:	4ef61c20 	orn	v0.16b, v1.16b, v22.16b
  4126f0:	4ea184b4 	add	v20.4s, v5.4s, v1.4s
  4126f4:	6e221c00 	eor	v0.16b, v0.16b, v2.16b
  4126f8:	4eb38400 	add	v0.4s, v0.4s, v19.4s
  4126fc:	4f2f5405 	shl	v5.4s, v0.4s, #15
  412700:	6f2f0400 	ushr	v0.4s, v0.4s, #17
  412704:	4ea01ca0 	orr	v0.16b, v5.16b, v0.16b
  412708:	4ea18400 	add	v0.4s, v0.4s, v1.4s
  41270c:	4ee21c02 	orn	v2.16b, v0.16b, v2.16b
  412710:	4ea08610 	add	v16.4s, v16.4s, v0.4s
  412714:	6e211c42 	eor	v2.16b, v2.16b, v1.16b
  412718:	4eb28442 	add	v2.4s, v2.4s, v18.4s
  41271c:	4f355445 	shl	v5.4s, v2.4s, #21
  412720:	6f350442 	ushr	v2.4s, v2.4s, #11
  412724:	4ea21ca2 	orr	v2.16b, v5.16b, v2.16b
  412728:	4ea08442 	add	v2.4s, v2.4s, v0.4s
  41272c:	4ee11c41 	orn	v1.16b, v2.16b, v1.16b
  412730:	4ea285ef 	add	v15.4s, v15.4s, v2.4s
  412734:	6e201c21 	eor	v1.16b, v1.16b, v0.16b
  412738:	4eb18421 	add	v1.4s, v1.4s, v17.4s
  41273c:	4f265425 	shl	v5.4s, v1.4s, #6
  412740:	6f260421 	ushr	v1.4s, v1.4s, #26
  412744:	4ea11ca1 	orr	v1.16b, v5.16b, v1.16b
  412748:	4ea28421 	add	v1.4s, v1.4s, v2.4s
  41274c:	4ee01c25 	orn	v5.16b, v1.16b, v0.16b
  412750:	4ea1856b 	add	v11.4s, v11.4s, v1.4s
  412754:	6e221ca5 	eor	v5.16b, v5.16b, v2.16b
  412758:	4eb484a5 	add	v5.4s, v5.4s, v20.4s
  41275c:	4f2a54a0 	shl	v0.4s, v5.4s, #10
  412760:	6f2a04a5 	ushr	v5.4s, v5.4s, #22
  412764:	4ea51c00 	orr	v0.16b, v0.16b, v5.16b
  412768:	4ea18400 	add	v0.4s, v0.4s, v1.4s
  41276c:	4ee21c05 	orn	v5.16b, v0.16b, v2.16b
  412770:	4ea08529 	add	v9.4s, v9.4s, v0.4s
  412774:	6e211ca5 	eor	v5.16b, v5.16b, v1.16b
  412778:	4eb084a5 	add	v5.4s, v5.4s, v16.4s
  41277c:	4f2f54a2 	shl	v2.4s, v5.4s, #15
  412780:	6f2f04a5 	ushr	v5.4s, v5.4s, #17
  412784:	4ea51c42 	orr	v2.16b, v2.16b, v5.16b
  412788:	4ea08442 	add	v2.4s, v2.4s, v0.4s
  41278c:	4ee11c45 	orn	v5.16b, v2.16b, v1.16b
  412790:	4ea2854a 	add	v10.4s, v10.4s, v2.4s
  412794:	6e201ca5 	eor	v5.16b, v5.16b, v0.16b
  412798:	4eaf84a5 	add	v5.4s, v5.4s, v15.4s
  41279c:	4f3554a1 	shl	v1.4s, v5.4s, #21
  4127a0:	6f3504a5 	ushr	v5.4s, v5.4s, #11
  4127a4:	4ea51c21 	orr	v1.16b, v1.16b, v5.16b
  4127a8:	4ea28421 	add	v1.4s, v1.4s, v2.4s
  4127ac:	4ee01c25 	orn	v5.16b, v1.16b, v0.16b
  4127b0:	4ea1850f 	add	v15.4s, v8.4s, v1.4s
  4127b4:	6e221ca5 	eor	v5.16b, v5.16b, v2.16b
  4127b8:	4eab84a5 	add	v5.4s, v5.4s, v11.4s
  4127bc:	4f2654a0 	shl	v0.4s, v5.4s, #6
  4127c0:	6f2604a5 	ushr	v5.4s, v5.4s, #26
  4127c4:	4ea51c00 	orr	v0.16b, v0.16b, v5.16b
  4127c8:	4ea18400 	add	v0.4s, v0.4s, v1.4s
  4127cc:	4ee21c02 	orn	v2.16b, v0.16b, v2.16b
  4127d0:	4ea48404 	add	v4.4s, v0.4s, v4.4s
  4127d4:	6e211c42 	eor	v2.16b, v2.16b, v1.16b
  4127d8:	4ea41c88 	mov	v8.16b, v4.16b
  4127dc:	4ea98442 	add	v2.4s, v2.4s, v9.4s
  4127e0:	4f2a5445 	shl	v5.4s, v2.4s, #10
  4127e4:	6f2a0442 	ushr	v2.4s, v2.4s, #22
  4127e8:	4ea21ca2 	orr	v2.16b, v5.16b, v2.16b
  4127ec:	4ea08442 	add	v2.4s, v2.4s, v0.4s
  4127f0:	4ee11c41 	orn	v1.16b, v2.16b, v1.16b
  4127f4:	4ea284e7 	add	v7.4s, v7.4s, v2.4s
  4127f8:	6e201c21 	eor	v1.16b, v1.16b, v0.16b
  4127fc:	4eaa8421 	add	v1.4s, v1.4s, v10.4s
  412800:	4f2f5425 	shl	v5.4s, v1.4s, #15
  412804:	6f2f0421 	ushr	v1.4s, v1.4s, #17
  412808:	4ea11ca1 	orr	v1.16b, v5.16b, v1.16b
  41280c:	4ea28421 	add	v1.4s, v1.4s, v2.4s
  412810:	4ee01c20 	orn	v0.16b, v1.16b, v0.16b
  412814:	4ea184c6 	add	v6.4s, v6.4s, v1.4s
  412818:	6e221c00 	eor	v0.16b, v0.16b, v2.16b
  41281c:	ad011e86 	stp	q6, q7, [x20, #32]
  412820:	4eaf8400 	add	v0.4s, v0.4s, v15.4s
  412824:	4f355402 	shl	v2.4s, v0.4s, #21
  412828:	6f350400 	ushr	v0.4s, v0.4s, #11
  41282c:	4ea01c40 	orr	v0.16b, v2.16b, v0.16b
  412830:	4ea38400 	add	v0.4s, v0.4s, v3.4s
  412834:	4ea18403 	add	v3.4s, v0.4s, v1.4s
  412838:	ad000e84 	stp	q4, q3, [x20]
  41283c:	6b0e01ff 	cmp	w15, w14
  412840:	54ffa6cc 	b.gt	411d18 <_Z19MD5Hash_simdversionPKNSt7__cxx1112basic_stringIcSt11char_traitsIcESaIcEEEP12__Uint32x4_t+0xd18>
  412844:	4f0707e7 	movi	v7.4s, #0xff
  412848:	d2800000 	mov	x0, #0x0                   	// #0
  41284c:	4f0727e6 	movi	v6.4s, #0xff, lsl #8
  412850:	4f0747e5 	movi	v5.4s, #0xff, lsl #16
  412854:	4f0767e4 	movi	v4.4s, #0xff, lsl #24
  412858:	4e271d00 	and	v0.16b, v8.16b, v7.16b
  41285c:	4e261d03 	and	v3.16b, v8.16b, v6.16b
  412860:	4e251d02 	and	v2.16b, v8.16b, v5.16b
  412864:	4e241d01 	and	v1.16b, v8.16b, v4.16b
  412868:	4f385400 	shl	v0.4s, v0.4s, #24
  41286c:	4f285463 	shl	v3.4s, v3.4s, #8
  412870:	6f380442 	ushr	v2.4s, v2.4s, #8
  412874:	6f280421 	ushr	v1.4s, v1.4s, #24
  412878:	4ea31c00 	orr	v0.16b, v0.16b, v3.16b
  41287c:	4ea21c00 	orr	v0.16b, v0.16b, v2.16b
  412880:	4ea11c00 	orr	v0.16b, v0.16b, v1.16b
  412884:	3ca06a80 	str	q0, [x20, x0]
  412888:	91004000 	add	x0, x0, #0x10
  41288c:	f101001f 	cmp	x0, #0x40
  412890:	54000060 	b.eq	41289c <_Z19MD5Hash_simdversionPKNSt7__cxx1112basic_stringIcSt11char_traitsIcESaIcEEEP12__Uint32x4_t+0x189c>  // b.none
  412894:	3ce06a88 	ldr	q8, [x20, x0]
  412898:	17fffff0 	b	412858 <_Z19MD5Hash_simdversionPKNSt7__cxx1112basic_stringIcSt11char_traitsIcESaIcEEEP12__Uint32x4_t+0x1858>
  41289c:	910343f3 	add	x19, sp, #0xd0
  4128a0:	f94002e0 	ldr	x0, [x23]
  4128a4:	910022f7 	add	x23, x23, #0x8
  4128a8:	b4000040 	cbz	x0, 4128b0 <_Z19MD5Hash_simdversionPKNSt7__cxx1112basic_stringIcSt11char_traitsIcESaIcEEEP12__Uint32x4_t+0x18b0>
  4128ac:	97ffbde1 	bl	402030 <_ZdaPv@plt>
  4128b0:	eb17027f 	cmp	x19, x23
  4128b4:	54ffff61 	b.ne	4128a0 <_Z19MD5Hash_simdversionPKNSt7__cxx1112basic_stringIcSt11char_traitsIcESaIcEEEP12__Uint32x4_t+0x18a0>  // b.any
  4128b8:	a9407bfd 	ldp	x29, x30, [sp]
  4128bc:	a94153f3 	ldp	x19, x20, [sp, #16]
  4128c0:	a9425bf5 	ldp	x21, x22, [sp, #32]
  4128c4:	a94363f7 	ldp	x23, x24, [sp, #48]
  4128c8:	a9446bf9 	ldp	x25, x26, [sp, #64]
  4128cc:	6d4527e8 	ldp	d8, d9, [sp, #80]
  4128d0:	6d462fea 	ldp	d10, d11, [sp, #96]
  4128d4:	6d4737ec 	ldp	d12, d13, [sp, #112]
  4128d8:	6d483fee 	ldp	d14, d15, [sp, #128]
  4128dc:	910ac3ff 	add	sp, sp, #0x2b0
  4128e0:	d65f03c0 	ret
  4128e4:	6d4527e8 	ldp	d8, d9, [sp, #80]
  4128e8:	6d462fea 	ldp	d10, d11, [sp, #96]
  4128ec:	6d4737ec 	ldp	d12, d13, [sp, #112]
  4128f0:	6d483fee 	ldp	d14, d15, [sp, #128]
  4128f4:	910343f6 	add	x22, sp, #0xd0
  4128f8:	f94002e0 	ldr	x0, [x23]
  4128fc:	910022f7 	add	x23, x23, #0x8
  412900:	b4000040 	cbz	x0, 412908 <_Z19MD5Hash_simdversionPKNSt7__cxx1112basic_stringIcSt11char_traitsIcESaIcEEEP12__Uint32x4_t+0x1908>
  412904:	97ffbdcb 	bl	402030 <_ZdaPv@plt>
  412908:	eb1702df 	cmp	x22, x23
  41290c:	54ffff61 	b.ne	4128f8 <_Z19MD5Hash_simdversionPKNSt7__cxx1112basic_stringIcSt11char_traitsIcESaIcEEEP12__Uint32x4_t+0x18f8>  // b.any
  412910:	aa1303f6 	mov	x22, x19
  412914:	aa1603e1 	mov	x1, x22
  412918:	aa1503e0 	mov	x0, x21
  41291c:	910082b5 	add	x21, x21, #0x20
  412920:	97fff6f1 	bl	4104e4 <_Z7MD5HashRKNSt7__cxx1112basic_stringIcSt11char_traitsIcESaIcEEEPj>
  412924:	910042d6 	add	x22, x22, #0x10
  412928:	eb15035f 	cmp	x26, x21
  41292c:	54ffff41 	b.ne	412914 <_Z19MD5Hash_simdversionPKNSt7__cxx1112basic_stringIcSt11char_traitsIcESaIcEEEP12__Uint32x4_t+0x1914>  // b.any
  412930:	910283e9 	add	x9, sp, #0xa0
  412934:	91010280 	add	x0, x20, #0x40
  412938:	b9400264 	ldr	w4, [x19]
  41293c:	91001273 	add	x19, x19, #0x4
  412940:	b9400e63 	ldr	w3, [x19, #12]
  412944:	b9401e62 	ldr	w2, [x19, #28]
  412948:	b9402e61 	ldr	w1, [x19, #44]
  41294c:	29140fe4 	stp	w4, w3, [sp, #160]
  412950:	291507e2 	stp	w2, w1, [sp, #168]
  412954:	3dc00120 	ldr	q0, [x9]
  412958:	3c810680 	str	q0, [x20], #16
  41295c:	eb14001f 	cmp	x0, x20
  412960:	54fffec1 	b.ne	412938 <_Z19MD5Hash_simdversionPKNSt7__cxx1112basic_stringIcSt11char_traitsIcESaIcEEEP12__Uint32x4_t+0x1938>  // b.any
  412964:	a94363f7 	ldp	x23, x24, [sp, #48]
  412968:	a9446bf9 	ldp	x25, x26, [sp, #64]
  41296c:	17fffcb1 	b	411c30 <_Z19MD5Hash_simdversionPKNSt7__cxx1112basic_stringIcSt11char_traitsIcESaIcEEEP12__Uint32x4_t+0xc30>
  412970:	4ea41c88 	mov	v8.16b, v4.16b
  412974:	17ffffb4 	b	412844 <_Z19MD5Hash_simdversionPKNSt7__cxx1112basic_stringIcSt11char_traitsIcESaIcEEEP12__Uint32x4_t+0x1844>

Disassembly of section .fini:

0000000000412978 <_fini>:
  412978:	d503201f 	nop
  41297c:	a9bf7bfd 	stp	x29, x30, [sp, #-16]!
  412980:	910003fd 	mov	x29, sp
  412984:	a8c17bfd 	ldp	x29, x30, [sp], #16
  412988:	d65f03c0 	ret
