
main_O2:     file format elf64-littleaarch64


Disassembly of section .init:

0000000000401d90 <_init>:
  401d90:	d503201f 	nop
  401d94:	a9bf7bfd 	stp	x29, x30, [sp, #-16]!
  401d98:	910003fd 	mov	x29, sp
  401d9c:	940005aa 	bl	403444 <call_weak_fn>
  401da0:	a8c17bfd 	ldp	x29, x30, [sp], #16
  401da4:	d65f03c0 	ret

Disassembly of section .plt:

0000000000401db0 <.plt>:
  401db0:	a9bf7bf0 	stp	x16, x30, [sp, #-16]!
  401db4:	d0000170 	adrp	x16, 42f000 <__FRAME_END__+0x1a5d8>
  401db8:	f947fe11 	ldr	x17, [x16, #4088]
  401dbc:	913fe210 	add	x16, x16, #0xff8
  401dc0:	d61f0220 	br	x17
  401dc4:	d503201f 	nop
  401dc8:	d503201f 	nop
  401dcc:	d503201f 	nop

0000000000401dd0 <_Znam@plt>:
  401dd0:	f0000170 	adrp	x16, 430000 <_Znam@GLIBCXX_3.4>
  401dd4:	f9400211 	ldr	x17, [x16]
  401dd8:	91000210 	add	x16, x16, #0x0
  401ddc:	d61f0220 	br	x17

0000000000401de0 <_ZNSo3putEc@plt>:
  401de0:	f0000170 	adrp	x16, 430000 <_Znam@GLIBCXX_3.4>
  401de4:	f9400611 	ldr	x17, [x16, #8]
  401de8:	91002210 	add	x16, x16, #0x8
  401dec:	d61f0220 	br	x17

0000000000401df0 <_ZNSt6chrono3_V212system_clock3nowEv@plt>:
  401df0:	f0000170 	adrp	x16, 430000 <_Znam@GLIBCXX_3.4>
  401df4:	f9400a11 	ldr	x17, [x16, #16]
  401df8:	91004210 	add	x16, x16, #0x10
  401dfc:	d61f0220 	br	x17

0000000000401e00 <memcpy@plt>:
  401e00:	f0000170 	adrp	x16, 430000 <_Znam@GLIBCXX_3.4>
  401e04:	f9400e11 	ldr	x17, [x16, #24]
  401e08:	91006210 	add	x16, x16, #0x18
  401e0c:	d61f0220 	br	x17

0000000000401e10 <_ZSt11_Hash_bytesPKvmm@plt>:
  401e10:	f0000170 	adrp	x16, 430000 <_Znam@GLIBCXX_3.4>
  401e14:	f9401211 	ldr	x17, [x16, #32]
  401e18:	91008210 	add	x16, x16, #0x20
  401e1c:	d61f0220 	br	x17

0000000000401e20 <_ZNSdD2Ev@plt>:
  401e20:	f0000170 	adrp	x16, 430000 <_Znam@GLIBCXX_3.4>
  401e24:	f9401611 	ldr	x17, [x16, #40]
  401e28:	9100a210 	add	x16, x16, #0x28
  401e2c:	d61f0220 	br	x17

0000000000401e30 <_ZNSt13basic_filebufIcSt11char_traitsIcEE5closeEv@plt>:
  401e30:	f0000170 	adrp	x16, 430000 <_Znam@GLIBCXX_3.4>
  401e34:	f9401a11 	ldr	x17, [x16, #48]
  401e38:	9100c210 	add	x16, x16, #0x30
  401e3c:	d61f0220 	br	x17

0000000000401e40 <_ZNSt14basic_ifstreamIcSt11char_traitsIcEED1Ev@plt>:
  401e40:	f0000170 	adrp	x16, 430000 <_Znam@GLIBCXX_3.4>
  401e44:	f9401e11 	ldr	x17, [x16, #56]
  401e48:	9100e210 	add	x16, x16, #0x38
  401e4c:	d61f0220 	br	x17

0000000000401e50 <_ZNKSt7__cxx1112basic_stringIcSt11char_traitsIcESaIcEE7compareEPKc@plt>:
  401e50:	f0000170 	adrp	x16, 430000 <_Znam@GLIBCXX_3.4>
  401e54:	f9402211 	ldr	x17, [x16, #64]
  401e58:	91010210 	add	x16, x16, #0x40
  401e5c:	d61f0220 	br	x17

0000000000401e60 <_ZNSt8ios_baseC2Ev@plt>:
  401e60:	f0000170 	adrp	x16, 430000 <_Znam@GLIBCXX_3.4>
  401e64:	f9402611 	ldr	x17, [x16, #72]
  401e68:	91012210 	add	x16, x16, #0x48
  401e6c:	d61f0220 	br	x17

0000000000401e70 <strlen@plt>:
  401e70:	f0000170 	adrp	x16, 430000 <_Znam@GLIBCXX_3.4>
  401e74:	f9402a11 	ldr	x17, [x16, #80]
  401e78:	91014210 	add	x16, x16, #0x50
  401e7c:	d61f0220 	br	x17

0000000000401e80 <_ZNSt7__cxx1112basic_stringIcSt11char_traitsIcESaIcEE9_M_appendEPKcm@plt>:
  401e80:	f0000170 	adrp	x16, 430000 <_Znam@GLIBCXX_3.4>
  401e84:	f9402e11 	ldr	x17, [x16, #88]
  401e88:	91016210 	add	x16, x16, #0x58
  401e8c:	d61f0220 	br	x17

0000000000401e90 <_ZNSt8ios_baseD2Ev@plt>:
  401e90:	f0000170 	adrp	x16, 430000 <_Znam@GLIBCXX_3.4>
  401e94:	f9403211 	ldr	x17, [x16, #96]
  401e98:	91018210 	add	x16, x16, #0x60
  401e9c:	d61f0220 	br	x17

0000000000401ea0 <_ZSt17__throw_bad_allocv@plt>:
  401ea0:	f0000170 	adrp	x16, 430000 <_Znam@GLIBCXX_3.4>
  401ea4:	f9403611 	ldr	x17, [x16, #104]
  401ea8:	9101a210 	add	x16, x16, #0x68
  401eac:	d61f0220 	br	x17

0000000000401eb0 <__cxa_begin_catch@plt>:
  401eb0:	f0000170 	adrp	x16, 430000 <_Znam@GLIBCXX_3.4>
  401eb4:	f9403a11 	ldr	x17, [x16, #112]
  401eb8:	9101c210 	add	x16, x16, #0x70
  401ebc:	d61f0220 	br	x17

0000000000401ec0 <memcmp@plt>:
  401ec0:	f0000170 	adrp	x16, 430000 <_Znam@GLIBCXX_3.4>
  401ec4:	f9403e11 	ldr	x17, [x16, #120]
  401ec8:	9101e210 	add	x16, x16, #0x78
  401ecc:	d61f0220 	br	x17

0000000000401ed0 <_ZSt20__throw_length_errorPKc@plt>:
  401ed0:	f0000170 	adrp	x16, 430000 <_Znam@GLIBCXX_3.4>
  401ed4:	f9404211 	ldr	x17, [x16, #128]
  401ed8:	91020210 	add	x16, x16, #0x80
  401edc:	d61f0220 	br	x17

0000000000401ee0 <_ZNSt7__cxx1112basic_stringIcSt11char_traitsIcESaIcEE9_M_assignERKS4_@plt>:
  401ee0:	f0000170 	adrp	x16, 430000 <_Znam@GLIBCXX_3.4>
  401ee4:	f9404611 	ldr	x17, [x16, #136]
  401ee8:	91022210 	add	x16, x16, #0x88
  401eec:	d61f0220 	br	x17

0000000000401ef0 <memset@plt>:
  401ef0:	f0000170 	adrp	x16, 430000 <_Znam@GLIBCXX_3.4>
  401ef4:	f9404a11 	ldr	x17, [x16, #144]
  401ef8:	91024210 	add	x16, x16, #0x90
  401efc:	d61f0220 	br	x17

0000000000401f00 <_ZNSo9_M_insertImEERSoT_@plt>:
  401f00:	f0000170 	adrp	x16, 430000 <_Znam@GLIBCXX_3.4>
  401f04:	f9404e11 	ldr	x17, [x16, #152]
  401f08:	91026210 	add	x16, x16, #0x98
  401f0c:	d61f0220 	br	x17

0000000000401f10 <_ZNSo5flushEv@plt>:
  401f10:	f0000170 	adrp	x16, 430000 <_Znam@GLIBCXX_3.4>
  401f14:	f9405211 	ldr	x17, [x16, #160]
  401f18:	91028210 	add	x16, x16, #0xa0
  401f1c:	d61f0220 	br	x17

0000000000401f20 <_ZSt19__throw_logic_errorPKc@plt>:
  401f20:	f0000170 	adrp	x16, 430000 <_Znam@GLIBCXX_3.4>
  401f24:	f9405611 	ldr	x17, [x16, #168]
  401f28:	9102a210 	add	x16, x16, #0xa8
  401f2c:	d61f0220 	br	x17

0000000000401f30 <_ZNSt7__cxx1112basic_stringIcSt11char_traitsIcESaIcEE4swapERS4_@plt>:
  401f30:	f0000170 	adrp	x16, 430000 <_Znam@GLIBCXX_3.4>
  401f34:	f9405a11 	ldr	x17, [x16, #176]
  401f38:	9102c210 	add	x16, x16, #0xb0
  401f3c:	d61f0220 	br	x17

0000000000401f40 <__libc_start_main@plt>:
  401f40:	f0000170 	adrp	x16, 430000 <_Znam@GLIBCXX_3.4>
  401f44:	f9405e11 	ldr	x17, [x16, #184]
  401f48:	9102e210 	add	x16, x16, #0xb8
  401f4c:	d61f0220 	br	x17

0000000000401f50 <_ZNSt7__cxx1118basic_stringstreamIcSt11char_traitsIcESaIcEED1Ev@plt>:
  401f50:	f0000170 	adrp	x16, 430000 <_Znam@GLIBCXX_3.4>
  401f54:	f9406211 	ldr	x17, [x16, #192]
  401f58:	91030210 	add	x16, x16, #0xc0
  401f5c:	d61f0220 	br	x17

0000000000401f60 <_ZNSt13basic_filebufIcSt11char_traitsIcEE4openEPKcSt13_Ios_Openmode@plt>:
  401f60:	f0000170 	adrp	x16, 430000 <_Znam@GLIBCXX_3.4>
  401f64:	f9406611 	ldr	x17, [x16, #200]
  401f68:	91032210 	add	x16, x16, #0xc8
  401f6c:	d61f0220 	br	x17

0000000000401f70 <_ZStlsISt11char_traitsIcEERSt13basic_ostreamIcT_ES5_PKc@plt>:
  401f70:	f0000170 	adrp	x16, 430000 <_Znam@GLIBCXX_3.4>
  401f74:	f9406a11 	ldr	x17, [x16, #208]
  401f78:	91034210 	add	x16, x16, #0xd0
  401f7c:	d61f0220 	br	x17

0000000000401f80 <_Znwm@plt>:
  401f80:	f0000170 	adrp	x16, 430000 <_Znam@GLIBCXX_3.4>
  401f84:	f9406e11 	ldr	x17, [x16, #216]
  401f88:	91036210 	add	x16, x16, #0xd8
  401f8c:	d61f0220 	br	x17

0000000000401f90 <_ZdlPvm@plt>:
  401f90:	f0000170 	adrp	x16, 430000 <_Znam@GLIBCXX_3.4>
  401f94:	f9407211 	ldr	x17, [x16, #224]
  401f98:	91038210 	add	x16, x16, #0xe0
  401f9c:	d61f0220 	br	x17

0000000000401fa0 <_ZNSt13basic_filebufIcSt11char_traitsIcEEC1Ev@plt>:
  401fa0:	f0000170 	adrp	x16, 430000 <_Znam@GLIBCXX_3.4>
  401fa4:	f9407611 	ldr	x17, [x16, #232]
  401fa8:	9103a210 	add	x16, x16, #0xe8
  401fac:	d61f0220 	br	x17

0000000000401fb0 <__cxa_atexit@plt>:
  401fb0:	f0000170 	adrp	x16, 430000 <_Znam@GLIBCXX_3.4>
  401fb4:	f9407a11 	ldr	x17, [x16, #240]
  401fb8:	9103c210 	add	x16, x16, #0xf0
  401fbc:	d61f0220 	br	x17

0000000000401fc0 <_ZSt16__ostream_insertIcSt11char_traitsIcEERSt13basic_ostreamIT_T0_ES6_PKS3_l@plt>:
  401fc0:	f0000170 	adrp	x16, 430000 <_Znam@GLIBCXX_3.4>
  401fc4:	f9407e11 	ldr	x17, [x16, #248]
  401fc8:	9103e210 	add	x16, x16, #0xf8
  401fcc:	d61f0220 	br	x17

0000000000401fd0 <_ZNKSt5ctypeIcE13_M_widen_initEv@plt>:
  401fd0:	f0000170 	adrp	x16, 430000 <_Znam@GLIBCXX_3.4>
  401fd4:	f9408211 	ldr	x17, [x16, #256]
  401fd8:	91040210 	add	x16, x16, #0x100
  401fdc:	d61f0220 	br	x17

0000000000401fe0 <_ZNSt7__cxx1112basic_stringIcSt11char_traitsIcESaIcEE10_M_disposeEv@plt>:
  401fe0:	f0000170 	adrp	x16, 430000 <_Znam@GLIBCXX_3.4>
  401fe4:	f9408611 	ldr	x17, [x16, #264]
  401fe8:	91042210 	add	x16, x16, #0x108
  401fec:	d61f0220 	br	x17

0000000000401ff0 <memmove@plt>:
  401ff0:	f0000170 	adrp	x16, 430000 <_Znam@GLIBCXX_3.4>
  401ff4:	f9408a11 	ldr	x17, [x16, #272]
  401ff8:	91044210 	add	x16, x16, #0x110
  401ffc:	d61f0220 	br	x17

0000000000402000 <_ZSt16__throw_bad_castv@plt>:
  402000:	d0000170 	adrp	x16, 430000 <_Znam@GLIBCXX_3.4>
  402004:	f9408e11 	ldr	x17, [x16, #280]
  402008:	91046210 	add	x16, x16, #0x118
  40200c:	d61f0220 	br	x17

0000000000402010 <isalpha@plt>:
  402010:	d0000170 	adrp	x16, 430000 <_Znam@GLIBCXX_3.4>
  402014:	f9409211 	ldr	x17, [x16, #288]
  402018:	91048210 	add	x16, x16, #0x120
  40201c:	d61f0220 	br	x17

0000000000402020 <_ZStrsIcSt11char_traitsIcESaIcEERSt13basic_istreamIT_T0_ES7_RNSt7__cxx1112basic_stringIS4_S5_T1_EE@plt>:
  402020:	d0000170 	adrp	x16, 430000 <_Znam@GLIBCXX_3.4>
  402024:	f9409611 	ldr	x17, [x16, #296]
  402028:	9104a210 	add	x16, x16, #0x128
  40202c:	d61f0220 	br	x17

0000000000402030 <_ZdaPv@plt>:
  402030:	d0000170 	adrp	x16, 430000 <_Znam@GLIBCXX_3.4>
  402034:	f9409a11 	ldr	x17, [x16, #304]
  402038:	9104c210 	add	x16, x16, #0x130
  40203c:	d61f0220 	br	x17

0000000000402040 <_ZNKSt8__detail20_Prime_rehash_policy14_M_need_rehashEmmm@plt>:
  402040:	d0000170 	adrp	x16, 430000 <_Znam@GLIBCXX_3.4>
  402044:	f9409e11 	ldr	x17, [x16, #312]
  402048:	9104e210 	add	x16, x16, #0x138
  40204c:	d61f0220 	br	x17

0000000000402050 <_ZNSt9basic_iosIcSt11char_traitsIcEE4initEPSt15basic_streambufIcS1_E@plt>:
  402050:	d0000170 	adrp	x16, 430000 <_Znam@GLIBCXX_3.4>
  402054:	f940a211 	ldr	x17, [x16, #320]
  402058:	91050210 	add	x16, x16, #0x140
  40205c:	d61f0220 	br	x17

0000000000402060 <_ZNSt6localeD1Ev@plt>:
  402060:	d0000170 	adrp	x16, 430000 <_Znam@GLIBCXX_3.4>
  402064:	f940a611 	ldr	x17, [x16, #328]
  402068:	91052210 	add	x16, x16, #0x148
  40206c:	d61f0220 	br	x17

0000000000402070 <_ZSt20__throw_out_of_rangePKc@plt>:
  402070:	d0000170 	adrp	x16, 430000 <_Znam@GLIBCXX_3.4>
  402074:	f940aa11 	ldr	x17, [x16, #336]
  402078:	91054210 	add	x16, x16, #0x150
  40207c:	d61f0220 	br	x17

0000000000402080 <__cxa_rethrow@plt>:
  402080:	d0000170 	adrp	x16, 430000 <_Znam@GLIBCXX_3.4>
  402084:	f940ae11 	ldr	x17, [x16, #344]
  402088:	91056210 	add	x16, x16, #0x158
  40208c:	d61f0220 	br	x17

0000000000402090 <_ZNSt8ios_base4InitC1Ev@plt>:
  402090:	d0000170 	adrp	x16, 430000 <_Znam@GLIBCXX_3.4>
  402094:	f940b211 	ldr	x17, [x16, #352]
  402098:	91058210 	add	x16, x16, #0x160
  40209c:	d61f0220 	br	x17

00000000004020a0 <_ZNSt7__cxx1112basic_stringIcSt11char_traitsIcESaIcEE10_M_replaceEmmPKcm@plt>:
  4020a0:	d0000170 	adrp	x16, 430000 <_Znam@GLIBCXX_3.4>
  4020a4:	f940b611 	ldr	x17, [x16, #360]
  4020a8:	9105a210 	add	x16, x16, #0x168
  4020ac:	d61f0220 	br	x17

00000000004020b0 <_ZNSt13basic_filebufIcSt11char_traitsIcEED1Ev@plt>:
  4020b0:	d0000170 	adrp	x16, 430000 <_Znam@GLIBCXX_3.4>
  4020b4:	f940ba11 	ldr	x17, [x16, #368]
  4020b8:	9105c210 	add	x16, x16, #0x170
  4020bc:	d61f0220 	br	x17

00000000004020c0 <abort@plt>:
  4020c0:	d0000170 	adrp	x16, 430000 <_Znam@GLIBCXX_3.4>
  4020c4:	f940be11 	ldr	x17, [x16, #376]
  4020c8:	9105e210 	add	x16, x16, #0x178
  4020cc:	d61f0220 	br	x17

00000000004020d0 <_ZNSo9_M_insertIdEERSoT_@plt>:
  4020d0:	d0000170 	adrp	x16, 430000 <_Znam@GLIBCXX_3.4>
  4020d4:	f940c211 	ldr	x17, [x16, #384]
  4020d8:	91060210 	add	x16, x16, #0x180
  4020dc:	d61f0220 	br	x17

00000000004020e0 <__cxa_end_catch@plt>:
  4020e0:	d0000170 	adrp	x16, 430000 <_Znam@GLIBCXX_3.4>
  4020e4:	f940c611 	ldr	x17, [x16, #392]
  4020e8:	91062210 	add	x16, x16, #0x188
  4020ec:	d61f0220 	br	x17

00000000004020f0 <__gxx_personality_v0@plt>:
  4020f0:	d0000170 	adrp	x16, 430000 <_Znam@GLIBCXX_3.4>
  4020f4:	f940ca11 	ldr	x17, [x16, #400]
  4020f8:	91064210 	add	x16, x16, #0x190
  4020fc:	d61f0220 	br	x17

0000000000402100 <_ZNSt9basic_iosIcSt11char_traitsIcEE5clearESt12_Ios_Iostate@plt>:
  402100:	d0000170 	adrp	x16, 430000 <_Znam@GLIBCXX_3.4>
  402104:	f940ce11 	ldr	x17, [x16, #408]
  402108:	91066210 	add	x16, x16, #0x198
  40210c:	d61f0220 	br	x17

0000000000402110 <_ZNSolsEi@plt>:
  402110:	d0000170 	adrp	x16, 430000 <_Znam@GLIBCXX_3.4>
  402114:	f940d211 	ldr	x17, [x16, #416]
  402118:	91068210 	add	x16, x16, #0x1a0
  40211c:	d61f0220 	br	x17

0000000000402120 <_Unwind_Resume@plt>:
  402120:	d0000170 	adrp	x16, 430000 <_Znam@GLIBCXX_3.4>
  402124:	f940d611 	ldr	x17, [x16, #424]
  402128:	9106a210 	add	x16, x16, #0x1a8
  40212c:	d61f0220 	br	x17

0000000000402130 <_ZNSt7__cxx1112basic_stringIcSt11char_traitsIcESaIcEE9_M_createERmm@plt>:
  402130:	d0000170 	adrp	x16, 430000 <_Znam@GLIBCXX_3.4>
  402134:	f940da11 	ldr	x17, [x16, #432]
  402138:	9106c210 	add	x16, x16, #0x1b0
  40213c:	d61f0220 	br	x17

0000000000402140 <_ZNSt7__cxx1112basic_stringIcSt11char_traitsIcESaIcEE9_M_mutateEmmPKcm@plt>:
  402140:	d0000170 	adrp	x16, 430000 <_Znam@GLIBCXX_3.4>
  402144:	f940de11 	ldr	x17, [x16, #440]
  402148:	9106e210 	add	x16, x16, #0x1b8
  40214c:	d61f0220 	br	x17

0000000000402150 <_ZNSt12__basic_fileIcED1Ev@plt>:
  402150:	d0000170 	adrp	x16, 430000 <_Znam@GLIBCXX_3.4>
  402154:	f940e211 	ldr	x17, [x16, #448]
  402158:	91070210 	add	x16, x16, #0x1c0
  40215c:	d61f0220 	br	x17

0000000000402160 <__gmon_start__@plt>:
  402160:	d0000170 	adrp	x16, 430000 <_Znam@GLIBCXX_3.4>
  402164:	f940e611 	ldr	x17, [x16, #456]
  402168:	91072210 	add	x16, x16, #0x1c8
  40216c:	d61f0220 	br	x17

0000000000402170 <_ZNSt6localeC1Ev@plt>:
  402170:	d0000170 	adrp	x16, 430000 <_Znam@GLIBCXX_3.4>
  402174:	f940ea11 	ldr	x17, [x16, #464]
  402178:	91074210 	add	x16, x16, #0x1d0
  40217c:	d61f0220 	br	x17

0000000000402180 <_ZNSt8ios_base4InitD1Ev@plt>:
  402180:	d0000170 	adrp	x16, 430000 <_Znam@GLIBCXX_3.4>
  402184:	f940ee11 	ldr	x17, [x16, #472]
  402188:	91076210 	add	x16, x16, #0x1d8
  40218c:	d61f0220 	br	x17

Disassembly of section .text:

00000000004021c0 <main>:
  4021c0:	d10e83ff 	sub	sp, sp, #0x3a0
  4021c4:	a9007bfd 	stp	x29, x30, [sp]
  4021c8:	910003fd 	mov	x29, sp
  4021cc:	a90153f3 	stp	x19, x20, [sp, #16]
  4021d0:	a9025bf5 	stp	x21, x22, [sp, #32]
  4021d4:	a90363f7 	stp	x23, x24, [sp, #48]
  4021d8:	a9046bf9 	stp	x25, x26, [sp, #64]
  4021dc:	a90573fb 	stp	x27, x28, [sp, #80]
  4021e0:	6d0627e8 	stp	d8, d9, [sp, #96]
  4021e4:	7100041f 	cmp	w0, #0x1
  4021e8:	54007ced 	b.le	403184 <main+0xfc4>
  4021ec:	51000800 	sub	w0, w0, #0x2
  4021f0:	91004022 	add	x2, x1, #0x10
  4021f4:	9107e3fc 	add	x28, sp, #0x1f8
  4021f8:	90000098 	adrp	x24, 412000 <_Z19MD5Hash_simdversionPKNSt7__cxx1112basic_stringIcSt11char_traitsIcESaIcEEEP12__Uint32x4_t+0x1000>
  4021fc:	91002034 	add	x20, x1, #0x8
  402200:	8b204c57 	add	x23, x2, w0, uxtw #3
  402204:	91004396 	add	x22, x28, #0x10
  402208:	91272318 	add	x24, x24, #0x9c8
  40220c:	d503201f 	nop
  402210:	f9400295 	ldr	x21, [x20]
  402214:	f900fff6 	str	x22, [sp, #504]
  402218:	b4007c15 	cbz	x21, 403198 <main+0xfd8>
  40221c:	aa1503e0 	mov	x0, x21
  402220:	97ffff14 	bl	401e70 <strlen@plt>
  402224:	f900dbe0 	str	x0, [sp, #432]
  402228:	aa0003f3 	mov	x19, x0
  40222c:	f1003c1f 	cmp	x0, #0xf
  402230:	54004ea8 	b.hi	402c04 <main+0xa44>  // b.pmore
  402234:	f100041f 	cmp	x0, #0x1
  402238:	54004e01 	b.ne	402bf8 <main+0xa38>  // b.any
  40223c:	394002a1 	ldrb	w1, [x21]
  402240:	aa1603e0 	mov	x0, x22
  402244:	390823e1 	strb	w1, [sp, #520]
  402248:	f90103f3 	str	x19, [sp, #512]
  40224c:	aa1803e1 	mov	x1, x24
  402250:	3833681f 	strb	wzr, [x0, x19]
  402254:	aa1c03e0 	mov	x0, x28
  402258:	97fffefe 	bl	401e50 <_ZNKSt7__cxx1112basic_stringIcSt11char_traitsIcESaIcEE7compareEPKc@plt>
  40225c:	2a0003f3 	mov	w19, w0
  402260:	f940ffe2 	ldr	x2, [sp, #504]
  402264:	eb16005f 	cmp	x2, x22
  402268:	540000a0 	b.eq	40227c <main+0xbc>  // b.none
  40226c:	f94107e1 	ldr	x1, [sp, #520]
  402270:	aa0203e0 	mov	x0, x2
  402274:	91000421 	add	x1, x1, #0x1
  402278:	97ffff46 	bl	401f90 <_ZdlPvm@plt>
  40227c:	34006ed3 	cbz	w19, 403054 <main+0xe94>
  402280:	91002294 	add	x20, x20, #0x8
  402284:	eb17029f 	cmp	x20, x23
  402288:	54fffc41 	b.ne	402210 <main+0x50>  // b.any
  40228c:	52800020 	mov	w0, #0x1                   	// #1
  402290:	b9011fe0 	str	w0, [sp, #284]
  402294:	aa1c03e0 	mov	x0, x28
  402298:	90000081 	adrp	x1, 412000 <_Z19MD5Hash_simdversionPKNSt7__cxx1112basic_stringIcSt11char_traitsIcESaIcEEEP12__Uint32x4_t+0x1000>
  40229c:	91276021 	add	x1, x1, #0x9d8
  4022a0:	9400049c 	bl	403510 <_ZNSt7__cxx1112basic_stringIcSt11char_traitsIcESaIcEEC2EPKcRKS3_.constprop.0>
  4022a4:	91008380 	add	x0, x28, #0x20
  4022a8:	90000081 	adrp	x1, 412000 <_Z19MD5Hash_simdversionPKNSt7__cxx1112basic_stringIcSt11char_traitsIcESaIcEEEP12__Uint32x4_t+0x1000>
  4022ac:	91278021 	add	x1, x1, #0x9e0
  4022b0:	94000498 	bl	403510 <_ZNSt7__cxx1112basic_stringIcSt11char_traitsIcESaIcEEC2EPKcRKS3_.constprop.0>
  4022b4:	91010380 	add	x0, x28, #0x40
  4022b8:	90000081 	adrp	x1, 412000 <_Z19MD5Hash_simdversionPKNSt7__cxx1112basic_stringIcSt11char_traitsIcESaIcEEEP12__Uint32x4_t+0x1000>
  4022bc:	9127c021 	add	x1, x1, #0x9f0
  4022c0:	94000494 	bl	403510 <_ZNSt7__cxx1112basic_stringIcSt11char_traitsIcESaIcEEC2EPKcRKS3_.constprop.0>
  4022c4:	91018380 	add	x0, x28, #0x60
  4022c8:	90000081 	adrp	x1, 412000 <_Z19MD5Hash_simdversionPKNSt7__cxx1112basic_stringIcSt11char_traitsIcESaIcEEEP12__Uint32x4_t+0x1000>
  4022cc:	91280021 	add	x1, x1, #0xa00
  4022d0:	94000490 	bl	403510 <_ZNSt7__cxx1112basic_stringIcSt11char_traitsIcESaIcEEC2EPKcRKS3_.constprop.0>
  4022d4:	91020380 	add	x0, x28, #0x80
  4022d8:	90000081 	adrp	x1, 412000 <_Z19MD5Hash_simdversionPKNSt7__cxx1112basic_stringIcSt11char_traitsIcESaIcEEEP12__Uint32x4_t+0x1000>
  4022dc:	91282021 	add	x1, x1, #0xa08
  4022e0:	9400048c 	bl	403510 <_ZNSt7__cxx1112basic_stringIcSt11char_traitsIcESaIcEEC2EPKcRKS3_.constprop.0>
  4022e4:	91028380 	add	x0, x28, #0xa0
  4022e8:	90000081 	adrp	x1, 412000 <_Z19MD5Hash_simdversionPKNSt7__cxx1112basic_stringIcSt11char_traitsIcESaIcEEEP12__Uint32x4_t+0x1000>
  4022ec:	91286021 	add	x1, x1, #0xa18
  4022f0:	94000488 	bl	403510 <_ZNSt7__cxx1112basic_stringIcSt11char_traitsIcESaIcEEC2EPKcRKS3_.constprop.0>
  4022f4:	91030380 	add	x0, x28, #0xc0
  4022f8:	90000081 	adrp	x1, 412000 <_Z19MD5Hash_simdversionPKNSt7__cxx1112basic_stringIcSt11char_traitsIcESaIcEEEP12__Uint32x4_t+0x1000>
  4022fc:	91288021 	add	x1, x1, #0xa20
  402300:	94000484 	bl	403510 <_ZNSt7__cxx1112basic_stringIcSt11char_traitsIcESaIcEEC2EPKcRKS3_.constprop.0>
  402304:	91038380 	add	x0, x28, #0xe0
  402308:	90000081 	adrp	x1, 412000 <_Z19MD5Hash_simdversionPKNSt7__cxx1112basic_stringIcSt11char_traitsIcESaIcEEEP12__Uint32x4_t+0x1000>
  40230c:	9128a021 	add	x1, x1, #0xa28
  402310:	94000480 	bl	403510 <_ZNSt7__cxx1112basic_stringIcSt11char_traitsIcESaIcEEC2EPKcRKS3_.constprop.0>
  402314:	9106c3e3 	add	x3, sp, #0x1b0
  402318:	910483e0 	add	x0, sp, #0x120
  40231c:	aa1c03e1 	mov	x1, x28
  402320:	d2800102 	mov	x2, #0x8                   	// #8
  402324:	94000523 	bl	4037b0 <_ZNSt6vectorINSt7__cxx1112basic_stringIcSt11char_traitsIcESaIcEEESaIS5_EEC1ESt16initializer_listIS5_ERKS6_>
  402328:	91038393 	add	x19, x28, #0xe0
  40232c:	14000002 	b	402334 <main+0x174>
  402330:	aa0003f3 	mov	x19, x0
  402334:	aa1303e1 	mov	x1, x19
  402338:	f8410420 	ldr	x0, [x1], #16
  40233c:	eb01001f 	cmp	x0, x1
  402340:	54000080 	b.eq	402350 <main+0x190>  // b.none
  402344:	f9400a61 	ldr	x1, [x19, #16]
  402348:	91000421 	add	x1, x1, #0x1
  40234c:	97ffff11 	bl	401f90 <_ZdlPvm@plt>
  402350:	d1008260 	sub	x0, x19, #0x20
  402354:	eb13039f 	cmp	x28, x19
  402358:	54fffec1 	b.ne	402330 <main+0x170>  // b.any
  40235c:	90000081 	adrp	x1, 412000 <_Z19MD5Hash_simdversionPKNSt7__cxx1112basic_stringIcSt11char_traitsIcESaIcEEEP12__Uint32x4_t+0x1000>
  402360:	aa1c03e0 	mov	x0, x28
  402364:	9128c021 	add	x1, x1, #0xa30
  402368:	9400046a 	bl	403510 <_ZNSt7__cxx1112basic_stringIcSt11char_traitsIcESaIcEEC2EPKcRKS3_.constprop.0>
  40236c:	90000081 	adrp	x1, 412000 <_Z19MD5Hash_simdversionPKNSt7__cxx1112basic_stringIcSt11char_traitsIcESaIcEEEP12__Uint32x4_t+0x1000>
  402370:	91008380 	add	x0, x28, #0x20
  402374:	91296021 	add	x1, x1, #0xa58
  402378:	94000466 	bl	403510 <_ZNSt7__cxx1112basic_stringIcSt11char_traitsIcESaIcEEC2EPKcRKS3_.constprop.0>
  40237c:	90000081 	adrp	x1, 412000 <_Z19MD5Hash_simdversionPKNSt7__cxx1112basic_stringIcSt11char_traitsIcESaIcEEEP12__Uint32x4_t+0x1000>
  402380:	91010380 	add	x0, x28, #0x40
  402384:	912a0021 	add	x1, x1, #0xa80
  402388:	94000462 	bl	403510 <_ZNSt7__cxx1112basic_stringIcSt11char_traitsIcESaIcEEC2EPKcRKS3_.constprop.0>
  40238c:	90000081 	adrp	x1, 412000 <_Z19MD5Hash_simdversionPKNSt7__cxx1112basic_stringIcSt11char_traitsIcESaIcEEEP12__Uint32x4_t+0x1000>
  402390:	91018380 	add	x0, x28, #0x60
  402394:	912aa021 	add	x1, x1, #0xaa8
  402398:	9400045e 	bl	403510 <_ZNSt7__cxx1112basic_stringIcSt11char_traitsIcESaIcEEC2EPKcRKS3_.constprop.0>
  40239c:	90000081 	adrp	x1, 412000 <_Z19MD5Hash_simdversionPKNSt7__cxx1112basic_stringIcSt11char_traitsIcESaIcEEEP12__Uint32x4_t+0x1000>
  4023a0:	91020380 	add	x0, x28, #0x80
  4023a4:	912b4021 	add	x1, x1, #0xad0
  4023a8:	9400045a 	bl	403510 <_ZNSt7__cxx1112basic_stringIcSt11char_traitsIcESaIcEEC2EPKcRKS3_.constprop.0>
  4023ac:	90000081 	adrp	x1, 412000 <_Z19MD5Hash_simdversionPKNSt7__cxx1112basic_stringIcSt11char_traitsIcESaIcEEEP12__Uint32x4_t+0x1000>
  4023b0:	91028380 	add	x0, x28, #0xa0
  4023b4:	912be021 	add	x1, x1, #0xaf8
  4023b8:	94000456 	bl	403510 <_ZNSt7__cxx1112basic_stringIcSt11char_traitsIcESaIcEEC2EPKcRKS3_.constprop.0>
  4023bc:	90000081 	adrp	x1, 412000 <_Z19MD5Hash_simdversionPKNSt7__cxx1112basic_stringIcSt11char_traitsIcESaIcEEEP12__Uint32x4_t+0x1000>
  4023c0:	91030380 	add	x0, x28, #0xc0
  4023c4:	912c8021 	add	x1, x1, #0xb20
  4023c8:	94000452 	bl	403510 <_ZNSt7__cxx1112basic_stringIcSt11char_traitsIcESaIcEEC2EPKcRKS3_.constprop.0>
  4023cc:	90000081 	adrp	x1, 412000 <_Z19MD5Hash_simdversionPKNSt7__cxx1112basic_stringIcSt11char_traitsIcESaIcEEEP12__Uint32x4_t+0x1000>
  4023d0:	91038380 	add	x0, x28, #0xe0
  4023d4:	912d2021 	add	x1, x1, #0xb48
  4023d8:	9400044e 	bl	403510 <_ZNSt7__cxx1112basic_stringIcSt11char_traitsIcESaIcEEC2EPKcRKS3_.constprop.0>
  4023dc:	9106c3e3 	add	x3, sp, #0x1b0
  4023e0:	9104e3e0 	add	x0, sp, #0x138
  4023e4:	aa1c03e1 	mov	x1, x28
  4023e8:	d2800102 	mov	x2, #0x8                   	// #8
  4023ec:	940004f1 	bl	4037b0 <_ZNSt6vectorINSt7__cxx1112basic_stringIcSt11char_traitsIcESaIcEEESaIS5_EEC1ESt16initializer_listIS5_ERKS6_>
  4023f0:	91038393 	add	x19, x28, #0xe0
  4023f4:	14000002 	b	4023fc <main+0x23c>
  4023f8:	aa0003f3 	mov	x19, x0
  4023fc:	aa1303e1 	mov	x1, x19
  402400:	f8410420 	ldr	x0, [x1], #16
  402404:	eb01001f 	cmp	x0, x1
  402408:	54000080 	b.eq	402418 <main+0x258>  // b.none
  40240c:	f9400a61 	ldr	x1, [x19, #16]
  402410:	91000421 	add	x1, x1, #0x1
  402414:	97fffedf 	bl	401f90 <_ZdlPvm@plt>
  402418:	d1008260 	sub	x0, x19, #0x20
  40241c:	eb1c027f 	cmp	x19, x28
  402420:	54fffec1 	b.ne	4023f8 <main+0x238>  // b.any
  402424:	d0000160 	adrp	x0, 430000 <_Znam@GLIBCXX_3.4>
  402428:	90000081 	adrp	x1, 412000 <_Z19MD5Hash_simdversionPKNSt7__cxx1112basic_stringIcSt11char_traitsIcESaIcEEEP12__Uint32x4_t+0x1000>
  40242c:	91080000 	add	x0, x0, #0x200
  402430:	912dc021 	add	x1, x1, #0xb70
  402434:	f9007fe0 	str	x0, [sp, #248]
  402438:	97fffece 	bl	401f70 <_ZStlsISt11char_traitsIcEERSt13basic_ostreamIcT_ES5_PKc@plt>
  40243c:	94000462 	bl	4035c4 <_ZSt4endlIcSt11char_traitsIcEERSt13basic_ostreamIT_T0_ES6_.isra.0>
  402440:	a95207e0 	ldp	x0, x1, [sp, #288]
  402444:	9105c3e2 	add	x2, sp, #0x170
  402448:	a90a7fe2 	stp	x2, xzr, [sp, #160]
  40244c:	eb00003f 	cmp	x1, x0
  402450:	54002100 	b.eq	402870 <main+0x6b0>  // b.none
  402454:	b0000162 	adrp	x2, 42f000 <__FRAME_END__+0x1a5d8>
  402458:	b0000001 	adrp	x1, 403000 <main+0xe40>
  40245c:	912c0042 	add	x2, x2, #0xb00
  402460:	91194021 	add	x1, x1, #0x650
  402464:	f9005fe2 	str	x2, [sp, #184]
  402468:	f90073e1 	str	x1, [sp, #224]
  40246c:	d503201f 	nop
  402470:	f94057e1 	ldr	x1, [sp, #168]
  402474:	d37be821 	lsl	x1, x1, #5
  402478:	aa0103e2 	mov	x2, x1
  40247c:	8b010000 	add	x0, x0, x1
  402480:	f94053e1 	ldr	x1, [sp, #160]
  402484:	f9005be2 	str	x2, [sp, #176]
  402488:	94003817 	bl	4104e4 <_Z7MD5HashRKNSt7__cxx1112basic_stringIcSt11char_traitsIcESaIcEEEPj>
  40248c:	91020380 	add	x0, x28, #0x80
  402490:	97fffe74 	bl	401e60 <_ZNSt8ios_baseC2Ev@plt>
  402494:	b0000160 	adrp	x0, 42f000 <__FRAME_END__+0x1a5d8>
  402498:	912c4013 	add	x19, x0, #0xb10
  40249c:	7906b3ff 	strh	wzr, [sp, #856]
  4024a0:	d2800001 	mov	x1, #0x0                   	// #0
  4024a4:	f9405fe0 	ldr	x0, [sp, #184]
  4024a8:	f9013fe0 	str	x0, [sp, #632]
  4024ac:	a9410a76 	ldp	x22, x2, [x19, #16]
  4024b0:	f900fff6 	str	x22, [sp, #504]
  4024b4:	f901abff 	str	xzr, [sp, #848]
  4024b8:	f901b3ff 	str	xzr, [sp, #864]
  4024bc:	f90063e2 	str	x2, [sp, #192]
  4024c0:	f85e82c0 	ldur	x0, [x22, #-24]
  4024c4:	f901b7ff 	str	xzr, [sp, #872]
  4024c8:	f901bbff 	str	xzr, [sp, #880]
  4024cc:	f901bfff 	str	xzr, [sp, #888]
  4024d0:	f8206b82 	str	x2, [x28, x0]
  4024d4:	f90103ff 	str	xzr, [sp, #512]
  4024d8:	f85e82c0 	ldur	x0, [x22, #-24]
  4024dc:	8b000380 	add	x0, x28, x0
  4024e0:	97fffedc 	bl	402050 <_ZNSt9basic_iosIcSt11char_traitsIcEE4initEPSt15basic_streambufIcS1_E@plt>
  4024e4:	a942127a 	ldp	x26, x4, [x19, #32]
  4024e8:	91004382 	add	x2, x28, #0x10
  4024ec:	d2800001 	mov	x1, #0x0                   	// #0
  4024f0:	f9006fe4 	str	x4, [sp, #216]
  4024f4:	f85e8343 	ldur	x3, [x26, #-24]
  4024f8:	f90107fa 	str	x26, [sp, #520]
  4024fc:	8b030040 	add	x0, x2, x3
  402500:	f8236844 	str	x4, [x2, x3]
  402504:	97fffed3 	bl	402050 <_ZNSt9basic_iosIcSt11char_traitsIcEE4initEPSt15basic_streambufIcS1_E@plt>
  402508:	f9400661 	ldr	x1, [x19, #8]
  40250c:	910823f0 	add	x16, sp, #0x208
  402510:	f9401a63 	ldr	x3, [x19, #48]
  402514:	9108a3f1 	add	x17, sp, #0x228
  402518:	f85e8022 	ldur	x2, [x1, #-24]
  40251c:	b0000160 	adrp	x0, 42f000 <__FRAME_END__+0x1a5d8>
  402520:	91312004 	add	x4, x0, #0xc48
  402524:	b0000160 	adrp	x0, 42f000 <__FRAME_END__+0x1a5d8>
  402528:	9131c005 	add	x5, x0, #0xc70
  40252c:	b0000160 	adrp	x0, 42f000 <__FRAME_END__+0x1a5d8>
  402530:	f8226b83 	str	x3, [x28, x2]
  402534:	912dc002 	add	x2, x0, #0xb70
  402538:	f900ffe4 	str	x4, [sp, #504]
  40253c:	91014380 	add	x0, x28, #0x50
  402540:	a9000a05 	stp	x5, x2, [x16]
  402544:	a9017e1f 	stp	xzr, xzr, [x16, #16]
  402548:	a90c8fe1 	stp	x1, x3, [sp, #200]
  40254c:	b0000161 	adrp	x1, 42f000 <__FRAME_END__+0x1a5d8>
  402550:	91326021 	add	x1, x1, #0xc98
  402554:	a9007e3f 	stp	xzr, xzr, [x17]
  402558:	a9017e3f 	stp	xzr, xzr, [x17, #16]
  40255c:	a90793e2 	stp	x2, x4, [sp, #120]
  402560:	f90047e5 	str	x5, [sp, #136]
  402564:	f9004be1 	str	x1, [sp, #144]
  402568:	f9013fe1 	str	x1, [sp, #632]
  40256c:	97ffff01 	bl	402170 <_ZNSt6localeC1Ev@plt>
  402570:	b0000160 	adrp	x0, 42f000 <__FRAME_END__+0x1a5d8>
  402574:	91356000 	add	x0, x0, #0xd58
  402578:	aa0003e4 	mov	x4, x0
  40257c:	9101c382 	add	x2, x28, #0x70
  402580:	52800303 	mov	w3, #0x18                  	// #24
  402584:	91006381 	add	x1, x28, #0x18
  402588:	91020380 	add	x0, x28, #0x80
  40258c:	f9004fe4 	str	x4, [sp, #152]
  402590:	f9010be4 	str	x4, [sp, #528]
  402594:	b90253e3 	str	w3, [sp, #592]
  402598:	f9012fe2 	str	x2, [sp, #600]
  40259c:	f90133ff 	str	xzr, [sp, #608]
  4025a0:	3909a3ff 	strb	wzr, [sp, #616]
  4025a4:	97fffeab 	bl	402050 <_ZNSt9basic_iosIcSt11char_traitsIcEE4initEPSt15basic_streambufIcS1_E@plt>
  4025a8:	f94053e0 	ldr	x0, [sp, #160]
  4025ac:	910823fb 	add	x27, sp, #0x208
  4025b0:	91004395 	add	x21, x28, #0x10
  4025b4:	d2800118 	mov	x24, #0x8                   	// #8
  4025b8:	aa0003f4 	mov	x20, x0
  4025bc:	91004019 	add	x25, x0, #0x10
  4025c0:	f94107e0 	ldr	x0, [sp, #520]
  4025c4:	f85e8001 	ldur	x1, [x0, #-24]
  4025c8:	8b010361 	add	x1, x27, x1
  4025cc:	f9000838 	str	x24, [x1, #16]
  4025d0:	f85e8013 	ldur	x19, [x0, #-24]
  4025d4:	8b1302b3 	add	x19, x21, x19
  4025d8:	39438661 	ldrb	w1, [x19, #225]
  4025dc:	34000ec1 	cbz	w1, 4027b4 <main+0x5f4>
  4025e0:	52800601 	mov	w1, #0x30                  	// #48
  4025e4:	39038261 	strb	w1, [x19, #224]
  4025e8:	12800944 	mov	w4, #0xffffffb5            	// #-75
  4025ec:	b9400281 	ldr	w1, [x20]
  4025f0:	f85e8003 	ldur	x3, [x0, #-24]
  4025f4:	aa1503e0 	mov	x0, x21
  4025f8:	8b0302a3 	add	x3, x21, x3
  4025fc:	b9401862 	ldr	w2, [x3, #24]
  402600:	0a040042 	and	w2, w2, w4
  402604:	321d0042 	orr	w2, w2, #0x8
  402608:	b9001862 	str	w2, [x3, #24]
  40260c:	97fffe3d 	bl	401f00 <_ZNSo9_M_insertImEERSoT_@plt>
  402610:	91001294 	add	x20, x20, #0x4
  402614:	eb14033f 	cmp	x25, x20
  402618:	54fffd41 	b.ne	4025c0 <main+0x400>  // b.any
  40261c:	f9411fe0 	ldr	x0, [sp, #568]
  402620:	910703e1 	add	x1, sp, #0x1c0
  402624:	a91b7fe1 	stp	x1, xzr, [sp, #432]
  402628:	390703ff 	strb	wzr, [sp, #448]
  40262c:	b4003060 	cbz	x0, 402c38 <main+0xa78>
  402630:	f94117e4 	ldr	x4, [sp, #552]
  402634:	f9411be3 	ldr	x3, [sp, #560]
  402638:	eb04001f 	cmp	x0, x4
  40263c:	54000e29 	b.ls	402800 <main+0x640>  // b.plast
  402640:	cb030004 	sub	x4, x0, x3
  402644:	d2800002 	mov	x2, #0x0                   	// #0
  402648:	9106c3e0 	add	x0, sp, #0x1b0
  40264c:	d2800001 	mov	x1, #0x0                   	// #0
  402650:	97fffe94 	bl	4020a0 <_ZNSt7__cxx1112basic_stringIcSt11char_traitsIcESaIcEE10_M_replaceEmmPKcm@plt>
  402654:	f94043e2 	ldr	x2, [sp, #128]
  402658:	f900ffe2 	str	x2, [sp, #504]
  40265c:	f94047e2 	ldr	x2, [sp, #136]
  402660:	f90107e2 	str	x2, [sp, #520]
  402664:	f9404fe2 	ldr	x2, [sp, #152]
  402668:	f9010be2 	str	x2, [sp, #528]
  40266c:	f9412fe0 	ldr	x0, [sp, #600]
  402670:	9101c381 	add	x1, x28, #0x70
  402674:	f9404be2 	ldr	x2, [sp, #144]
  402678:	f9013fe2 	str	x2, [sp, #632]
  40267c:	eb01001f 	cmp	x0, x1
  402680:	54000080 	b.eq	402690 <main+0x4d0>  // b.none
  402684:	f94137e1 	ldr	x1, [sp, #616]
  402688:	91000421 	add	x1, x1, #0x1
  40268c:	97fffe41 	bl	401f90 <_ZdlPvm@plt>
  402690:	f9403fe1 	ldr	x1, [sp, #120]
  402694:	91014380 	add	x0, x28, #0x50
  402698:	f9010be1 	str	x1, [sp, #528]
  40269c:	97fffe71 	bl	402060 <_ZNSt6localeD1Ev@plt>
  4026a0:	a94c8fe0 	ldp	x0, x3, [sp, #200]
  4026a4:	f85e8342 	ldur	x2, [x26, #-24]
  4026a8:	f85e8001 	ldur	x1, [x0, #-24]
  4026ac:	91020380 	add	x0, x28, #0x80
  4026b0:	f8216b83 	str	x3, [x28, x1]
  4026b4:	f85e82c1 	ldur	x1, [x22, #-24]
  4026b8:	f90107fa 	str	x26, [sp, #520]
  4026bc:	f9406fe3 	ldr	x3, [sp, #216]
  4026c0:	f8226b63 	str	x3, [x27, x2]
  4026c4:	f900fff6 	str	x22, [sp, #504]
  4026c8:	f94063e2 	ldr	x2, [sp, #192]
  4026cc:	f8216b82 	str	x2, [x28, x1]
  4026d0:	f9405fe1 	ldr	x1, [sp, #184]
  4026d4:	f90103ff 	str	xzr, [sp, #512]
  4026d8:	f9013fe1 	str	x1, [sp, #632]
  4026dc:	97fffded 	bl	401e90 <_ZNSt8ios_baseD2Ev@plt>
  4026e0:	f9405be1 	ldr	x1, [sp, #176]
  4026e4:	f9409fe0 	ldr	x0, [sp, #312]
  4026e8:	f940dfe2 	ldr	x2, [sp, #440]
  4026ec:	8b010001 	add	x1, x0, x1
  4026f0:	f9400421 	ldr	x1, [x1, #8]
  4026f4:	eb01005f 	cmp	x2, x1
  4026f8:	54000900 	b.eq	402818 <main+0x658>  // b.none
  4026fc:	f9407ff4 	ldr	x20, [sp, #248]
  402700:	90000081 	adrp	x1, 412000 <_Z19MD5Hash_simdversionPKNSt7__cxx1112basic_stringIcSt11char_traitsIcESaIcEEEP12__Uint32x4_t+0x1000>
  402704:	912ea021 	add	x1, x1, #0xba8
  402708:	aa1403e0 	mov	x0, x20
  40270c:	97fffe19 	bl	401f70 <_ZStlsISt11char_traitsIcEERSt13basic_ostreamIcT_ES5_PKc@plt>
  402710:	f9405bf3 	ldr	x19, [sp, #176]
  402714:	f94093e1 	ldr	x1, [sp, #288]
  402718:	8b130022 	add	x2, x1, x19
  40271c:	f8736821 	ldr	x1, [x1, x19]
  402720:	f9400442 	ldr	x2, [x2, #8]
  402724:	97fffe27 	bl	401fc0 <_ZSt16__ostream_insertIcSt11char_traitsIcEERSt13basic_ostreamIT_T0_ES6_PKS3_l@plt>
  402728:	90000081 	adrp	x1, 412000 <_Z19MD5Hash_simdversionPKNSt7__cxx1112basic_stringIcSt11char_traitsIcESaIcEEEP12__Uint32x4_t+0x1000>
  40272c:	912f2021 	add	x1, x1, #0xbc8
  402730:	97fffe10 	bl	401f70 <_ZStlsISt11char_traitsIcEERSt13basic_ostreamIcT_ES5_PKc@plt>
  402734:	940003a4 	bl	4035c4 <_ZSt4endlIcSt11char_traitsIcEERSt13basic_ostreamIT_T0_ES6_.isra.0>
  402738:	90000081 	adrp	x1, 412000 <_Z19MD5Hash_simdversionPKNSt7__cxx1112basic_stringIcSt11char_traitsIcESaIcEEEP12__Uint32x4_t+0x1000>
  40273c:	aa1403e0 	mov	x0, x20
  402740:	912f4021 	add	x1, x1, #0xbd0
  402744:	97fffe0b 	bl	401f70 <_ZStlsISt11char_traitsIcEERSt13basic_ostreamIcT_ES5_PKc@plt>
  402748:	f9409fe1 	ldr	x1, [sp, #312]
  40274c:	8b130022 	add	x2, x1, x19
  402750:	f8736821 	ldr	x1, [x1, x19]
  402754:	f9400442 	ldr	x2, [x2, #8]
  402758:	97fffe1a 	bl	401fc0 <_ZSt16__ostream_insertIcSt11char_traitsIcEERSt13basic_ostreamIT_T0_ES6_PKS3_l@plt>
  40275c:	90000081 	adrp	x1, 412000 <_Z19MD5Hash_simdversionPKNSt7__cxx1112basic_stringIcSt11char_traitsIcESaIcEEEP12__Uint32x4_t+0x1000>
  402760:	912f8021 	add	x1, x1, #0xbe0
  402764:	97fffe03 	bl	401f70 <_ZStlsISt11char_traitsIcEERSt13basic_ostreamIcT_ES5_PKc@plt>
  402768:	a95b0be1 	ldp	x1, x2, [sp, #432]
  40276c:	97fffe15 	bl	401fc0 <_ZSt16__ostream_insertIcSt11char_traitsIcEERSt13basic_ostreamIT_T0_ES6_PKS3_l@plt>
  402770:	94000395 	bl	4035c4 <_ZSt4endlIcSt11char_traitsIcEERSt13basic_ostreamIT_T0_ES6_.isra.0>
  402774:	9106c3e0 	add	x0, sp, #0x1b0
  402778:	97fffe1a 	bl	401fe0 <_ZNSt7__cxx1112basic_stringIcSt11char_traitsIcESaIcEE10_M_disposeEv@plt>
  40277c:	9104e3e0 	add	x0, sp, #0x138
  402780:	940003b8 	bl	403660 <_ZNSt6vectorINSt7__cxx1112basic_stringIcSt11char_traitsIcESaIcEEESaIS5_EED1Ev>
  402784:	910483e0 	add	x0, sp, #0x120
  402788:	940003b6 	bl	403660 <_ZNSt6vectorINSt7__cxx1112basic_stringIcSt11char_traitsIcESaIcEEESaIS5_EED1Ev>
  40278c:	52800020 	mov	w0, #0x1                   	// #1
  402790:	a9407bfd 	ldp	x29, x30, [sp]
  402794:	a94153f3 	ldp	x19, x20, [sp, #16]
  402798:	a9425bf5 	ldp	x21, x22, [sp, #32]
  40279c:	a94363f7 	ldp	x23, x24, [sp, #48]
  4027a0:	a9446bf9 	ldp	x25, x26, [sp, #64]
  4027a4:	a94573fb 	ldp	x27, x28, [sp, #80]
  4027a8:	6d4627e8 	ldp	d8, d9, [sp, #96]
  4027ac:	910e83ff 	add	sp, sp, #0x3a0
  4027b0:	d65f03c0 	ret
  4027b4:	f9407a77 	ldr	x23, [x19, #240]
  4027b8:	b4004ed7 	cbz	x23, 403190 <main+0xfd0>
  4027bc:	3940e2e1 	ldrb	w1, [x23, #56]
  4027c0:	35000121 	cbnz	w1, 4027e4 <main+0x624>
  4027c4:	aa1703e0 	mov	x0, x23
  4027c8:	97fffe02 	bl	401fd0 <_ZNKSt5ctypeIcE13_M_widen_initEv@plt>
  4027cc:	f94002e0 	ldr	x0, [x23]
  4027d0:	f9401802 	ldr	x2, [x0, #48]
  4027d4:	f94073e0 	ldr	x0, [sp, #224]
  4027d8:	eb00005f 	cmp	x2, x0
  4027dc:	540000a1 	b.ne	4027f0 <main+0x630>  // b.any
  4027e0:	f94107e0 	ldr	x0, [sp, #520]
  4027e4:	52800021 	mov	w1, #0x1                   	// #1
  4027e8:	39038661 	strb	w1, [x19, #225]
  4027ec:	17ffff7d 	b	4025e0 <main+0x420>
  4027f0:	aa1703e0 	mov	x0, x23
  4027f4:	52800401 	mov	w1, #0x20                  	// #32
  4027f8:	d63f0040 	blr	x2
  4027fc:	17fffff9 	b	4027e0 <main+0x620>
  402800:	cb030084 	sub	x4, x4, x3
  402804:	9106c3e0 	add	x0, sp, #0x1b0
  402808:	d2800002 	mov	x2, #0x0                   	// #0
  40280c:	d2800001 	mov	x1, #0x0                   	// #0
  402810:	97fffe24 	bl	4020a0 <_ZNSt7__cxx1112basic_stringIcSt11char_traitsIcESaIcEE10_M_replaceEmmPKcm@plt>
  402814:	17ffff90 	b	402654 <main+0x494>
  402818:	f940dbf3 	ldr	x19, [sp, #432]
  40281c:	b40000c2 	cbz	x2, 402834 <main+0x674>
  402820:	f9405be1 	ldr	x1, [sp, #176]
  402824:	f8616801 	ldr	x1, [x0, x1]
  402828:	aa1303e0 	mov	x0, x19
  40282c:	97fffda5 	bl	401ec0 <memcmp@plt>
  402830:	35fff660 	cbnz	w0, 4026fc <main+0x53c>
  402834:	910703e0 	add	x0, sp, #0x1c0
  402838:	eb00027f 	cmp	x19, x0
  40283c:	540000a0 	b.eq	402850 <main+0x690>  // b.none
  402840:	f940e3e1 	ldr	x1, [sp, #448]
  402844:	aa1303e0 	mov	x0, x19
  402848:	91000421 	add	x1, x1, #0x1
  40284c:	97fffdd1 	bl	401f90 <_ZdlPvm@plt>
  402850:	f94057e1 	ldr	x1, [sp, #168]
  402854:	f94093e0 	ldr	x0, [sp, #288]
  402858:	91000422 	add	x2, x1, #0x1
  40285c:	f94097e1 	ldr	x1, [sp, #296]
  402860:	f90057e2 	str	x2, [sp, #168]
  402864:	cb000021 	sub	x1, x1, x0
  402868:	eb81145f 	cmp	x2, x1, asr #5
  40286c:	54ffe023 	b.cc	402470 <main+0x2b0>  // b.lo, b.ul, b.last
  402870:	f9407fe0 	ldr	x0, [sp, #248]
  402874:	90000081 	adrp	x1, 412000 <_Z19MD5Hash_simdversionPKNSt7__cxx1112basic_stringIcSt11char_traitsIcESaIcEEEP12__Uint32x4_t+0x1000>
  402878:	912e4021 	add	x1, x1, #0xb90
  40287c:	97fffdbd 	bl	401f70 <_ZStlsISt11char_traitsIcEERSt13basic_ostreamIcT_ES5_PKc@plt>
  402880:	94000351 	bl	4035c4 <_ZSt4endlIcSt11char_traitsIcEERSt13basic_ostreamIT_T0_ES6_.isra.0>
  402884:	f9407fe0 	ldr	x0, [sp, #248]
  402888:	90000081 	adrp	x1, 412000 <_Z19MD5Hash_simdversionPKNSt7__cxx1112basic_stringIcSt11char_traitsIcESaIcEEEP12__Uint32x4_t+0x1000>
  40288c:	912fc021 	add	x1, x1, #0xbf0
  402890:	97fffdb8 	bl	401f70 <_ZStlsISt11char_traitsIcEERSt13basic_ostreamIcT_ES5_PKc@plt>
  402894:	9400034c 	bl	4035c4 <_ZSt4endlIcSt11char_traitsIcEERSt13basic_ostreamIT_T0_ES6_.isra.0>
  402898:	a95207e0 	ldp	x0, x1, [sp, #288]
  40289c:	eb01001f 	cmp	x0, x1
  4028a0:	54002440 	b.eq	402d28 <main+0xb68>  // b.none
  4028a4:	9105c3e2 	add	x2, sp, #0x170
  4028a8:	b0000001 	adrp	x1, 403000 <main+0xe40>
  4028ac:	91194021 	add	x1, x1, #0x650
  4028b0:	f90053e2 	str	x2, [sp, #160]
  4028b4:	a91007ff 	stp	xzr, x1, [sp, #256]
  4028b8:	f9008bff 	str	xzr, [sp, #272]
  4028bc:	f94053e1 	ldr	x1, [sp, #160]
  4028c0:	f94083f4 	ldr	x20, [sp, #256]
  4028c4:	8b140000 	add	x0, x0, x20
  4028c8:	940039ce 	bl	411000 <_Z19MD5Hash_simdversionPKNSt7__cxx1112basic_stringIcSt11char_traitsIcESaIcEEEP12__Uint32x4_t>
  4028cc:	b0000160 	adrp	x0, 42f000 <__FRAME_END__+0x1a5d8>
  4028d0:	912c4013 	add	x19, x0, #0xb10
  4028d4:	910703e0 	add	x0, sp, #0x1c0
  4028d8:	f9007be0 	str	x0, [sp, #240]
  4028dc:	9106c3e0 	add	x0, sp, #0x1b0
  4028e0:	f9005be0 	str	x0, [sp, #176]
  4028e4:	91010000 	add	x0, x0, #0x40
  4028e8:	b0000161 	adrp	x1, 42f000 <__FRAME_END__+0x1a5d8>
  4028ec:	912c0021 	add	x1, x1, #0xb00
  4028f0:	f90057f4 	str	x20, [sp, #168]
  4028f4:	f9005fe1 	str	x1, [sp, #184]
  4028f8:	f90077e0 	str	x0, [sp, #232]
  4028fc:	910583e0 	add	x0, sp, #0x160
  402900:	f90063e0 	str	x0, [sp, #192]
  402904:	f94053e1 	ldr	x1, [sp, #160]
  402908:	9106c3e0 	add	x0, sp, #0x1b0
  40290c:	f94077e2 	ldr	x2, [sp, #232]
  402910:	3cc10420 	ldr	q0, [x1], #16
  402914:	3c810400 	str	q0, [x0], #16
  402918:	eb00005f 	cmp	x2, x0
  40291c:	54ffffa1 	b.ne	402910 <main+0x750>  // b.any
  402920:	91020380 	add	x0, x28, #0x80
  402924:	97fffd4f 	bl	401e60 <_ZNSt8ios_baseC2Ev@plt>
  402928:	a9410a78 	ldp	x24, x2, [x19, #16]
  40292c:	7906b3ff 	strh	wzr, [sp, #856]
  402930:	f9405fe0 	ldr	x0, [sp, #184]
  402934:	910d83ef 	add	x15, sp, #0x360
  402938:	f9013fe0 	str	x0, [sp, #632]
  40293c:	d2800001 	mov	x1, #0x0                   	// #0
  402940:	f900fff8 	str	x24, [sp, #504]
  402944:	f85e8300 	ldur	x0, [x24, #-24]
  402948:	f901abff 	str	xzr, [sp, #848]
  40294c:	a9007dff 	stp	xzr, xzr, [x15]
  402950:	a9017dff 	stp	xzr, xzr, [x15, #16]
  402954:	f8206b82 	str	x2, [x28, x0]
  402958:	f90103ff 	str	xzr, [sp, #512]
  40295c:	f90067e2 	str	x2, [sp, #200]
  402960:	f85e8300 	ldur	x0, [x24, #-24]
  402964:	8b000380 	add	x0, x28, x0
  402968:	97fffdba 	bl	402050 <_ZNSt9basic_iosIcSt11char_traitsIcEE4initEPSt15basic_streambufIcS1_E@plt>
  40296c:	a942127a 	ldp	x26, x4, [x19, #32]
  402970:	91004382 	add	x2, x28, #0x10
  402974:	d2800001 	mov	x1, #0x0                   	// #0
  402978:	f90073e4 	str	x4, [sp, #224]
  40297c:	f85e8343 	ldur	x3, [x26, #-24]
  402980:	f90107fa 	str	x26, [sp, #520]
  402984:	8b030040 	add	x0, x2, x3
  402988:	f8236844 	str	x4, [x2, x3]
  40298c:	97fffdb1 	bl	402050 <_ZNSt9basic_iosIcSt11char_traitsIcEE4initEPSt15basic_streambufIcS1_E@plt>
  402990:	f9400661 	ldr	x1, [x19, #8]
  402994:	910823ed 	add	x13, sp, #0x208
  402998:	b0000160 	adrp	x0, 42f000 <__FRAME_END__+0x1a5d8>
  40299c:	9108a3ee 	add	x14, sp, #0x228
  4029a0:	f9401a63 	ldr	x3, [x19, #48]
  4029a4:	91312004 	add	x4, x0, #0xc48
  4029a8:	f85e8022 	ldur	x2, [x1, #-24]
  4029ac:	b0000160 	adrp	x0, 42f000 <__FRAME_END__+0x1a5d8>
  4029b0:	9131c005 	add	x5, x0, #0xc70
  4029b4:	b0000160 	adrp	x0, 42f000 <__FRAME_END__+0x1a5d8>
  4029b8:	a90d0fe1 	stp	x1, x3, [sp, #208]
  4029bc:	b0000161 	adrp	x1, 42f000 <__FRAME_END__+0x1a5d8>
  4029c0:	91326021 	add	x1, x1, #0xc98
  4029c4:	f8226b83 	str	x3, [x28, x2]
  4029c8:	912dc002 	add	x2, x0, #0xb70
  4029cc:	f900ffe4 	str	x4, [sp, #504]
  4029d0:	91014380 	add	x0, x28, #0x50
  4029d4:	a90009a5 	stp	x5, x2, [x13]
  4029d8:	a9017dbf 	stp	xzr, xzr, [x13, #16]
  4029dc:	a9007ddf 	stp	xzr, xzr, [x14]
  4029e0:	a9017ddf 	stp	xzr, xzr, [x14, #16]
  4029e4:	a90793e2 	stp	x2, x4, [sp, #120]
  4029e8:	f90047e5 	str	x5, [sp, #136]
  4029ec:	f9004be1 	str	x1, [sp, #144]
  4029f0:	f9013fe1 	str	x1, [sp, #632]
  4029f4:	97fffddf 	bl	402170 <_ZNSt6localeC1Ev@plt>
  4029f8:	9101c382 	add	x2, x28, #0x70
  4029fc:	52800303 	mov	w3, #0x18                  	// #24
  402a00:	b0000160 	adrp	x0, 42f000 <__FRAME_END__+0x1a5d8>
  402a04:	91356000 	add	x0, x0, #0xd58
  402a08:	91006381 	add	x1, x28, #0x18
  402a0c:	f9004fe0 	str	x0, [sp, #152]
  402a10:	f9010be0 	str	x0, [sp, #528]
  402a14:	91020380 	add	x0, x28, #0x80
  402a18:	b90253e3 	str	w3, [sp, #592]
  402a1c:	f9012fe2 	str	x2, [sp, #600]
  402a20:	f90133ff 	str	xzr, [sp, #608]
  402a24:	3909a3ff 	strb	wzr, [sp, #616]
  402a28:	97fffd8a 	bl	402050 <_ZNSt9basic_iosIcSt11char_traitsIcEE4initEPSt15basic_streambufIcS1_E@plt>
  402a2c:	f9405bf6 	ldr	x22, [sp, #176]
  402a30:	910823fb 	add	x27, sp, #0x208
  402a34:	91004397 	add	x23, x28, #0x10
  402a38:	52800095 	mov	w21, #0x4                   	// #4
  402a3c:	f94107e0 	ldr	x0, [sp, #520]
  402a40:	d2800102 	mov	x2, #0x8                   	// #8
  402a44:	f85e8001 	ldur	x1, [x0, #-24]
  402a48:	8b010361 	add	x1, x27, x1
  402a4c:	f9000822 	str	x2, [x1, #16]
  402a50:	f85e8014 	ldur	x20, [x0, #-24]
  402a54:	8b1402f4 	add	x20, x23, x20
  402a58:	39438681 	ldrb	w1, [x20, #225]
  402a5c:	34000f61 	cbz	w1, 402c48 <main+0xa88>
  402a60:	52800601 	mov	w1, #0x30                  	// #48
  402a64:	39038281 	strb	w1, [x20, #224]
  402a68:	12800944 	mov	w4, #0xffffffb5            	// #-75
  402a6c:	b94002c1 	ldr	w1, [x22]
  402a70:	f85e8003 	ldur	x3, [x0, #-24]
  402a74:	aa1703e0 	mov	x0, x23
  402a78:	8b0302e3 	add	x3, x23, x3
  402a7c:	b9401862 	ldr	w2, [x3, #24]
  402a80:	0a040042 	and	w2, w2, w4
  402a84:	321d0042 	orr	w2, w2, #0x8
  402a88:	b9001862 	str	w2, [x3, #24]
  402a8c:	97fffd1d 	bl	401f00 <_ZNSo9_M_insertImEERSoT_@plt>
  402a90:	910042d6 	add	x22, x22, #0x10
  402a94:	710006b5 	subs	w21, w21, #0x1
  402a98:	54fffd21 	b.ne	402a3c <main+0x87c>  // b.any
  402a9c:	f9411fe0 	ldr	x0, [sp, #568]
  402aa0:	390583ff 	strb	wzr, [sp, #352]
  402aa4:	f94063e1 	ldr	x1, [sp, #192]
  402aa8:	a9157fe1 	stp	x1, xzr, [sp, #336]
  402aac:	b4002cc0 	cbz	x0, 403044 <main+0xe84>
  402ab0:	f94117e4 	ldr	x4, [sp, #552]
  402ab4:	f9411be3 	ldr	x3, [sp, #560]
  402ab8:	eb04001f 	cmp	x0, x4
  402abc:	54000ec9 	b.ls	402c94 <main+0xad4>  // b.plast
  402ac0:	cb030004 	sub	x4, x0, x3
  402ac4:	d2800002 	mov	x2, #0x0                   	// #0
  402ac8:	910543e0 	add	x0, sp, #0x150
  402acc:	d2800001 	mov	x1, #0x0                   	// #0
  402ad0:	97fffd74 	bl	4020a0 <_ZNSt7__cxx1112basic_stringIcSt11char_traitsIcESaIcEE10_M_replaceEmmPKcm@plt>
  402ad4:	f94043e1 	ldr	x1, [sp, #128]
  402ad8:	f900ffe1 	str	x1, [sp, #504]
  402adc:	f9404fe2 	ldr	x2, [sp, #152]
  402ae0:	f9010be2 	str	x2, [sp, #528]
  402ae4:	a9488be1 	ldp	x1, x2, [sp, #136]
  402ae8:	f90107e1 	str	x1, [sp, #520]
  402aec:	f9412fe0 	ldr	x0, [sp, #600]
  402af0:	9101c381 	add	x1, x28, #0x70
  402af4:	f9013fe2 	str	x2, [sp, #632]
  402af8:	eb01001f 	cmp	x0, x1
  402afc:	54000080 	b.eq	402b0c <main+0x94c>  // b.none
  402b00:	f94137e1 	ldr	x1, [sp, #616]
  402b04:	91000421 	add	x1, x1, #0x1
  402b08:	97fffd22 	bl	401f90 <_ZdlPvm@plt>
  402b0c:	f9403fe1 	ldr	x1, [sp, #120]
  402b10:	91014380 	add	x0, x28, #0x50
  402b14:	f9010be1 	str	x1, [sp, #528]
  402b18:	97fffd52 	bl	402060 <_ZNSt6localeD1Ev@plt>
  402b1c:	a94d0fe0 	ldp	x0, x3, [sp, #208]
  402b20:	f85e8342 	ldur	x2, [x26, #-24]
  402b24:	f85e8001 	ldur	x1, [x0, #-24]
  402b28:	91020380 	add	x0, x28, #0x80
  402b2c:	f8216b83 	str	x3, [x28, x1]
  402b30:	f85e8301 	ldur	x1, [x24, #-24]
  402b34:	f90107fa 	str	x26, [sp, #520]
  402b38:	f94073e3 	ldr	x3, [sp, #224]
  402b3c:	f8226b63 	str	x3, [x27, x2]
  402b40:	f900fff8 	str	x24, [sp, #504]
  402b44:	f94067e2 	ldr	x2, [sp, #200]
  402b48:	f8216b82 	str	x2, [x28, x1]
  402b4c:	f9405fe1 	ldr	x1, [sp, #184]
  402b50:	f90103ff 	str	xzr, [sp, #512]
  402b54:	f9013fe1 	str	x1, [sp, #632]
  402b58:	97fffcce 	bl	401e90 <_ZNSt8ios_baseD2Ev@plt>
  402b5c:	f94057e1 	ldr	x1, [sp, #168]
  402b60:	f9409fe0 	ldr	x0, [sp, #312]
  402b64:	f940afe2 	ldr	x2, [sp, #344]
  402b68:	8b010000 	add	x0, x0, x1
  402b6c:	f9400401 	ldr	x1, [x0, #8]
  402b70:	eb01005f 	cmp	x2, x1
  402b74:	540009c0 	b.eq	402cac <main+0xaec>  // b.none
  402b78:	f9407ff4 	ldr	x20, [sp, #248]
  402b7c:	90000081 	adrp	x1, 412000 <_Z19MD5Hash_simdversionPKNSt7__cxx1112basic_stringIcSt11char_traitsIcESaIcEEEP12__Uint32x4_t+0x1000>
  402b80:	91312021 	add	x1, x1, #0xc48
  402b84:	aa1403e0 	mov	x0, x20
  402b88:	97fffcfa 	bl	401f70 <_ZStlsISt11char_traitsIcEERSt13basic_ostreamIcT_ES5_PKc@plt>
  402b8c:	f94057f3 	ldr	x19, [sp, #168]
  402b90:	f94093e1 	ldr	x1, [sp, #288]
  402b94:	8b130022 	add	x2, x1, x19
  402b98:	f8736821 	ldr	x1, [x1, x19]
  402b9c:	f9400442 	ldr	x2, [x2, #8]
  402ba0:	97fffd08 	bl	401fc0 <_ZSt16__ostream_insertIcSt11char_traitsIcEERSt13basic_ostreamIT_T0_ES6_PKS3_l@plt>
  402ba4:	90000081 	adrp	x1, 412000 <_Z19MD5Hash_simdversionPKNSt7__cxx1112basic_stringIcSt11char_traitsIcESaIcEEEP12__Uint32x4_t+0x1000>
  402ba8:	912f2021 	add	x1, x1, #0xbc8
  402bac:	97fffcf1 	bl	401f70 <_ZStlsISt11char_traitsIcEERSt13basic_ostreamIcT_ES5_PKc@plt>
  402bb0:	94000285 	bl	4035c4 <_ZSt4endlIcSt11char_traitsIcEERSt13basic_ostreamIT_T0_ES6_.isra.0>
  402bb4:	90000081 	adrp	x1, 412000 <_Z19MD5Hash_simdversionPKNSt7__cxx1112basic_stringIcSt11char_traitsIcESaIcEEEP12__Uint32x4_t+0x1000>
  402bb8:	aa1403e0 	mov	x0, x20
  402bbc:	912f4021 	add	x1, x1, #0xbd0
  402bc0:	97fffcec 	bl	401f70 <_ZStlsISt11char_traitsIcEERSt13basic_ostreamIcT_ES5_PKc@plt>
  402bc4:	f9409fe1 	ldr	x1, [sp, #312]
  402bc8:	8b130022 	add	x2, x1, x19
  402bcc:	f8736821 	ldr	x1, [x1, x19]
  402bd0:	f9400442 	ldr	x2, [x2, #8]
  402bd4:	97fffcfb 	bl	401fc0 <_ZSt16__ostream_insertIcSt11char_traitsIcEERSt13basic_ostreamIT_T0_ES6_PKS3_l@plt>
  402bd8:	90000081 	adrp	x1, 412000 <_Z19MD5Hash_simdversionPKNSt7__cxx1112basic_stringIcSt11char_traitsIcESaIcEEEP12__Uint32x4_t+0x1000>
  402bdc:	912f8021 	add	x1, x1, #0xbe0
  402be0:	97fffce4 	bl	401f70 <_ZStlsISt11char_traitsIcEERSt13basic_ostreamIcT_ES5_PKc@plt>
  402be4:	a9550be1 	ldp	x1, x2, [sp, #336]
  402be8:	97fffcf6 	bl	401fc0 <_ZSt16__ostream_insertIcSt11char_traitsIcEERSt13basic_ostreamIT_T0_ES6_PKS3_l@plt>
  402bec:	94000276 	bl	4035c4 <_ZSt4endlIcSt11char_traitsIcEERSt13basic_ostreamIT_T0_ES6_.isra.0>
  402bf0:	910543e0 	add	x0, sp, #0x150
  402bf4:	17fffee1 	b	402778 <main+0x5b8>
  402bf8:	aa1603e0 	mov	x0, x22
  402bfc:	b4ffb273 	cbz	x19, 402248 <main+0x88>
  402c00:	14000008 	b	402c20 <main+0xa60>
  402c04:	9106c3e1 	add	x1, sp, #0x1b0
  402c08:	aa1c03e0 	mov	x0, x28
  402c0c:	d2800002 	mov	x2, #0x0                   	// #0
  402c10:	97fffd48 	bl	402130 <_ZNSt7__cxx1112basic_stringIcSt11char_traitsIcESaIcEE9_M_createERmm@plt>
  402c14:	f940dbe1 	ldr	x1, [sp, #432]
  402c18:	f900ffe0 	str	x0, [sp, #504]
  402c1c:	f90107e1 	str	x1, [sp, #520]
  402c20:	aa1303e2 	mov	x2, x19
  402c24:	aa1503e1 	mov	x1, x21
  402c28:	97fffc76 	bl	401e00 <memcpy@plt>
  402c2c:	f940dbf3 	ldr	x19, [sp, #432]
  402c30:	f940ffe0 	ldr	x0, [sp, #504]
  402c34:	17fffd85 	b	402248 <main+0x88>
  402c38:	91018381 	add	x1, x28, #0x60
  402c3c:	9106c3e0 	add	x0, sp, #0x1b0
  402c40:	97fffca8 	bl	401ee0 <_ZNSt7__cxx1112basic_stringIcSt11char_traitsIcESaIcEE9_M_assignERKS4_@plt>
  402c44:	17fffe84 	b	402654 <main+0x494>
  402c48:	f9407a99 	ldr	x25, [x20, #240]
  402c4c:	b4002a19 	cbz	x25, 40318c <main+0xfcc>
  402c50:	3940e321 	ldrb	w1, [x25, #56]
  402c54:	35000121 	cbnz	w1, 402c78 <main+0xab8>
  402c58:	aa1903e0 	mov	x0, x25
  402c5c:	97fffcdd 	bl	401fd0 <_ZNKSt5ctypeIcE13_M_widen_initEv@plt>
  402c60:	f9400320 	ldr	x0, [x25]
  402c64:	f9401802 	ldr	x2, [x0, #48]
  402c68:	f94087e0 	ldr	x0, [sp, #264]
  402c6c:	eb00005f 	cmp	x2, x0
  402c70:	540000a1 	b.ne	402c84 <main+0xac4>  // b.any
  402c74:	f94107e0 	ldr	x0, [sp, #520]
  402c78:	52800021 	mov	w1, #0x1                   	// #1
  402c7c:	39038681 	strb	w1, [x20, #225]
  402c80:	17ffff78 	b	402a60 <main+0x8a0>
  402c84:	aa1903e0 	mov	x0, x25
  402c88:	52800401 	mov	w1, #0x20                  	// #32
  402c8c:	d63f0040 	blr	x2
  402c90:	17fffff9 	b	402c74 <main+0xab4>
  402c94:	cb030084 	sub	x4, x4, x3
  402c98:	910543e0 	add	x0, sp, #0x150
  402c9c:	d2800002 	mov	x2, #0x0                   	// #0
  402ca0:	d2800001 	mov	x1, #0x0                   	// #0
  402ca4:	97fffcff 	bl	4020a0 <_ZNSt7__cxx1112basic_stringIcSt11char_traitsIcESaIcEE10_M_replaceEmmPKcm@plt>
  402ca8:	17ffff8b 	b	402ad4 <main+0x914>
  402cac:	f940abf4 	ldr	x20, [sp, #336]
  402cb0:	b40000a2 	cbz	x2, 402cc4 <main+0xb04>
  402cb4:	f9400001 	ldr	x1, [x0]
  402cb8:	aa1403e0 	mov	x0, x20
  402cbc:	97fffc81 	bl	401ec0 <memcmp@plt>
  402cc0:	35fff5c0 	cbnz	w0, 402b78 <main+0x9b8>
  402cc4:	f94063e0 	ldr	x0, [sp, #192]
  402cc8:	eb00029f 	cmp	x20, x0
  402ccc:	540000a0 	b.eq	402ce0 <main+0xb20>  // b.none
  402cd0:	f940b3e1 	ldr	x1, [sp, #352]
  402cd4:	aa1403e0 	mov	x0, x20
  402cd8:	91000421 	add	x1, x1, #0x1
  402cdc:	97fffcad 	bl	401f90 <_ZdlPvm@plt>
  402ce0:	a94a83e1 	ldp	x1, x0, [sp, #168]
  402ce4:	91008021 	add	x1, x1, #0x20
  402ce8:	91001000 	add	x0, x0, #0x4
  402cec:	a90a83e1 	stp	x1, x0, [sp, #168]
  402cf0:	f9407be1 	ldr	x1, [sp, #240]
  402cf4:	eb01001f 	cmp	x0, x1
  402cf8:	54ffe061 	b.ne	402904 <main+0x744>  // b.any
  402cfc:	f9408be1 	ldr	x1, [sp, #272]
  402d00:	f94093e0 	ldr	x0, [sp, #288]
  402d04:	91001022 	add	x2, x1, #0x4
  402d08:	f94097e1 	ldr	x1, [sp, #296]
  402d0c:	f9008be2 	str	x2, [sp, #272]
  402d10:	f94083e3 	ldr	x3, [sp, #256]
  402d14:	cb000021 	sub	x1, x1, x0
  402d18:	91020063 	add	x3, x3, #0x80
  402d1c:	f90083e3 	str	x3, [sp, #256]
  402d20:	eb81145f 	cmp	x2, x1, asr #5
  402d24:	54ffdcc3 	b.cc	4028bc <main+0x6fc>  // b.lo, b.ul, b.last
  402d28:	f9407fe0 	ldr	x0, [sp, #248]
  402d2c:	90000081 	adrp	x1, 412000 <_Z19MD5Hash_simdversionPKNSt7__cxx1112basic_stringIcSt11char_traitsIcESaIcEEEP12__Uint32x4_t+0x1000>
  402d30:	91308021 	add	x1, x1, #0xc20
  402d34:	97fffc8f 	bl	401f70 <_ZStlsISt11char_traitsIcEERSt13basic_ostreamIcT_ES5_PKc@plt>
  402d38:	94000223 	bl	4035c4 <_ZSt4endlIcSt11char_traitsIcEERSt13basic_ostreamIT_T0_ES6_.isra.0>
  402d3c:	9104e3e0 	add	x0, sp, #0x138
  402d40:	94000248 	bl	403660 <_ZNSt6vectorINSt7__cxx1112basic_stringIcSt11char_traitsIcESaIcEEESaIS5_EED1Ev>
  402d44:	910483e0 	add	x0, sp, #0x120
  402d48:	94000246 	bl	403660 <_ZNSt6vectorINSt7__cxx1112basic_stringIcSt11char_traitsIcESaIcEEESaIS5_EED1Ev>
  402d4c:	92800001 	mov	x1, #0xffffffffffffffff    	// #-1
  402d50:	f9010be1 	str	x1, [sp, #528]
  402d54:	f9010fe1 	str	x1, [sp, #536]
  402d58:	9108a3e1 	add	x1, sp, #0x228
  402d5c:	910923e6 	add	x6, sp, #0x248
  402d60:	9109a3e7 	add	x7, sp, #0x268
  402d64:	a91fffff 	stp	xzr, xzr, [sp, #504]
  402d68:	910a23e8 	add	x8, sp, #0x288
  402d6c:	1e2e1000 	fmov	s0, #1.000000000000000000e+00
  402d70:	f90107ff 	str	xzr, [sp, #520]
  402d74:	d2800020 	mov	x0, #0x1                   	// #1
  402d78:	b90223ff 	str	wzr, [sp, #544]
  402d7c:	910ac3e9 	add	x9, sp, #0x2b0
  402d80:	a9007c3f 	stp	xzr, xzr, [x1]
  402d84:	91030385 	add	x5, x28, #0xc0
  402d88:	910ba3ea 	add	x10, sp, #0x2e8
  402d8c:	a9017c3f 	stp	xzr, xzr, [x1, #16]
  402d90:	9103e384 	add	x4, x28, #0xf8
  402d94:	910c83eb 	add	x11, sp, #0x320
  402d98:	a9007cdf 	stp	xzr, xzr, [x6]
  402d9c:	9104c383 	add	x3, x28, #0x130
  402da0:	910d63ec 	add	x12, sp, #0x358
  402da4:	a9017cdf 	stp	xzr, xzr, [x6, #16]
  402da8:	9105a382 	add	x2, x28, #0x168
  402dac:	a9007cff 	stp	xzr, xzr, [x7]
  402db0:	a9017cff 	stp	xzr, xzr, [x7, #16]
  402db4:	a9000105 	stp	x5, x0, [x8]
  402db8:	a9017d1f 	stp	xzr, xzr, [x8, #16]
  402dbc:	bd02abe0 	str	s0, [sp, #680]
  402dc0:	a9007d3f 	stp	xzr, xzr, [x9]
  402dc4:	a9010124 	stp	x4, x0, [x9, #16]
  402dc8:	f9016bff 	str	xzr, [sp, #720]
  402dcc:	f9016fff 	str	xzr, [sp, #728]
  402dd0:	bd02e3e0 	str	s0, [sp, #736]
  402dd4:	a9007d5f 	stp	xzr, xzr, [x10]
  402dd8:	a9010143 	stp	x3, x0, [x10, #16]
  402ddc:	f90187ff 	str	xzr, [sp, #776]
  402de0:	f9018bff 	str	xzr, [sp, #784]
  402de4:	bd031be0 	str	s0, [sp, #792]
  402de8:	a9007d7f 	stp	xzr, xzr, [x11]
  402dec:	a9010162 	stp	x2, x0, [x11, #16]
  402df0:	f901a3ff 	str	xzr, [sp, #832]
  402df4:	f901a7ff 	str	xzr, [sp, #840]
  402df8:	bd0353e0 	str	s0, [sp, #848]
  402dfc:	a9007d9f 	stp	xzr, xzr, [x12]
  402e00:	a9017d9f 	stp	xzr, xzr, [x12, #16]
  402e04:	f901bfff 	str	xzr, [sp, #888]
  402e08:	b90383ff 	str	wzr, [sp, #896]
  402e0c:	f901c7ff 	str	xzr, [sp, #904]
  402e10:	f901cbff 	str	xzr, [sp, #912]
  402e14:	f901cfff 	str	xzr, [sp, #920]
  402e18:	97fffbf6 	bl	401df0 <_ZNSt6chrono3_V212system_clock3nowEv@plt>
  402e1c:	90000081 	adrp	x1, 412000 <_Z19MD5Hash_simdversionPKNSt7__cxx1112basic_stringIcSt11char_traitsIcESaIcEEEP12__Uint32x4_t+0x1000>
  402e20:	aa0003f9 	mov	x25, x0
  402e24:	9131a021 	add	x1, x1, #0xc68
  402e28:	9106c3e0 	add	x0, sp, #0x1b0
  402e2c:	940001b9 	bl	403510 <_ZNSt7__cxx1112basic_stringIcSt11char_traitsIcESaIcEEC2EPKcRKS3_.constprop.0>
  402e30:	9106c3e1 	add	x1, sp, #0x1b0
  402e34:	91006380 	add	x0, x28, #0x18
  402e38:	94001976 	bl	409410 <_ZN5model5trainENSt7__cxx1112basic_stringIcSt11char_traitsIcESaIcEEE>
  402e3c:	9106c3e0 	add	x0, sp, #0x1b0
  402e40:	97fffc68 	bl	401fe0 <_ZNSt7__cxx1112basic_stringIcSt11char_traitsIcESaIcEE10_M_disposeEv@plt>
  402e44:	91006380 	add	x0, x28, #0x18
  402e48:	94001a8e 	bl	409880 <_ZN5model5orderEv>
  402e4c:	97fffbe9 	bl	401df0 <_ZNSt6chrono3_V212system_clock3nowEv@plt>
  402e50:	aa0003f8 	mov	x24, x0
  402e54:	aa1c03e0 	mov	x0, x28
  402e58:	94003116 	bl	40f2b0 <_ZN13PriorityQueue4initEv>
  402e5c:	f9407fe0 	ldr	x0, [sp, #248]
  402e60:	90000081 	adrp	x1, 412000 <_Z19MD5Hash_simdversionPKNSt7__cxx1112basic_stringIcSt11char_traitsIcESaIcEEEP12__Uint32x4_t+0x1000>
  402e64:	91324021 	add	x1, x1, #0xc90
  402e68:	97fffc42 	bl	401f70 <_ZStlsISt11char_traitsIcEERSt13basic_ostreamIcT_ES5_PKc@plt>
  402e6c:	940001d6 	bl	4035c4 <_ZSt4endlIcSt11char_traitsIcEERSt13basic_ostreamIT_T0_ES6_.isra.0>
  402e70:	97fffbe0 	bl	401df0 <_ZNSt6chrono3_V212system_clock3nowEv@plt>
  402e74:	90000097 	adrp	x23, 412000 <_Z19MD5Hash_simdversionPKNSt7__cxx1112basic_stringIcSt11char_traitsIcESaIcEEEP12__Uint32x4_t+0x1000>
  402e78:	2f00e408 	movi	d8, #0x0
  402e7c:	5290d3f4 	mov	w20, #0x869f                	// #34463
  402e80:	aa0003fa 	mov	x26, x0
  402e84:	913262f7 	add	x23, x23, #0xc98
  402e88:	52800015 	mov	w21, #0x0                   	// #0
  402e8c:	72a00034 	movk	w20, #0x1, lsl #16
  402e90:	5292d01b 	mov	w27, #0x9680                	// #38528
  402e94:	52800013 	mov	w19, #0x0                   	// #0
  402e98:	72a0131b 	movk	w27, #0x98, lsl #16
  402e9c:	d503201f 	nop
  402ea0:	a95f83e1 	ldp	x1, x0, [sp, #504]
  402ea4:	eb00003f 	cmp	x1, x0
  402ea8:	54001500 	b.eq	403148 <main+0xf88>  // b.none
  402eac:	aa1c03e0 	mov	x0, x28
  402eb0:	94002ef0 	bl	40ea70 <_ZN13PriorityQueue7PopNextEv>
  402eb4:	f941c7e1 	ldr	x1, [sp, #904]
  402eb8:	f941cbe0 	ldr	x0, [sp, #912]
  402ebc:	cb010000 	sub	x0, x0, x1
  402ec0:	9345fc00 	asr	x0, x0, #5
  402ec4:	b90383e0 	str	w0, [sp, #896]
  402ec8:	4b130000 	sub	w0, w0, w19
  402ecc:	6b14001f 	cmp	w0, w20
  402ed0:	54fffe8d 	b.le	402ea0 <main+0xce0>
  402ed4:	f9407ff3 	ldr	x19, [sp, #248]
  402ed8:	aa1703e1 	mov	x1, x23
  402edc:	d2800262 	mov	x2, #0x13                  	// #19
  402ee0:	aa1303e0 	mov	x0, x19
  402ee4:	97fffc37 	bl	401fc0 <_ZSt16__ostream_insertIcSt11char_traitsIcEERSt13basic_ostreamIT_T0_ES6_PKS3_l@plt>
  402ee8:	b94383e1 	ldr	w1, [sp, #896]
  402eec:	aa1303e0 	mov	x0, x19
  402ef0:	0b0102a1 	add	w1, w21, w1
  402ef4:	97fffc87 	bl	402110 <_ZNSolsEi@plt>
  402ef8:	aa0003f3 	mov	x19, x0
  402efc:	f9400000 	ldr	x0, [x0]
  402f00:	f85e8000 	ldur	x0, [x0, #-24]
  402f04:	8b000260 	add	x0, x19, x0
  402f08:	f9407816 	ldr	x22, [x0, #240]
  402f0c:	b4001456 	cbz	x22, 403194 <main+0xfd4>
  402f10:	3940e2c0 	ldrb	w0, [x22, #56]
  402f14:	34000a40 	cbz	w0, 40305c <main+0xe9c>
  402f18:	39410ec1 	ldrb	w1, [x22, #67]
  402f1c:	aa1303e0 	mov	x0, x19
  402f20:	97fffbb0 	bl	401de0 <_ZNSo3putEc@plt>
  402f24:	97fffbfb 	bl	401f10 <_ZNSo5flushEv@plt>
  402f28:	b94383f3 	ldr	w19, [sp, #896]
  402f2c:	0b1302b6 	add	w22, w21, w19
  402f30:	6b1b02df 	cmp	w22, w27
  402f34:	54000aec 	b.gt	403090 <main+0xed0>
  402f38:	52884800 	mov	w0, #0x4240                	// #16960
  402f3c:	72a001e0 	movk	w0, #0xf, lsl #16
  402f40:	6b00027f 	cmp	w19, w0
  402f44:	54fffaed 	b.le	402ea0 <main+0xce0>
  402f48:	97fffbaa 	bl	401df0 <_ZNSt6chrono3_V212system_clock3nowEv@plt>
  402f4c:	aa0003f5 	mov	x21, x0
  402f50:	b9411fe0 	ldr	w0, [sp, #284]
  402f54:	34001020 	cbz	w0, 403158 <main+0xf98>
  402f58:	f941c7e0 	ldr	x0, [sp, #904]
  402f5c:	d2800013 	mov	x19, #0x0                   	// #0
  402f60:	f941cbe1 	ldr	x1, [sp, #912]
  402f64:	cb000022 	sub	x2, x1, x0
  402f68:	f101805f 	cmp	x2, #0x60
  402f6c:	54000169 	b.ls	402f98 <main+0xdd8>  // b.plast
  402f70:	8b131400 	add	x0, x0, x19, lsl #5
  402f74:	9106c3e1 	add	x1, sp, #0x1b0
  402f78:	94003822 	bl	411000 <_Z19MD5Hash_simdversionPKNSt7__cxx1112basic_stringIcSt11char_traitsIcESaIcEEEP12__Uint32x4_t>
  402f7c:	f941c7e0 	ldr	x0, [sp, #904]
  402f80:	91001e62 	add	x2, x19, #0x7
  402f84:	f941cbe1 	ldr	x1, [sp, #912]
  402f88:	91001273 	add	x19, x19, #0x4
  402f8c:	cb000023 	sub	x3, x1, x0
  402f90:	eb83145f 	cmp	x2, x3, asr #5
  402f94:	54fffee3 	b.cc	402f70 <main+0xdb0>  // b.lo, b.ul, b.last
  402f98:	cb000021 	sub	x1, x1, x0
  402f9c:	eb81167f 	cmp	x19, x1, asr #5
  402fa0:	540001a2 	b.cs	402fd4 <main+0xe14>  // b.hs, b.nlast
  402fa4:	9105c3e1 	add	x1, sp, #0x170
  402fa8:	f90053e1 	str	x1, [sp, #160]
  402fac:	d503201f 	nop
  402fb0:	f94053e1 	ldr	x1, [sp, #160]
  402fb4:	8b131400 	add	x0, x0, x19, lsl #5
  402fb8:	9400354b 	bl	4104e4 <_Z7MD5HashRKNSt7__cxx1112basic_stringIcSt11char_traitsIcESaIcEEEPj>
  402fbc:	f941c7e0 	ldr	x0, [sp, #904]
  402fc0:	91000673 	add	x19, x19, #0x1
  402fc4:	f941cbe1 	ldr	x1, [sp, #912]
  402fc8:	cb000021 	sub	x1, x1, x0
  402fcc:	eb81167f 	cmp	x19, x1, asr #5
  402fd0:	54ffff03 	b.cc	402fb0 <main+0xdf0>  // b.lo, b.ul, b.last
  402fd4:	97fffb87 	bl	401df0 <_ZNSt6chrono3_V212system_clock3nowEv@plt>
  402fd8:	cb150000 	sub	x0, x0, x21
  402fdc:	d2807d02 	mov	x2, #0x3e8                 	// #1000
  402fe0:	d2d09001 	mov	x1, #0x848000000000        	// #145685290680320
  402fe4:	f2e825c1 	movk	x1, #0x412e, lsl #48
  402fe8:	9e670021 	fmov	d1, x1
  402fec:	9ac20c00 	sdiv	x0, x0, x2
  402ff0:	f941c7f3 	ldr	x19, [sp, #904]
  402ff4:	f941cbfb 	ldr	x27, [sp, #912]
  402ff8:	9e620000 	scvtf	d0, x0
  402ffc:	1e611800 	fdiv	d0, d0, d1
  403000:	1e602908 	fadd	d8, d8, d0
  403004:	eb1b027f 	cmp	x19, x27
  403008:	540001a0 	b.eq	40303c <main+0xe7c>  // b.none
  40300c:	aa1303f5 	mov	x21, x19
  403010:	aa1503e1 	mov	x1, x21
  403014:	f8410420 	ldr	x0, [x1], #16
  403018:	eb01001f 	cmp	x0, x1
  40301c:	54000080 	b.eq	40302c <main+0xe6c>  // b.none
  403020:	f9400aa1 	ldr	x1, [x21, #16]
  403024:	91000421 	add	x1, x1, #0x1
  403028:	97fffbda 	bl	401f90 <_ZdlPvm@plt>
  40302c:	910082b5 	add	x21, x21, #0x20
  403030:	eb15037f 	cmp	x27, x21
  403034:	54fffee1 	b.ne	403010 <main+0xe50>  // b.any
  403038:	f901cbf3 	str	x19, [sp, #912]
  40303c:	2a1603f5 	mov	w21, w22
  403040:	17ffff94 	b	402e90 <main+0xcd0>
  403044:	91018381 	add	x1, x28, #0x60
  403048:	910543e0 	add	x0, sp, #0x150
  40304c:	97fffba5 	bl	401ee0 <_ZNSt7__cxx1112basic_stringIcSt11char_traitsIcESaIcEE9_M_assignERKS4_@plt>
  403050:	17fffea1 	b	402ad4 <main+0x914>
  403054:	b9011fff 	str	wzr, [sp, #284]
  403058:	17fffc8f 	b	402294 <main+0xd4>
  40305c:	aa1603e0 	mov	x0, x22
  403060:	97fffbdc 	bl	401fd0 <_ZNKSt5ctypeIcE13_M_widen_initEv@plt>
  403064:	f94002c2 	ldr	x2, [x22]
  403068:	90000000 	adrp	x0, 403000 <main+0xe40>
  40306c:	91194000 	add	x0, x0, #0x650
  403070:	52800141 	mov	w1, #0xa                   	// #10
  403074:	f9401842 	ldr	x2, [x2, #48]
  403078:	eb00005f 	cmp	x2, x0
  40307c:	54fff500 	b.eq	402f1c <main+0xd5c>  // b.none
  403080:	aa1603e0 	mov	x0, x22
  403084:	d63f0040 	blr	x2
  403088:	12001c01 	and	w1, w0, #0xff
  40308c:	17ffffa4 	b	402f1c <main+0xd5c>
  403090:	97fffb58 	bl	401df0 <_ZNSt6chrono3_V212system_clock3nowEv@plt>
  403094:	cb1a0002 	sub	x2, x0, x26
  403098:	d2807d03 	mov	x3, #0x3e8                 	// #1000
  40309c:	d2d09000 	mov	x0, #0x848000000000        	// #145685290680320
  4030a0:	f2e825c0 	movk	x0, #0x412e, lsl #48
  4030a4:	9e670000 	fmov	d0, x0
  4030a8:	9ac30c42 	sdiv	x2, x2, x3
  4030ac:	f0000061 	adrp	x1, 412000 <_Z19MD5Hash_simdversionPKNSt7__cxx1112basic_stringIcSt11char_traitsIcESaIcEEEP12__Uint32x4_t+0x1000>
  4030b0:	f9407ff4 	ldr	x20, [sp, #248]
  4030b4:	9132c021 	add	x1, x1, #0xcb0
  4030b8:	9e620049 	scvtf	d9, x2
  4030bc:	aa1403e0 	mov	x0, x20
  4030c0:	1e601929 	fdiv	d9, d9, d0
  4030c4:	97fffbab 	bl	401f70 <_ZStlsISt11char_traitsIcEERSt13basic_ostreamIcT_ES5_PKc@plt>
  4030c8:	1e683920 	fsub	d0, d9, d8
  4030cc:	97fffc01 	bl	4020d0 <_ZNSo9_M_insertIdEERSoT_@plt>
  4030d0:	f0000073 	adrp	x19, 412000 <_Z19MD5Hash_simdversionPKNSt7__cxx1112basic_stringIcSt11char_traitsIcESaIcEEEP12__Uint32x4_t+0x1000>
  4030d4:	91330273 	add	x19, x19, #0xcc0
  4030d8:	aa1303e1 	mov	x1, x19
  4030dc:	97fffba5 	bl	401f70 <_ZStlsISt11char_traitsIcEERSt13basic_ostreamIcT_ES5_PKc@plt>
  4030e0:	94000139 	bl	4035c4 <_ZSt4endlIcSt11char_traitsIcEERSt13basic_ostreamIT_T0_ES6_.isra.0>
  4030e4:	f0000061 	adrp	x1, 412000 <_Z19MD5Hash_simdversionPKNSt7__cxx1112basic_stringIcSt11char_traitsIcESaIcEEEP12__Uint32x4_t+0x1000>
  4030e8:	aa1403e0 	mov	x0, x20
  4030ec:	91332021 	add	x1, x1, #0xcc8
  4030f0:	97fffba0 	bl	401f70 <_ZStlsISt11char_traitsIcEERSt13basic_ostreamIcT_ES5_PKc@plt>
  4030f4:	1e604100 	fmov	d0, d8
  4030f8:	97fffbf6 	bl	4020d0 <_ZNSo9_M_insertIdEERSoT_@plt>
  4030fc:	aa1303e1 	mov	x1, x19
  403100:	97fffb9c 	bl	401f70 <_ZStlsISt11char_traitsIcEERSt13basic_ostreamIcT_ES5_PKc@plt>
  403104:	94000130 	bl	4035c4 <_ZSt4endlIcSt11char_traitsIcEERSt13basic_ostreamIT_T0_ES6_.isra.0>
  403108:	f0000061 	adrp	x1, 412000 <_Z19MD5Hash_simdversionPKNSt7__cxx1112basic_stringIcSt11char_traitsIcESaIcEEEP12__Uint32x4_t+0x1000>
  40310c:	aa1403e0 	mov	x0, x20
  403110:	91336021 	add	x1, x1, #0xcd8
  403114:	97fffb97 	bl	401f70 <_ZStlsISt11char_traitsIcEERSt13basic_ostreamIcT_ES5_PKc@plt>
  403118:	cb190301 	sub	x1, x24, x25
  40311c:	d2807d03 	mov	x3, #0x3e8                 	// #1000
  403120:	d2d09002 	mov	x2, #0x848000000000        	// #145685290680320
  403124:	f2e825c2 	movk	x2, #0x412e, lsl #48
  403128:	9e670041 	fmov	d1, x2
  40312c:	9ac30c21 	sdiv	x1, x1, x3
  403130:	9e620020 	scvtf	d0, x1
  403134:	1e611800 	fdiv	d0, d0, d1
  403138:	97fffbe6 	bl	4020d0 <_ZNSo9_M_insertIdEERSoT_@plt>
  40313c:	aa1303e1 	mov	x1, x19
  403140:	97fffb8c 	bl	401f70 <_ZStlsISt11char_traitsIcEERSt13basic_ostreamIcT_ES5_PKc@plt>
  403144:	94000120 	bl	4035c4 <_ZSt4endlIcSt11char_traitsIcEERSt13basic_ostreamIT_T0_ES6_.isra.0>
  403148:	aa1c03e0 	mov	x0, x28
  40314c:	94000265 	bl	403ae0 <_ZN13PriorityQueueD1Ev>
  403150:	52800000 	mov	w0, #0x0                   	// #0
  403154:	17fffd8f 	b	402790 <main+0x5d0>
  403158:	f941c7f3 	ldr	x19, [sp, #904]
  40315c:	f941cbfb 	ldr	x27, [sp, #912]
  403160:	eb1b027f 	cmp	x19, x27
  403164:	54fff380 	b.eq	402fd4 <main+0xe14>  // b.none
  403168:	9106c3e1 	add	x1, sp, #0x1b0
  40316c:	aa1303e0 	mov	x0, x19
  403170:	940034dd 	bl	4104e4 <_Z7MD5HashRKNSt7__cxx1112basic_stringIcSt11char_traitsIcESaIcEEEPj>
  403174:	91008273 	add	x19, x19, #0x20
  403178:	eb13037f 	cmp	x27, x19
  40317c:	54ffff61 	b.ne	403168 <main+0xfa8>  // b.any
  403180:	17ffff95 	b	402fd4 <main+0xe14>
  403184:	9107e3fc 	add	x28, sp, #0x1f8
  403188:	17fffc41 	b	40228c <main+0xcc>
  40318c:	97fffb9d 	bl	402000 <_ZSt16__throw_bad_castv@plt>
  403190:	97fffb9c 	bl	402000 <_ZSt16__throw_bad_castv@plt>
  403194:	97fffb9b 	bl	402000 <_ZSt16__throw_bad_castv@plt>
  403198:	f0000060 	adrp	x0, 412000 <_Z19MD5Hash_simdversionPKNSt7__cxx1112basic_stringIcSt11char_traitsIcESaIcEEEP12__Uint32x4_t+0x1000>
  40319c:	91266000 	add	x0, x0, #0x998
  4031a0:	97fffb60 	bl	401f20 <_ZSt19__throw_logic_errorPKc@plt>
  4031a4:	aa0003f3 	mov	x19, x0
  4031a8:	910543e0 	add	x0, sp, #0x150
  4031ac:	97fffb8d 	bl	401fe0 <_ZNSt7__cxx1112basic_stringIcSt11char_traitsIcESaIcEE10_M_disposeEv@plt>
  4031b0:	aa1c03e0 	mov	x0, x28
  4031b4:	97fffb67 	bl	401f50 <_ZNSt7__cxx1118basic_stringstreamIcSt11char_traitsIcESaIcEED1Ev@plt>
  4031b8:	9104e3e0 	add	x0, sp, #0x138
  4031bc:	94000129 	bl	403660 <_ZNSt6vectorINSt7__cxx1112basic_stringIcSt11char_traitsIcESaIcEEESaIS5_EED1Ev>
  4031c0:	910483e0 	add	x0, sp, #0x120
  4031c4:	94000127 	bl	403660 <_ZNSt6vectorINSt7__cxx1112basic_stringIcSt11char_traitsIcESaIcEEESaIS5_EED1Ev>
  4031c8:	aa1303e0 	mov	x0, x19
  4031cc:	97fffbd5 	bl	402120 <_Unwind_Resume@plt>
  4031d0:	aa0003f3 	mov	x19, x0
  4031d4:	910543e0 	add	x0, sp, #0x150
  4031d8:	97fffb82 	bl	401fe0 <_ZNSt7__cxx1112basic_stringIcSt11char_traitsIcESaIcEE10_M_disposeEv@plt>
  4031dc:	17fffff7 	b	4031b8 <main+0xff8>
  4031e0:	aa0003f3 	mov	x19, x0
  4031e4:	9106c3e0 	add	x0, sp, #0x1b0
  4031e8:	97fffb7e 	bl	401fe0 <_ZNSt7__cxx1112basic_stringIcSt11char_traitsIcESaIcEE10_M_disposeEv@plt>
  4031ec:	aa1c03e0 	mov	x0, x28
  4031f0:	9400023c 	bl	403ae0 <_ZN13PriorityQueueD1Ev>
  4031f4:	aa1303e0 	mov	x0, x19
  4031f8:	97fffbca 	bl	402120 <_Unwind_Resume@plt>
  4031fc:	aa0003f3 	mov	x19, x0
  403200:	17fffffb 	b	4031ec <main+0x102c>
  403204:	aa0003f3 	mov	x19, x0
  403208:	17ffffee 	b	4031c0 <main+0x1000>
  40320c:	aa0003f4 	mov	x20, x0
  403210:	d28000f3 	mov	x19, #0x7                   	// #7
  403214:	8b131780 	add	x0, x28, x19, lsl #5
  403218:	d1000673 	sub	x19, x19, #0x1
  40321c:	97fffb71 	bl	401fe0 <_ZNSt7__cxx1112basic_stringIcSt11char_traitsIcESaIcEE10_M_disposeEv@plt>
  403220:	b100067f 	cmn	x19, #0x1
  403224:	54ffff81 	b.ne	403214 <main+0x1054>  // b.any
  403228:	aa1403e0 	mov	x0, x20
  40322c:	97fffbbd 	bl	402120 <_Unwind_Resume@plt>
  403230:	aa0003f3 	mov	x19, x0
  403234:	17ffffe1 	b	4031b8 <main+0xff8>
  403238:	aa0003f3 	mov	x19, x0
  40323c:	91006380 	add	x0, x28, #0x18
  403240:	94000128 	bl	4036e0 <_ZNSt7__cxx1115basic_stringbufIcSt11char_traitsIcESaIcEED1Ev>
  403244:	90000161 	adrp	x1, 42f000 <__FRAME_END__+0x1a5d8>
  403248:	aa1c03e0 	mov	x0, x28
  40324c:	912c6021 	add	x1, x1, #0xb18
  403250:	97fffaf4 	bl	401e20 <_ZNSdD2Ev@plt>
  403254:	f9405fe1 	ldr	x1, [sp, #184]
  403258:	91020380 	add	x0, x28, #0x80
  40325c:	f9013fe1 	str	x1, [sp, #632]
  403260:	97fffb0c 	bl	401e90 <_ZNSt8ios_baseD2Ev@plt>
  403264:	17ffffd5 	b	4031b8 <main+0xff8>
  403268:	aa0003f3 	mov	x19, x0
  40326c:	17ffffd1 	b	4031b0 <main+0xff0>
  403270:	aa0003f3 	mov	x19, x0
  403274:	d28000f4 	mov	x20, #0x7                   	// #7
  403278:	8b141780 	add	x0, x28, x20, lsl #5
  40327c:	d1000694 	sub	x20, x20, #0x1
  403280:	97fffb58 	bl	401fe0 <_ZNSt7__cxx1112basic_stringIcSt11char_traitsIcESaIcEE10_M_disposeEv@plt>
  403284:	b100069f 	cmn	x20, #0x1
  403288:	54fff9c0 	b.eq	4031c0 <main+0x1000>  // b.none
  40328c:	17fffffb 	b	403278 <main+0x10b8>
  403290:	aa0003f3 	mov	x19, x0
  403294:	17ffffc7 	b	4031b0 <main+0xff0>
  403298:	17ffffe8 	b	403238 <main+0x1078>
  40329c:	f85e82c1 	ldur	x1, [x22, #-24]
  4032a0:	aa0003f3 	mov	x19, x0
  4032a4:	f900fff6 	str	x22, [sp, #504]
  4032a8:	f94063e0 	ldr	x0, [sp, #192]
  4032ac:	f8216b80 	str	x0, [x28, x1]
  4032b0:	f90103ff 	str	xzr, [sp, #512]
  4032b4:	17ffffe8 	b	403254 <main+0x1094>
  4032b8:	aa0003f3 	mov	x19, x0
  4032bc:	17ffffe6 	b	403254 <main+0x1094>
  4032c0:	aa0003f3 	mov	x19, x0
  4032c4:	17ffffe4 	b	403254 <main+0x1094>
  4032c8:	aa0003f3 	mov	x19, x0
  4032cc:	9106c3e0 	add	x0, sp, #0x1b0
  4032d0:	97fffb44 	bl	401fe0 <_ZNSt7__cxx1112basic_stringIcSt11char_traitsIcESaIcEE10_M_disposeEv@plt>
  4032d4:	17ffffb9 	b	4031b8 <main+0xff8>
  4032d8:	aa0003f3 	mov	x19, x0
  4032dc:	9106c3e0 	add	x0, sp, #0x1b0
  4032e0:	97fffb40 	bl	401fe0 <_ZNSt7__cxx1112basic_stringIcSt11char_traitsIcESaIcEE10_M_disposeEv@plt>
  4032e4:	17ffffb3 	b	4031b0 <main+0xff0>
  4032e8:	f85e8301 	ldur	x1, [x24, #-24]
  4032ec:	aa0003f3 	mov	x19, x0
  4032f0:	f900fff8 	str	x24, [sp, #504]
  4032f4:	f94067e0 	ldr	x0, [sp, #200]
  4032f8:	f8216b80 	str	x0, [x28, x1]
  4032fc:	f90103ff 	str	xzr, [sp, #512]
  403300:	17ffffd5 	b	403254 <main+0x1094>

0000000000403304 <_GLOBAL__sub_I_main>:
  403304:	a9be7bfd 	stp	x29, x30, [sp, #-32]!
  403308:	910003fd 	mov	x29, sp
  40330c:	f9000bf3 	str	x19, [sp, #16]
  403310:	b0000173 	adrp	x19, 430000 <_Znam@GLIBCXX_3.4>
  403314:	910c6273 	add	x19, x19, #0x318
  403318:	aa1303e0 	mov	x0, x19
  40331c:	97fffb5d 	bl	402090 <_ZNSt8ios_base4InitC1Ev@plt>
  403320:	aa1303e1 	mov	x1, x19
  403324:	b0000162 	adrp	x2, 430000 <_Znam@GLIBCXX_3.4>
  403328:	f9400bf3 	ldr	x19, [sp, #16]
  40332c:	9107a042 	add	x2, x2, #0x1e8
  403330:	a8c27bfd 	ldp	x29, x30, [sp], #32
  403334:	f0ffffe0 	adrp	x0, 402000 <_ZSt16__throw_bad_castv@plt>
  403338:	91060000 	add	x0, x0, #0x180
  40333c:	17fffb1d 	b	401fb0 <__cxa_atexit@plt>

0000000000403340 <_GLOBAL__sub_I__ZN5model5trainENSt7__cxx1112basic_stringIcSt11char_traitsIcESaIcEEE>:
  403340:	a9be7bfd 	stp	x29, x30, [sp, #-32]!
  403344:	910003fd 	mov	x29, sp
  403348:	f9000bf3 	str	x19, [sp, #16]
  40334c:	b0000173 	adrp	x19, 430000 <_Znam@GLIBCXX_3.4>
  403350:	910c8273 	add	x19, x19, #0x320
  403354:	aa1303e0 	mov	x0, x19
  403358:	97fffb4e 	bl	402090 <_ZNSt8ios_base4InitC1Ev@plt>
  40335c:	aa1303e1 	mov	x1, x19
  403360:	b0000162 	adrp	x2, 430000 <_Znam@GLIBCXX_3.4>
  403364:	f9400bf3 	ldr	x19, [sp, #16]
  403368:	9107a042 	add	x2, x2, #0x1e8
  40336c:	a8c27bfd 	ldp	x29, x30, [sp], #32
  403370:	f0ffffe0 	adrp	x0, 402000 <_ZSt16__throw_bad_castv@plt>
  403374:	91060000 	add	x0, x0, #0x180
  403378:	17fffb0e 	b	401fb0 <__cxa_atexit@plt>
  40337c:	d503201f 	nop

0000000000403380 <_GLOBAL__sub_I__ZN13PriorityQueue7CalProbER2PT>:
  403380:	a9be7bfd 	stp	x29, x30, [sp, #-32]!
  403384:	910003fd 	mov	x29, sp
  403388:	f9000bf3 	str	x19, [sp, #16]
  40338c:	b0000173 	adrp	x19, 430000 <_Znam@GLIBCXX_3.4>
  403390:	910ca273 	add	x19, x19, #0x328
  403394:	aa1303e0 	mov	x0, x19
  403398:	97fffb3e 	bl	402090 <_ZNSt8ios_base4InitC1Ev@plt>
  40339c:	aa1303e1 	mov	x1, x19
  4033a0:	b0000162 	adrp	x2, 430000 <_Znam@GLIBCXX_3.4>
  4033a4:	f9400bf3 	ldr	x19, [sp, #16]
  4033a8:	9107a042 	add	x2, x2, #0x1e8
  4033ac:	a8c27bfd 	ldp	x29, x30, [sp], #32
  4033b0:	f0ffffe0 	adrp	x0, 402000 <_ZSt16__throw_bad_castv@plt>
  4033b4:	91060000 	add	x0, x0, #0x180
  4033b8:	17fffafe 	b	401fb0 <__cxa_atexit@plt>
  4033bc:	d503201f 	nop

00000000004033c0 <_GLOBAL__sub_I__Z13StringProcessRKNSt7__cxx1112basic_stringIcSt11char_traitsIcESaIcEEEPi>:
  4033c0:	a9be7bfd 	stp	x29, x30, [sp, #-32]!
  4033c4:	910003fd 	mov	x29, sp
  4033c8:	f9000bf3 	str	x19, [sp, #16]
  4033cc:	b0000173 	adrp	x19, 430000 <_Znam@GLIBCXX_3.4>
  4033d0:	910cc273 	add	x19, x19, #0x330
  4033d4:	aa1303e0 	mov	x0, x19
  4033d8:	97fffb2e 	bl	402090 <_ZNSt8ios_base4InitC1Ev@plt>
  4033dc:	aa1303e1 	mov	x1, x19
  4033e0:	b0000162 	adrp	x2, 430000 <_Znam@GLIBCXX_3.4>
  4033e4:	f9400bf3 	ldr	x19, [sp, #16]
  4033e8:	9107a042 	add	x2, x2, #0x1e8
  4033ec:	a8c27bfd 	ldp	x29, x30, [sp], #32
  4033f0:	f0ffffe0 	adrp	x0, 402000 <_ZSt16__throw_bad_castv@plt>
  4033f4:	91060000 	add	x0, x0, #0x180
  4033f8:	17fffaee 	b	401fb0 <__cxa_atexit@plt>
  4033fc:	d503201f 	nop

0000000000403400 <_start>:
  403400:	d503201f 	nop
  403404:	d280001d 	mov	x29, #0x0                   	// #0
  403408:	d280001e 	mov	x30, #0x0                   	// #0
  40340c:	aa0003e5 	mov	x5, x0
  403410:	f94003e1 	ldr	x1, [sp]
  403414:	910023e2 	add	x2, sp, #0x8
  403418:	910003e6 	mov	x6, sp
  40341c:	90000000 	adrp	x0, 403000 <main+0xe40>
  403420:	9110d000 	add	x0, x0, #0x434
  403424:	d2800003 	mov	x3, #0x0                   	// #0
  403428:	d2800004 	mov	x4, #0x0                   	// #0
  40342c:	97fffac5 	bl	401f40 <__libc_start_main@plt>
  403430:	97fffb24 	bl	4020c0 <abort@plt>

0000000000403434 <__wrap_main>:
  403434:	d503201f 	nop
  403438:	17fffb62 	b	4021c0 <main>
  40343c:	d503201f 	nop

0000000000403440 <_dl_relocate_static_pie>:
  403440:	d65f03c0 	ret

0000000000403444 <call_weak_fn>:
  403444:	90000160 	adrp	x0, 42f000 <__FRAME_END__+0x1a5d8>
  403448:	f947ec00 	ldr	x0, [x0, #4056]
  40344c:	b4000040 	cbz	x0, 403454 <call_weak_fn+0x10>
  403450:	17fffb44 	b	402160 <__gmon_start__@plt>
  403454:	d65f03c0 	ret
  403458:	d503201f 	nop
  40345c:	d503201f 	nop

0000000000403460 <deregister_tm_clones>:
  403460:	b0000160 	adrp	x0, 430000 <_Znam@GLIBCXX_3.4>
  403464:	9107e000 	add	x0, x0, #0x1f8
  403468:	b0000161 	adrp	x1, 430000 <_Znam@GLIBCXX_3.4>
  40346c:	9107e021 	add	x1, x1, #0x1f8
  403470:	eb00003f 	cmp	x1, x0
  403474:	540000c0 	b.eq	40348c <deregister_tm_clones+0x2c>  // b.none
  403478:	90000161 	adrp	x1, 42f000 <__FRAME_END__+0x1a5d8>
  40347c:	f947e821 	ldr	x1, [x1, #4048]
  403480:	b4000061 	cbz	x1, 40348c <deregister_tm_clones+0x2c>
  403484:	aa0103f0 	mov	x16, x1
  403488:	d61f0200 	br	x16
  40348c:	d65f03c0 	ret

0000000000403490 <register_tm_clones>:
  403490:	b0000160 	adrp	x0, 430000 <_Znam@GLIBCXX_3.4>
  403494:	9107e000 	add	x0, x0, #0x1f8
  403498:	b0000161 	adrp	x1, 430000 <_Znam@GLIBCXX_3.4>
  40349c:	9107e021 	add	x1, x1, #0x1f8
  4034a0:	cb000021 	sub	x1, x1, x0
  4034a4:	d37ffc22 	lsr	x2, x1, #63
  4034a8:	8b810c41 	add	x1, x2, x1, asr #3
  4034ac:	9341fc21 	asr	x1, x1, #1
  4034b0:	b40000c1 	cbz	x1, 4034c8 <register_tm_clones+0x38>
  4034b4:	90000162 	adrp	x2, 42f000 <__FRAME_END__+0x1a5d8>
  4034b8:	f947f042 	ldr	x2, [x2, #4064]
  4034bc:	b4000062 	cbz	x2, 4034c8 <register_tm_clones+0x38>
  4034c0:	aa0203f0 	mov	x16, x2
  4034c4:	d61f0200 	br	x16
  4034c8:	d65f03c0 	ret
  4034cc:	d503201f 	nop

00000000004034d0 <__do_global_dtors_aux>:
  4034d0:	a9be7bfd 	stp	x29, x30, [sp, #-32]!
  4034d4:	910003fd 	mov	x29, sp
  4034d8:	f9000bf3 	str	x19, [sp, #16]
  4034dc:	b0000173 	adrp	x19, 430000 <_Znam@GLIBCXX_3.4>
  4034e0:	394c4260 	ldrb	w0, [x19, #784]
  4034e4:	35000080 	cbnz	w0, 4034f4 <__do_global_dtors_aux+0x24>
  4034e8:	97ffffde 	bl	403460 <deregister_tm_clones>
  4034ec:	52800020 	mov	w0, #0x1                   	// #1
  4034f0:	390c4260 	strb	w0, [x19, #784]
  4034f4:	f9400bf3 	ldr	x19, [sp, #16]
  4034f8:	a8c27bfd 	ldp	x29, x30, [sp], #32
  4034fc:	d65f03c0 	ret

0000000000403500 <frame_dummy>:
  403500:	17ffffe4 	b	403490 <register_tm_clones>
  403504:	d503201f 	nop
  403508:	d503201f 	nop
  40350c:	d503201f 	nop

0000000000403510 <_ZNSt7__cxx1112basic_stringIcSt11char_traitsIcESaIcEEC2EPKcRKS3_.constprop.0>:
  403510:	a9bc7bfd 	stp	x29, x30, [sp, #-64]!
  403514:	910003fd 	mov	x29, sp
  403518:	a90153f3 	stp	x19, x20, [sp, #16]
  40351c:	a9025bf5 	stp	x21, x22, [sp, #32]
  403520:	91004016 	add	x22, x0, #0x10
  403524:	f9000016 	str	x22, [x0]
  403528:	b4000481 	cbz	x1, 4035b8 <_ZNSt7__cxx1112basic_stringIcSt11char_traitsIcESaIcEEC2EPKcRKS3_.constprop.0+0xa8>
  40352c:	aa0003f3 	mov	x19, x0
  403530:	aa0103f5 	mov	x21, x1
  403534:	aa0103e0 	mov	x0, x1
  403538:	97fffa4e 	bl	401e70 <strlen@plt>
  40353c:	f9001fe0 	str	x0, [sp, #56]
  403540:	aa0003f4 	mov	x20, x0
  403544:	f1003c1f 	cmp	x0, #0xf
  403548:	540001e8 	b.hi	403584 <_ZNSt7__cxx1112basic_stringIcSt11char_traitsIcESaIcEEC2EPKcRKS3_.constprop.0+0x74>  // b.pmore
  40354c:	f100041f 	cmp	x0, #0x1
  403550:	54000161 	b.ne	40357c <_ZNSt7__cxx1112basic_stringIcSt11char_traitsIcESaIcEEC2EPKcRKS3_.constprop.0+0x6c>  // b.any
  403554:	394002a0 	ldrb	w0, [x21]
  403558:	39004260 	strb	w0, [x19, #16]
  40355c:	f9400261 	ldr	x1, [x19]
  403560:	f9401fe0 	ldr	x0, [sp, #56]
  403564:	f9000660 	str	x0, [x19, #8]
  403568:	3820683f 	strb	wzr, [x1, x0]
  40356c:	a94153f3 	ldp	x19, x20, [sp, #16]
  403570:	a9425bf5 	ldp	x21, x22, [sp, #32]
  403574:	a8c47bfd 	ldp	x29, x30, [sp], #64
  403578:	d65f03c0 	ret
  40357c:	b4ffff00 	cbz	x0, 40355c <_ZNSt7__cxx1112basic_stringIcSt11char_traitsIcESaIcEEC2EPKcRKS3_.constprop.0+0x4c>
  403580:	14000009 	b	4035a4 <_ZNSt7__cxx1112basic_stringIcSt11char_traitsIcESaIcEEC2EPKcRKS3_.constprop.0+0x94>
  403584:	9100e3e1 	add	x1, sp, #0x38
  403588:	aa1303e0 	mov	x0, x19
  40358c:	d2800002 	mov	x2, #0x0                   	// #0
  403590:	97fffae8 	bl	402130 <_ZNSt7__cxx1112basic_stringIcSt11char_traitsIcESaIcEE9_M_createERmm@plt>
  403594:	aa0003f6 	mov	x22, x0
  403598:	f9000260 	str	x0, [x19]
  40359c:	f9401fe1 	ldr	x1, [sp, #56]
  4035a0:	f9000a61 	str	x1, [x19, #16]
  4035a4:	aa1403e2 	mov	x2, x20
  4035a8:	aa1503e1 	mov	x1, x21
  4035ac:	aa1603e0 	mov	x0, x22
  4035b0:	97fffa14 	bl	401e00 <memcpy@plt>
  4035b4:	17ffffea 	b	40355c <_ZNSt7__cxx1112basic_stringIcSt11char_traitsIcESaIcEEC2EPKcRKS3_.constprop.0+0x4c>
  4035b8:	f0000060 	adrp	x0, 412000 <_Z19MD5Hash_simdversionPKNSt7__cxx1112basic_stringIcSt11char_traitsIcESaIcEEEP12__Uint32x4_t+0x1000>
  4035bc:	91266000 	add	x0, x0, #0x998
  4035c0:	97fffa58 	bl	401f20 <_ZSt19__throw_logic_errorPKc@plt>

00000000004035c4 <_ZSt4endlIcSt11char_traitsIcEERSt13basic_ostreamIT_T0_ES6_.isra.0>:
  4035c4:	a9be7bfd 	stp	x29, x30, [sp, #-32]!
  4035c8:	910003fd 	mov	x29, sp
  4035cc:	a90153f3 	stp	x19, x20, [sp, #16]
  4035d0:	aa0003f3 	mov	x19, x0
  4035d4:	f9400000 	ldr	x0, [x0]
  4035d8:	f85e8000 	ldur	x0, [x0, #-24]
  4035dc:	8b000260 	add	x0, x19, x0
  4035e0:	f9407814 	ldr	x20, [x0, #240]
  4035e4:	b4000314 	cbz	x20, 403644 <_ZSt4endlIcSt11char_traitsIcEERSt13basic_ostreamIT_T0_ES6_.isra.0+0x80>
  4035e8:	3940e280 	ldrb	w0, [x20, #56]
  4035ec:	340000e0 	cbz	w0, 403608 <_ZSt4endlIcSt11char_traitsIcEERSt13basic_ostreamIT_T0_ES6_.isra.0+0x44>
  4035f0:	39410e81 	ldrb	w1, [x20, #67]
  4035f4:	aa1303e0 	mov	x0, x19
  4035f8:	97fff9fa 	bl	401de0 <_ZNSo3putEc@plt>
  4035fc:	a94153f3 	ldp	x19, x20, [sp, #16]
  403600:	a8c27bfd 	ldp	x29, x30, [sp], #32
  403604:	17fffa43 	b	401f10 <_ZNSo5flushEv@plt>
  403608:	aa1403e0 	mov	x0, x20
  40360c:	97fffa71 	bl	401fd0 <_ZNKSt5ctypeIcE13_M_widen_initEv@plt>
  403610:	f9400281 	ldr	x1, [x20]
  403614:	90000000 	adrp	x0, 403000 <main+0xe40>
  403618:	91194000 	add	x0, x0, #0x650
  40361c:	f9401822 	ldr	x2, [x1, #48]
  403620:	eb00005f 	cmp	x2, x0
  403624:	54000061 	b.ne	403630 <_ZSt4endlIcSt11char_traitsIcEERSt13basic_ostreamIT_T0_ES6_.isra.0+0x6c>  // b.any
  403628:	52800141 	mov	w1, #0xa                   	// #10
  40362c:	17fffff2 	b	4035f4 <_ZSt4endlIcSt11char_traitsIcEERSt13basic_ostreamIT_T0_ES6_.isra.0+0x30>
  403630:	52800141 	mov	w1, #0xa                   	// #10
  403634:	aa1403e0 	mov	x0, x20
  403638:	d63f0040 	blr	x2
  40363c:	12001c01 	and	w1, w0, #0xff
  403640:	17ffffed 	b	4035f4 <_ZSt4endlIcSt11char_traitsIcEERSt13basic_ostreamIT_T0_ES6_.isra.0+0x30>
  403644:	97fffa6f 	bl	402000 <_ZSt16__throw_bad_castv@plt>
  403648:	d503201f 	nop
  40364c:	d503201f 	nop

0000000000403650 <_ZNKSt5ctypeIcE8do_widenEc>:
  403650:	2a0103e0 	mov	w0, w1
  403654:	d65f03c0 	ret
  403658:	d503201f 	nop
  40365c:	d503201f 	nop

0000000000403660 <_ZNSt6vectorINSt7__cxx1112basic_stringIcSt11char_traitsIcESaIcEEESaIS5_EED1Ev>:
  403660:	a9bd7bfd 	stp	x29, x30, [sp, #-48]!
  403664:	910003fd 	mov	x29, sp
  403668:	a90153f3 	stp	x19, x20, [sp, #16]
  40366c:	a9405013 	ldp	x19, x20, [x0]
  403670:	f90013f5 	str	x21, [sp, #32]
  403674:	aa0003f5 	mov	x21, x0
  403678:	eb14027f 	cmp	x19, x20
  40367c:	54000180 	b.eq	4036ac <_ZNSt6vectorINSt7__cxx1112basic_stringIcSt11char_traitsIcESaIcEEESaIS5_EED1Ev+0x4c>  // b.none
  403680:	aa1303e1 	mov	x1, x19
  403684:	f8410420 	ldr	x0, [x1], #16
  403688:	eb01001f 	cmp	x0, x1
  40368c:	54000080 	b.eq	40369c <_ZNSt6vectorINSt7__cxx1112basic_stringIcSt11char_traitsIcESaIcEEESaIS5_EED1Ev+0x3c>  // b.none
  403690:	f9400a61 	ldr	x1, [x19, #16]
  403694:	91000421 	add	x1, x1, #0x1
  403698:	97fffa3e 	bl	401f90 <_ZdlPvm@plt>
  40369c:	91008273 	add	x19, x19, #0x20
  4036a0:	eb13029f 	cmp	x20, x19
  4036a4:	54fffee1 	b.ne	403680 <_ZNSt6vectorINSt7__cxx1112basic_stringIcSt11char_traitsIcESaIcEEESaIS5_EED1Ev+0x20>  // b.any
  4036a8:	f94002b4 	ldr	x20, [x21]
  4036ac:	b4000114 	cbz	x20, 4036cc <_ZNSt6vectorINSt7__cxx1112basic_stringIcSt11char_traitsIcESaIcEEESaIS5_EED1Ev+0x6c>
  4036b0:	f9400aa1 	ldr	x1, [x21, #16]
  4036b4:	aa1403e0 	mov	x0, x20
  4036b8:	f94013f5 	ldr	x21, [sp, #32]
  4036bc:	cb140021 	sub	x1, x1, x20
  4036c0:	a94153f3 	ldp	x19, x20, [sp, #16]
  4036c4:	a8c37bfd 	ldp	x29, x30, [sp], #48
  4036c8:	17fffa32 	b	401f90 <_ZdlPvm@plt>
  4036cc:	a94153f3 	ldp	x19, x20, [sp, #16]
  4036d0:	f94013f5 	ldr	x21, [sp, #32]
  4036d4:	a8c37bfd 	ldp	x29, x30, [sp], #48
  4036d8:	d65f03c0 	ret
  4036dc:	d503201f 	nop

00000000004036e0 <_ZNSt7__cxx1115basic_stringbufIcSt11char_traitsIcESaIcEED1Ev>:
  4036e0:	a9be7bfd 	stp	x29, x30, [sp, #-32]!
  4036e4:	aa0003e2 	mov	x2, x0
  4036e8:	91016003 	add	x3, x0, #0x58
  4036ec:	910003fd 	mov	x29, sp
  4036f0:	f9000bf3 	str	x19, [sp, #16]
  4036f4:	aa0003f3 	mov	x19, x0
  4036f8:	f9402400 	ldr	x0, [x0, #72]
  4036fc:	90000161 	adrp	x1, 42f000 <__FRAME_END__+0x1a5d8>
  403700:	91356021 	add	x1, x1, #0xd58
  403704:	f8048441 	str	x1, [x2], #72
  403708:	eb03001f 	cmp	x0, x3
  40370c:	54000080 	b.eq	40371c <_ZNSt7__cxx1115basic_stringbufIcSt11char_traitsIcESaIcEED1Ev+0x3c>  // b.none
  403710:	f9400841 	ldr	x1, [x2, #16]
  403714:	91000421 	add	x1, x1, #0x1
  403718:	97fffa1e 	bl	401f90 <_ZdlPvm@plt>
  40371c:	aa1303e0 	mov	x0, x19
  403720:	90000161 	adrp	x1, 42f000 <__FRAME_END__+0x1a5d8>
  403724:	912dc021 	add	x1, x1, #0xb70
  403728:	f9400bf3 	ldr	x19, [sp, #16]
  40372c:	f8038401 	str	x1, [x0], #56
  403730:	a8c27bfd 	ldp	x29, x30, [sp], #32
  403734:	17fffa4b 	b	402060 <_ZNSt6localeD1Ev@plt>
  403738:	d503201f 	nop
  40373c:	d503201f 	nop

0000000000403740 <_ZNSt7__cxx1115basic_stringbufIcSt11char_traitsIcESaIcEED0Ev>:
  403740:	a9be7bfd 	stp	x29, x30, [sp, #-32]!
  403744:	aa0003e2 	mov	x2, x0
  403748:	91016003 	add	x3, x0, #0x58
  40374c:	910003fd 	mov	x29, sp
  403750:	f9000bf3 	str	x19, [sp, #16]
  403754:	aa0003f3 	mov	x19, x0
  403758:	f9402400 	ldr	x0, [x0, #72]
  40375c:	90000161 	adrp	x1, 42f000 <__FRAME_END__+0x1a5d8>
  403760:	91356021 	add	x1, x1, #0xd58
  403764:	f8048441 	str	x1, [x2], #72
  403768:	eb03001f 	cmp	x0, x3
  40376c:	54000080 	b.eq	40377c <_ZNSt7__cxx1115basic_stringbufIcSt11char_traitsIcESaIcEED0Ev+0x3c>  // b.none
  403770:	f9400841 	ldr	x1, [x2, #16]
  403774:	91000421 	add	x1, x1, #0x1
  403778:	97fffa06 	bl	401f90 <_ZdlPvm@plt>
  40377c:	aa1303e0 	mov	x0, x19
  403780:	90000161 	adrp	x1, 42f000 <__FRAME_END__+0x1a5d8>
  403784:	912dc021 	add	x1, x1, #0xb70
  403788:	f8038401 	str	x1, [x0], #56
  40378c:	97fffa35 	bl	402060 <_ZNSt6localeD1Ev@plt>
  403790:	aa1303e0 	mov	x0, x19
  403794:	d2800d01 	mov	x1, #0x68                  	// #104
  403798:	f9400bf3 	ldr	x19, [sp, #16]
  40379c:	a8c27bfd 	ldp	x29, x30, [sp], #32
  4037a0:	17fff9fc 	b	401f90 <_ZdlPvm@plt>
  4037a4:	d503201f 	nop
  4037a8:	d503201f 	nop
  4037ac:	d503201f 	nop

00000000004037b0 <_ZNSt6vectorINSt7__cxx1112basic_stringIcSt11char_traitsIcESaIcEEESaIS5_EEC1ESt16initializer_listIS5_ERKS6_>:
  4037b0:	a9ba7bfd 	stp	x29, x30, [sp, #-96]!
  4037b4:	910003fd 	mov	x29, sp
  4037b8:	a90363f7 	stp	x23, x24, [sp, #48]
  4037bc:	aa0003f8 	mov	x24, x0
  4037c0:	a90153f3 	stp	x19, x20, [sp, #16]
  4037c4:	d37be853 	lsl	x19, x2, #5
  4037c8:	8b130037 	add	x23, x1, x19
  4037cc:	a9025bf5 	stp	x21, x22, [sp, #32]
  4037d0:	f90023f9 	str	x25, [sp, #64]
  4037d4:	f900001f 	str	xzr, [x0]
  4037d8:	b27be7e0 	mov	x0, #0x7fffffffffffffe0    	// #9223372036854775776
  4037dc:	a900ff1f 	stp	xzr, xzr, [x24, #8]
  4037e0:	eb00027f 	cmp	x19, x0
  4037e4:	54000928 	b.hi	403908 <_ZNSt6vectorINSt7__cxx1112basic_stringIcSt11char_traitsIcESaIcEEESaIS5_EEC1ESt16initializer_listIS5_ERKS6_+0x158>  // b.pmore
  4037e8:	b4000773 	cbz	x19, 4038d4 <_ZNSt6vectorINSt7__cxx1112basic_stringIcSt11char_traitsIcESaIcEEESaIS5_EEC1ESt16initializer_listIS5_ERKS6_+0x124>
  4037ec:	aa0103f4 	mov	x20, x1
  4037f0:	aa0103f5 	mov	x21, x1
  4037f4:	aa1303e0 	mov	x0, x19
  4037f8:	97fff9e2 	bl	401f80 <_Znwm@plt>
  4037fc:	8b130013 	add	x19, x0, x19
  403800:	f9000300 	str	x0, [x24]
  403804:	f9000b13 	str	x19, [x24, #16]
  403808:	eb1402ff 	cmp	x23, x20
  40380c:	aa0003f9 	mov	x25, x0
  403810:	aa0003f4 	mov	x20, x0
  403814:	54000141 	b.ne	40383c <_ZNSt6vectorINSt7__cxx1112basic_stringIcSt11char_traitsIcESaIcEEESaIS5_EEC1ESt16initializer_listIS5_ERKS6_+0x8c>  // b.any
  403818:	1400001b 	b	403884 <_ZNSt6vectorINSt7__cxx1112basic_stringIcSt11char_traitsIcESaIcEEESaIS5_EEC1ESt16initializer_listIS5_ERKS6_+0xd4>
  40381c:	394002c1 	ldrb	w1, [x22]
  403820:	39004281 	strb	w1, [x20, #16]
  403824:	f9000693 	str	x19, [x20, #8]
  403828:	910082b5 	add	x21, x21, #0x20
  40382c:	3833681f 	strb	wzr, [x0, x19]
  403830:	91008294 	add	x20, x20, #0x20
  403834:	eb1502ff 	cmp	x23, x21
  403838:	54000260 	b.eq	403884 <_ZNSt6vectorINSt7__cxx1112basic_stringIcSt11char_traitsIcESaIcEEESaIS5_EEC1ESt16initializer_listIS5_ERKS6_+0xd4>  // b.none
  40383c:	a9404eb6 	ldp	x22, x19, [x21]
  403840:	91004280 	add	x0, x20, #0x10
  403844:	f9000280 	str	x0, [x20]
  403848:	ab1302df 	cmn	x22, x19
  40384c:	fa401ac0 	ccmp	x22, #0x0, #0x0, ne  // ne = any
  403850:	54000560 	b.eq	4038fc <_ZNSt6vectorINSt7__cxx1112basic_stringIcSt11char_traitsIcESaIcEEESaIS5_EEC1ESt16initializer_listIS5_ERKS6_+0x14c>  // b.none
  403854:	f9002ff3 	str	x19, [sp, #88]
  403858:	f1003e7f 	cmp	x19, #0xf
  40385c:	54000228 	b.hi	4038a0 <_ZNSt6vectorINSt7__cxx1112basic_stringIcSt11char_traitsIcESaIcEEESaIS5_EEC1ESt16initializer_listIS5_ERKS6_+0xf0>  // b.pmore
  403860:	f100067f 	cmp	x19, #0x1
  403864:	54fffdc0 	b.eq	40381c <_ZNSt6vectorINSt7__cxx1112basic_stringIcSt11char_traitsIcESaIcEEESaIS5_EEC1ESt16initializer_listIS5_ERKS6_+0x6c>  // b.none
  403868:	b50002b3 	cbnz	x19, 4038bc <_ZNSt6vectorINSt7__cxx1112basic_stringIcSt11char_traitsIcESaIcEEESaIS5_EEC1ESt16initializer_listIS5_ERKS6_+0x10c>
  40386c:	f9000693 	str	x19, [x20, #8]
  403870:	910082b5 	add	x21, x21, #0x20
  403874:	3833681f 	strb	wzr, [x0, x19]
  403878:	91008294 	add	x20, x20, #0x20
  40387c:	eb1502ff 	cmp	x23, x21
  403880:	54fffde1 	b.ne	40383c <_ZNSt6vectorINSt7__cxx1112basic_stringIcSt11char_traitsIcESaIcEEESaIS5_EEC1ESt16initializer_listIS5_ERKS6_+0x8c>  // b.any
  403884:	a9425bf5 	ldp	x21, x22, [sp, #32]
  403888:	f94023f9 	ldr	x25, [sp, #64]
  40388c:	f9000714 	str	x20, [x24, #8]
  403890:	a94153f3 	ldp	x19, x20, [sp, #16]
  403894:	a94363f7 	ldp	x23, x24, [sp, #48]
  403898:	a8c67bfd 	ldp	x29, x30, [sp], #96
  40389c:	d65f03c0 	ret
  4038a0:	910163e1 	add	x1, sp, #0x58
  4038a4:	aa1403e0 	mov	x0, x20
  4038a8:	d2800002 	mov	x2, #0x0                   	// #0
  4038ac:	97fffa21 	bl	402130 <_ZNSt7__cxx1112basic_stringIcSt11char_traitsIcESaIcEE9_M_createERmm@plt>
  4038b0:	f9402fe1 	ldr	x1, [sp, #88]
  4038b4:	f9000280 	str	x0, [x20]
  4038b8:	f9000a81 	str	x1, [x20, #16]
  4038bc:	aa1303e2 	mov	x2, x19
  4038c0:	aa1603e1 	mov	x1, x22
  4038c4:	97fff94f 	bl	401e00 <memcpy@plt>
  4038c8:	f9400280 	ldr	x0, [x20]
  4038cc:	f9402ff3 	ldr	x19, [sp, #88]
  4038d0:	17ffffd5 	b	403824 <_ZNSt6vectorINSt7__cxx1112basic_stringIcSt11char_traitsIcESaIcEEESaIS5_EEC1ESt16initializer_listIS5_ERKS6_+0x74>
  4038d4:	d2800014 	mov	x20, #0x0                   	// #0
  4038d8:	f900031f 	str	xzr, [x24]
  4038dc:	f9000b1f 	str	xzr, [x24, #16]
  4038e0:	a9425bf5 	ldp	x21, x22, [sp, #32]
  4038e4:	f94023f9 	ldr	x25, [sp, #64]
  4038e8:	f9000714 	str	x20, [x24, #8]
  4038ec:	a94153f3 	ldp	x19, x20, [sp, #16]
  4038f0:	a94363f7 	ldp	x23, x24, [sp, #48]
  4038f4:	a8c67bfd 	ldp	x29, x30, [sp], #96
  4038f8:	d65f03c0 	ret
  4038fc:	f0000060 	adrp	x0, 412000 <_Z19MD5Hash_simdversionPKNSt7__cxx1112basic_stringIcSt11char_traitsIcESaIcEEEP12__Uint32x4_t+0x1000>
  403900:	91266000 	add	x0, x0, #0x998
  403904:	97fff987 	bl	401f20 <_ZSt19__throw_logic_errorPKc@plt>
  403908:	f0000060 	adrp	x0, 412000 <_Z19MD5Hash_simdversionPKNSt7__cxx1112basic_stringIcSt11char_traitsIcESaIcEEEP12__Uint32x4_t+0x1000>
  40390c:	9133a000 	add	x0, x0, #0xce8
  403910:	97fff970 	bl	401ed0 <_ZSt20__throw_length_errorPKc@plt>
  403914:	aa0003f3 	mov	x19, x0
  403918:	f9400300 	ldr	x0, [x24]
  40391c:	f9400b01 	ldr	x1, [x24, #16]
  403920:	cb000021 	sub	x1, x1, x0
  403924:	b4000040 	cbz	x0, 40392c <_ZNSt6vectorINSt7__cxx1112basic_stringIcSt11char_traitsIcESaIcEEESaIS5_EEC1ESt16initializer_listIS5_ERKS6_+0x17c>
  403928:	97fff99a 	bl	401f90 <_ZdlPvm@plt>
  40392c:	aa1303e0 	mov	x0, x19
  403930:	97fff9fc 	bl	402120 <_Unwind_Resume@plt>
  403934:	97fff95f 	bl	401eb0 <__cxa_begin_catch@plt>
  403938:	eb19029f 	cmp	x20, x25
  40393c:	54000041 	b.ne	403944 <_ZNSt6vectorINSt7__cxx1112basic_stringIcSt11char_traitsIcESaIcEEESaIS5_EEC1ESt16initializer_listIS5_ERKS6_+0x194>  // b.any
  403940:	97fff9d0 	bl	402080 <__cxa_rethrow@plt>
  403944:	aa1903e0 	mov	x0, x25
  403948:	91008339 	add	x25, x25, #0x20
  40394c:	97fff9a5 	bl	401fe0 <_ZNSt7__cxx1112basic_stringIcSt11char_traitsIcESaIcEE10_M_disposeEv@plt>
  403950:	17fffffa 	b	403938 <_ZNSt6vectorINSt7__cxx1112basic_stringIcSt11char_traitsIcESaIcEEESaIS5_EEC1ESt16initializer_listIS5_ERKS6_+0x188>
  403954:	aa0003f3 	mov	x19, x0
  403958:	97fff9e2 	bl	4020e0 <__cxa_end_catch@plt>
  40395c:	17ffffef 	b	403918 <_ZNSt6vectorINSt7__cxx1112basic_stringIcSt11char_traitsIcESaIcEEESaIS5_EEC1ESt16initializer_listIS5_ERKS6_+0x168>

0000000000403960 <_ZNSt6vectorI7segmentSaIS0_EED1Ev>:
  403960:	a9bc7bfd 	stp	x29, x30, [sp, #-64]!
  403964:	910003fd 	mov	x29, sp
  403968:	a9025bf5 	stp	x21, x22, [sp, #32]
  40396c:	a9405815 	ldp	x21, x22, [x0]
  403970:	f9001bf7 	str	x23, [sp, #48]
  403974:	aa0003f7 	mov	x23, x0
  403978:	eb1602bf 	cmp	x21, x22
  40397c:	54000980 	b.eq	403aac <_ZNSt6vectorI7segmentSaIS0_EED1Ev+0x14c>  // b.none
  403980:	a90153f3 	stp	x19, x20, [sp, #16]
  403984:	d503201f 	nop
  403988:	f94046b3 	ldr	x19, [x21, #136]
  40398c:	b40000d3 	cbz	x19, 4039a4 <_ZNSt6vectorI7segmentSaIS0_EED1Ev+0x44>
  403990:	aa1303e0 	mov	x0, x19
  403994:	d2800201 	mov	x1, #0x10                  	// #16
  403998:	f9400273 	ldr	x19, [x19]
  40399c:	97fff97d 	bl	401f90 <_ZdlPvm@plt>
  4039a0:	b5ffff93 	cbnz	x19, 403990 <_ZNSt6vectorI7segmentSaIS0_EED1Ev+0x30>
  4039a4:	a9478aa0 	ldp	x0, x2, [x21, #120]
  4039a8:	52800001 	mov	w1, #0x0                   	// #0
  4039ac:	d37df042 	lsl	x2, x2, #3
  4039b0:	97fff950 	bl	401ef0 <memset@plt>
  4039b4:	a94786a0 	ldp	x0, x1, [x21, #120]
  4039b8:	9102a2a2 	add	x2, x21, #0xa8
  4039bc:	a908febf 	stp	xzr, xzr, [x21, #136]
  4039c0:	eb02001f 	cmp	x0, x2
  4039c4:	54000060 	b.eq	4039d0 <_ZNSt6vectorI7segmentSaIS0_EED1Ev+0x70>  // b.none
  4039c8:	d37df021 	lsl	x1, x1, #3
  4039cc:	97fff971 	bl	401f90 <_ZdlPvm@plt>
  4039d0:	f9402ab4 	ldr	x20, [x21, #80]
  4039d4:	b40001d4 	cbz	x20, 403a0c <_ZNSt6vectorI7segmentSaIS0_EED1Ev+0xac>
  4039d8:	f9400680 	ldr	x0, [x20, #8]
  4039dc:	91006281 	add	x1, x20, #0x18
  4039e0:	aa1403f3 	mov	x19, x20
  4039e4:	f9400294 	ldr	x20, [x20]
  4039e8:	eb01001f 	cmp	x0, x1
  4039ec:	54000080 	b.eq	4039fc <_ZNSt6vectorI7segmentSaIS0_EED1Ev+0x9c>  // b.none
  4039f0:	f9400e61 	ldr	x1, [x19, #24]
  4039f4:	91000421 	add	x1, x1, #0x1
  4039f8:	97fff966 	bl	401f90 <_ZdlPvm@plt>
  4039fc:	aa1303e0 	mov	x0, x19
  403a00:	d2800701 	mov	x1, #0x38                  	// #56
  403a04:	97fff963 	bl	401f90 <_ZdlPvm@plt>
  403a08:	b5fffe94 	cbnz	x20, 4039d8 <_ZNSt6vectorI7segmentSaIS0_EED1Ev+0x78>
  403a0c:	a9440aa0 	ldp	x0, x2, [x21, #64]
  403a10:	52800001 	mov	w1, #0x0                   	// #0
  403a14:	d37df042 	lsl	x2, x2, #3
  403a18:	97fff936 	bl	401ef0 <memset@plt>
  403a1c:	a94406a0 	ldp	x0, x1, [x21, #64]
  403a20:	9101c2a2 	add	x2, x21, #0x70
  403a24:	a9057ebf 	stp	xzr, xzr, [x21, #80]
  403a28:	eb02001f 	cmp	x0, x2
  403a2c:	54000060 	b.eq	403a38 <_ZNSt6vectorI7segmentSaIS0_EED1Ev+0xd8>  // b.none
  403a30:	d37df021 	lsl	x1, x1, #3
  403a34:	97fff957 	bl	401f90 <_ZdlPvm@plt>
  403a38:	f94012a0 	ldr	x0, [x21, #32]
  403a3c:	b4000080 	cbz	x0, 403a4c <_ZNSt6vectorI7segmentSaIS0_EED1Ev+0xec>
  403a40:	f9401aa1 	ldr	x1, [x21, #48]
  403a44:	cb000021 	sub	x1, x1, x0
  403a48:	97fff952 	bl	401f90 <_ZdlPvm@plt>
  403a4c:	a940d2b3 	ldp	x19, x20, [x21, #8]
  403a50:	eb14027f 	cmp	x19, x20
  403a54:	54000180 	b.eq	403a84 <_ZNSt6vectorI7segmentSaIS0_EED1Ev+0x124>  // b.none
  403a58:	aa1303e1 	mov	x1, x19
  403a5c:	f8410420 	ldr	x0, [x1], #16
  403a60:	eb01001f 	cmp	x0, x1
  403a64:	54000080 	b.eq	403a74 <_ZNSt6vectorI7segmentSaIS0_EED1Ev+0x114>  // b.none
  403a68:	f9400a61 	ldr	x1, [x19, #16]
  403a6c:	91000421 	add	x1, x1, #0x1
  403a70:	97fff948 	bl	401f90 <_ZdlPvm@plt>
  403a74:	91008273 	add	x19, x19, #0x20
  403a78:	eb13029f 	cmp	x20, x19
  403a7c:	54fffee1 	b.ne	403a58 <_ZNSt6vectorI7segmentSaIS0_EED1Ev+0xf8>  // b.any
  403a80:	f94006b4 	ldr	x20, [x21, #8]
  403a84:	b40000b4 	cbz	x20, 403a98 <_ZNSt6vectorI7segmentSaIS0_EED1Ev+0x138>
  403a88:	f9400ea1 	ldr	x1, [x21, #24]
  403a8c:	aa1403e0 	mov	x0, x20
  403a90:	cb140021 	sub	x1, x1, x20
  403a94:	97fff93f 	bl	401f90 <_ZdlPvm@plt>
  403a98:	9102c2b5 	add	x21, x21, #0xb0
  403a9c:	eb1502df 	cmp	x22, x21
  403aa0:	54fff741 	b.ne	403988 <_ZNSt6vectorI7segmentSaIS0_EED1Ev+0x28>  // b.any
  403aa4:	a94153f3 	ldp	x19, x20, [sp, #16]
  403aa8:	f94002f6 	ldr	x22, [x23]
  403aac:	b4000116 	cbz	x22, 403acc <_ZNSt6vectorI7segmentSaIS0_EED1Ev+0x16c>
  403ab0:	f9400ae1 	ldr	x1, [x23, #16]
  403ab4:	aa1603e0 	mov	x0, x22
  403ab8:	f9401bf7 	ldr	x23, [sp, #48]
  403abc:	cb160021 	sub	x1, x1, x22
  403ac0:	a9425bf5 	ldp	x21, x22, [sp, #32]
  403ac4:	a8c47bfd 	ldp	x29, x30, [sp], #64
  403ac8:	17fff932 	b	401f90 <_ZdlPvm@plt>
  403acc:	a9425bf5 	ldp	x21, x22, [sp, #32]
  403ad0:	f9401bf7 	ldr	x23, [sp, #48]
  403ad4:	a8c47bfd 	ldp	x29, x30, [sp], #64
  403ad8:	d65f03c0 	ret
  403adc:	d503201f 	nop

0000000000403ae0 <_ZN13PriorityQueueD1Ev>:
  403ae0:	a9bd7bfd 	stp	x29, x30, [sp, #-48]!
  403ae4:	910003fd 	mov	x29, sp
  403ae8:	a9025bf5 	stp	x21, x22, [sp, #32]
  403aec:	91064016 	add	x22, x0, #0x190
  403af0:	a90153f3 	stp	x19, x20, [sp, #16]
  403af4:	aa0003f4 	mov	x20, x0
  403af8:	f94006d5 	ldr	x21, [x22, #8]
  403afc:	f940c813 	ldr	x19, [x0, #400]
  403b00:	eb15027f 	cmp	x19, x21
  403b04:	54000180 	b.eq	403b34 <_ZN13PriorityQueueD1Ev+0x54>  // b.none
  403b08:	aa1303e1 	mov	x1, x19
  403b0c:	f8410420 	ldr	x0, [x1], #16
  403b10:	eb01001f 	cmp	x0, x1
  403b14:	54000080 	b.eq	403b24 <_ZN13PriorityQueueD1Ev+0x44>  // b.none
  403b18:	f9400a61 	ldr	x1, [x19, #16]
  403b1c:	91000421 	add	x1, x1, #0x1
  403b20:	97fff91c 	bl	401f90 <_ZdlPvm@plt>
  403b24:	91008273 	add	x19, x19, #0x20
  403b28:	eb1302bf 	cmp	x21, x19
  403b2c:	54fffee1 	b.ne	403b08 <_ZN13PriorityQueueD1Ev+0x28>  // b.any
  403b30:	f940ca95 	ldr	x21, [x20, #400]
  403b34:	b40000b5 	cbz	x21, 403b48 <_ZN13PriorityQueueD1Ev+0x68>
  403b38:	f9400ac1 	ldr	x1, [x22, #16]
  403b3c:	aa1503e0 	mov	x0, x21
  403b40:	cb150021 	sub	x1, x1, x21
  403b44:	97fff913 	bl	401f90 <_ZdlPvm@plt>
  403b48:	f940ba93 	ldr	x19, [x20, #368]
  403b4c:	9105c296 	add	x22, x20, #0x170
  403b50:	f94006d5 	ldr	x21, [x22, #8]
  403b54:	eb15027f 	cmp	x19, x21
  403b58:	54000280 	b.eq	403ba8 <_ZN13PriorityQueueD1Ev+0xc8>  // b.none
  403b5c:	d503201f 	nop
  403b60:	f9401e61 	ldr	x1, [x19, #56]
  403b64:	aa0103e0 	mov	x0, x1
  403b68:	b4000081 	cbz	x1, 403b78 <_ZN13PriorityQueueD1Ev+0x98>
  403b6c:	f9402662 	ldr	x2, [x19, #72]
  403b70:	cb010041 	sub	x1, x2, x1
  403b74:	97fff907 	bl	401f90 <_ZdlPvm@plt>
  403b78:	f9401261 	ldr	x1, [x19, #32]
  403b7c:	aa0103e0 	mov	x0, x1
  403b80:	b4000081 	cbz	x1, 403b90 <_ZN13PriorityQueueD1Ev+0xb0>
  403b84:	f9401a62 	ldr	x2, [x19, #48]
  403b88:	cb010041 	sub	x1, x2, x1
  403b8c:	97fff901 	bl	401f90 <_ZdlPvm@plt>
  403b90:	aa1303e0 	mov	x0, x19
  403b94:	91016273 	add	x19, x19, #0x58
  403b98:	97ffff72 	bl	403960 <_ZNSt6vectorI7segmentSaIS0_EED1Ev>
  403b9c:	eb1302bf 	cmp	x21, x19
  403ba0:	54fffe01 	b.ne	403b60 <_ZN13PriorityQueueD1Ev+0x80>  // b.any
  403ba4:	f940ba95 	ldr	x21, [x20, #368]
  403ba8:	b40000b5 	cbz	x21, 403bbc <_ZN13PriorityQueueD1Ev+0xdc>
  403bac:	f9400ac1 	ldr	x1, [x22, #16]
  403bb0:	aa1503e0 	mov	x0, x21
  403bb4:	cb150021 	sub	x1, x1, x21
  403bb8:	97fff8f6 	bl	401f90 <_ZdlPvm@plt>
  403bbc:	f940a693 	ldr	x19, [x20, #328]
  403bc0:	9104e295 	add	x21, x20, #0x138
  403bc4:	b40000d3 	cbz	x19, 403bdc <_ZN13PriorityQueueD1Ev+0xfc>
  403bc8:	aa1303e0 	mov	x0, x19
  403bcc:	d2800201 	mov	x1, #0x10                  	// #16
  403bd0:	f9400273 	ldr	x19, [x19]
  403bd4:	97fff8ef 	bl	401f90 <_ZdlPvm@plt>
  403bd8:	b5ffff93 	cbnz	x19, 403bc8 <_ZN13PriorityQueueD1Ev+0xe8>
  403bdc:	f94006a2 	ldr	x2, [x21, #8]
  403be0:	52800001 	mov	w1, #0x0                   	// #0
  403be4:	f9409e80 	ldr	x0, [x20, #312]
  403be8:	d37df042 	lsl	x2, x2, #3
  403bec:	97fff8c1 	bl	401ef0 <memset@plt>
  403bf0:	f9409e80 	ldr	x0, [x20, #312]
  403bf4:	9105a282 	add	x2, x20, #0x168
  403bf8:	a9017ebf 	stp	xzr, xzr, [x21, #16]
  403bfc:	f94006a1 	ldr	x1, [x21, #8]
  403c00:	eb02001f 	cmp	x0, x2
  403c04:	54000060 	b.eq	403c10 <_ZN13PriorityQueueD1Ev+0x130>  // b.none
  403c08:	d37df021 	lsl	x1, x1, #3
  403c0c:	97fff8e1 	bl	401f90 <_ZdlPvm@plt>
  403c10:	f9408a93 	ldr	x19, [x20, #272]
  403c14:	91040295 	add	x21, x20, #0x100
  403c18:	b40000f3 	cbz	x19, 403c34 <_ZN13PriorityQueueD1Ev+0x154>
  403c1c:	d503201f 	nop
  403c20:	aa1303e0 	mov	x0, x19
  403c24:	d2800201 	mov	x1, #0x10                  	// #16
  403c28:	f9400273 	ldr	x19, [x19]
  403c2c:	97fff8d9 	bl	401f90 <_ZdlPvm@plt>
  403c30:	b5ffff93 	cbnz	x19, 403c20 <_ZN13PriorityQueueD1Ev+0x140>
  403c34:	f94006a2 	ldr	x2, [x21, #8]
  403c38:	52800001 	mov	w1, #0x0                   	// #0
  403c3c:	f9408280 	ldr	x0, [x20, #256]
  403c40:	d37df042 	lsl	x2, x2, #3
  403c44:	97fff8ab 	bl	401ef0 <memset@plt>
  403c48:	f9408280 	ldr	x0, [x20, #256]
  403c4c:	9104c282 	add	x2, x20, #0x130
  403c50:	a9017ebf 	stp	xzr, xzr, [x21, #16]
  403c54:	f94006a1 	ldr	x1, [x21, #8]
  403c58:	eb02001f 	cmp	x0, x2
  403c5c:	54000060 	b.eq	403c68 <_ZN13PriorityQueueD1Ev+0x188>  // b.none
  403c60:	d37df021 	lsl	x1, x1, #3
  403c64:	97fff8cb 	bl	401f90 <_ZdlPvm@plt>
  403c68:	f9406e93 	ldr	x19, [x20, #216]
  403c6c:	91032295 	add	x21, x20, #0xc8
  403c70:	b40000f3 	cbz	x19, 403c8c <_ZN13PriorityQueueD1Ev+0x1ac>
  403c74:	d503201f 	nop
  403c78:	aa1303e0 	mov	x0, x19
  403c7c:	d2800201 	mov	x1, #0x10                  	// #16
  403c80:	f9400273 	ldr	x19, [x19]
  403c84:	97fff8c3 	bl	401f90 <_ZdlPvm@plt>
  403c88:	b5ffff93 	cbnz	x19, 403c78 <_ZN13PriorityQueueD1Ev+0x198>
  403c8c:	f94006a2 	ldr	x2, [x21, #8]
  403c90:	52800001 	mov	w1, #0x0                   	// #0
  403c94:	f9406680 	ldr	x0, [x20, #200]
  403c98:	d37df042 	lsl	x2, x2, #3
  403c9c:	97fff895 	bl	401ef0 <memset@plt>
  403ca0:	f9406680 	ldr	x0, [x20, #200]
  403ca4:	9103e282 	add	x2, x20, #0xf8
  403ca8:	a9017ebf 	stp	xzr, xzr, [x21, #16]
  403cac:	f94006a1 	ldr	x1, [x21, #8]
  403cb0:	eb02001f 	cmp	x0, x2
  403cb4:	54000060 	b.eq	403cc0 <_ZN13PriorityQueueD1Ev+0x1e0>  // b.none
  403cb8:	d37df021 	lsl	x1, x1, #3
  403cbc:	97fff8b5 	bl	401f90 <_ZdlPvm@plt>
  403cc0:	f9405293 	ldr	x19, [x20, #160]
  403cc4:	91024295 	add	x21, x20, #0x90
  403cc8:	b40000f3 	cbz	x19, 403ce4 <_ZN13PriorityQueueD1Ev+0x204>
  403ccc:	d503201f 	nop
  403cd0:	aa1303e0 	mov	x0, x19
  403cd4:	d2800201 	mov	x1, #0x10                  	// #16
  403cd8:	f9400273 	ldr	x19, [x19]
  403cdc:	97fff8ad 	bl	401f90 <_ZdlPvm@plt>
  403ce0:	b5ffff93 	cbnz	x19, 403cd0 <_ZN13PriorityQueueD1Ev+0x1f0>
  403ce4:	f94006a2 	ldr	x2, [x21, #8]
  403ce8:	52800001 	mov	w1, #0x0                   	// #0
  403cec:	f9404a80 	ldr	x0, [x20, #144]
  403cf0:	d37df042 	lsl	x2, x2, #3
  403cf4:	97fff87f 	bl	401ef0 <memset@plt>
  403cf8:	f9404a80 	ldr	x0, [x20, #144]
  403cfc:	91030282 	add	x2, x20, #0xc0
  403d00:	a9017ebf 	stp	xzr, xzr, [x21, #16]
  403d04:	f94006a1 	ldr	x1, [x21, #8]
  403d08:	eb02001f 	cmp	x0, x2
  403d0c:	54000060 	b.eq	403d18 <_ZN13PriorityQueueD1Ev+0x238>  // b.none
  403d10:	d37df021 	lsl	x1, x1, #3
  403d14:	97fff89f 	bl	401f90 <_ZdlPvm@plt>
  403d18:	9100c296 	add	x22, x20, #0x30
  403d1c:	9101e280 	add	x0, x20, #0x78
  403d20:	97ffff10 	bl	403960 <_ZNSt6vectorI7segmentSaIS0_EED1Ev>
  403d24:	91018280 	add	x0, x20, #0x60
  403d28:	97ffff0e 	bl	403960 <_ZNSt6vectorI7segmentSaIS0_EED1Ev>
  403d2c:	91012280 	add	x0, x20, #0x48
  403d30:	97ffff0c 	bl	403960 <_ZNSt6vectorI7segmentSaIS0_EED1Ev>
  403d34:	f94006d5 	ldr	x21, [x22, #8]
  403d38:	f9401a93 	ldr	x19, [x20, #48]
  403d3c:	eb15027f 	cmp	x19, x21
  403d40:	54000280 	b.eq	403d90 <_ZN13PriorityQueueD1Ev+0x2b0>  // b.none
  403d44:	d503201f 	nop
  403d48:	f9401e61 	ldr	x1, [x19, #56]
  403d4c:	aa0103e0 	mov	x0, x1
  403d50:	b4000081 	cbz	x1, 403d60 <_ZN13PriorityQueueD1Ev+0x280>
  403d54:	f9402662 	ldr	x2, [x19, #72]
  403d58:	cb010041 	sub	x1, x2, x1
  403d5c:	97fff88d 	bl	401f90 <_ZdlPvm@plt>
  403d60:	f9401261 	ldr	x1, [x19, #32]
  403d64:	aa0103e0 	mov	x0, x1
  403d68:	b4000081 	cbz	x1, 403d78 <_ZN13PriorityQueueD1Ev+0x298>
  403d6c:	f9401a62 	ldr	x2, [x19, #48]
  403d70:	cb010041 	sub	x1, x2, x1
  403d74:	97fff887 	bl	401f90 <_ZdlPvm@plt>
  403d78:	aa1303e0 	mov	x0, x19
  403d7c:	91016273 	add	x19, x19, #0x58
  403d80:	97fffef8 	bl	403960 <_ZNSt6vectorI7segmentSaIS0_EED1Ev>
  403d84:	eb1302bf 	cmp	x21, x19
  403d88:	54fffe01 	b.ne	403d48 <_ZN13PriorityQueueD1Ev+0x268>  // b.any
  403d8c:	f9401a95 	ldr	x21, [x20, #48]
  403d90:	b40000b5 	cbz	x21, 403da4 <_ZN13PriorityQueueD1Ev+0x2c4>
  403d94:	f9400ac1 	ldr	x1, [x22, #16]
  403d98:	aa1503e0 	mov	x0, x21
  403d9c:	cb150021 	sub	x1, x1, x21
  403da0:	97fff87c 	bl	401f90 <_ZdlPvm@plt>
  403da4:	a9405693 	ldp	x19, x21, [x20]
  403da8:	eb15027f 	cmp	x19, x21
  403dac:	54000260 	b.eq	403df8 <_ZN13PriorityQueueD1Ev+0x318>  // b.none
  403db0:	f9401e61 	ldr	x1, [x19, #56]
  403db4:	aa0103e0 	mov	x0, x1
  403db8:	b4000081 	cbz	x1, 403dc8 <_ZN13PriorityQueueD1Ev+0x2e8>
  403dbc:	f9402662 	ldr	x2, [x19, #72]
  403dc0:	cb010041 	sub	x1, x2, x1
  403dc4:	97fff873 	bl	401f90 <_ZdlPvm@plt>
  403dc8:	f9401261 	ldr	x1, [x19, #32]
  403dcc:	aa0103e0 	mov	x0, x1
  403dd0:	b4000081 	cbz	x1, 403de0 <_ZN13PriorityQueueD1Ev+0x300>
  403dd4:	f9401a62 	ldr	x2, [x19, #48]
  403dd8:	cb010041 	sub	x1, x2, x1
  403ddc:	97fff86d 	bl	401f90 <_ZdlPvm@plt>
  403de0:	aa1303e0 	mov	x0, x19
  403de4:	91016273 	add	x19, x19, #0x58
  403de8:	97fffede 	bl	403960 <_ZNSt6vectorI7segmentSaIS0_EED1Ev>
  403dec:	eb1302bf 	cmp	x21, x19
  403df0:	54fffe01 	b.ne	403db0 <_ZN13PriorityQueueD1Ev+0x2d0>  // b.any
  403df4:	f9400295 	ldr	x21, [x20]
  403df8:	b4000115 	cbz	x21, 403e18 <_ZN13PriorityQueueD1Ev+0x338>
  403dfc:	f9400a81 	ldr	x1, [x20, #16]
  403e00:	aa1503e0 	mov	x0, x21
  403e04:	a94153f3 	ldp	x19, x20, [sp, #16]
  403e08:	cb150021 	sub	x1, x1, x21
  403e0c:	a9425bf5 	ldp	x21, x22, [sp, #32]
  403e10:	a8c37bfd 	ldp	x29, x30, [sp], #48
  403e14:	17fff85f 	b	401f90 <_ZdlPvm@plt>
  403e18:	a94153f3 	ldp	x19, x20, [sp, #16]
  403e1c:	a9425bf5 	ldp	x21, x22, [sp, #32]
  403e20:	a8c37bfd 	ldp	x29, x30, [sp], #48
  403e24:	d65f03c0 	ret
  403e28:	d503201f 	nop
  403e2c:	d503201f 	nop

0000000000403e30 <_Z20compareByPretermProbRK2PTS1_>:
  403e30:	bd405001 	ldr	s1, [x0, #80]
  403e34:	bd405020 	ldr	s0, [x1, #80]
  403e38:	1e202030 	fcmpe	s1, s0
  403e3c:	1a9fd7e0 	cset	w0, gt
  403e40:	d65f03c0 	ret

0000000000403e44 <_ZNSt7__cxx1112basic_stringIcSt11char_traitsIcESaIcEE12_M_constructIPcEEvT_S7_St20forward_iterator_tag.isra.0>:
  403e44:	a9bc7bfd 	stp	x29, x30, [sp, #-64]!
  403e48:	f100005f 	cmp	x2, #0x0
  403e4c:	fa401820 	ccmp	x1, #0x0, #0x0, ne  // ne = any
  403e50:	910003fd 	mov	x29, sp
  403e54:	a90153f3 	stp	x19, x20, [sp, #16]
  403e58:	f90013f5 	str	x21, [sp, #32]
  403e5c:	54000580 	b.eq	403f0c <_ZNSt7__cxx1112basic_stringIcSt11char_traitsIcESaIcEE12_M_constructIPcEEvT_S7_St20forward_iterator_tag.isra.0+0xc8>  // b.none
  403e60:	cb010053 	sub	x19, x2, x1
  403e64:	f9001ff3 	str	x19, [sp, #56]
  403e68:	aa0103f5 	mov	x21, x1
  403e6c:	aa0003f4 	mov	x20, x0
  403e70:	f1003e7f 	cmp	x19, #0xf
  403e74:	540002a8 	b.hi	403ec8 <_ZNSt7__cxx1112basic_stringIcSt11char_traitsIcESaIcEE12_M_constructIPcEEvT_S7_St20forward_iterator_tag.isra.0+0x84>  // b.pmore
  403e78:	f9400000 	ldr	x0, [x0]
  403e7c:	f100067f 	cmp	x19, #0x1
  403e80:	54000161 	b.ne	403eac <_ZNSt7__cxx1112basic_stringIcSt11char_traitsIcESaIcEE12_M_constructIPcEEvT_S7_St20forward_iterator_tag.isra.0+0x68>  // b.any
  403e84:	39400021 	ldrb	w1, [x1]
  403e88:	39000001 	strb	w1, [x0]
  403e8c:	f9400280 	ldr	x0, [x20]
  403e90:	f9401ff3 	ldr	x19, [sp, #56]
  403e94:	f9000693 	str	x19, [x20, #8]
  403e98:	3833681f 	strb	wzr, [x0, x19]
  403e9c:	a94153f3 	ldp	x19, x20, [sp, #16]
  403ea0:	f94013f5 	ldr	x21, [sp, #32]
  403ea4:	a8c47bfd 	ldp	x29, x30, [sp], #64
  403ea8:	d65f03c0 	ret
  403eac:	b50001b3 	cbnz	x19, 403ee0 <_ZNSt7__cxx1112basic_stringIcSt11char_traitsIcESaIcEE12_M_constructIPcEEvT_S7_St20forward_iterator_tag.isra.0+0x9c>
  403eb0:	f9000693 	str	x19, [x20, #8]
  403eb4:	3833681f 	strb	wzr, [x0, x19]
  403eb8:	a94153f3 	ldp	x19, x20, [sp, #16]
  403ebc:	f94013f5 	ldr	x21, [sp, #32]
  403ec0:	a8c47bfd 	ldp	x29, x30, [sp], #64
  403ec4:	d65f03c0 	ret
  403ec8:	9100e3e1 	add	x1, sp, #0x38
  403ecc:	d2800002 	mov	x2, #0x0                   	// #0
  403ed0:	97fff898 	bl	402130 <_ZNSt7__cxx1112basic_stringIcSt11char_traitsIcESaIcEE9_M_createERmm@plt>
  403ed4:	f9000280 	str	x0, [x20]
  403ed8:	f9401fe1 	ldr	x1, [sp, #56]
  403edc:	f9000a81 	str	x1, [x20, #16]
  403ee0:	aa1303e2 	mov	x2, x19
  403ee4:	aa1503e1 	mov	x1, x21
  403ee8:	97fff7c6 	bl	401e00 <memcpy@plt>
  403eec:	f9400280 	ldr	x0, [x20]
  403ef0:	f9401ff3 	ldr	x19, [sp, #56]
  403ef4:	f9000693 	str	x19, [x20, #8]
  403ef8:	3833681f 	strb	wzr, [x0, x19]
  403efc:	a94153f3 	ldp	x19, x20, [sp, #16]
  403f00:	f94013f5 	ldr	x21, [sp, #32]
  403f04:	a8c47bfd 	ldp	x29, x30, [sp], #64
  403f08:	d65f03c0 	ret
  403f0c:	f0000060 	adrp	x0, 412000 <_Z19MD5Hash_simdversionPKNSt7__cxx1112basic_stringIcSt11char_traitsIcESaIcEEEP12__Uint32x4_t+0x1000>
  403f10:	91266000 	add	x0, x0, #0x998
  403f14:	97fff803 	bl	401f20 <_ZSt19__throw_logic_errorPKc@plt>
  403f18:	d503201f 	nop
  403f1c:	d503201f 	nop

0000000000403f20 <_ZN5model6FindPTE2PT>:
  403f20:	a941b006 	ldp	x6, x12, [x0, #24]
  403f24:	d2917462 	mov	x2, #0x8ba3                	// #35747
  403f28:	f2b745c2 	movk	x2, #0xba2e, lsl #16
  403f2c:	f2d45d02 	movk	x2, #0xa2e8, lsl #32
  403f30:	f2e5d162 	movk	x2, #0x2e8b, lsl #48
  403f34:	cb06018c 	sub	x12, x12, x6
  403f38:	9343fd8c 	asr	x12, x12, #3
  403f3c:	9b027d8c 	mul	x12, x12, x2
  403f40:	b400046c 	cbz	x12, 403fcc <_ZN5model6FindPTE2PT+0xac>
  403f44:	a9403429 	ldp	x9, x13, [x1]
  403f48:	d2800007 	mov	x7, #0x0                   	// #0
  403f4c:	cb0901ad 	sub	x13, x13, x9
  403f50:	9100112b 	add	x11, x9, #0x4
  403f54:	9344fda8 	asr	x8, x13, #4
  403f58:	9b027d08 	mul	x8, x8, x2
  403f5c:	14000005 	b	403f70 <_ZN5model6FindPTE2PT+0x50>
  403f60:	910004e7 	add	x7, x7, #0x1
  403f64:	910160c6 	add	x6, x6, #0x58
  403f68:	eb0c00ff 	cmp	x7, x12
  403f6c:	54000300 	b.eq	403fcc <_ZN5model6FindPTE2PT+0xac>  // b.none
  403f70:	a94004c5 	ldp	x5, x1, [x6]
  403f74:	2a0703e0 	mov	w0, w7
  403f78:	cb050021 	sub	x1, x1, x5
  403f7c:	eb0101bf 	cmp	x13, x1
  403f80:	54ffff01 	b.ne	403f60 <_ZN5model6FindPTE2PT+0x40>  // b.any
  403f84:	b4000228 	cbz	x8, 403fc8 <_ZN5model6FindPTE2PT+0xa8>
  403f88:	910010aa 	add	x10, x5, #0x4
  403f8c:	d2800001 	mov	x1, #0x0                   	// #0
  403f90:	d2800002 	mov	x2, #0x0                   	// #0
  403f94:	d503201f 	nop
  403f98:	b86168a4 	ldr	w4, [x5, x1]
  403f9c:	91000442 	add	x2, x2, #0x1
  403fa0:	b8616923 	ldr	w3, [x9, x1]
  403fa4:	6b03009f 	cmp	w4, w3
  403fa8:	54fffdc1 	b.ne	403f60 <_ZN5model6FindPTE2PT+0x40>  // b.any
  403fac:	b8616944 	ldr	w4, [x10, x1]
  403fb0:	b8616963 	ldr	w3, [x11, x1]
  403fb4:	9102c021 	add	x1, x1, #0xb0
  403fb8:	6b03009f 	cmp	w4, w3
  403fbc:	54fffd21 	b.ne	403f60 <_ZN5model6FindPTE2PT+0x40>  // b.any
  403fc0:	eb08005f 	cmp	x2, x8
  403fc4:	54fffea1 	b.ne	403f98 <_ZN5model6FindPTE2PT+0x78>  // b.any
  403fc8:	d65f03c0 	ret
  403fcc:	12800000 	mov	w0, #0xffffffff            	// #-1
  403fd0:	d65f03c0 	ret

0000000000403fd4 <_ZN5model10FindLetterE7segment>:
  403fd4:	a9431002 	ldp	x2, x4, [x0, #48]
  403fd8:	d2917463 	mov	x3, #0x8ba3                	// #35747
  403fdc:	f2b745c3 	movk	x3, #0xba2e, lsl #16
  403fe0:	f2d45d03 	movk	x3, #0xa2e8, lsl #32
  403fe4:	f2e5d163 	movk	x3, #0x2e8b, lsl #48
  403fe8:	cb020084 	sub	x4, x4, x2
  403fec:	9344fc84 	asr	x4, x4, #4
  403ff0:	9b037c84 	mul	x4, x4, x3
  403ff4:	b40001c4 	cbz	x4, 40402c <_ZN5model10FindLetterE7segment+0x58>
  403ff8:	b9400425 	ldr	w5, [x1, #4]
  403ffc:	91001042 	add	x2, x2, #0x4
  404000:	d2800001 	mov	x1, #0x0                   	// #0
  404004:	14000003 	b	404010 <_ZN5model10FindLetterE7segment+0x3c>
  404008:	eb04003f 	cmp	x1, x4
  40400c:	54000100 	b.eq	40402c <_ZN5model10FindLetterE7segment+0x58>  // b.none
  404010:	b9400043 	ldr	w3, [x2]
  404014:	2a0103e0 	mov	w0, w1
  404018:	9102c042 	add	x2, x2, #0xb0
  40401c:	91000421 	add	x1, x1, #0x1
  404020:	6b05007f 	cmp	w3, w5
  404024:	54ffff21 	b.ne	404008 <_ZN5model10FindLetterE7segment+0x34>  // b.any
  404028:	d65f03c0 	ret
  40402c:	12800000 	mov	w0, #0xffffffff            	// #-1
  404030:	d65f03c0 	ret

0000000000404034 <_ZN5model9FindDigitE7segment>:
  404034:	a9449002 	ldp	x2, x4, [x0, #72]
  404038:	d2917463 	mov	x3, #0x8ba3                	// #35747
  40403c:	f2b745c3 	movk	x3, #0xba2e, lsl #16
  404040:	f2d45d03 	movk	x3, #0xa2e8, lsl #32
  404044:	f2e5d163 	movk	x3, #0x2e8b, lsl #48
  404048:	cb020084 	sub	x4, x4, x2
  40404c:	9344fc84 	asr	x4, x4, #4
  404050:	9b037c84 	mul	x4, x4, x3
  404054:	b40001c4 	cbz	x4, 40408c <_ZN5model9FindDigitE7segment+0x58>
  404058:	b9400425 	ldr	w5, [x1, #4]
  40405c:	91001042 	add	x2, x2, #0x4
  404060:	d2800001 	mov	x1, #0x0                   	// #0
  404064:	14000003 	b	404070 <_ZN5model9FindDigitE7segment+0x3c>
  404068:	eb04003f 	cmp	x1, x4
  40406c:	54000100 	b.eq	40408c <_ZN5model9FindDigitE7segment+0x58>  // b.none
  404070:	b9400043 	ldr	w3, [x2]
  404074:	2a0103e0 	mov	w0, w1
  404078:	9102c042 	add	x2, x2, #0xb0
  40407c:	91000421 	add	x1, x1, #0x1
  404080:	6b05007f 	cmp	w3, w5
  404084:	54ffff21 	b.ne	404068 <_ZN5model9FindDigitE7segment+0x34>  // b.any
  404088:	d65f03c0 	ret
  40408c:	12800000 	mov	w0, #0xffffffff            	// #-1
  404090:	d65f03c0 	ret

0000000000404094 <_ZN5model10FindSymbolE7segment>:
  404094:	a9461002 	ldp	x2, x4, [x0, #96]
  404098:	d2917463 	mov	x3, #0x8ba3                	// #35747
  40409c:	f2b745c3 	movk	x3, #0xba2e, lsl #16
  4040a0:	f2d45d03 	movk	x3, #0xa2e8, lsl #32
  4040a4:	f2e5d163 	movk	x3, #0x2e8b, lsl #48
  4040a8:	cb020084 	sub	x4, x4, x2
  4040ac:	9344fc84 	asr	x4, x4, #4
  4040b0:	9b037c84 	mul	x4, x4, x3
  4040b4:	b40001c4 	cbz	x4, 4040ec <_ZN5model10FindSymbolE7segment+0x58>
  4040b8:	b9400425 	ldr	w5, [x1, #4]
  4040bc:	91001042 	add	x2, x2, #0x4
  4040c0:	d2800001 	mov	x1, #0x0                   	// #0
  4040c4:	14000003 	b	4040d0 <_ZN5model10FindSymbolE7segment+0x3c>
  4040c8:	eb04003f 	cmp	x1, x4
  4040cc:	54000100 	b.eq	4040ec <_ZN5model10FindSymbolE7segment+0x58>  // b.none
  4040d0:	b9400043 	ldr	w3, [x2]
  4040d4:	2a0103e0 	mov	w0, w1
  4040d8:	9102c042 	add	x2, x2, #0xb0
  4040dc:	91000421 	add	x1, x1, #0x1
  4040e0:	6b05007f 	cmp	w3, w5
  4040e4:	54ffff21 	b.ne	4040c8 <_ZN5model10FindSymbolE7segment+0x34>  // b.any
  4040e8:	d65f03c0 	ret
  4040ec:	12800000 	mov	w0, #0xffffffff            	// #-1
  4040f0:	d65f03c0 	ret

00000000004040f4 <_ZN7segment8PrintSegEv>:
  4040f4:	a9be7bfd 	stp	x29, x30, [sp, #-32]!
  4040f8:	910003fd 	mov	x29, sp
  4040fc:	a90153f3 	stp	x19, x20, [sp, #16]
  404100:	aa0003f3 	mov	x19, x0
  404104:	b9400000 	ldr	w0, [x0]
  404108:	7100041f 	cmp	w0, #0x1
  40410c:	54000100 	b.eq	40412c <_ZN7segment8PrintSegEv+0x38>  // b.none
  404110:	7100081f 	cmp	w0, #0x2
  404114:	54000260 	b.eq	404160 <_ZN7segment8PrintSegEv+0x6c>  // b.none
  404118:	71000c1f 	cmp	w0, #0x3
  40411c:	540003c0 	b.eq	404194 <_ZN7segment8PrintSegEv+0xa0>  // b.none
  404120:	a94153f3 	ldp	x19, x20, [sp, #16]
  404124:	a8c27bfd 	ldp	x29, x30, [sp], #32
  404128:	d65f03c0 	ret
  40412c:	90000174 	adrp	x20, 430000 <_Znam@GLIBCXX_3.4>
  404130:	91080294 	add	x20, x20, #0x200
  404134:	d2800022 	mov	x2, #0x1                   	// #1
  404138:	aa1403e0 	mov	x0, x20
  40413c:	d0000061 	adrp	x1, 412000 <_Z19MD5Hash_simdversionPKNSt7__cxx1112basic_stringIcSt11char_traitsIcESaIcEEEP12__Uint32x4_t+0x1000>
  404140:	91348021 	add	x1, x1, #0xd20
  404144:	97fff79f 	bl	401fc0 <_ZSt16__ostream_insertIcSt11char_traitsIcEERSt13basic_ostreamIT_T0_ES6_PKS3_l@plt>
  404148:	b9400661 	ldr	w1, [x19, #4]
  40414c:	aa1403e0 	mov	x0, x20
  404150:	97fff7f0 	bl	402110 <_ZNSolsEi@plt>
  404154:	b9400260 	ldr	w0, [x19]
  404158:	7100081f 	cmp	w0, #0x2
  40415c:	54fffde1 	b.ne	404118 <_ZN7segment8PrintSegEv+0x24>  // b.any
  404160:	90000174 	adrp	x20, 430000 <_Znam@GLIBCXX_3.4>
  404164:	91080294 	add	x20, x20, #0x200
  404168:	d2800022 	mov	x2, #0x1                   	// #1
  40416c:	aa1403e0 	mov	x0, x20
  404170:	d0000061 	adrp	x1, 412000 <_Z19MD5Hash_simdversionPKNSt7__cxx1112basic_stringIcSt11char_traitsIcESaIcEEEP12__Uint32x4_t+0x1000>
  404174:	9134a021 	add	x1, x1, #0xd28
  404178:	97fff792 	bl	401fc0 <_ZSt16__ostream_insertIcSt11char_traitsIcEERSt13basic_ostreamIT_T0_ES6_PKS3_l@plt>
  40417c:	b9400661 	ldr	w1, [x19, #4]
  404180:	aa1403e0 	mov	x0, x20
  404184:	97fff7e3 	bl	402110 <_ZNSolsEi@plt>
  404188:	b9400260 	ldr	w0, [x19]
  40418c:	71000c1f 	cmp	w0, #0x3
  404190:	54fffc81 	b.ne	404120 <_ZN7segment8PrintSegEv+0x2c>  // b.any
  404194:	90000174 	adrp	x20, 430000 <_Znam@GLIBCXX_3.4>
  404198:	91080294 	add	x20, x20, #0x200
  40419c:	aa1403e0 	mov	x0, x20
  4041a0:	d2800022 	mov	x2, #0x1                   	// #1
  4041a4:	d0000061 	adrp	x1, 412000 <_Z19MD5Hash_simdversionPKNSt7__cxx1112basic_stringIcSt11char_traitsIcESaIcEEEP12__Uint32x4_t+0x1000>
  4041a8:	9134c021 	add	x1, x1, #0xd30
  4041ac:	97fff785 	bl	401fc0 <_ZSt16__ostream_insertIcSt11char_traitsIcEERSt13basic_ostreamIT_T0_ES6_PKS3_l@plt>
  4041b0:	b9400661 	ldr	w1, [x19, #4]
  4041b4:	aa1403e0 	mov	x0, x20
  4041b8:	a94153f3 	ldp	x19, x20, [sp, #16]
  4041bc:	a8c27bfd 	ldp	x29, x30, [sp], #32
  4041c0:	17fff7d4 	b	402110 <_ZNSolsEi@plt>

00000000004041c4 <_ZN2PTaSEOS_.isra.0>:
  4041c4:	a9bb7bfd 	stp	x29, x30, [sp, #-80]!
  4041c8:	910003fd 	mov	x29, sp
  4041cc:	a9025bf5 	stp	x21, x22, [sp, #32]
  4041d0:	aa0003f5 	mov	x21, x0
  4041d4:	aa0103f6 	mov	x22, x1
  4041d8:	a90363f7 	stp	x23, x24, [sp, #48]
  4041dc:	a9046bf9 	stp	x25, x26, [sp, #64]
  4041e0:	a940e6b7 	ldp	x23, x25, [x21, #8]
  4041e4:	f9400018 	ldr	x24, [x0]
  4041e8:	f9400020 	ldr	x0, [x1]
  4041ec:	f90002a0 	str	x0, [x21]
  4041f0:	f9400420 	ldr	x0, [x1, #8]
  4041f4:	f90006a0 	str	x0, [x21, #8]
  4041f8:	f9400820 	ldr	x0, [x1, #16]
  4041fc:	f9000aa0 	str	x0, [x21, #16]
  404200:	a9007c3f 	stp	xzr, xzr, [x1]
  404204:	f900083f 	str	xzr, [x1, #16]
  404208:	eb17031f 	cmp	x24, x23
  40420c:	54000720 	b.eq	4042f0 <_ZN2PTaSEOS_.isra.0+0x12c>  // b.none
  404210:	a90153f3 	stp	x19, x20, [sp, #16]
  404214:	aa1803f4 	mov	x20, x24
  404218:	f9404693 	ldr	x19, [x20, #136]
  40421c:	b40000d3 	cbz	x19, 404234 <_ZN2PTaSEOS_.isra.0+0x70>
  404220:	aa1303e0 	mov	x0, x19
  404224:	d2800201 	mov	x1, #0x10                  	// #16
  404228:	f9400273 	ldr	x19, [x19]
  40422c:	97fff759 	bl	401f90 <_ZdlPvm@plt>
  404230:	b5ffff93 	cbnz	x19, 404220 <_ZN2PTaSEOS_.isra.0+0x5c>
  404234:	a9478a80 	ldp	x0, x2, [x20, #120]
  404238:	52800001 	mov	w1, #0x0                   	// #0
  40423c:	d37df042 	lsl	x2, x2, #3
  404240:	97fff72c 	bl	401ef0 <memset@plt>
  404244:	a9478680 	ldp	x0, x1, [x20, #120]
  404248:	9102a282 	add	x2, x20, #0xa8
  40424c:	a908fe9f 	stp	xzr, xzr, [x20, #136]
  404250:	eb02001f 	cmp	x0, x2
  404254:	54000060 	b.eq	404260 <_ZN2PTaSEOS_.isra.0+0x9c>  // b.none
  404258:	d37df021 	lsl	x1, x1, #3
  40425c:	97fff74d 	bl	401f90 <_ZdlPvm@plt>
  404260:	91010280 	add	x0, x20, #0x40
  404264:	94001797 	bl	40a0c0 <_ZNSt10_HashtableINSt7__cxx1112basic_stringIcSt11char_traitsIcESaIcEEESt4pairIKS5_iESaIS8_ENSt8__detail10_Select1stESt8equal_toIS5_ESt4hashIS5_ENSA_18_Mod_range_hashingENSA_20_Default_ranged_hashENSA_20_Prime_rehash_policyENSA_17_Hashtable_traitsILb1ELb0ELb1EEEE5clearEv>
  404268:	a9440680 	ldp	x0, x1, [x20, #64]
  40426c:	9101c282 	add	x2, x20, #0x70
  404270:	eb02001f 	cmp	x0, x2
  404274:	54000060 	b.eq	404280 <_ZN2PTaSEOS_.isra.0+0xbc>  // b.none
  404278:	d37df021 	lsl	x1, x1, #3
  40427c:	97fff745 	bl	401f90 <_ZdlPvm@plt>
  404280:	f9401280 	ldr	x0, [x20, #32]
  404284:	b4000080 	cbz	x0, 404294 <_ZN2PTaSEOS_.isra.0+0xd0>
  404288:	f9401a81 	ldr	x1, [x20, #48]
  40428c:	cb000021 	sub	x1, x1, x0
  404290:	97fff740 	bl	401f90 <_ZdlPvm@plt>
  404294:	a940ea93 	ldp	x19, x26, [x20, #8]
  404298:	eb1a027f 	cmp	x19, x26
  40429c:	54000180 	b.eq	4042cc <_ZN2PTaSEOS_.isra.0+0x108>  // b.none
  4042a0:	aa1303e2 	mov	x2, x19
  4042a4:	f8410440 	ldr	x0, [x2], #16
  4042a8:	eb02001f 	cmp	x0, x2
  4042ac:	54000080 	b.eq	4042bc <_ZN2PTaSEOS_.isra.0+0xf8>  // b.none
  4042b0:	f9400a61 	ldr	x1, [x19, #16]
  4042b4:	91000421 	add	x1, x1, #0x1
  4042b8:	97fff736 	bl	401f90 <_ZdlPvm@plt>
  4042bc:	91008273 	add	x19, x19, #0x20
  4042c0:	eb13035f 	cmp	x26, x19
  4042c4:	54fffee1 	b.ne	4042a0 <_ZN2PTaSEOS_.isra.0+0xdc>  // b.any
  4042c8:	f940069a 	ldr	x26, [x20, #8]
  4042cc:	b40000ba 	cbz	x26, 4042e0 <_ZN2PTaSEOS_.isra.0+0x11c>
  4042d0:	f9400e81 	ldr	x1, [x20, #24]
  4042d4:	aa1a03e0 	mov	x0, x26
  4042d8:	cb1a0021 	sub	x1, x1, x26
  4042dc:	97fff72d 	bl	401f90 <_ZdlPvm@plt>
  4042e0:	9102c294 	add	x20, x20, #0xb0
  4042e4:	eb1402ff 	cmp	x23, x20
  4042e8:	54fff981 	b.ne	404218 <_ZN2PTaSEOS_.isra.0+0x54>  // b.any
  4042ec:	a94153f3 	ldp	x19, x20, [sp, #16]
  4042f0:	b4000098 	cbz	x24, 404300 <_ZN2PTaSEOS_.isra.0+0x13c>
  4042f4:	cb180321 	sub	x1, x25, x24
  4042f8:	aa1803e0 	mov	x0, x24
  4042fc:	97fff725 	bl	401f90 <_ZdlPvm@plt>
  404300:	b9401ac0 	ldr	w0, [x22, #24]
  404304:	a94216c6 	ldp	x6, x5, [x22, #32]
  404308:	f9401ac4 	ldr	x4, [x22, #48]
  40430c:	b9001aa0 	str	w0, [x21, #24]
  404310:	f94012a0 	ldr	x0, [x21, #32]
  404314:	f90012a6 	str	x6, [x21, #32]
  404318:	f9401aa1 	ldr	x1, [x21, #48]
  40431c:	a90292a5 	stp	x5, x4, [x21, #40]
  404320:	a9027edf 	stp	xzr, xzr, [x22, #32]
  404324:	f9001adf 	str	xzr, [x22, #48]
  404328:	b4000060 	cbz	x0, 404334 <_ZN2PTaSEOS_.isra.0+0x170>
  40432c:	cb000021 	sub	x1, x1, x0
  404330:	97fff718 	bl	401f90 <_ZdlPvm@plt>
  404334:	a94396c6 	ldp	x6, x5, [x22, #56]
  404338:	f9401ea0 	ldr	x0, [x21, #56]
  40433c:	f94026c4 	ldr	x4, [x22, #72]
  404340:	a90396a6 	stp	x6, x5, [x21, #56]
  404344:	f94026a1 	ldr	x1, [x21, #72]
  404348:	f90026a4 	str	x4, [x21, #72]
  40434c:	a903fedf 	stp	xzr, xzr, [x22, #56]
  404350:	f90026df 	str	xzr, [x22, #72]
  404354:	b4000060 	cbz	x0, 404360 <_ZN2PTaSEOS_.isra.0+0x19c>
  404358:	cb000021 	sub	x1, x1, x0
  40435c:	97fff70d 	bl	401f90 <_ZdlPvm@plt>
  404360:	2d4a02c1 	ldp	s1, s0, [x22, #80]
  404364:	a94363f7 	ldp	x23, x24, [sp, #48]
  404368:	a9446bf9 	ldp	x25, x26, [sp, #64]
  40436c:	2d0a02a1 	stp	s1, s0, [x21, #80]
  404370:	a9425bf5 	ldp	x21, x22, [sp, #32]
  404374:	a8c57bfd 	ldp	x29, x30, [sp], #80
  404378:	d65f03c0 	ret
  40437c:	d503201f 	nop

0000000000404380 <_ZN2PT7PrintPTEv>:
  404380:	a9b07bfd 	stp	x29, x30, [sp, #-256]!
  404384:	910003fd 	mov	x29, sp
  404388:	a90153f3 	stp	x19, x20, [sp, #16]
  40438c:	a9025bf5 	stp	x21, x22, [sp, #32]
  404390:	a9405414 	ldp	x20, x21, [x0]
  404394:	eb15029f 	cmp	x20, x21
  404398:	54000860 	b.eq	4044a4 <_ZN2PT7PrintPTEv+0x124>  // b.none
  40439c:	910143e1 	add	x1, sp, #0x50
  4043a0:	a90363f7 	stp	x23, x24, [sp, #48]
  4043a4:	9101c036 	add	x22, x1, #0x70
  4043a8:	9103e3f8 	add	x24, sp, #0xf8
  4043ac:	91010037 	add	x23, x1, #0x40
  4043b0:	f90023f9 	str	x25, [sp, #64]
  4043b4:	d503201f 	nop
  4043b8:	aa1403e1 	mov	x1, x20
  4043bc:	910143e0 	add	x0, sp, #0x50
  4043c0:	94001808 	bl	40a3e0 <_ZN7segmentC1ERKS_>
  4043c4:	910143e0 	add	x0, sp, #0x50
  4043c8:	97ffff4b 	bl	4040f4 <_ZN7segment8PrintSegEv>
  4043cc:	f9406ff3 	ldr	x19, [sp, #216]
  4043d0:	b40000f3 	cbz	x19, 4043ec <_ZN2PT7PrintPTEv+0x6c>
  4043d4:	d503201f 	nop
  4043d8:	aa1303e0 	mov	x0, x19
  4043dc:	d2800201 	mov	x1, #0x10                  	// #16
  4043e0:	f9400273 	ldr	x19, [x19]
  4043e4:	97fff6eb 	bl	401f90 <_ZdlPvm@plt>
  4043e8:	b5ffff93 	cbnz	x19, 4043d8 <_ZN2PT7PrintPTEv+0x58>
  4043ec:	a94c8be0 	ldp	x0, x2, [sp, #200]
  4043f0:	52800001 	mov	w1, #0x0                   	// #0
  4043f4:	d37df042 	lsl	x2, x2, #3
  4043f8:	97fff6be 	bl	401ef0 <memset@plt>
  4043fc:	a94c87e0 	ldp	x0, x1, [sp, #200]
  404400:	a90dffff 	stp	xzr, xzr, [sp, #216]
  404404:	eb18001f 	cmp	x0, x24
  404408:	54000060 	b.eq	404414 <_ZN2PT7PrintPTEv+0x94>  // b.none
  40440c:	d37df021 	lsl	x1, x1, #3
  404410:	97fff6e0 	bl	401f90 <_ZdlPvm@plt>
  404414:	aa1703e0 	mov	x0, x23
  404418:	9400172a 	bl	40a0c0 <_ZNSt10_HashtableINSt7__cxx1112basic_stringIcSt11char_traitsIcESaIcEEESt4pairIKS5_iESaIS8_ENSt8__detail10_Select1stESt8equal_toIS5_ESt4hashIS5_ENSA_18_Mod_range_hashingENSA_20_Default_ranged_hashENSA_20_Prime_rehash_policyENSA_17_Hashtable_traitsILb1ELb0ELb1EEEE5clearEv>
  40441c:	a94907e0 	ldp	x0, x1, [sp, #144]
  404420:	eb16001f 	cmp	x0, x22
  404424:	54000060 	b.eq	404430 <_ZN2PT7PrintPTEv+0xb0>  // b.none
  404428:	d37df021 	lsl	x1, x1, #3
  40442c:	97fff6d9 	bl	401f90 <_ZdlPvm@plt>
  404430:	f9403be0 	ldr	x0, [sp, #112]
  404434:	b4000080 	cbz	x0, 404444 <_ZN2PT7PrintPTEv+0xc4>
  404438:	f94043e1 	ldr	x1, [sp, #128]
  40443c:	cb000021 	sub	x1, x1, x0
  404440:	97fff6d4 	bl	401f90 <_ZdlPvm@plt>
  404444:	a945e7f3 	ldp	x19, x25, [sp, #88]
  404448:	eb19027f 	cmp	x19, x25
  40444c:	54000180 	b.eq	40447c <_ZN2PT7PrintPTEv+0xfc>  // b.none
  404450:	aa1303e1 	mov	x1, x19
  404454:	f8410420 	ldr	x0, [x1], #16
  404458:	eb01001f 	cmp	x0, x1
  40445c:	54000080 	b.eq	40446c <_ZN2PT7PrintPTEv+0xec>  // b.none
  404460:	f9400a61 	ldr	x1, [x19, #16]
  404464:	91000421 	add	x1, x1, #0x1
  404468:	97fff6ca 	bl	401f90 <_ZdlPvm@plt>
  40446c:	91008273 	add	x19, x19, #0x20
  404470:	eb13033f 	cmp	x25, x19
  404474:	54fffee1 	b.ne	404450 <_ZN2PT7PrintPTEv+0xd0>  // b.any
  404478:	f9402ff9 	ldr	x25, [sp, #88]
  40447c:	b40000b9 	cbz	x25, 404490 <_ZN2PT7PrintPTEv+0x110>
  404480:	f94037e1 	ldr	x1, [sp, #104]
  404484:	aa1903e0 	mov	x0, x25
  404488:	cb190021 	sub	x1, x1, x25
  40448c:	97fff6c1 	bl	401f90 <_ZdlPvm@plt>
  404490:	9102c294 	add	x20, x20, #0xb0
  404494:	eb1402bf 	cmp	x21, x20
  404498:	54fff901 	b.ne	4043b8 <_ZN2PT7PrintPTEv+0x38>  // b.any
  40449c:	a94363f7 	ldp	x23, x24, [sp, #48]
  4044a0:	f94023f9 	ldr	x25, [sp, #64]
  4044a4:	a94153f3 	ldp	x19, x20, [sp, #16]
  4044a8:	a9425bf5 	ldp	x21, x22, [sp, #32]
  4044ac:	a8d07bfd 	ldp	x29, x30, [sp], #256
  4044b0:	d65f03c0 	ret
  4044b4:	aa0003f3 	mov	x19, x0
  4044b8:	910143e0 	add	x0, sp, #0x50
  4044bc:	94001721 	bl	40a140 <_ZN7segmentD1Ev>
  4044c0:	aa1303e0 	mov	x0, x19
  4044c4:	97fff717 	bl	402120 <_Unwind_Resume@plt>
  4044c8:	d503201f 	nop
  4044cc:	d503201f 	nop

00000000004044d0 <_ZN2PT6insertE7segment>:
  4044d0:	a9409003 	ldp	x3, x4, [x0, #8]
  4044d4:	eb04007f 	cmp	x3, x4
  4044d8:	540001a0 	b.eq	40450c <_ZN2PT6insertE7segment+0x3c>  // b.none
  4044dc:	a9be7bfd 	stp	x29, x30, [sp, #-32]!
  4044e0:	910003fd 	mov	x29, sp
  4044e4:	f9000bf3 	str	x19, [sp, #16]
  4044e8:	aa0003f3 	mov	x19, x0
  4044ec:	aa0303e0 	mov	x0, x3
  4044f0:	940017bc 	bl	40a3e0 <_ZN7segmentC1ERKS_>
  4044f4:	f9400660 	ldr	x0, [x19, #8]
  4044f8:	9102c000 	add	x0, x0, #0xb0
  4044fc:	f9000660 	str	x0, [x19, #8]
  404500:	f9400bf3 	ldr	x19, [sp, #16]
  404504:	a8c27bfd 	ldp	x29, x30, [sp], #32
  404508:	d65f03c0 	ret
  40450c:	aa0103e2 	mov	x2, x1
  404510:	aa0303e1 	mov	x1, x3
  404514:	14001953 	b	40aa60 <_ZNSt6vectorI7segmentSaIS0_EE17_M_realloc_insertIJRS0_EEEvN9__gnu_cxx17__normal_iteratorIPS0_S2_EEDpOT_>
  404518:	d503201f 	nop
  40451c:	d503201f 	nop

0000000000404520 <_ZSt25__unguarded_linear_insertIN9__gnu_cxx17__normal_iteratorIPNSt7__cxx1112basic_stringIcSt11char_traitsIcESaIcEEESt6vectorIS7_SaIS7_EEEENS0_5__ops14_Val_comp_iterIZN7segment5orderEvEUlRKS7_SH_E_EEEvT_T0_>:
  404520:	a9ba7bfd 	stp	x29, x30, [sp, #-96]!
  404524:	aa0003e2 	mov	x2, x0
  404528:	910143e3 	add	x3, sp, #0x50
  40452c:	910003fd 	mov	x29, sp
  404530:	f90023e3 	str	x3, [sp, #64]
  404534:	f8410443 	ldr	x3, [x2], #16
  404538:	a90153f3 	stp	x19, x20, [sp, #16]
  40453c:	a9025bf5 	stp	x21, x22, [sp, #32]
  404540:	a90363f7 	stp	x23, x24, [sp, #48]
  404544:	eb03005f 	cmp	x2, x3
  404548:	54000ca0 	b.eq	4046dc <_ZSt25__unguarded_linear_insertIN9__gnu_cxx17__normal_iteratorIPNSt7__cxx1112basic_stringIcSt11char_traitsIcESaIcEEESt6vectorIS7_SaIS7_EEEENS0_5__ops14_Val_comp_iterIZN7segment5orderEvEUlRKS7_SH_E_EEEvT_T0_+0x1bc>  // b.none
  40454c:	f9400804 	ldr	x4, [x0, #16]
  404550:	f90023e3 	str	x3, [sp, #64]
  404554:	f9002be4 	str	x4, [sp, #80]
  404558:	91010036 	add	x22, x1, #0x40
  40455c:	9101e034 	add	x20, x1, #0x78
  404560:	f9400401 	ldr	x1, [x0, #8]
  404564:	aa0203f5 	mov	x21, x2
  404568:	d1004013 	sub	x19, x0, #0x10
  40456c:	a9007c02 	stp	x2, xzr, [x0]
  404570:	3900401f 	strb	wzr, [x0, #16]
  404574:	f90027e1 	str	x1, [sp, #72]
  404578:	1400000e 	b	4045b0 <_ZSt25__unguarded_linear_insertIN9__gnu_cxx17__normal_iteratorIPNSt7__cxx1112basic_stringIcSt11char_traitsIcESaIcEEESt6vectorIS7_SaIS7_EEEENS0_5__ops14_Val_comp_iterIZN7segment5orderEvEUlRKS7_SH_E_EEEvT_T0_+0x90>
  40457c:	a9010a60 	stp	x0, x2, [x19, #16]
  404580:	f9400261 	ldr	x1, [x19]
  404584:	eb0302bf 	cmp	x21, x3
  404588:	540005a0 	b.eq	40463c <_ZSt25__unguarded_linear_insertIN9__gnu_cxx17__normal_iteratorIPNSt7__cxx1112basic_stringIcSt11char_traitsIcESaIcEEESt6vectorIS7_SaIS7_EEEENS0_5__ops14_Val_comp_iterIZN7segment5orderEvEUlRKS7_SH_E_EEEvT_T0_+0x11c>  // b.none
  40458c:	f9401260 	ldr	x0, [x19, #32]
  404590:	f9001261 	str	x1, [x19, #32]
  404594:	b4000563 	cbz	x3, 404640 <_ZSt25__unguarded_linear_insertIN9__gnu_cxx17__normal_iteratorIPNSt7__cxx1112basic_stringIcSt11char_traitsIcESaIcEEESt6vectorIS7_SaIS7_EEEENS0_5__ops14_Val_comp_iterIZN7segment5orderEvEUlRKS7_SH_E_EEEvT_T0_+0x120>
  404598:	f81f0263 	stur	x3, [x19, #-16]
  40459c:	f9000260 	str	x0, [x19]
  4045a0:	d10082b5 	sub	x21, x21, #0x20
  4045a4:	d1008273 	sub	x19, x19, #0x20
  4045a8:	f9000e7f 	str	xzr, [x19, #24]
  4045ac:	3900007f 	strb	wzr, [x3]
  4045b0:	d1004277 	sub	x23, x19, #0x10
  4045b4:	91004278 	add	x24, x19, #0x10
  4045b8:	910103e1 	add	x1, sp, #0x40
  4045bc:	aa1603e0 	mov	x0, x22
  4045c0:	94001d24 	bl	40ba50 <_ZNSt8__detail9_Map_baseINSt7__cxx1112basic_stringIcSt11char_traitsIcESaIcEEESt4pairIKS6_iESaIS9_ENS_10_Select1stESt8equal_toIS6_ESt4hashIS6_ENS_18_Mod_range_hashingENS_20_Default_ranged_hashENS_20_Prime_rehash_policyENS_17_Hashtable_traitsILb1ELb0ELb1EEELb1EEixERS8_>
  4045c4:	aa0003e1 	mov	x1, x0
  4045c8:	aa1403e0 	mov	x0, x20
  4045cc:	94001af1 	bl	40b190 <_ZNSt8__detail9_Map_baseIiSt4pairIKiiESaIS3_ENS_10_Select1stESt8equal_toIiESt4hashIiENS_18_Mod_range_hashingENS_20_Default_ranged_hashENS_20_Prime_rehash_policyENS_17_Hashtable_traitsILb0ELb0ELb1EEELb1EE2atERS2_>
  4045d0:	aa0003e2 	mov	x2, x0
  4045d4:	aa1703e1 	mov	x1, x23
  4045d8:	aa1603e0 	mov	x0, x22
  4045dc:	b9400057 	ldr	w23, [x2]
  4045e0:	94001d1c 	bl	40ba50 <_ZNSt8__detail9_Map_baseINSt7__cxx1112basic_stringIcSt11char_traitsIcESaIcEEESt4pairIKS6_iESaIS9_ENS_10_Select1stESt8equal_toIS6_ESt4hashIS6_ENS_18_Mod_range_hashingENS_20_Default_ranged_hashENS_20_Prime_rehash_policyENS_17_Hashtable_traitsILb1ELb0ELb1EEELb1EEixERS8_>
  4045e4:	aa0003e1 	mov	x1, x0
  4045e8:	aa1403e0 	mov	x0, x20
  4045ec:	94001ae9 	bl	40b190 <_ZNSt8__detail9_Map_baseIiSt4pairIKiiESaIS3_ENS_10_Select1stESt8equal_toIiESt4hashIiENS_18_Mod_range_hashingENS_20_Default_ranged_hashENS_20_Prime_rehash_policyENS_17_Hashtable_traitsILb0ELb0ELb1EEELb1EE2atERS2_>
  4045f0:	b9400000 	ldr	w0, [x0]
  4045f4:	f9400a63 	ldr	x3, [x19, #16]
  4045f8:	6b0002ff 	cmp	w23, w0
  4045fc:	5400028d 	b.le	40464c <_ZSt25__unguarded_linear_insertIN9__gnu_cxx17__normal_iteratorIPNSt7__cxx1112basic_stringIcSt11char_traitsIcESaIcEEESt6vectorIS7_SaIS7_EEEENS0_5__ops14_Val_comp_iterIZN7segment5orderEvEUlRKS7_SH_E_EEEvT_T0_+0x12c>
  404600:	a97f0a60 	ldp	x0, x2, [x19, #-16]
  404604:	eb13001f 	cmp	x0, x19
  404608:	54fffba1 	b.ne	40457c <_ZSt25__unguarded_linear_insertIN9__gnu_cxx17__normal_iteratorIPNSt7__cxx1112basic_stringIcSt11char_traitsIcESaIcEEESt6vectorIS7_SaIS7_EEEENS0_5__ops14_Val_comp_iterIZN7segment5orderEvEUlRKS7_SH_E_EEEvT_T0_+0x5c>  // b.any
  40460c:	b4000102 	cbz	x2, 40462c <_ZSt25__unguarded_linear_insertIN9__gnu_cxx17__normal_iteratorIPNSt7__cxx1112basic_stringIcSt11char_traitsIcESaIcEEESt6vectorIS7_SaIS7_EEEENS0_5__ops14_Val_comp_iterIZN7segment5orderEvEUlRKS7_SH_E_EEEvT_T0_+0x10c>
  404610:	f100045f 	cmp	x2, #0x1
  404614:	540005a0 	b.eq	4046c8 <_ZSt25__unguarded_linear_insertIN9__gnu_cxx17__normal_iteratorIPNSt7__cxx1112basic_stringIcSt11char_traitsIcESaIcEEESt6vectorIS7_SaIS7_EEEENS0_5__ops14_Val_comp_iterIZN7segment5orderEvEUlRKS7_SH_E_EEEvT_T0_+0x1a8>  // b.none
  404618:	aa0303e0 	mov	x0, x3
  40461c:	aa1303e1 	mov	x1, x19
  404620:	97fff5f8 	bl	401e00 <memcpy@plt>
  404624:	f85f8262 	ldur	x2, [x19, #-8]
  404628:	f9400a63 	ldr	x3, [x19, #16]
  40462c:	f9000e62 	str	x2, [x19, #24]
  404630:	3822687f 	strb	wzr, [x3, x2]
  404634:	f85f0263 	ldur	x3, [x19, #-16]
  404638:	17ffffda 	b	4045a0 <_ZSt25__unguarded_linear_insertIN9__gnu_cxx17__normal_iteratorIPNSt7__cxx1112basic_stringIcSt11char_traitsIcESaIcEEESt6vectorIS7_SaIS7_EEEENS0_5__ops14_Val_comp_iterIZN7segment5orderEvEUlRKS7_SH_E_EEEvT_T0_+0x80>
  40463c:	f9001261 	str	x1, [x19, #32]
  404640:	aa1303e3 	mov	x3, x19
  404644:	f81f0273 	stur	x19, [x19, #-16]
  404648:	17ffffd6 	b	4045a0 <_ZSt25__unguarded_linear_insertIN9__gnu_cxx17__normal_iteratorIPNSt7__cxx1112basic_stringIcSt11char_traitsIcESaIcEEESt6vectorIS7_SaIS7_EEEENS0_5__ops14_Val_comp_iterIZN7segment5orderEvEUlRKS7_SH_E_EEEvT_T0_+0x80>
  40464c:	a9440be1 	ldp	x1, x2, [sp, #64]
  404650:	910143e0 	add	x0, sp, #0x50
  404654:	eb00003f 	cmp	x1, x0
  404658:	54000480 	b.eq	4046e8 <_ZSt25__unguarded_linear_insertIN9__gnu_cxx17__normal_iteratorIPNSt7__cxx1112basic_stringIcSt11char_traitsIcESaIcEEESt6vectorIS7_SaIS7_EEEENS0_5__ops14_Val_comp_iterIZN7segment5orderEvEUlRKS7_SH_E_EEEvT_T0_+0x1c8>  // b.none
  40465c:	a9000b01 	stp	x1, x2, [x24]
  404660:	f9402be0 	ldr	x0, [sp, #80]
  404664:	eb0302bf 	cmp	x21, x3
  404668:	54000280 	b.eq	4046b8 <_ZSt25__unguarded_linear_insertIN9__gnu_cxx17__normal_iteratorIPNSt7__cxx1112basic_stringIcSt11char_traitsIcESaIcEEESt6vectorIS7_SaIS7_EEEENS0_5__ops14_Val_comp_iterIZN7segment5orderEvEUlRKS7_SH_E_EEEvT_T0_+0x198>  // b.none
  40466c:	f9400b01 	ldr	x1, [x24, #16]
  404670:	f9000b00 	str	x0, [x24, #16]
  404674:	b4000243 	cbz	x3, 4046bc <_ZSt25__unguarded_linear_insertIN9__gnu_cxx17__normal_iteratorIPNSt7__cxx1112basic_stringIcSt11char_traitsIcESaIcEEESt6vectorIS7_SaIS7_EEEENS0_5__ops14_Val_comp_iterIZN7segment5orderEvEUlRKS7_SH_E_EEEvT_T0_+0x19c>
  404678:	f90023e3 	str	x3, [sp, #64]
  40467c:	f9002be1 	str	x1, [sp, #80]
  404680:	f90027ff 	str	xzr, [sp, #72]
  404684:	910143e1 	add	x1, sp, #0x50
  404688:	3900007f 	strb	wzr, [x3]
  40468c:	f94023e0 	ldr	x0, [sp, #64]
  404690:	eb01001f 	cmp	x0, x1
  404694:	54000080 	b.eq	4046a4 <_ZSt25__unguarded_linear_insertIN9__gnu_cxx17__normal_iteratorIPNSt7__cxx1112basic_stringIcSt11char_traitsIcESaIcEEESt6vectorIS7_SaIS7_EEEENS0_5__ops14_Val_comp_iterIZN7segment5orderEvEUlRKS7_SH_E_EEEvT_T0_+0x184>  // b.none
  404698:	f9402be1 	ldr	x1, [sp, #80]
  40469c:	91000421 	add	x1, x1, #0x1
  4046a0:	97fff63c 	bl	401f90 <_ZdlPvm@plt>
  4046a4:	a94153f3 	ldp	x19, x20, [sp, #16]
  4046a8:	a9425bf5 	ldp	x21, x22, [sp, #32]
  4046ac:	a94363f7 	ldp	x23, x24, [sp, #48]
  4046b0:	a8c67bfd 	ldp	x29, x30, [sp], #96
  4046b4:	d65f03c0 	ret
  4046b8:	f9000b00 	str	x0, [x24, #16]
  4046bc:	910143e3 	add	x3, sp, #0x50
  4046c0:	f90023e3 	str	x3, [sp, #64]
  4046c4:	17ffffef 	b	404680 <_ZSt25__unguarded_linear_insertIN9__gnu_cxx17__normal_iteratorIPNSt7__cxx1112basic_stringIcSt11char_traitsIcESaIcEEESt6vectorIS7_SaIS7_EEEENS0_5__ops14_Val_comp_iterIZN7segment5orderEvEUlRKS7_SH_E_EEEvT_T0_+0x160>
  4046c8:	39400260 	ldrb	w0, [x19]
  4046cc:	39000060 	strb	w0, [x3]
  4046d0:	f85f8262 	ldur	x2, [x19, #-8]
  4046d4:	f9400a63 	ldr	x3, [x19, #16]
  4046d8:	17ffffd5 	b	40462c <_ZSt25__unguarded_linear_insertIN9__gnu_cxx17__normal_iteratorIPNSt7__cxx1112basic_stringIcSt11char_traitsIcESaIcEEESt6vectorIS7_SaIS7_EEEENS0_5__ops14_Val_comp_iterIZN7segment5orderEvEUlRKS7_SH_E_EEEvT_T0_+0x10c>
  4046dc:	a9411404 	ldp	x4, x5, [x0, #16]
  4046e0:	a90517e4 	stp	x4, x5, [sp, #80]
  4046e4:	17ffff9d 	b	404558 <_ZSt25__unguarded_linear_insertIN9__gnu_cxx17__normal_iteratorIPNSt7__cxx1112basic_stringIcSt11char_traitsIcESaIcEEESt6vectorIS7_SaIS7_EEEENS0_5__ops14_Val_comp_iterIZN7segment5orderEvEUlRKS7_SH_E_EEEvT_T0_+0x38>
  4046e8:	b40000e2 	cbz	x2, 404704 <_ZSt25__unguarded_linear_insertIN9__gnu_cxx17__normal_iteratorIPNSt7__cxx1112basic_stringIcSt11char_traitsIcESaIcEEESt6vectorIS7_SaIS7_EEEENS0_5__ops14_Val_comp_iterIZN7segment5orderEvEUlRKS7_SH_E_EEEvT_T0_+0x1e4>
  4046ec:	f100045f 	cmp	x2, #0x1
  4046f0:	54000120 	b.eq	404714 <_ZSt25__unguarded_linear_insertIN9__gnu_cxx17__normal_iteratorIPNSt7__cxx1112basic_stringIcSt11char_traitsIcESaIcEEESt6vectorIS7_SaIS7_EEEENS0_5__ops14_Val_comp_iterIZN7segment5orderEvEUlRKS7_SH_E_EEEvT_T0_+0x1f4>  // b.none
  4046f4:	aa0303e0 	mov	x0, x3
  4046f8:	97fff5c2 	bl	401e00 <memcpy@plt>
  4046fc:	f9400303 	ldr	x3, [x24]
  404700:	f94027e2 	ldr	x2, [sp, #72]
  404704:	f9000702 	str	x2, [x24, #8]
  404708:	3822687f 	strb	wzr, [x3, x2]
  40470c:	f94023e3 	ldr	x3, [sp, #64]
  404710:	17ffffdc 	b	404680 <_ZSt25__unguarded_linear_insertIN9__gnu_cxx17__normal_iteratorIPNSt7__cxx1112basic_stringIcSt11char_traitsIcESaIcEEESt6vectorIS7_SaIS7_EEEENS0_5__ops14_Val_comp_iterIZN7segment5orderEvEUlRKS7_SH_E_EEEvT_T0_+0x160>
  404714:	394143e0 	ldrb	w0, [sp, #80]
  404718:	39000060 	strb	w0, [x3]
  40471c:	f9400303 	ldr	x3, [x24]
  404720:	f94027e2 	ldr	x2, [sp, #72]
  404724:	17fffff8 	b	404704 <_ZSt25__unguarded_linear_insertIN9__gnu_cxx17__normal_iteratorIPNSt7__cxx1112basic_stringIcSt11char_traitsIcESaIcEEESt6vectorIS7_SaIS7_EEEENS0_5__ops14_Val_comp_iterIZN7segment5orderEvEUlRKS7_SH_E_EEEvT_T0_+0x1e4>
  404728:	aa0003f3 	mov	x19, x0
  40472c:	910103e0 	add	x0, sp, #0x40
  404730:	97fff62c 	bl	401fe0 <_ZNSt7__cxx1112basic_stringIcSt11char_traitsIcESaIcEE10_M_disposeEv@plt>
  404734:	aa1303e0 	mov	x0, x19
  404738:	97fff67a 	bl	402120 <_Unwind_Resume@plt>
  40473c:	d503201f 	nop

0000000000404740 <_ZSt16__insertion_sortIN9__gnu_cxx17__normal_iteratorIPNSt7__cxx1112basic_stringIcSt11char_traitsIcESaIcEEESt6vectorIS7_SaIS7_EEEENS0_5__ops15_Iter_comp_iterIZN7segment5orderEvEUlRKS7_SH_E_EEEvT_SK_T0_>:
  404740:	eb01001f 	cmp	x0, x1
  404744:	54001420 	b.eq	4049c8 <_ZSt16__insertion_sortIN9__gnu_cxx17__normal_iteratorIPNSt7__cxx1112basic_stringIcSt11char_traitsIcESaIcEEESt6vectorIS7_SaIS7_EEEENS0_5__ops15_Iter_comp_iterIZN7segment5orderEvEUlRKS7_SH_E_EEEvT_SK_T0_+0x288>  // b.none
  404748:	a9b77bfd 	stp	x29, x30, [sp, #-144]!
  40474c:	910003fd 	mov	x29, sp
  404750:	a9025bf5 	stp	x21, x22, [sp, #32]
  404754:	aa0003f6 	mov	x22, x0
  404758:	a9046bf9 	stp	x25, x26, [sp, #64]
  40475c:	aa0103fa 	mov	x26, x1
  404760:	a90573fb 	stp	x27, x28, [sp, #80]
  404764:	9100801c 	add	x28, x0, #0x20
  404768:	eb01039f 	cmp	x28, x1
  40476c:	54000d80 	b.eq	40491c <_ZSt16__insertion_sortIN9__gnu_cxx17__normal_iteratorIPNSt7__cxx1112basic_stringIcSt11char_traitsIcESaIcEEESt6vectorIS7_SaIS7_EEEENS0_5__ops15_Iter_comp_iterIZN7segment5orderEvEUlRKS7_SH_E_EEEvT_SK_T0_+0x1dc>  // b.none
  404770:	aa0203fb 	mov	x27, x2
  404774:	91010059 	add	x25, x2, #0x40
  404778:	a90363f7 	stp	x23, x24, [sp, #48]
  40477c:	9101e058 	add	x24, x2, #0x78
  404780:	910203f7 	add	x23, sp, #0x80
  404784:	91004000 	add	x0, x0, #0x10
  404788:	a90153f3 	stp	x19, x20, [sp, #16]
  40478c:	f90037e0 	str	x0, [sp, #104]
  404790:	aa1c03e1 	mov	x1, x28
  404794:	aa1903e0 	mov	x0, x25
  404798:	94001cae 	bl	40ba50 <_ZNSt8__detail9_Map_baseINSt7__cxx1112basic_stringIcSt11char_traitsIcESaIcEEESt4pairIKS6_iESaIS9_ENS_10_Select1stESt8equal_toIS6_ESt4hashIS6_ENS_18_Mod_range_hashingENS_20_Default_ranged_hashENS_20_Prime_rehash_policyENS_17_Hashtable_traitsILb1ELb0ELb1EEELb1EEixERS8_>
  40479c:	aa0003e1 	mov	x1, x0
  4047a0:	aa1803e0 	mov	x0, x24
  4047a4:	94001a7b 	bl	40b190 <_ZNSt8__detail9_Map_baseIiSt4pairIKiiESaIS3_ENS_10_Select1stESt8equal_toIiESt4hashIiENS_18_Mod_range_hashingENS_20_Default_ranged_hashENS_20_Prime_rehash_policyENS_17_Hashtable_traitsILb0ELb0ELb1EEELb1EE2atERS2_>
  4047a8:	aa0003e2 	mov	x2, x0
  4047ac:	aa1603e1 	mov	x1, x22
  4047b0:	aa1903e0 	mov	x0, x25
  4047b4:	b9400053 	ldr	w19, [x2]
  4047b8:	94001ca6 	bl	40ba50 <_ZNSt8__detail9_Map_baseINSt7__cxx1112basic_stringIcSt11char_traitsIcESaIcEEESt4pairIKS6_iESaIS9_ENS_10_Select1stESt8equal_toIS6_ESt4hashIS6_ENS_18_Mod_range_hashingENS_20_Default_ranged_hashENS_20_Prime_rehash_policyENS_17_Hashtable_traitsILb1ELb0ELb1EEELb1EEixERS8_>
  4047bc:	aa0003e1 	mov	x1, x0
  4047c0:	aa1803e0 	mov	x0, x24
  4047c4:	94001a73 	bl	40b190 <_ZNSt8__detail9_Map_baseIiSt4pairIKiiESaIS3_ENS_10_Select1stESt8equal_toIiESt4hashIiENS_18_Mod_range_hashingENS_20_Default_ranged_hashENS_20_Prime_rehash_policyENS_17_Hashtable_traitsILb0ELb0ELb1EEELb1EE2atERS2_>
  4047c8:	b9400000 	ldr	w0, [x0]
  4047cc:	aa1c03e1 	mov	x1, x28
  4047d0:	9100839c 	add	x28, x28, #0x20
  4047d4:	6b00027f 	cmp	w19, w0
  4047d8:	54000b6d 	b.le	404944 <_ZSt16__insertion_sortIN9__gnu_cxx17__normal_iteratorIPNSt7__cxx1112basic_stringIcSt11char_traitsIcESaIcEEESt6vectorIS7_SaIS7_EEEENS0_5__ops15_Iter_comp_iterIZN7segment5orderEvEUlRKS7_SH_E_EEEvT_SK_T0_+0x204>
  4047dc:	f85e0382 	ldur	x2, [x28, #-32]
  4047e0:	d1004380 	sub	x0, x28, #0x10
  4047e4:	f9003bf7 	str	x23, [sp, #112]
  4047e8:	eb00005f 	cmp	x2, x0
  4047ec:	54000ba0 	b.eq	404960 <_ZSt16__insertion_sortIN9__gnu_cxx17__normal_iteratorIPNSt7__cxx1112basic_stringIcSt11char_traitsIcESaIcEEESt6vectorIS7_SaIS7_EEEENS0_5__ops15_Iter_comp_iterIZN7segment5orderEvEUlRKS7_SH_E_EEEvT_SK_T0_+0x220>  // b.none
  4047f0:	f85f0384 	ldur	x4, [x28, #-16]
  4047f4:	f9003be2 	str	x2, [sp, #112]
  4047f8:	f90043e4 	str	x4, [sp, #128]
  4047fc:	cb160021 	sub	x1, x1, x22
  404800:	381f039f 	sturb	wzr, [x28, #-16]
  404804:	f85e8382 	ldur	x2, [x28, #-24]
  404808:	a93e7f80 	stp	x0, xzr, [x28, #-32]
  40480c:	9345fc35 	asr	x21, x1, #5
  404810:	f9003fe2 	str	x2, [sp, #120]
  404814:	f100003f 	cmp	x1, #0x0
  404818:	540004ed 	b.le	4048b4 <_ZSt16__insertion_sortIN9__gnu_cxx17__normal_iteratorIPNSt7__cxx1112basic_stringIcSt11char_traitsIcESaIcEEESt6vectorIS7_SaIS7_EEEENS0_5__ops15_Iter_comp_iterIZN7segment5orderEvEUlRKS7_SH_E_EEEvT_SK_T0_+0x174>
  40481c:	d100c393 	sub	x19, x28, #0x30
  404820:	14000012 	b	404868 <_ZSt16__insertion_sortIN9__gnu_cxx17__normal_iteratorIPNSt7__cxx1112basic_stringIcSt11char_traitsIcESaIcEEESt6vectorIS7_SaIS7_EEEENS0_5__ops15_Iter_comp_iterIZN7segment5orderEvEUlRKS7_SH_E_EEEvT_SK_T0_+0x128>
  404824:	91008261 	add	x1, x19, #0x20
  404828:	eb01001f 	cmp	x0, x1
  40482c:	54000820 	b.eq	404930 <_ZSt16__insertion_sortIN9__gnu_cxx17__normal_iteratorIPNSt7__cxx1112basic_stringIcSt11char_traitsIcESaIcEEESt6vectorIS7_SaIS7_EEEENS0_5__ops15_Iter_comp_iterIZN7segment5orderEvEUlRKS7_SH_E_EEEvT_SK_T0_+0x1f0>  // b.none
  404830:	f9400264 	ldr	x4, [x19]
  404834:	a9010a74 	stp	x20, x2, [x19, #16]
  404838:	f9401261 	ldr	x1, [x19, #32]
  40483c:	f9001264 	str	x4, [x19, #32]
  404840:	b40007e0 	cbz	x0, 40493c <_ZSt16__insertion_sortIN9__gnu_cxx17__normal_iteratorIPNSt7__cxx1112basic_stringIcSt11char_traitsIcESaIcEEESt6vectorIS7_SaIS7_EEEENS0_5__ops15_Iter_comp_iterIZN7segment5orderEvEUlRKS7_SH_E_EEEvT_SK_T0_+0x1fc>
  404844:	f81f0260 	stur	x0, [x19, #-16]
  404848:	f9000261 	str	x1, [x19]
  40484c:	f85f0260 	ldur	x0, [x19, #-16]
  404850:	f81f827f 	stur	xzr, [x19, #-8]
  404854:	f10006b5 	subs	x21, x21, #0x1
  404858:	d1008273 	sub	x19, x19, #0x20
  40485c:	3900001f 	strb	wzr, [x0]
  404860:	54000280 	b.eq	4048b0 <_ZSt16__insertion_sortIN9__gnu_cxx17__normal_iteratorIPNSt7__cxx1112basic_stringIcSt11char_traitsIcESaIcEEESt6vectorIS7_SaIS7_EEEENS0_5__ops15_Iter_comp_iterIZN7segment5orderEvEUlRKS7_SH_E_EEEvT_SK_T0_+0x170>  // b.none
  404864:	f9400a60 	ldr	x0, [x19, #16]
  404868:	a97f0a74 	ldp	x20, x2, [x19, #-16]
  40486c:	eb14027f 	cmp	x19, x20
  404870:	54fffda1 	b.ne	404824 <_ZSt16__insertion_sortIN9__gnu_cxx17__normal_iteratorIPNSt7__cxx1112basic_stringIcSt11char_traitsIcESaIcEEESt6vectorIS7_SaIS7_EEEENS0_5__ops15_Iter_comp_iterIZN7segment5orderEvEUlRKS7_SH_E_EEEvT_SK_T0_+0xe4>  // b.any
  404874:	b40000a2 	cbz	x2, 404888 <_ZSt16__insertion_sortIN9__gnu_cxx17__normal_iteratorIPNSt7__cxx1112basic_stringIcSt11char_traitsIcESaIcEEESt6vectorIS7_SaIS7_EEEENS0_5__ops15_Iter_comp_iterIZN7segment5orderEvEUlRKS7_SH_E_EEEvT_SK_T0_+0x148>
  404878:	f100045f 	cmp	x2, #0x1
  40487c:	540006c0 	b.eq	404954 <_ZSt16__insertion_sortIN9__gnu_cxx17__normal_iteratorIPNSt7__cxx1112basic_stringIcSt11char_traitsIcESaIcEEESt6vectorIS7_SaIS7_EEEENS0_5__ops15_Iter_comp_iterIZN7segment5orderEvEUlRKS7_SH_E_EEEvT_SK_T0_+0x214>  // b.none
  404880:	aa1303e1 	mov	x1, x19
  404884:	97fff55f 	bl	401e00 <memcpy@plt>
  404888:	f85f8280 	ldur	x0, [x20, #-8]
  40488c:	f9000e80 	str	x0, [x20, #24]
  404890:	f9400a81 	ldr	x1, [x20, #16]
  404894:	f10006b5 	subs	x21, x21, #0x1
  404898:	d1008273 	sub	x19, x19, #0x20
  40489c:	3820683f 	strb	wzr, [x1, x0]
  4048a0:	f9000e7f 	str	xzr, [x19, #24]
  4048a4:	f9400a60 	ldr	x0, [x19, #16]
  4048a8:	3900001f 	strb	wzr, [x0]
  4048ac:	54fffdc1 	b.ne	404864 <_ZSt16__insertion_sortIN9__gnu_cxx17__normal_iteratorIPNSt7__cxx1112basic_stringIcSt11char_traitsIcESaIcEEESt6vectorIS7_SaIS7_EEEENS0_5__ops15_Iter_comp_iterIZN7segment5orderEvEUlRKS7_SH_E_EEEvT_SK_T0_+0x124>  // b.any
  4048b0:	f9403fe2 	ldr	x2, [sp, #120]
  4048b4:	f9403be1 	ldr	x1, [sp, #112]
  4048b8:	f94002c0 	ldr	x0, [x22]
  4048bc:	eb17003f 	cmp	x1, x23
  4048c0:	54000560 	b.eq	40496c <_ZSt16__insertion_sortIN9__gnu_cxx17__normal_iteratorIPNSt7__cxx1112basic_stringIcSt11char_traitsIcESaIcEEESt6vectorIS7_SaIS7_EEEENS0_5__ops15_Iter_comp_iterIZN7segment5orderEvEUlRKS7_SH_E_EEEvT_SK_T0_+0x22c>  // b.none
  4048c4:	f94037e3 	ldr	x3, [sp, #104]
  4048c8:	a9000ac1 	stp	x1, x2, [x22]
  4048cc:	f94043e4 	ldr	x4, [sp, #128]
  4048d0:	eb03001f 	cmp	x0, x3
  4048d4:	54000620 	b.eq	404998 <_ZSt16__insertion_sortIN9__gnu_cxx17__normal_iteratorIPNSt7__cxx1112basic_stringIcSt11char_traitsIcESaIcEEESt6vectorIS7_SaIS7_EEEENS0_5__ops15_Iter_comp_iterIZN7segment5orderEvEUlRKS7_SH_E_EEEvT_SK_T0_+0x258>  // b.none
  4048d8:	f9400ac1 	ldr	x1, [x22, #16]
  4048dc:	f9000ac4 	str	x4, [x22, #16]
  4048e0:	b40005e0 	cbz	x0, 40499c <_ZSt16__insertion_sortIN9__gnu_cxx17__normal_iteratorIPNSt7__cxx1112basic_stringIcSt11char_traitsIcESaIcEEESt6vectorIS7_SaIS7_EEEENS0_5__ops15_Iter_comp_iterIZN7segment5orderEvEUlRKS7_SH_E_EEEvT_SK_T0_+0x25c>
  4048e4:	f9003be0 	str	x0, [sp, #112]
  4048e8:	f90043e1 	str	x1, [sp, #128]
  4048ec:	f9003fff 	str	xzr, [sp, #120]
  4048f0:	3900001f 	strb	wzr, [x0]
  4048f4:	f9403be0 	ldr	x0, [sp, #112]
  4048f8:	eb17001f 	cmp	x0, x23
  4048fc:	54000080 	b.eq	40490c <_ZSt16__insertion_sortIN9__gnu_cxx17__normal_iteratorIPNSt7__cxx1112basic_stringIcSt11char_traitsIcESaIcEEESt6vectorIS7_SaIS7_EEEENS0_5__ops15_Iter_comp_iterIZN7segment5orderEvEUlRKS7_SH_E_EEEvT_SK_T0_+0x1cc>  // b.none
  404900:	f94043e1 	ldr	x1, [sp, #128]
  404904:	91000421 	add	x1, x1, #0x1
  404908:	97fff5a2 	bl	401f90 <_ZdlPvm@plt>
  40490c:	eb1c035f 	cmp	x26, x28
  404910:	54fff401 	b.ne	404790 <_ZSt16__insertion_sortIN9__gnu_cxx17__normal_iteratorIPNSt7__cxx1112basic_stringIcSt11char_traitsIcESaIcEEESt6vectorIS7_SaIS7_EEEENS0_5__ops15_Iter_comp_iterIZN7segment5orderEvEUlRKS7_SH_E_EEEvT_SK_T0_+0x50>  // b.any
  404914:	a94153f3 	ldp	x19, x20, [sp, #16]
  404918:	a94363f7 	ldp	x23, x24, [sp, #48]
  40491c:	a9425bf5 	ldp	x21, x22, [sp, #32]
  404920:	a9446bf9 	ldp	x25, x26, [sp, #64]
  404924:	a94573fb 	ldp	x27, x28, [sp, #80]
  404928:	a8c97bfd 	ldp	x29, x30, [sp], #144
  40492c:	d65f03c0 	ret
  404930:	f9400260 	ldr	x0, [x19]
  404934:	a9010a74 	stp	x20, x2, [x19, #16]
  404938:	f9001260 	str	x0, [x19, #32]
  40493c:	f81f0273 	stur	x19, [x19, #-16]
  404940:	17ffffc3 	b	40484c <_ZSt16__insertion_sortIN9__gnu_cxx17__normal_iteratorIPNSt7__cxx1112basic_stringIcSt11char_traitsIcESaIcEEESt6vectorIS7_SaIS7_EEEENS0_5__ops15_Iter_comp_iterIZN7segment5orderEvEUlRKS7_SH_E_EEEvT_SK_T0_+0x10c>
  404944:	aa0103e0 	mov	x0, x1
  404948:	aa1b03e1 	mov	x1, x27
  40494c:	97fffef5 	bl	404520 <_ZSt25__unguarded_linear_insertIN9__gnu_cxx17__normal_iteratorIPNSt7__cxx1112basic_stringIcSt11char_traitsIcESaIcEEESt6vectorIS7_SaIS7_EEEENS0_5__ops14_Val_comp_iterIZN7segment5orderEvEUlRKS7_SH_E_EEEvT_T0_>
  404950:	17ffffef 	b	40490c <_ZSt16__insertion_sortIN9__gnu_cxx17__normal_iteratorIPNSt7__cxx1112basic_stringIcSt11char_traitsIcESaIcEEESt6vectorIS7_SaIS7_EEEENS0_5__ops15_Iter_comp_iterIZN7segment5orderEvEUlRKS7_SH_E_EEEvT_SK_T0_+0x1cc>
  404954:	39400261 	ldrb	w1, [x19]
  404958:	39000001 	strb	w1, [x0]
  40495c:	17ffffcb 	b	404888 <_ZSt16__insertion_sortIN9__gnu_cxx17__normal_iteratorIPNSt7__cxx1112basic_stringIcSt11char_traitsIcESaIcEEESt6vectorIS7_SaIS7_EEEENS0_5__ops15_Iter_comp_iterIZN7segment5orderEvEUlRKS7_SH_E_EEEvT_SK_T0_+0x148>
  404960:	a97f1784 	ldp	x4, x5, [x28, #-16]
  404964:	a90817e4 	stp	x4, x5, [sp, #128]
  404968:	17ffffa5 	b	4047fc <_ZSt16__insertion_sortIN9__gnu_cxx17__normal_iteratorIPNSt7__cxx1112basic_stringIcSt11char_traitsIcESaIcEEESt6vectorIS7_SaIS7_EEEENS0_5__ops15_Iter_comp_iterIZN7segment5orderEvEUlRKS7_SH_E_EEEvT_SK_T0_+0xbc>
  40496c:	b40000e2 	cbz	x2, 404988 <_ZSt16__insertion_sortIN9__gnu_cxx17__normal_iteratorIPNSt7__cxx1112basic_stringIcSt11char_traitsIcESaIcEEESt6vectorIS7_SaIS7_EEEENS0_5__ops15_Iter_comp_iterIZN7segment5orderEvEUlRKS7_SH_E_EEEvT_SK_T0_+0x248>
  404970:	f100045f 	cmp	x2, #0x1
  404974:	540001a0 	b.eq	4049a8 <_ZSt16__insertion_sortIN9__gnu_cxx17__normal_iteratorIPNSt7__cxx1112basic_stringIcSt11char_traitsIcESaIcEEESt6vectorIS7_SaIS7_EEEENS0_5__ops15_Iter_comp_iterIZN7segment5orderEvEUlRKS7_SH_E_EEEvT_SK_T0_+0x268>  // b.none
  404978:	aa1703e1 	mov	x1, x23
  40497c:	97fff521 	bl	401e00 <memcpy@plt>
  404980:	f94002c0 	ldr	x0, [x22]
  404984:	f9403fe2 	ldr	x2, [sp, #120]
  404988:	f90006c2 	str	x2, [x22, #8]
  40498c:	3822681f 	strb	wzr, [x0, x2]
  404990:	f9403be0 	ldr	x0, [sp, #112]
  404994:	17ffffd6 	b	4048ec <_ZSt16__insertion_sortIN9__gnu_cxx17__normal_iteratorIPNSt7__cxx1112basic_stringIcSt11char_traitsIcESaIcEEESt6vectorIS7_SaIS7_EEEENS0_5__ops15_Iter_comp_iterIZN7segment5orderEvEUlRKS7_SH_E_EEEvT_SK_T0_+0x1ac>
  404998:	f9000ac4 	str	x4, [x22, #16]
  40499c:	aa1703e0 	mov	x0, x23
  4049a0:	f9003bf7 	str	x23, [sp, #112]
  4049a4:	17ffffd2 	b	4048ec <_ZSt16__insertion_sortIN9__gnu_cxx17__normal_iteratorIPNSt7__cxx1112basic_stringIcSt11char_traitsIcESaIcEEESt6vectorIS7_SaIS7_EEEENS0_5__ops15_Iter_comp_iterIZN7segment5orderEvEUlRKS7_SH_E_EEEvT_SK_T0_+0x1ac>
  4049a8:	394203e1 	ldrb	w1, [sp, #128]
  4049ac:	39000001 	strb	w1, [x0]
  4049b0:	f94002c0 	ldr	x0, [x22]
  4049b4:	f9403fe2 	ldr	x2, [sp, #120]
  4049b8:	f90006c2 	str	x2, [x22, #8]
  4049bc:	3822681f 	strb	wzr, [x0, x2]
  4049c0:	f9403be0 	ldr	x0, [sp, #112]
  4049c4:	17ffffca 	b	4048ec <_ZSt16__insertion_sortIN9__gnu_cxx17__normal_iteratorIPNSt7__cxx1112basic_stringIcSt11char_traitsIcESaIcEEESt6vectorIS7_SaIS7_EEEENS0_5__ops15_Iter_comp_iterIZN7segment5orderEvEUlRKS7_SH_E_EEEvT_SK_T0_+0x1ac>
  4049c8:	d65f03c0 	ret
  4049cc:	d503201f 	nop

00000000004049d0 <_ZSt13__adjust_heapIN9__gnu_cxx17__normal_iteratorIPNSt7__cxx1112basic_stringIcSt11char_traitsIcESaIcEEESt6vectorIS7_SaIS7_EEEElS7_NS0_5__ops15_Iter_comp_iterIZN7segment5orderEvEUlRKS7_SH_E_EEEvT_T0_SL_T1_T2_>:
  4049d0:	a9b47bfd 	stp	x29, x30, [sp, #-192]!
  4049d4:	910003fd 	mov	x29, sp
  4049d8:	a90573fb 	stp	x27, x28, [sp, #80]
  4049dc:	d100045b 	sub	x27, x2, #0x1
  4049e0:	8b5bff7b 	add	x27, x27, x27, lsr #63
  4049e4:	a90153f3 	stp	x19, x20, [sp, #16]
  4049e8:	aa0003f4 	mov	x20, x0
  4049ec:	9341ff60 	asr	x0, x27, #1
  4049f0:	a9025bf5 	stp	x21, x22, [sp, #32]
  4049f4:	a90363f7 	stp	x23, x24, [sp, #48]
  4049f8:	a9046bf9 	stp	x25, x26, [sp, #64]
  4049fc:	a90703e1 	stp	x1, x0, [sp, #112]
  404a00:	a9080be3 	stp	x3, x2, [sp, #128]
  404a04:	f9004be4 	str	x4, [sp, #144]
  404a08:	eb00003f 	cmp	x1, x0
  404a0c:	5400216a 	b.ge	404e38 <_ZSt13__adjust_heapIN9__gnu_cxx17__normal_iteratorIPNSt7__cxx1112basic_stringIcSt11char_traitsIcESaIcEEESt6vectorIS7_SaIS7_EEEElS7_NS0_5__ops15_Iter_comp_iterIZN7segment5orderEvEUlRKS7_SH_E_EEEvT_T0_SL_T1_T2_+0x468>  // b.tcont
  404a10:	8b011697 	add	x23, x20, x1, lsl #5
  404a14:	aa0103f5 	mov	x21, x1
  404a18:	910042e0 	add	x0, x23, #0x10
  404a1c:	91010099 	add	x25, x4, #0x40
  404a20:	9101e098 	add	x24, x4, #0x78
  404a24:	f90037e0 	str	x0, [sp, #104]
  404a28:	14000012 	b	404a70 <_ZSt13__adjust_heapIN9__gnu_cxx17__normal_iteratorIPNSt7__cxx1112basic_stringIcSt11char_traitsIcESaIcEEESt6vectorIS7_SaIS7_EEEElS7_NS0_5__ops15_Iter_comp_iterIZN7segment5orderEvEUlRKS7_SH_E_EEEvT_T0_SL_T1_T2_+0xa0>
  404a2c:	f94037e5 	ldr	x5, [sp, #104]
  404a30:	eb05009f 	cmp	x4, x5
  404a34:	54001380 	b.eq	404ca4 <_ZSt13__adjust_heapIN9__gnu_cxx17__normal_iteratorIPNSt7__cxx1112basic_stringIcSt11char_traitsIcESaIcEEESt6vectorIS7_SaIS7_EEEElS7_NS0_5__ops15_Iter_comp_iterIZN7segment5orderEvEUlRKS7_SH_E_EEEvT_T0_SL_T1_T2_+0x2d4>  // b.none
  404a38:	f9400b86 	ldr	x6, [x28, #16]
  404a3c:	f8366a80 	str	x0, [x20, x22]
  404a40:	f9000782 	str	x2, [x28, #8]
  404a44:	f9400860 	ldr	x0, [x3, #16]
  404a48:	f9000b80 	str	x0, [x28, #16]
  404a4c:	b4001344 	cbz	x4, 404cb4 <_ZSt13__adjust_heapIN9__gnu_cxx17__normal_iteratorIPNSt7__cxx1112basic_stringIcSt11char_traitsIcESaIcEEESt6vectorIS7_SaIS7_EEEElS7_NS0_5__ops15_Iter_comp_iterIZN7segment5orderEvEUlRKS7_SH_E_EEEvT_T0_SL_T1_T2_+0x2e4>
  404a50:	f9000064 	str	x4, [x3]
  404a54:	f9000866 	str	x6, [x3, #16]
  404a58:	f9403fe0 	ldr	x0, [sp, #120]
  404a5c:	f900047f 	str	xzr, [x3, #8]
  404a60:	3900009f 	strb	wzr, [x4]
  404a64:	eb0002bf 	cmp	x21, x0
  404a68:	540006aa 	b.ge	404b3c <_ZSt13__adjust_heapIN9__gnu_cxx17__normal_iteratorIPNSt7__cxx1112basic_stringIcSt11char_traitsIcESaIcEEESt6vectorIS7_SaIS7_EEEElS7_NS0_5__ops15_Iter_comp_iterIZN7segment5orderEvEUlRKS7_SH_E_EEEvT_T0_SL_T1_T2_+0x16c>  // b.tcont
  404a6c:	f90037e1 	str	x1, [sp, #104]
  404a70:	910006b3 	add	x19, x21, #0x1
  404a74:	aa1903e0 	mov	x0, x25
  404a78:	d37beab6 	lsl	x22, x21, #5
  404a7c:	8b131a9a 	add	x26, x20, x19, lsl #6
  404a80:	d37ffa73 	lsl	x19, x19, #1
  404a84:	aa1a03e1 	mov	x1, x26
  404a88:	94001bf2 	bl	40ba50 <_ZNSt8__detail9_Map_baseINSt7__cxx1112basic_stringIcSt11char_traitsIcESaIcEEESt4pairIKS6_iESaIS9_ENS_10_Select1stESt8equal_toIS6_ESt4hashIS6_ENS_18_Mod_range_hashingENS_20_Default_ranged_hashENS_20_Prime_rehash_policyENS_17_Hashtable_traitsILb1ELb0ELb1EEELb1EEixERS8_>
  404a8c:	d1000675 	sub	x21, x19, #0x1
  404a90:	aa0003e1 	mov	x1, x0
  404a94:	aa1803e0 	mov	x0, x24
  404a98:	940019be 	bl	40b190 <_ZNSt8__detail9_Map_baseIiSt4pairIKiiESaIS3_ENS_10_Select1stESt8equal_toIiESt4hashIiENS_18_Mod_range_hashingENS_20_Default_ranged_hashENS_20_Prime_rehash_policyENS_17_Hashtable_traitsILb0ELb0ELb1EEELb1EE2atERS2_>
  404a9c:	aa0003e4 	mov	x4, x0
  404aa0:	8b15169b 	add	x27, x20, x21, lsl #5
  404aa4:	aa1b03e1 	mov	x1, x27
  404aa8:	aa1903e0 	mov	x0, x25
  404aac:	8b16029c 	add	x28, x20, x22
  404ab0:	b9400097 	ldr	w23, [x4]
  404ab4:	94001be7 	bl	40ba50 <_ZNSt8__detail9_Map_baseINSt7__cxx1112basic_stringIcSt11char_traitsIcESaIcEEESt4pairIKS6_iESaIS9_ENS_10_Select1stESt8equal_toIS6_ESt4hashIS6_ENS_18_Mod_range_hashingENS_20_Default_ranged_hashENS_20_Prime_rehash_policyENS_17_Hashtable_traitsILb1ELb0ELb1EEELb1EEixERS8_>
  404ab8:	aa0003e1 	mov	x1, x0
  404abc:	aa1803e0 	mov	x0, x24
  404ac0:	940019b4 	bl	40b190 <_ZNSt8__detail9_Map_baseIiSt4pairIKiiESaIS3_ENS_10_Select1stESt8equal_toIiESt4hashIiENS_18_Mod_range_hashingENS_20_Default_ranged_hashENS_20_Prime_rehash_policyENS_17_Hashtable_traitsILb0ELb0ELb1EEELb1EE2atERS2_>
  404ac4:	b9400000 	ldr	w0, [x0]
  404ac8:	f8766a84 	ldr	x4, [x20, x22]
  404acc:	6b0002ff 	cmp	w23, w0
  404ad0:	9a9bd343 	csel	x3, x26, x27, le
  404ad4:	9a95d275 	csel	x21, x19, x21, le
  404ad8:	aa0303e1 	mov	x1, x3
  404adc:	aa1503f3 	mov	x19, x21
  404ae0:	f9400462 	ldr	x2, [x3, #8]
  404ae4:	f8410420 	ldr	x0, [x1], #16
  404ae8:	eb01001f 	cmp	x0, x1
  404aec:	54fffa01 	b.ne	404a2c <_ZSt13__adjust_heapIN9__gnu_cxx17__normal_iteratorIPNSt7__cxx1112basic_stringIcSt11char_traitsIcESaIcEEESt6vectorIS7_SaIS7_EEEElS7_NS0_5__ops15_Iter_comp_iterIZN7segment5orderEvEUlRKS7_SH_E_EEEvT_T0_SL_T1_T2_+0x5c>  // b.any
  404af0:	b4000162 	cbz	x2, 404b1c <_ZSt13__adjust_heapIN9__gnu_cxx17__normal_iteratorIPNSt7__cxx1112basic_stringIcSt11char_traitsIcESaIcEEESt6vectorIS7_SaIS7_EEEElS7_NS0_5__ops15_Iter_comp_iterIZN7segment5orderEvEUlRKS7_SH_E_EEEvT_T0_SL_T1_T2_+0x14c>
  404af4:	f100045f 	cmp	x2, #0x1
  404af8:	54001460 	b.eq	404d84 <_ZSt13__adjust_heapIN9__gnu_cxx17__normal_iteratorIPNSt7__cxx1112basic_stringIcSt11char_traitsIcESaIcEEESt6vectorIS7_SaIS7_EEEElS7_NS0_5__ops15_Iter_comp_iterIZN7segment5orderEvEUlRKS7_SH_E_EEEvT_T0_SL_T1_T2_+0x3b4>  // b.none
  404afc:	aa0403e0 	mov	x0, x4
  404b00:	f90037e1 	str	x1, [sp, #104]
  404b04:	f9004fe3 	str	x3, [sp, #152]
  404b08:	97fff4be 	bl	401e00 <memcpy@plt>
  404b0c:	f9404fe3 	ldr	x3, [sp, #152]
  404b10:	f8766a84 	ldr	x4, [x20, x22]
  404b14:	f9400462 	ldr	x2, [x3, #8]
  404b18:	f94037e1 	ldr	x1, [sp, #104]
  404b1c:	f9000782 	str	x2, [x28, #8]
  404b20:	3822689f 	strb	wzr, [x4, x2]
  404b24:	f9403fe0 	ldr	x0, [sp, #120]
  404b28:	f900047f 	str	xzr, [x3, #8]
  404b2c:	f9400064 	ldr	x4, [x3]
  404b30:	3900009f 	strb	wzr, [x4]
  404b34:	eb0002bf 	cmp	x21, x0
  404b38:	54fff9ab 	b.lt	404a6c <_ZSt13__adjust_heapIN9__gnu_cxx17__normal_iteratorIPNSt7__cxx1112basic_stringIcSt11char_traitsIcESaIcEEESt6vectorIS7_SaIS7_EEEElS7_NS0_5__ops15_Iter_comp_iterIZN7segment5orderEvEUlRKS7_SH_E_EEEvT_T0_SL_T1_T2_+0x9c>  // b.tstop
  404b3c:	f94047e0 	ldr	x0, [sp, #136]
  404b40:	370000a0 	tbnz	w0, #0, 404b54 <_ZSt13__adjust_heapIN9__gnu_cxx17__normal_iteratorIPNSt7__cxx1112basic_stringIcSt11char_traitsIcESaIcEEESt6vectorIS7_SaIS7_EEEElS7_NS0_5__ops15_Iter_comp_iterIZN7segment5orderEvEUlRKS7_SH_E_EEEvT_T0_SL_T1_T2_+0x184>
  404b44:	d1000800 	sub	x0, x0, #0x2
  404b48:	8b40fc00 	add	x0, x0, x0, lsr #63
  404b4c:	eb80067f 	cmp	x19, x0, asr #1
  404b50:	54001400 	b.eq	404dd0 <_ZSt13__adjust_heapIN9__gnu_cxx17__normal_iteratorIPNSt7__cxx1112basic_stringIcSt11char_traitsIcESaIcEEESt6vectorIS7_SaIS7_EEEElS7_NS0_5__ops15_Iter_comp_iterIZN7segment5orderEvEUlRKS7_SH_E_EEEvT_T0_SL_T1_T2_+0x400>  // b.none
  404b54:	f94043e0 	ldr	x0, [sp, #128]
  404b58:	9102c3e1 	add	x1, sp, #0xb0
  404b5c:	f90053e1 	str	x1, [sp, #160]
  404b60:	f8410401 	ldr	x1, [x0], #16
  404b64:	eb00003f 	cmp	x1, x0
  404b68:	54001180 	b.eq	404d98 <_ZSt13__adjust_heapIN9__gnu_cxx17__normal_iteratorIPNSt7__cxx1112basic_stringIcSt11char_traitsIcESaIcEEESt6vectorIS7_SaIS7_EEEElS7_NS0_5__ops15_Iter_comp_iterIZN7segment5orderEvEUlRKS7_SH_E_EEEvT_T0_SL_T1_T2_+0x3c8>  // b.none
  404b6c:	f94043e2 	ldr	x2, [sp, #128]
  404b70:	f90053e1 	str	x1, [sp, #160]
  404b74:	f9400842 	ldr	x2, [x2, #16]
  404b78:	f9005be2 	str	x2, [sp, #176]
  404b7c:	f94043e1 	ldr	x1, [sp, #128]
  404b80:	d1000675 	sub	x21, x19, #0x1
  404b84:	8b55feb5 	add	x21, x21, x21, lsr #63
  404b88:	f9000020 	str	x0, [x1]
  404b8c:	f9403be0 	ldr	x0, [sp, #112]
  404b90:	3900403f 	strb	wzr, [x1, #16]
  404b94:	f9400422 	ldr	x2, [x1, #8]
  404b98:	f900043f 	str	xzr, [x1, #8]
  404b9c:	f90057e2 	str	x2, [sp, #168]
  404ba0:	9341feb5 	asr	x21, x21, #1
  404ba4:	eb00027f 	cmp	x19, x0
  404ba8:	540014cd 	b.le	404e40 <_ZSt13__adjust_heapIN9__gnu_cxx17__normal_iteratorIPNSt7__cxx1112basic_stringIcSt11char_traitsIcESaIcEEESt6vectorIS7_SaIS7_EEEElS7_NS0_5__ops15_Iter_comp_iterIZN7segment5orderEvEUlRKS7_SH_E_EEEvT_T0_SL_T1_T2_+0x470>
  404bac:	f9404be0 	ldr	x0, [sp, #144]
  404bb0:	91010017 	add	x23, x0, #0x40
  404bb4:	9101e018 	add	x24, x0, #0x78
  404bb8:	14000014 	b	404c08 <_ZSt13__adjust_heapIN9__gnu_cxx17__normal_iteratorIPNSt7__cxx1112basic_stringIcSt11char_traitsIcESaIcEEESt6vectorIS7_SaIS7_EEEElS7_NS0_5__ops15_Iter_comp_iterIZN7segment5orderEvEUlRKS7_SH_E_EEEvT_T0_SL_T1_T2_+0x238>
  404bbc:	eb04001f 	cmp	x0, x4
  404bc0:	54000800 	b.eq	404cc0 <_ZSt13__adjust_heapIN9__gnu_cxx17__normal_iteratorIPNSt7__cxx1112basic_stringIcSt11char_traitsIcESaIcEEESt6vectorIS7_SaIS7_EEEElS7_NS0_5__ops15_Iter_comp_iterIZN7segment5orderEvEUlRKS7_SH_E_EEEvT_T0_SL_T1_T2_+0x2f0>  // b.none
  404bc4:	f9400b21 	ldr	x1, [x25, #16]
  404bc8:	f8336a83 	str	x3, [x20, x19]
  404bcc:	f9000722 	str	x2, [x25, #8]
  404bd0:	f9400ac2 	ldr	x2, [x22, #16]
  404bd4:	f9000b22 	str	x2, [x25, #16]
  404bd8:	b40007c0 	cbz	x0, 404cd0 <_ZSt13__adjust_heapIN9__gnu_cxx17__normal_iteratorIPNSt7__cxx1112basic_stringIcSt11char_traitsIcESaIcEEESt6vectorIS7_SaIS7_EEEElS7_NS0_5__ops15_Iter_comp_iterIZN7segment5orderEvEUlRKS7_SH_E_EEEvT_T0_SL_T1_T2_+0x300>
  404bdc:	f83b6a80 	str	x0, [x20, x27]
  404be0:	f9000ac1 	str	x1, [x22, #16]
  404be4:	d10006a2 	sub	x2, x21, #0x1
  404be8:	f90006df 	str	xzr, [x22, #8]
  404bec:	3900001f 	strb	wzr, [x0]
  404bf0:	aa1503f3 	mov	x19, x21
  404bf4:	f9403be0 	ldr	x0, [sp, #112]
  404bf8:	8b42fc42 	add	x2, x2, x2, lsr #63
  404bfc:	9341fc55 	asr	x21, x2, #1
  404c00:	eb13001f 	cmp	x0, x19
  404c04:	540006ca 	b.ge	404cdc <_ZSt13__adjust_heapIN9__gnu_cxx17__normal_iteratorIPNSt7__cxx1112basic_stringIcSt11char_traitsIcESaIcEEESt6vectorIS7_SaIS7_EEEElS7_NS0_5__ops15_Iter_comp_iterIZN7segment5orderEvEUlRKS7_SH_E_EEEvT_T0_SL_T1_T2_+0x30c>  // b.tcont
  404c08:	d37beabb 	lsl	x27, x21, #5
  404c0c:	aa1703e0 	mov	x0, x23
  404c10:	8b1b0296 	add	x22, x20, x27
  404c14:	aa1603e1 	mov	x1, x22
  404c18:	94001b8e 	bl	40ba50 <_ZNSt8__detail9_Map_baseINSt7__cxx1112basic_stringIcSt11char_traitsIcESaIcEEESt4pairIKS6_iESaIS9_ENS_10_Select1stESt8equal_toIS6_ESt4hashIS6_ENS_18_Mod_range_hashingENS_20_Default_ranged_hashENS_20_Prime_rehash_policyENS_17_Hashtable_traitsILb1ELb0ELb1EEELb1EEixERS8_>
  404c1c:	aa0003e1 	mov	x1, x0
  404c20:	aa1803e0 	mov	x0, x24
  404c24:	9400195b 	bl	40b190 <_ZNSt8__detail9_Map_baseIiSt4pairIKiiESaIS3_ENS_10_Select1stESt8equal_toIiESt4hashIiENS_18_Mod_range_hashingENS_20_Default_ranged_hashENS_20_Prime_rehash_policyENS_17_Hashtable_traitsILb0ELb0ELb1EEELb1EE2atERS2_>
  404c28:	aa0003e2 	mov	x2, x0
  404c2c:	910283e1 	add	x1, sp, #0xa0
  404c30:	aa1703e0 	mov	x0, x23
  404c34:	b940005c 	ldr	w28, [x2]
  404c38:	94001b86 	bl	40ba50 <_ZNSt8__detail9_Map_baseINSt7__cxx1112basic_stringIcSt11char_traitsIcESaIcEEESt4pairIKS6_iESaIS9_ENS_10_Select1stESt8equal_toIS6_ESt4hashIS6_ENS_18_Mod_range_hashingENS_20_Default_ranged_hashENS_20_Prime_rehash_policyENS_17_Hashtable_traitsILb1ELb0ELb1EEELb1EEixERS8_>
  404c3c:	aa0003e1 	mov	x1, x0
  404c40:	aa1803e0 	mov	x0, x24
  404c44:	94001953 	bl	40b190 <_ZNSt8__detail9_Map_baseIiSt4pairIKiiESaIS3_ENS_10_Select1stESt8equal_toIiESt4hashIiENS_18_Mod_range_hashingENS_20_Default_ranged_hashENS_20_Prime_rehash_policyENS_17_Hashtable_traitsILb0ELb0ELb1EEELb1EE2atERS2_>
  404c48:	d37bea73 	lsl	x19, x19, #5
  404c4c:	b9400001 	ldr	w1, [x0]
  404c50:	8b130299 	add	x25, x20, x19
  404c54:	91004324 	add	x4, x25, #0x10
  404c58:	f8736a80 	ldr	x0, [x20, x19]
  404c5c:	6b01039f 	cmp	w28, w1
  404c60:	5400042d 	b.le	404ce4 <_ZSt13__adjust_heapIN9__gnu_cxx17__normal_iteratorIPNSt7__cxx1112basic_stringIcSt11char_traitsIcESaIcEEESt6vectorIS7_SaIS7_EEEElS7_NS0_5__ops15_Iter_comp_iterIZN7segment5orderEvEUlRKS7_SH_E_EEEvT_T0_SL_T1_T2_+0x314>
  404c64:	f87b6a83 	ldr	x3, [x20, x27]
  404c68:	910042dc 	add	x28, x22, #0x10
  404c6c:	f94006c2 	ldr	x2, [x22, #8]
  404c70:	eb1c007f 	cmp	x3, x28
  404c74:	54fffa41 	b.ne	404bbc <_ZSt13__adjust_heapIN9__gnu_cxx17__normal_iteratorIPNSt7__cxx1112basic_stringIcSt11char_traitsIcESaIcEEESt6vectorIS7_SaIS7_EEEElS7_NS0_5__ops15_Iter_comp_iterIZN7segment5orderEvEUlRKS7_SH_E_EEEvT_T0_SL_T1_T2_+0x1ec>  // b.any
  404c78:	b40000e2 	cbz	x2, 404c94 <_ZSt13__adjust_heapIN9__gnu_cxx17__normal_iteratorIPNSt7__cxx1112basic_stringIcSt11char_traitsIcESaIcEEESt6vectorIS7_SaIS7_EEEElS7_NS0_5__ops15_Iter_comp_iterIZN7segment5orderEvEUlRKS7_SH_E_EEEvT_T0_SL_T1_T2_+0x2c4>
  404c7c:	f100045f 	cmp	x2, #0x1
  404c80:	54000780 	b.eq	404d70 <_ZSt13__adjust_heapIN9__gnu_cxx17__normal_iteratorIPNSt7__cxx1112basic_stringIcSt11char_traitsIcESaIcEEESt6vectorIS7_SaIS7_EEEElS7_NS0_5__ops15_Iter_comp_iterIZN7segment5orderEvEUlRKS7_SH_E_EEEvT_T0_SL_T1_T2_+0x3a0>  // b.none
  404c84:	aa1c03e1 	mov	x1, x28
  404c88:	97fff45e 	bl	401e00 <memcpy@plt>
  404c8c:	f8736a80 	ldr	x0, [x20, x19]
  404c90:	f94006c2 	ldr	x2, [x22, #8]
  404c94:	f9000722 	str	x2, [x25, #8]
  404c98:	3822681f 	strb	wzr, [x0, x2]
  404c9c:	f87b6a80 	ldr	x0, [x20, x27]
  404ca0:	17ffffd1 	b	404be4 <_ZSt13__adjust_heapIN9__gnu_cxx17__normal_iteratorIPNSt7__cxx1112basic_stringIcSt11char_traitsIcESaIcEEESt6vectorIS7_SaIS7_EEEElS7_NS0_5__ops15_Iter_comp_iterIZN7segment5orderEvEUlRKS7_SH_E_EEEvT_T0_SL_T1_T2_+0x214>
  404ca4:	f8366a80 	str	x0, [x20, x22]
  404ca8:	f9000782 	str	x2, [x28, #8]
  404cac:	f9400860 	ldr	x0, [x3, #16]
  404cb0:	f9000b80 	str	x0, [x28, #16]
  404cb4:	aa0103e4 	mov	x4, x1
  404cb8:	f9000061 	str	x1, [x3]
  404cbc:	17ffff67 	b	404a58 <_ZSt13__adjust_heapIN9__gnu_cxx17__normal_iteratorIPNSt7__cxx1112basic_stringIcSt11char_traitsIcESaIcEEESt6vectorIS7_SaIS7_EEEElS7_NS0_5__ops15_Iter_comp_iterIZN7segment5orderEvEUlRKS7_SH_E_EEEvT_T0_SL_T1_T2_+0x88>
  404cc0:	f8336a83 	str	x3, [x20, x19]
  404cc4:	f9000722 	str	x2, [x25, #8]
  404cc8:	f9400ac0 	ldr	x0, [x22, #16]
  404ccc:	f9000b20 	str	x0, [x25, #16]
  404cd0:	aa1c03e0 	mov	x0, x28
  404cd4:	f83b6a9c 	str	x28, [x20, x27]
  404cd8:	17ffffc3 	b	404be4 <_ZSt13__adjust_heapIN9__gnu_cxx17__normal_iteratorIPNSt7__cxx1112basic_stringIcSt11char_traitsIcESaIcEEESt6vectorIS7_SaIS7_EEEElS7_NS0_5__ops15_Iter_comp_iterIZN7segment5orderEvEUlRKS7_SH_E_EEEvT_T0_SL_T1_T2_+0x214>
  404cdc:	aa1c03e4 	mov	x4, x28
  404ce0:	aa1603f9 	mov	x25, x22
  404ce4:	f94057e2 	ldr	x2, [sp, #168]
  404ce8:	9102c3e3 	add	x3, sp, #0xb0
  404cec:	f94053e1 	ldr	x1, [sp, #160]
  404cf0:	f9400320 	ldr	x0, [x25]
  404cf4:	eb03003f 	cmp	x1, x3
  404cf8:	54000580 	b.eq	404da8 <_ZSt13__adjust_heapIN9__gnu_cxx17__normal_iteratorIPNSt7__cxx1112basic_stringIcSt11char_traitsIcESaIcEEESt6vectorIS7_SaIS7_EEEElS7_NS0_5__ops15_Iter_comp_iterIZN7segment5orderEvEUlRKS7_SH_E_EEEvT_T0_SL_T1_T2_+0x3d8>  // b.none
  404cfc:	a9000b21 	stp	x1, x2, [x25]
  404d00:	f9405be3 	ldr	x3, [sp, #176]
  404d04:	eb04001f 	cmp	x0, x4
  404d08:	540002c0 	b.eq	404d60 <_ZSt13__adjust_heapIN9__gnu_cxx17__normal_iteratorIPNSt7__cxx1112basic_stringIcSt11char_traitsIcESaIcEEESt6vectorIS7_SaIS7_EEEElS7_NS0_5__ops15_Iter_comp_iterIZN7segment5orderEvEUlRKS7_SH_E_EEEvT_T0_SL_T1_T2_+0x390>  // b.none
  404d0c:	f9400b21 	ldr	x1, [x25, #16]
  404d10:	f9000b23 	str	x3, [x25, #16]
  404d14:	b4000280 	cbz	x0, 404d64 <_ZSt13__adjust_heapIN9__gnu_cxx17__normal_iteratorIPNSt7__cxx1112basic_stringIcSt11char_traitsIcESaIcEEESt6vectorIS7_SaIS7_EEEElS7_NS0_5__ops15_Iter_comp_iterIZN7segment5orderEvEUlRKS7_SH_E_EEEvT_T0_SL_T1_T2_+0x394>
  404d18:	f90053e0 	str	x0, [sp, #160]
  404d1c:	f9005be1 	str	x1, [sp, #176]
  404d20:	f90057ff 	str	xzr, [sp, #168]
  404d24:	9102c3e1 	add	x1, sp, #0xb0
  404d28:	3900001f 	strb	wzr, [x0]
  404d2c:	f94053e0 	ldr	x0, [sp, #160]
  404d30:	eb01001f 	cmp	x0, x1
  404d34:	54000080 	b.eq	404d44 <_ZSt13__adjust_heapIN9__gnu_cxx17__normal_iteratorIPNSt7__cxx1112basic_stringIcSt11char_traitsIcESaIcEEESt6vectorIS7_SaIS7_EEEElS7_NS0_5__ops15_Iter_comp_iterIZN7segment5orderEvEUlRKS7_SH_E_EEEvT_T0_SL_T1_T2_+0x374>  // b.none
  404d38:	f9405be1 	ldr	x1, [sp, #176]
  404d3c:	91000421 	add	x1, x1, #0x1
  404d40:	97fff494 	bl	401f90 <_ZdlPvm@plt>
  404d44:	a94153f3 	ldp	x19, x20, [sp, #16]
  404d48:	a9425bf5 	ldp	x21, x22, [sp, #32]
  404d4c:	a94363f7 	ldp	x23, x24, [sp, #48]
  404d50:	a9446bf9 	ldp	x25, x26, [sp, #64]
  404d54:	a94573fb 	ldp	x27, x28, [sp, #80]
  404d58:	a8cc7bfd 	ldp	x29, x30, [sp], #192
  404d5c:	d65f03c0 	ret
  404d60:	f9000b23 	str	x3, [x25, #16]
  404d64:	9102c3e0 	add	x0, sp, #0xb0
  404d68:	f90053e0 	str	x0, [sp, #160]
  404d6c:	17ffffed 	b	404d20 <_ZSt13__adjust_heapIN9__gnu_cxx17__normal_iteratorIPNSt7__cxx1112basic_stringIcSt11char_traitsIcESaIcEEESt6vectorIS7_SaIS7_EEEElS7_NS0_5__ops15_Iter_comp_iterIZN7segment5orderEvEUlRKS7_SH_E_EEEvT_T0_SL_T1_T2_+0x350>
  404d70:	394042c1 	ldrb	w1, [x22, #16]
  404d74:	39000001 	strb	w1, [x0]
  404d78:	f8736a80 	ldr	x0, [x20, x19]
  404d7c:	f94006c2 	ldr	x2, [x22, #8]
  404d80:	17ffffc5 	b	404c94 <_ZSt13__adjust_heapIN9__gnu_cxx17__normal_iteratorIPNSt7__cxx1112basic_stringIcSt11char_traitsIcESaIcEEESt6vectorIS7_SaIS7_EEEElS7_NS0_5__ops15_Iter_comp_iterIZN7segment5orderEvEUlRKS7_SH_E_EEEvT_T0_SL_T1_T2_+0x2c4>
  404d84:	39404060 	ldrb	w0, [x3, #16]
  404d88:	39000080 	strb	w0, [x4]
  404d8c:	f8766a84 	ldr	x4, [x20, x22]
  404d90:	f9400462 	ldr	x2, [x3, #8]
  404d94:	17ffff62 	b	404b1c <_ZSt13__adjust_heapIN9__gnu_cxx17__normal_iteratorIPNSt7__cxx1112basic_stringIcSt11char_traitsIcESaIcEEESt6vectorIS7_SaIS7_EEEElS7_NS0_5__ops15_Iter_comp_iterIZN7segment5orderEvEUlRKS7_SH_E_EEEvT_T0_SL_T1_T2_+0x14c>
  404d98:	f94043e1 	ldr	x1, [sp, #128]
  404d9c:	a9410c22 	ldp	x2, x3, [x1, #16]
  404da0:	a90b0fe2 	stp	x2, x3, [sp, #176]
  404da4:	17ffff76 	b	404b7c <_ZSt13__adjust_heapIN9__gnu_cxx17__normal_iteratorIPNSt7__cxx1112basic_stringIcSt11char_traitsIcESaIcEEESt6vectorIS7_SaIS7_EEEElS7_NS0_5__ops15_Iter_comp_iterIZN7segment5orderEvEUlRKS7_SH_E_EEEvT_T0_SL_T1_T2_+0x1ac>
  404da8:	b40000c2 	cbz	x2, 404dc0 <_ZSt13__adjust_heapIN9__gnu_cxx17__normal_iteratorIPNSt7__cxx1112basic_stringIcSt11char_traitsIcESaIcEEESt6vectorIS7_SaIS7_EEEElS7_NS0_5__ops15_Iter_comp_iterIZN7segment5orderEvEUlRKS7_SH_E_EEEvT_T0_SL_T1_T2_+0x3f0>
  404dac:	f100045f 	cmp	x2, #0x1
  404db0:	540004e0 	b.eq	404e4c <_ZSt13__adjust_heapIN9__gnu_cxx17__normal_iteratorIPNSt7__cxx1112basic_stringIcSt11char_traitsIcESaIcEEESt6vectorIS7_SaIS7_EEEElS7_NS0_5__ops15_Iter_comp_iterIZN7segment5orderEvEUlRKS7_SH_E_EEEvT_T0_SL_T1_T2_+0x47c>  // b.none
  404db4:	97fff413 	bl	401e00 <memcpy@plt>
  404db8:	f9400320 	ldr	x0, [x25]
  404dbc:	f94057e2 	ldr	x2, [sp, #168]
  404dc0:	f9000722 	str	x2, [x25, #8]
  404dc4:	3822681f 	strb	wzr, [x0, x2]
  404dc8:	f94053e0 	ldr	x0, [sp, #160]
  404dcc:	17ffffd5 	b	404d20 <_ZSt13__adjust_heapIN9__gnu_cxx17__normal_iteratorIPNSt7__cxx1112basic_stringIcSt11char_traitsIcESaIcEEESt6vectorIS7_SaIS7_EEEElS7_NS0_5__ops15_Iter_comp_iterIZN7segment5orderEvEUlRKS7_SH_E_EEEvT_T0_SL_T1_T2_+0x350>
  404dd0:	d37ffa60 	lsl	x0, x19, #1
  404dd4:	d37bea78 	lsl	x24, x19, #5
  404dd8:	91000413 	add	x19, x0, #0x1
  404ddc:	8b180297 	add	x23, x20, x24
  404de0:	d37bea76 	lsl	x22, x19, #5
  404de4:	8b160295 	add	x21, x20, x22
  404de8:	910042a3 	add	x3, x21, #0x10
  404dec:	f8766a81 	ldr	x1, [x20, x22]
  404df0:	f8786a80 	ldr	x0, [x20, x24]
  404df4:	f94006a2 	ldr	x2, [x21, #8]
  404df8:	eb03003f 	cmp	x1, x3
  404dfc:	54000400 	b.eq	404e7c <_ZSt13__adjust_heapIN9__gnu_cxx17__normal_iteratorIPNSt7__cxx1112basic_stringIcSt11char_traitsIcESaIcEEESt6vectorIS7_SaIS7_EEEElS7_NS0_5__ops15_Iter_comp_iterIZN7segment5orderEvEUlRKS7_SH_E_EEEvT_T0_SL_T1_T2_+0x4ac>  // b.none
  404e00:	910042e4 	add	x4, x23, #0x10
  404e04:	eb04001f 	cmp	x0, x4
  404e08:	540002c0 	b.eq	404e60 <_ZSt13__adjust_heapIN9__gnu_cxx17__normal_iteratorIPNSt7__cxx1112basic_stringIcSt11char_traitsIcESaIcEEESt6vectorIS7_SaIS7_EEEElS7_NS0_5__ops15_Iter_comp_iterIZN7segment5orderEvEUlRKS7_SH_E_EEEvT_T0_SL_T1_T2_+0x490>  // b.none
  404e0c:	f9400ae4 	ldr	x4, [x23, #16]
  404e10:	f8386a81 	str	x1, [x20, x24]
  404e14:	f90006e2 	str	x2, [x23, #8]
  404e18:	f9400aa1 	ldr	x1, [x21, #16]
  404e1c:	f9000ae1 	str	x1, [x23, #16]
  404e20:	b4000280 	cbz	x0, 404e70 <_ZSt13__adjust_heapIN9__gnu_cxx17__normal_iteratorIPNSt7__cxx1112basic_stringIcSt11char_traitsIcESaIcEEESt6vectorIS7_SaIS7_EEEElS7_NS0_5__ops15_Iter_comp_iterIZN7segment5orderEvEUlRKS7_SH_E_EEEvT_T0_SL_T1_T2_+0x4a0>
  404e24:	f8366a80 	str	x0, [x20, x22]
  404e28:	f9000aa4 	str	x4, [x21, #16]
  404e2c:	f90006bf 	str	xzr, [x21, #8]
  404e30:	3900001f 	strb	wzr, [x0]
  404e34:	17ffff48 	b	404b54 <_ZSt13__adjust_heapIN9__gnu_cxx17__normal_iteratorIPNSt7__cxx1112basic_stringIcSt11char_traitsIcESaIcEEESt6vectorIS7_SaIS7_EEEElS7_NS0_5__ops15_Iter_comp_iterIZN7segment5orderEvEUlRKS7_SH_E_EEEvT_T0_SL_T1_T2_+0x184>
  404e38:	f9403bf3 	ldr	x19, [sp, #112]
  404e3c:	17ffff40 	b	404b3c <_ZSt13__adjust_heapIN9__gnu_cxx17__normal_iteratorIPNSt7__cxx1112basic_stringIcSt11char_traitsIcESaIcEEESt6vectorIS7_SaIS7_EEEElS7_NS0_5__ops15_Iter_comp_iterIZN7segment5orderEvEUlRKS7_SH_E_EEEvT_T0_SL_T1_T2_+0x16c>
  404e40:	8b131699 	add	x25, x20, x19, lsl #5
  404e44:	91004324 	add	x4, x25, #0x10
  404e48:	17ffffa8 	b	404ce8 <_ZSt13__adjust_heapIN9__gnu_cxx17__normal_iteratorIPNSt7__cxx1112basic_stringIcSt11char_traitsIcESaIcEEESt6vectorIS7_SaIS7_EEEElS7_NS0_5__ops15_Iter_comp_iterIZN7segment5orderEvEUlRKS7_SH_E_EEEvT_T0_SL_T1_T2_+0x318>
  404e4c:	3942c3e1 	ldrb	w1, [sp, #176]
  404e50:	39000001 	strb	w1, [x0]
  404e54:	f9400320 	ldr	x0, [x25]
  404e58:	f94057e2 	ldr	x2, [sp, #168]
  404e5c:	17ffffd9 	b	404dc0 <_ZSt13__adjust_heapIN9__gnu_cxx17__normal_iteratorIPNSt7__cxx1112basic_stringIcSt11char_traitsIcESaIcEEESt6vectorIS7_SaIS7_EEEElS7_NS0_5__ops15_Iter_comp_iterIZN7segment5orderEvEUlRKS7_SH_E_EEEvT_T0_SL_T1_T2_+0x3f0>
  404e60:	f8386a81 	str	x1, [x20, x24]
  404e64:	f90006e2 	str	x2, [x23, #8]
  404e68:	f9400aa0 	ldr	x0, [x21, #16]
  404e6c:	f9000ae0 	str	x0, [x23, #16]
  404e70:	aa0303e0 	mov	x0, x3
  404e74:	f8366a83 	str	x3, [x20, x22]
  404e78:	17ffffed 	b	404e2c <_ZSt13__adjust_heapIN9__gnu_cxx17__normal_iteratorIPNSt7__cxx1112basic_stringIcSt11char_traitsIcESaIcEEESt6vectorIS7_SaIS7_EEEElS7_NS0_5__ops15_Iter_comp_iterIZN7segment5orderEvEUlRKS7_SH_E_EEEvT_T0_SL_T1_T2_+0x45c>
  404e7c:	b40000c2 	cbz	x2, 404e94 <_ZSt13__adjust_heapIN9__gnu_cxx17__normal_iteratorIPNSt7__cxx1112basic_stringIcSt11char_traitsIcESaIcEEESt6vectorIS7_SaIS7_EEEElS7_NS0_5__ops15_Iter_comp_iterIZN7segment5orderEvEUlRKS7_SH_E_EEEvT_T0_SL_T1_T2_+0x4c4>
  404e80:	f100045f 	cmp	x2, #0x1
  404e84:	54000100 	b.eq	404ea4 <_ZSt13__adjust_heapIN9__gnu_cxx17__normal_iteratorIPNSt7__cxx1112basic_stringIcSt11char_traitsIcESaIcEEESt6vectorIS7_SaIS7_EEEElS7_NS0_5__ops15_Iter_comp_iterIZN7segment5orderEvEUlRKS7_SH_E_EEEvT_T0_SL_T1_T2_+0x4d4>  // b.none
  404e88:	97fff3de 	bl	401e00 <memcpy@plt>
  404e8c:	f8786a80 	ldr	x0, [x20, x24]
  404e90:	f94006a2 	ldr	x2, [x21, #8]
  404e94:	f90006e2 	str	x2, [x23, #8]
  404e98:	3822681f 	strb	wzr, [x0, x2]
  404e9c:	f8766a80 	ldr	x0, [x20, x22]
  404ea0:	17ffffe3 	b	404e2c <_ZSt13__adjust_heapIN9__gnu_cxx17__normal_iteratorIPNSt7__cxx1112basic_stringIcSt11char_traitsIcESaIcEEESt6vectorIS7_SaIS7_EEEElS7_NS0_5__ops15_Iter_comp_iterIZN7segment5orderEvEUlRKS7_SH_E_EEEvT_T0_SL_T1_T2_+0x45c>
  404ea4:	394042a1 	ldrb	w1, [x21, #16]
  404ea8:	39000001 	strb	w1, [x0]
  404eac:	f8786a80 	ldr	x0, [x20, x24]
  404eb0:	f94006a2 	ldr	x2, [x21, #8]
  404eb4:	17fffff8 	b	404e94 <_ZSt13__adjust_heapIN9__gnu_cxx17__normal_iteratorIPNSt7__cxx1112basic_stringIcSt11char_traitsIcESaIcEEESt6vectorIS7_SaIS7_EEEElS7_NS0_5__ops15_Iter_comp_iterIZN7segment5orderEvEUlRKS7_SH_E_EEEvT_T0_SL_T1_T2_+0x4c4>
  404eb8:	aa0003f3 	mov	x19, x0
  404ebc:	910283e0 	add	x0, sp, #0xa0
  404ec0:	97fff448 	bl	401fe0 <_ZNSt7__cxx1112basic_stringIcSt11char_traitsIcESaIcEE10_M_disposeEv@plt>
  404ec4:	aa1303e0 	mov	x0, x19
  404ec8:	97fff496 	bl	402120 <_Unwind_Resume@plt>
  404ecc:	d503201f 	nop

0000000000404ed0 <_ZSt16__introsort_loopIN9__gnu_cxx17__normal_iteratorIPNSt7__cxx1112basic_stringIcSt11char_traitsIcESaIcEEESt6vectorIS7_SaIS7_EEEElNS0_5__ops15_Iter_comp_iterIZN7segment5orderEvEUlRKS7_SH_E_EEEvT_SK_T0_T1_>:
  404ed0:	a9b57bfd 	stp	x29, x30, [sp, #-176]!
  404ed4:	910003fd 	mov	x29, sp
  404ed8:	a90153f3 	stp	x19, x20, [sp, #16]
  404edc:	aa0003f4 	mov	x20, x0
  404ee0:	cb000020 	sub	x0, x1, x0
  404ee4:	f90037e2 	str	x2, [sp, #104]
  404ee8:	f108001f 	cmp	x0, #0x200
  404eec:	54001a2d 	b.le	405230 <_ZSt16__introsort_loopIN9__gnu_cxx17__normal_iteratorIPNSt7__cxx1112basic_stringIcSt11char_traitsIcESaIcEEESt6vectorIS7_SaIS7_EEEElNS0_5__ops15_Iter_comp_iterIZN7segment5orderEvEUlRKS7_SH_E_EEEvT_SK_T0_T1_+0x360>
  404ef0:	a9025bf5 	stp	x21, x22, [sp, #32]
  404ef4:	aa0103f3 	mov	x19, x1
  404ef8:	a90363f7 	stp	x23, x24, [sp, #48]
  404efc:	aa0303f7 	mov	x23, x3
  404f00:	a9046bf9 	stp	x25, x26, [sp, #64]
  404f04:	b4001ba2 	cbz	x2, 405278 <_ZSt16__introsort_loopIN9__gnu_cxx17__normal_iteratorIPNSt7__cxx1112basic_stringIcSt11char_traitsIcESaIcEEESt6vectorIS7_SaIS7_EEEElNS0_5__ops15_Iter_comp_iterIZN7segment5orderEvEUlRKS7_SH_E_EEEvT_SK_T0_T1_+0x3a8>
  404f08:	91010076 	add	x22, x3, #0x40
  404f0c:	9101e075 	add	x21, x3, #0x78
  404f10:	a90573fb 	stp	x27, x28, [sp, #80]
  404f14:	9100829b 	add	x27, x20, #0x20
  404f18:	cb140278 	sub	x24, x19, x20
  404f1c:	aa1b03e1 	mov	x1, x27
  404f20:	aa1603e0 	mov	x0, x22
  404f24:	d37fff02 	lsr	x2, x24, #63
  404f28:	d100827a 	sub	x26, x19, #0x20
  404f2c:	8b981458 	add	x24, x2, x24, asr #5
  404f30:	94001ac8 	bl	40ba50 <_ZNSt8__detail9_Map_baseINSt7__cxx1112basic_stringIcSt11char_traitsIcESaIcEEESt4pairIKS6_iESaIS9_ENS_10_Select1stESt8equal_toIS6_ESt4hashIS6_ENS_18_Mod_range_hashingENS_20_Default_ranged_hashENS_20_Prime_rehash_policyENS_17_Hashtable_traitsILb1ELb0ELb1EEELb1EEixERS8_>
  404f34:	9341ff18 	asr	x24, x24, #1
  404f38:	aa0003e1 	mov	x1, x0
  404f3c:	aa1503e0 	mov	x0, x21
  404f40:	94001894 	bl	40b190 <_ZNSt8__detail9_Map_baseIiSt4pairIKiiESaIS3_ENS_10_Select1stESt8equal_toIiESt4hashIiENS_18_Mod_range_hashingENS_20_Default_ranged_hashENS_20_Prime_rehash_policyENS_17_Hashtable_traitsILb0ELb0ELb1EEELb1EE2atERS2_>
  404f44:	aa0003e2 	mov	x2, x0
  404f48:	8b181698 	add	x24, x20, x24, lsl #5
  404f4c:	aa1603e0 	mov	x0, x22
  404f50:	aa1803e1 	mov	x1, x24
  404f54:	b940005c 	ldr	w28, [x2]
  404f58:	94001abe 	bl	40ba50 <_ZNSt8__detail9_Map_baseINSt7__cxx1112basic_stringIcSt11char_traitsIcESaIcEEESt4pairIKS6_iESaIS9_ENS_10_Select1stESt8equal_toIS6_ESt4hashIS6_ENS_18_Mod_range_hashingENS_20_Default_ranged_hashENS_20_Prime_rehash_policyENS_17_Hashtable_traitsILb1ELb0ELb1EEELb1EEixERS8_>
  404f5c:	aa0003e1 	mov	x1, x0
  404f60:	aa1503e0 	mov	x0, x21
  404f64:	9400188b 	bl	40b190 <_ZNSt8__detail9_Map_baseIiSt4pairIKiiESaIS3_ENS_10_Select1stESt8equal_toIiESt4hashIiENS_18_Mod_range_hashingENS_20_Default_ranged_hashENS_20_Prime_rehash_policyENS_17_Hashtable_traitsILb0ELb0ELb1EEELb1EE2atERS2_>
  404f68:	b9400000 	ldr	w0, [x0]
  404f6c:	6b00039f 	cmp	w28, w0
  404f70:	5400100d 	b.le	405170 <_ZSt16__introsort_loopIN9__gnu_cxx17__normal_iteratorIPNSt7__cxx1112basic_stringIcSt11char_traitsIcESaIcEEESt6vectorIS7_SaIS7_EEEElNS0_5__ops15_Iter_comp_iterIZN7segment5orderEvEUlRKS7_SH_E_EEEvT_SK_T0_T1_+0x2a0>
  404f74:	aa1803e1 	mov	x1, x24
  404f78:	aa1603e0 	mov	x0, x22
  404f7c:	94001ab5 	bl	40ba50 <_ZNSt8__detail9_Map_baseINSt7__cxx1112basic_stringIcSt11char_traitsIcESaIcEEESt4pairIKS6_iESaIS9_ENS_10_Select1stESt8equal_toIS6_ESt4hashIS6_ENS_18_Mod_range_hashingENS_20_Default_ranged_hashENS_20_Prime_rehash_policyENS_17_Hashtable_traitsILb1ELb0ELb1EEELb1EEixERS8_>
  404f80:	aa0003e1 	mov	x1, x0
  404f84:	aa1503e0 	mov	x0, x21
  404f88:	94001882 	bl	40b190 <_ZNSt8__detail9_Map_baseIiSt4pairIKiiESaIS3_ENS_10_Select1stESt8equal_toIiESt4hashIiENS_18_Mod_range_hashingENS_20_Default_ranged_hashENS_20_Prime_rehash_policyENS_17_Hashtable_traitsILb0ELb0ELb1EEELb1EE2atERS2_>
  404f8c:	aa0003e2 	mov	x2, x0
  404f90:	aa1a03e1 	mov	x1, x26
  404f94:	aa1603e0 	mov	x0, x22
  404f98:	b940005c 	ldr	w28, [x2]
  404f9c:	94001aad 	bl	40ba50 <_ZNSt8__detail9_Map_baseINSt7__cxx1112basic_stringIcSt11char_traitsIcESaIcEEESt4pairIKS6_iESaIS9_ENS_10_Select1stESt8equal_toIS6_ESt4hashIS6_ENS_18_Mod_range_hashingENS_20_Default_ranged_hashENS_20_Prime_rehash_policyENS_17_Hashtable_traitsILb1ELb0ELb1EEELb1EEixERS8_>
  404fa0:	aa0003e1 	mov	x1, x0
  404fa4:	aa1503e0 	mov	x0, x21
  404fa8:	9400187a 	bl	40b190 <_ZNSt8__detail9_Map_baseIiSt4pairIKiiESaIS3_ENS_10_Select1stESt8equal_toIiESt4hashIiENS_18_Mod_range_hashingENS_20_Default_ranged_hashENS_20_Prime_rehash_policyENS_17_Hashtable_traitsILb0ELb0ELb1EEELb1EE2atERS2_>
  404fac:	b9400000 	ldr	w0, [x0]
  404fb0:	6b00039f 	cmp	w28, w0
  404fb4:	540012ac 	b.gt	405208 <_ZSt16__introsort_loopIN9__gnu_cxx17__normal_iteratorIPNSt7__cxx1112basic_stringIcSt11char_traitsIcESaIcEEESt6vectorIS7_SaIS7_EEEElNS0_5__ops15_Iter_comp_iterIZN7segment5orderEvEUlRKS7_SH_E_EEEvT_SK_T0_T1_+0x338>
  404fb8:	aa1b03e1 	mov	x1, x27
  404fbc:	aa1603e0 	mov	x0, x22
  404fc0:	94001aa4 	bl	40ba50 <_ZNSt8__detail9_Map_baseINSt7__cxx1112basic_stringIcSt11char_traitsIcESaIcEEESt4pairIKS6_iESaIS9_ENS_10_Select1stESt8equal_toIS6_ESt4hashIS6_ENS_18_Mod_range_hashingENS_20_Default_ranged_hashENS_20_Prime_rehash_policyENS_17_Hashtable_traitsILb1ELb0ELb1EEELb1EEixERS8_>
  404fc4:	aa0003e1 	mov	x1, x0
  404fc8:	aa1503e0 	mov	x0, x21
  404fcc:	94001871 	bl	40b190 <_ZNSt8__detail9_Map_baseIiSt4pairIKiiESaIS3_ENS_10_Select1stESt8equal_toIiESt4hashIiENS_18_Mod_range_hashingENS_20_Default_ranged_hashENS_20_Prime_rehash_policyENS_17_Hashtable_traitsILb0ELb0ELb1EEELb1EE2atERS2_>
  404fd0:	aa0003e2 	mov	x2, x0
  404fd4:	aa1a03e1 	mov	x1, x26
  404fd8:	aa1603e0 	mov	x0, x22
  404fdc:	b9400058 	ldr	w24, [x2]
  404fe0:	94001a9c 	bl	40ba50 <_ZNSt8__detail9_Map_baseINSt7__cxx1112basic_stringIcSt11char_traitsIcESaIcEEESt4pairIKS6_iESaIS9_ENS_10_Select1stESt8equal_toIS6_ESt4hashIS6_ENS_18_Mod_range_hashingENS_20_Default_ranged_hashENS_20_Prime_rehash_policyENS_17_Hashtable_traitsILb1ELb0ELb1EEELb1EEixERS8_>
  404fe4:	aa0003e1 	mov	x1, x0
  404fe8:	aa1503e0 	mov	x0, x21
  404fec:	94001869 	bl	40b190 <_ZNSt8__detail9_Map_baseIiSt4pairIKiiESaIS3_ENS_10_Select1stESt8equal_toIiESt4hashIiENS_18_Mod_range_hashingENS_20_Default_ranged_hashENS_20_Prime_rehash_policyENS_17_Hashtable_traitsILb0ELb0ELb1EEELb1EE2atERS2_>
  404ff0:	b9400000 	ldr	w0, [x0]
  404ff4:	6b00031f 	cmp	w24, w0
  404ff8:	5400100c 	b.gt	4051f8 <_ZSt16__introsort_loopIN9__gnu_cxx17__normal_iteratorIPNSt7__cxx1112basic_stringIcSt11char_traitsIcESaIcEEESt6vectorIS7_SaIS7_EEEElNS0_5__ops15_Iter_comp_iterIZN7segment5orderEvEUlRKS7_SH_E_EEEvT_SK_T0_T1_+0x328>
  404ffc:	aa1b03e1 	mov	x1, x27
  405000:	aa1403e0 	mov	x0, x20
  405004:	97fff3cb 	bl	401f30 <_ZNSt7__cxx1112basic_stringIcSt11char_traitsIcESaIcEE4swapERS4_@plt>
  405008:	aa1b03f8 	mov	x24, x27
  40500c:	aa1303fa 	mov	x26, x19
  405010:	aa1803e1 	mov	x1, x24
  405014:	aa1603e0 	mov	x0, x22
  405018:	94001a8e 	bl	40ba50 <_ZNSt8__detail9_Map_baseINSt7__cxx1112basic_stringIcSt11char_traitsIcESaIcEEESt4pairIKS6_iESaIS9_ENS_10_Select1stESt8equal_toIS6_ESt4hashIS6_ENS_18_Mod_range_hashingENS_20_Default_ranged_hashENS_20_Prime_rehash_policyENS_17_Hashtable_traitsILb1ELb0ELb1EEELb1EEixERS8_>
  40501c:	aa0003e1 	mov	x1, x0
  405020:	aa1503e0 	mov	x0, x21
  405024:	9400185b 	bl	40b190 <_ZNSt8__detail9_Map_baseIiSt4pairIKiiESaIS3_ENS_10_Select1stESt8equal_toIiESt4hashIiENS_18_Mod_range_hashingENS_20_Default_ranged_hashENS_20_Prime_rehash_policyENS_17_Hashtable_traitsILb0ELb0ELb1EEELb1EE2atERS2_>
  405028:	aa0003e2 	mov	x2, x0
  40502c:	aa1403e1 	mov	x1, x20
  405030:	aa1603e0 	mov	x0, x22
  405034:	b940005c 	ldr	w28, [x2]
  405038:	94001a86 	bl	40ba50 <_ZNSt8__detail9_Map_baseINSt7__cxx1112basic_stringIcSt11char_traitsIcESaIcEEESt4pairIKS6_iESaIS9_ENS_10_Select1stESt8equal_toIS6_ESt4hashIS6_ENS_18_Mod_range_hashingENS_20_Default_ranged_hashENS_20_Prime_rehash_policyENS_17_Hashtable_traitsILb1ELb0ELb1EEELb1EEixERS8_>
  40503c:	aa0003e1 	mov	x1, x0
  405040:	aa1503e0 	mov	x0, x21
  405044:	94001853 	bl	40b190 <_ZNSt8__detail9_Map_baseIiSt4pairIKiiESaIS3_ENS_10_Select1stESt8equal_toIiESt4hashIiENS_18_Mod_range_hashingENS_20_Default_ranged_hashENS_20_Prime_rehash_policyENS_17_Hashtable_traitsILb0ELb0ELb1EEELb1EE2atERS2_>
  405048:	b9400000 	ldr	w0, [x0]
  40504c:	6b00039f 	cmp	w28, w0
  405050:	540008cc 	b.gt	405168 <_ZSt16__introsort_loopIN9__gnu_cxx17__normal_iteratorIPNSt7__cxx1112basic_stringIcSt11char_traitsIcESaIcEEESt6vectorIS7_SaIS7_EEEElNS0_5__ops15_Iter_comp_iterIZN7segment5orderEvEUlRKS7_SH_E_EEEvT_SK_T0_T1_+0x298>
  405054:	d1008359 	sub	x25, x26, #0x20
  405058:	aa1403e1 	mov	x1, x20
  40505c:	aa1603e0 	mov	x0, x22
  405060:	94001a7c 	bl	40ba50 <_ZNSt8__detail9_Map_baseINSt7__cxx1112basic_stringIcSt11char_traitsIcESaIcEEESt4pairIKS6_iESaIS9_ENS_10_Select1stESt8equal_toIS6_ESt4hashIS6_ENS_18_Mod_range_hashingENS_20_Default_ranged_hashENS_20_Prime_rehash_policyENS_17_Hashtable_traitsILb1ELb0ELb1EEELb1EEixERS8_>
  405064:	b9400008 	ldr	w8, [x0]
  405068:	a9400ea1 	ldp	x1, x3, [x21]
  40506c:	aa1903fa 	mov	x26, x25
  405070:	93407d00 	sxtw	x0, w8
  405074:	9ac30804 	udiv	x4, x0, x3
  405078:	9b038084 	msub	x4, x4, x3, x0
  40507c:	f8647825 	ldr	x5, [x1, x4, lsl #3]
  405080:	b4000cc5 	cbz	x5, 405218 <_ZSt16__introsort_loopIN9__gnu_cxx17__normal_iteratorIPNSt7__cxx1112basic_stringIcSt11char_traitsIcESaIcEEESt6vectorIS7_SaIS7_EEEElNS0_5__ops15_Iter_comp_iterIZN7segment5orderEvEUlRKS7_SH_E_EEEvT_SK_T0_T1_+0x348>
  405084:	f94000a0 	ldr	x0, [x5]
  405088:	b9400801 	ldr	w1, [x0, #8]
  40508c:	6b08003f 	cmp	w1, w8
  405090:	540001a0 	b.eq	4050c4 <_ZSt16__introsort_loopIN9__gnu_cxx17__normal_iteratorIPNSt7__cxx1112basic_stringIcSt11char_traitsIcESaIcEEESt6vectorIS7_SaIS7_EEEElNS0_5__ops15_Iter_comp_iterIZN7segment5orderEvEUlRKS7_SH_E_EEEvT_SK_T0_T1_+0x1f4>  // b.none
  405094:	f9400002 	ldr	x2, [x0]
  405098:	b4000c02 	cbz	x2, 405218 <_ZSt16__introsort_loopIN9__gnu_cxx17__normal_iteratorIPNSt7__cxx1112basic_stringIcSt11char_traitsIcESaIcEEESt6vectorIS7_SaIS7_EEEElNS0_5__ops15_Iter_comp_iterIZN7segment5orderEvEUlRKS7_SH_E_EEEvT_SK_T0_T1_+0x348>
  40509c:	b9400841 	ldr	w1, [x2, #8]
  4050a0:	aa0003e5 	mov	x5, x0
  4050a4:	93407c26 	sxtw	x6, w1
  4050a8:	9ac308c0 	udiv	x0, x6, x3
  4050ac:	9b039800 	msub	x0, x0, x3, x6
  4050b0:	eb00009f 	cmp	x4, x0
  4050b4:	54000b21 	b.ne	405218 <_ZSt16__introsort_loopIN9__gnu_cxx17__normal_iteratorIPNSt7__cxx1112basic_stringIcSt11char_traitsIcESaIcEEESt6vectorIS7_SaIS7_EEEElNS0_5__ops15_Iter_comp_iterIZN7segment5orderEvEUlRKS7_SH_E_EEEvT_SK_T0_T1_+0x348>  // b.any
  4050b8:	aa0203e0 	mov	x0, x2
  4050bc:	6b08003f 	cmp	w1, w8
  4050c0:	54fffea1 	b.ne	405094 <_ZSt16__introsort_loopIN9__gnu_cxx17__normal_iteratorIPNSt7__cxx1112basic_stringIcSt11char_traitsIcESaIcEEESt6vectorIS7_SaIS7_EEEElNS0_5__ops15_Iter_comp_iterIZN7segment5orderEvEUlRKS7_SH_E_EEEvT_SK_T0_T1_+0x1c4>  // b.any
  4050c4:	f94000a2 	ldr	x2, [x5]
  4050c8:	b4000a82 	cbz	x2, 405218 <_ZSt16__introsort_loopIN9__gnu_cxx17__normal_iteratorIPNSt7__cxx1112basic_stringIcSt11char_traitsIcESaIcEEESt6vectorIS7_SaIS7_EEEElNS0_5__ops15_Iter_comp_iterIZN7segment5orderEvEUlRKS7_SH_E_EEEvT_SK_T0_T1_+0x348>
  4050cc:	aa1903e1 	mov	x1, x25
  4050d0:	b9400c5c 	ldr	w28, [x2, #12]
  4050d4:	aa1603e0 	mov	x0, x22
  4050d8:	94001a5e 	bl	40ba50 <_ZNSt8__detail9_Map_baseINSt7__cxx1112basic_stringIcSt11char_traitsIcESaIcEEESt4pairIKS6_iESaIS9_ENS_10_Select1stESt8equal_toIS6_ESt4hashIS6_ENS_18_Mod_range_hashingENS_20_Default_ranged_hashENS_20_Prime_rehash_policyENS_17_Hashtable_traitsILb1ELb0ELb1EEELb1EEixERS8_>
  4050dc:	b9400008 	ldr	w8, [x0]
  4050e0:	a9400ea1 	ldp	x1, x3, [x21]
  4050e4:	93407d00 	sxtw	x0, w8
  4050e8:	9ac30804 	udiv	x4, x0, x3
  4050ec:	9b038084 	msub	x4, x4, x3, x0
  4050f0:	f8647825 	ldr	x5, [x1, x4, lsl #3]
  4050f4:	b4000925 	cbz	x5, 405218 <_ZSt16__introsort_loopIN9__gnu_cxx17__normal_iteratorIPNSt7__cxx1112basic_stringIcSt11char_traitsIcESaIcEEESt6vectorIS7_SaIS7_EEEElNS0_5__ops15_Iter_comp_iterIZN7segment5orderEvEUlRKS7_SH_E_EEEvT_SK_T0_T1_+0x348>
  4050f8:	f94000a0 	ldr	x0, [x5]
  4050fc:	b9400801 	ldr	w1, [x0, #8]
  405100:	6b08003f 	cmp	w1, w8
  405104:	540001a0 	b.eq	405138 <_ZSt16__introsort_loopIN9__gnu_cxx17__normal_iteratorIPNSt7__cxx1112basic_stringIcSt11char_traitsIcESaIcEEESt6vectorIS7_SaIS7_EEEElNS0_5__ops15_Iter_comp_iterIZN7segment5orderEvEUlRKS7_SH_E_EEEvT_SK_T0_T1_+0x268>  // b.none
  405108:	f9400002 	ldr	x2, [x0]
  40510c:	b4000862 	cbz	x2, 405218 <_ZSt16__introsort_loopIN9__gnu_cxx17__normal_iteratorIPNSt7__cxx1112basic_stringIcSt11char_traitsIcESaIcEEESt6vectorIS7_SaIS7_EEEElNS0_5__ops15_Iter_comp_iterIZN7segment5orderEvEUlRKS7_SH_E_EEEvT_SK_T0_T1_+0x348>
  405110:	b9400841 	ldr	w1, [x2, #8]
  405114:	aa0003e5 	mov	x5, x0
  405118:	93407c26 	sxtw	x6, w1
  40511c:	9ac308c0 	udiv	x0, x6, x3
  405120:	9b039800 	msub	x0, x0, x3, x6
  405124:	eb00009f 	cmp	x4, x0
  405128:	54000781 	b.ne	405218 <_ZSt16__introsort_loopIN9__gnu_cxx17__normal_iteratorIPNSt7__cxx1112basic_stringIcSt11char_traitsIcESaIcEEESt6vectorIS7_SaIS7_EEEElNS0_5__ops15_Iter_comp_iterIZN7segment5orderEvEUlRKS7_SH_E_EEEvT_SK_T0_T1_+0x348>  // b.any
  40512c:	aa0203e0 	mov	x0, x2
  405130:	6b08003f 	cmp	w1, w8
  405134:	54fffea1 	b.ne	405108 <_ZSt16__introsort_loopIN9__gnu_cxx17__normal_iteratorIPNSt7__cxx1112basic_stringIcSt11char_traitsIcESaIcEEESt6vectorIS7_SaIS7_EEEElNS0_5__ops15_Iter_comp_iterIZN7segment5orderEvEUlRKS7_SH_E_EEEvT_SK_T0_T1_+0x238>  // b.any
  405138:	f94000a0 	ldr	x0, [x5]
  40513c:	b40006e0 	cbz	x0, 405218 <_ZSt16__introsort_loopIN9__gnu_cxx17__normal_iteratorIPNSt7__cxx1112basic_stringIcSt11char_traitsIcESaIcEEESt6vectorIS7_SaIS7_EEEElNS0_5__ops15_Iter_comp_iterIZN7segment5orderEvEUlRKS7_SH_E_EEEvT_SK_T0_T1_+0x348>
  405140:	b9400c00 	ldr	w0, [x0, #12]
  405144:	d1008339 	sub	x25, x25, #0x20
  405148:	6b00039f 	cmp	w28, w0
  40514c:	54fff86c 	b.gt	405058 <_ZSt16__introsort_loopIN9__gnu_cxx17__normal_iteratorIPNSt7__cxx1112basic_stringIcSt11char_traitsIcESaIcEEESt6vectorIS7_SaIS7_EEEElNS0_5__ops15_Iter_comp_iterIZN7segment5orderEvEUlRKS7_SH_E_EEEvT_SK_T0_T1_+0x188>
  405150:	eb1a031f 	cmp	x24, x26
  405154:	54000742 	b.cs	40523c <_ZSt16__introsort_loopIN9__gnu_cxx17__normal_iteratorIPNSt7__cxx1112basic_stringIcSt11char_traitsIcESaIcEEESt6vectorIS7_SaIS7_EEEElNS0_5__ops15_Iter_comp_iterIZN7segment5orderEvEUlRKS7_SH_E_EEEvT_SK_T0_T1_+0x36c>  // b.hs, b.nlast
  405158:	aa1a03e1 	mov	x1, x26
  40515c:	aa1803e0 	mov	x0, x24
  405160:	97fff374 	bl	401f30 <_ZNSt7__cxx1112basic_stringIcSt11char_traitsIcESaIcEE4swapERS4_@plt>
  405164:	d503201f 	nop
  405168:	91008318 	add	x24, x24, #0x20
  40516c:	17ffffa9 	b	405010 <_ZSt16__introsort_loopIN9__gnu_cxx17__normal_iteratorIPNSt7__cxx1112basic_stringIcSt11char_traitsIcESaIcEEESt6vectorIS7_SaIS7_EEEElNS0_5__ops15_Iter_comp_iterIZN7segment5orderEvEUlRKS7_SH_E_EEEvT_SK_T0_T1_+0x140>
  405170:	aa1b03e1 	mov	x1, x27
  405174:	aa1603e0 	mov	x0, x22
  405178:	94001a36 	bl	40ba50 <_ZNSt8__detail9_Map_baseINSt7__cxx1112basic_stringIcSt11char_traitsIcESaIcEEESt4pairIKS6_iESaIS9_ENS_10_Select1stESt8equal_toIS6_ESt4hashIS6_ENS_18_Mod_range_hashingENS_20_Default_ranged_hashENS_20_Prime_rehash_policyENS_17_Hashtable_traitsILb1ELb0ELb1EEELb1EEixERS8_>
  40517c:	aa0003e1 	mov	x1, x0
  405180:	aa1503e0 	mov	x0, x21
  405184:	94001803 	bl	40b190 <_ZNSt8__detail9_Map_baseIiSt4pairIKiiESaIS3_ENS_10_Select1stESt8equal_toIiESt4hashIiENS_18_Mod_range_hashingENS_20_Default_ranged_hashENS_20_Prime_rehash_policyENS_17_Hashtable_traitsILb0ELb0ELb1EEELb1EE2atERS2_>
  405188:	aa0003e2 	mov	x2, x0
  40518c:	aa1a03e1 	mov	x1, x26
  405190:	aa1603e0 	mov	x0, x22
  405194:	b940005c 	ldr	w28, [x2]
  405198:	94001a2e 	bl	40ba50 <_ZNSt8__detail9_Map_baseINSt7__cxx1112basic_stringIcSt11char_traitsIcESaIcEEESt4pairIKS6_iESaIS9_ENS_10_Select1stESt8equal_toIS6_ESt4hashIS6_ENS_18_Mod_range_hashingENS_20_Default_ranged_hashENS_20_Prime_rehash_policyENS_17_Hashtable_traitsILb1ELb0ELb1EEELb1EEixERS8_>
  40519c:	aa0003e1 	mov	x1, x0
  4051a0:	aa1503e0 	mov	x0, x21
  4051a4:	940017fb 	bl	40b190 <_ZNSt8__detail9_Map_baseIiSt4pairIKiiESaIS3_ENS_10_Select1stESt8equal_toIiESt4hashIiENS_18_Mod_range_hashingENS_20_Default_ranged_hashENS_20_Prime_rehash_policyENS_17_Hashtable_traitsILb0ELb0ELb1EEELb1EE2atERS2_>
  4051a8:	b9400000 	ldr	w0, [x0]
  4051ac:	6b00039f 	cmp	w28, w0
  4051b0:	54fff26c 	b.gt	404ffc <_ZSt16__introsort_loopIN9__gnu_cxx17__normal_iteratorIPNSt7__cxx1112basic_stringIcSt11char_traitsIcESaIcEEESt6vectorIS7_SaIS7_EEEElNS0_5__ops15_Iter_comp_iterIZN7segment5orderEvEUlRKS7_SH_E_EEEvT_SK_T0_T1_+0x12c>
  4051b4:	aa1803e1 	mov	x1, x24
  4051b8:	aa1603e0 	mov	x0, x22
  4051bc:	94001a25 	bl	40ba50 <_ZNSt8__detail9_Map_baseINSt7__cxx1112basic_stringIcSt11char_traitsIcESaIcEEESt4pairIKS6_iESaIS9_ENS_10_Select1stESt8equal_toIS6_ESt4hashIS6_ENS_18_Mod_range_hashingENS_20_Default_ranged_hashENS_20_Prime_rehash_policyENS_17_Hashtable_traitsILb1ELb0ELb1EEELb1EEixERS8_>
  4051c0:	aa0003e1 	mov	x1, x0
  4051c4:	aa1503e0 	mov	x0, x21
  4051c8:	940017f2 	bl	40b190 <_ZNSt8__detail9_Map_baseIiSt4pairIKiiESaIS3_ENS_10_Select1stESt8equal_toIiESt4hashIiENS_18_Mod_range_hashingENS_20_Default_ranged_hashENS_20_Prime_rehash_policyENS_17_Hashtable_traitsILb0ELb0ELb1EEELb1EE2atERS2_>
  4051cc:	aa0003e2 	mov	x2, x0
  4051d0:	aa1a03e1 	mov	x1, x26
  4051d4:	aa1603e0 	mov	x0, x22
  4051d8:	b940005c 	ldr	w28, [x2]
  4051dc:	94001a1d 	bl	40ba50 <_ZNSt8__detail9_Map_baseINSt7__cxx1112basic_stringIcSt11char_traitsIcESaIcEEESt4pairIKS6_iESaIS9_ENS_10_Select1stESt8equal_toIS6_ESt4hashIS6_ENS_18_Mod_range_hashingENS_20_Default_ranged_hashENS_20_Prime_rehash_policyENS_17_Hashtable_traitsILb1ELb0ELb1EEELb1EEixERS8_>
  4051e0:	aa0003e1 	mov	x1, x0
  4051e4:	aa1503e0 	mov	x0, x21
  4051e8:	940017ea 	bl	40b190 <_ZNSt8__detail9_Map_baseIiSt4pairIKiiESaIS3_ENS_10_Select1stESt8equal_toIiESt4hashIiENS_18_Mod_range_hashingENS_20_Default_ranged_hashENS_20_Prime_rehash_policyENS_17_Hashtable_traitsILb0ELb0ELb1EEELb1EE2atERS2_>
  4051ec:	b9400000 	ldr	w0, [x0]
  4051f0:	6b00039f 	cmp	w28, w0
  4051f4:	540000ad 	b.le	405208 <_ZSt16__introsort_loopIN9__gnu_cxx17__normal_iteratorIPNSt7__cxx1112basic_stringIcSt11char_traitsIcESaIcEEESt6vectorIS7_SaIS7_EEEElNS0_5__ops15_Iter_comp_iterIZN7segment5orderEvEUlRKS7_SH_E_EEEvT_SK_T0_T1_+0x338>
  4051f8:	aa1a03e1 	mov	x1, x26
  4051fc:	aa1403e0 	mov	x0, x20
  405200:	97fff34c 	bl	401f30 <_ZNSt7__cxx1112basic_stringIcSt11char_traitsIcESaIcEE4swapERS4_@plt>
  405204:	17ffff81 	b	405008 <_ZSt16__introsort_loopIN9__gnu_cxx17__normal_iteratorIPNSt7__cxx1112basic_stringIcSt11char_traitsIcESaIcEEESt6vectorIS7_SaIS7_EEEElNS0_5__ops15_Iter_comp_iterIZN7segment5orderEvEUlRKS7_SH_E_EEEvT_SK_T0_T1_+0x138>
  405208:	aa1803e1 	mov	x1, x24
  40520c:	aa1403e0 	mov	x0, x20
  405210:	97fff348 	bl	401f30 <_ZNSt7__cxx1112basic_stringIcSt11char_traitsIcESaIcEE4swapERS4_@plt>
  405214:	17ffff7d 	b	405008 <_ZSt16__introsort_loopIN9__gnu_cxx17__normal_iteratorIPNSt7__cxx1112basic_stringIcSt11char_traitsIcESaIcEEESt6vectorIS7_SaIS7_EEEElNS0_5__ops15_Iter_comp_iterIZN7segment5orderEvEUlRKS7_SH_E_EEEvT_SK_T0_T1_+0x138>
  405218:	b0000060 	adrp	x0, 412000 <_Z19MD5Hash_simdversionPKNSt7__cxx1112basic_stringIcSt11char_traitsIcESaIcEEEP12__Uint32x4_t+0x1000>
  40521c:	9139a000 	add	x0, x0, #0xe68
  405220:	97fff394 	bl	402070 <_ZSt20__throw_out_of_rangePKc@plt>
  405224:	a9425bf5 	ldp	x21, x22, [sp, #32]
  405228:	a94363f7 	ldp	x23, x24, [sp, #48]
  40522c:	a9446bf9 	ldp	x25, x26, [sp, #64]
  405230:	a94153f3 	ldp	x19, x20, [sp, #16]
  405234:	a8cb7bfd 	ldp	x29, x30, [sp], #176
  405238:	d65f03c0 	ret
  40523c:	f94037e0 	ldr	x0, [sp, #104]
  405240:	aa1303e1 	mov	x1, x19
  405244:	aa1703e3 	mov	x3, x23
  405248:	d1000400 	sub	x0, x0, #0x1
  40524c:	f90037e0 	str	x0, [sp, #104]
  405250:	aa0003e2 	mov	x2, x0
  405254:	aa1803e0 	mov	x0, x24
  405258:	97ffff1e 	bl	404ed0 <_ZSt16__introsort_loopIN9__gnu_cxx17__normal_iteratorIPNSt7__cxx1112basic_stringIcSt11char_traitsIcESaIcEEESt6vectorIS7_SaIS7_EEEElNS0_5__ops15_Iter_comp_iterIZN7segment5orderEvEUlRKS7_SH_E_EEEvT_SK_T0_T1_>
  40525c:	cb140300 	sub	x0, x24, x20
  405260:	f108001f 	cmp	x0, #0x200
  405264:	540014ad 	b.le	4054f8 <_ZSt16__introsort_loopIN9__gnu_cxx17__normal_iteratorIPNSt7__cxx1112basic_stringIcSt11char_traitsIcESaIcEEESt6vectorIS7_SaIS7_EEEElNS0_5__ops15_Iter_comp_iterIZN7segment5orderEvEUlRKS7_SH_E_EEEvT_SK_T0_T1_+0x628>
  405268:	f94037e1 	ldr	x1, [sp, #104]
  40526c:	aa1803f3 	mov	x19, x24
  405270:	b5ffe541 	cbnz	x1, 404f18 <_ZSt16__introsort_loopIN9__gnu_cxx17__normal_iteratorIPNSt7__cxx1112basic_stringIcSt11char_traitsIcESaIcEEESt6vectorIS7_SaIS7_EEEElNS0_5__ops15_Iter_comp_iterIZN7segment5orderEvEUlRKS7_SH_E_EEEvT_SK_T0_T1_+0x48>
  405274:	a94573fb 	ldp	x27, x28, [sp, #80]
  405278:	9345fc18 	asr	x24, x0, #5
  40527c:	d1000b16 	sub	x22, x24, #0x2
  405280:	910283fa 	add	x26, sp, #0xa0
  405284:	910203f9 	add	x25, sp, #0x80
  405288:	9341fed6 	asr	x22, x22, #1
  40528c:	8b161695 	add	x21, x20, x22, lsl #5
  405290:	910042b5 	add	x21, x21, #0x10
  405294:	f85f02a0 	ldur	x0, [x21, #-16]
  405298:	eb15001f 	cmp	x0, x21
  40529c:	540004c0 	b.eq	405334 <_ZSt16__introsort_loopIN9__gnu_cxx17__normal_iteratorIPNSt7__cxx1112basic_stringIcSt11char_traitsIcESaIcEEESt6vectorIS7_SaIS7_EEEElNS0_5__ops15_Iter_comp_iterIZN7segment5orderEvEUlRKS7_SH_E_EEEvT_SK_T0_T1_+0x464>  // b.none
  4052a0:	a97f86a5 	ldp	x5, x1, [x21, #-8]
  4052a4:	a93f7eb5 	stp	x21, xzr, [x21, #-16]
  4052a8:	390002bf 	strb	wzr, [x21]
  4052ac:	f9003be0 	str	x0, [sp, #112]
  4052b0:	f90043e1 	str	x1, [sp, #128]
  4052b4:	f9004bfa 	str	x26, [sp, #144]
  4052b8:	eb19001f 	cmp	x0, x25
  4052bc:	54000480 	b.eq	40534c <_ZSt16__introsort_loopIN9__gnu_cxx17__normal_iteratorIPNSt7__cxx1112basic_stringIcSt11char_traitsIcESaIcEEESt6vectorIS7_SaIS7_EEEElNS0_5__ops15_Iter_comp_iterIZN7segment5orderEvEUlRKS7_SH_E_EEEvT_SK_T0_T1_+0x47c>  // b.none
  4052c0:	f9004be0 	str	x0, [sp, #144]
  4052c4:	f90053e1 	str	x1, [sp, #160]
  4052c8:	aa1703e4 	mov	x4, x23
  4052cc:	910243e3 	add	x3, sp, #0x90
  4052d0:	aa1803e2 	mov	x2, x24
  4052d4:	aa1603e1 	mov	x1, x22
  4052d8:	aa1403e0 	mov	x0, x20
  4052dc:	a9077ff9 	stp	x25, xzr, [sp, #112]
  4052e0:	390203ff 	strb	wzr, [sp, #128]
  4052e4:	f9004fe5 	str	x5, [sp, #152]
  4052e8:	97fffdba 	bl	4049d0 <_ZSt13__adjust_heapIN9__gnu_cxx17__normal_iteratorIPNSt7__cxx1112basic_stringIcSt11char_traitsIcESaIcEEESt6vectorIS7_SaIS7_EEEElS7_NS0_5__ops15_Iter_comp_iterIZN7segment5orderEvEUlRKS7_SH_E_EEEvT_T0_SL_T1_T2_>
  4052ec:	f9404be0 	ldr	x0, [sp, #144]
  4052f0:	eb1a001f 	cmp	x0, x26
  4052f4:	54000080 	b.eq	405304 <_ZSt16__introsort_loopIN9__gnu_cxx17__normal_iteratorIPNSt7__cxx1112basic_stringIcSt11char_traitsIcESaIcEEESt6vectorIS7_SaIS7_EEEElNS0_5__ops15_Iter_comp_iterIZN7segment5orderEvEUlRKS7_SH_E_EEEvT_SK_T0_T1_+0x434>  // b.none
  4052f8:	f94053e1 	ldr	x1, [sp, #160]
  4052fc:	91000421 	add	x1, x1, #0x1
  405300:	97fff324 	bl	401f90 <_ZdlPvm@plt>
  405304:	f9403be0 	ldr	x0, [sp, #112]
  405308:	b4000296 	cbz	x22, 405358 <_ZSt16__introsort_loopIN9__gnu_cxx17__normal_iteratorIPNSt7__cxx1112basic_stringIcSt11char_traitsIcESaIcEEESt6vectorIS7_SaIS7_EEEElNS0_5__ops15_Iter_comp_iterIZN7segment5orderEvEUlRKS7_SH_E_EEEvT_SK_T0_T1_+0x488>
  40530c:	d10006d6 	sub	x22, x22, #0x1
  405310:	eb19001f 	cmp	x0, x25
  405314:	54000080 	b.eq	405324 <_ZSt16__introsort_loopIN9__gnu_cxx17__normal_iteratorIPNSt7__cxx1112basic_stringIcSt11char_traitsIcESaIcEEESt6vectorIS7_SaIS7_EEEElNS0_5__ops15_Iter_comp_iterIZN7segment5orderEvEUlRKS7_SH_E_EEEvT_SK_T0_T1_+0x454>  // b.none
  405318:	f94043e1 	ldr	x1, [sp, #128]
  40531c:	91000421 	add	x1, x1, #0x1
  405320:	97fff31c 	bl	401f90 <_ZdlPvm@plt>
  405324:	f85d02a0 	ldur	x0, [x21, #-48]
  405328:	d10082b5 	sub	x21, x21, #0x20
  40532c:	eb15001f 	cmp	x0, x21
  405330:	54fffb81 	b.ne	4052a0 <_ZSt16__introsort_loopIN9__gnu_cxx17__normal_iteratorIPNSt7__cxx1112basic_stringIcSt11char_traitsIcESaIcEEESt6vectorIS7_SaIS7_EEEElNS0_5__ops15_Iter_comp_iterIZN7segment5orderEvEUlRKS7_SH_E_EEEvT_SK_T0_T1_+0x3d0>  // b.any
  405334:	a94006a0 	ldp	x0, x1, [x21]
  405338:	390002bf 	strb	wzr, [x21]
  40533c:	a90807e0 	stp	x0, x1, [sp, #128]
  405340:	f9004bfa 	str	x26, [sp, #144]
  405344:	f85f82a5 	ldur	x5, [x21, #-8]
  405348:	f81f82bf 	stur	xzr, [x21, #-8]
  40534c:	a94807e0 	ldp	x0, x1, [sp, #128]
  405350:	a90a07e0 	stp	x0, x1, [sp, #160]
  405354:	17ffffdd 	b	4052c8 <_ZSt16__introsort_loopIN9__gnu_cxx17__normal_iteratorIPNSt7__cxx1112basic_stringIcSt11char_traitsIcESaIcEEESt6vectorIS7_SaIS7_EEEElNS0_5__ops15_Iter_comp_iterIZN7segment5orderEvEUlRKS7_SH_E_EEEvT_SK_T0_T1_+0x3f8>
  405358:	910203e1 	add	x1, sp, #0x80
  40535c:	eb01001f 	cmp	x0, x1
  405360:	54000080 	b.eq	405370 <_ZSt16__introsort_loopIN9__gnu_cxx17__normal_iteratorIPNSt7__cxx1112basic_stringIcSt11char_traitsIcESaIcEEESt6vectorIS7_SaIS7_EEEElNS0_5__ops15_Iter_comp_iterIZN7segment5orderEvEUlRKS7_SH_E_EEEvT_SK_T0_T1_+0x4a0>  // b.none
  405364:	f94043e1 	ldr	x1, [sp, #128]
  405368:	91000421 	add	x1, x1, #0x1
  40536c:	97fff309 	bl	401f90 <_ZdlPvm@plt>
  405370:	d1004273 	sub	x19, x19, #0x10
  405374:	91004298 	add	x24, x20, #0x10
  405378:	910203f6 	add	x22, sp, #0x80
  40537c:	910283f9 	add	x25, sp, #0xa0
  405380:	14000035 	b	405454 <_ZSt16__introsort_loopIN9__gnu_cxx17__normal_iteratorIPNSt7__cxx1112basic_stringIcSt11char_traitsIcESaIcEEESt6vectorIS7_SaIS7_EEEElNS0_5__ops15_Iter_comp_iterIZN7segment5orderEvEUlRKS7_SH_E_EEEvT_SK_T0_T1_+0x584>
  405384:	f81f0273 	stur	x19, [x19, #-16]
  405388:	f9400261 	ldr	x1, [x19]
  40538c:	3900027f 	strb	wzr, [x19]
  405390:	f9003be0 	str	x0, [sp, #112]
  405394:	f85f8260 	ldur	x0, [x19, #-8]
  405398:	f9003fe0 	str	x0, [sp, #120]
  40539c:	f9400280 	ldr	x0, [x20]
  4053a0:	f81f827f 	stur	xzr, [x19, #-8]
  4053a4:	f90043e1 	str	x1, [sp, #128]
  4053a8:	eb18001f 	cmp	x0, x24
  4053ac:	54000720 	b.eq	405490 <_ZSt16__introsort_loopIN9__gnu_cxx17__normal_iteratorIPNSt7__cxx1112basic_stringIcSt11char_traitsIcESaIcEEESt6vectorIS7_SaIS7_EEEElNS0_5__ops15_Iter_comp_iterIZN7segment5orderEvEUlRKS7_SH_E_EEEvT_SK_T0_T1_+0x5c0>  // b.none
  4053b0:	f9400681 	ldr	x1, [x20, #8]
  4053b4:	a93f0660 	stp	x0, x1, [x19, #-16]
  4053b8:	aa1803e0 	mov	x0, x24
  4053bc:	f9400a81 	ldr	x1, [x20, #16]
  4053c0:	f9000261 	str	x1, [x19]
  4053c4:	f9000298 	str	x24, [x20]
  4053c8:	cb1402b5 	sub	x21, x21, x20
  4053cc:	f900069f 	str	xzr, [x20, #8]
  4053d0:	3900001f 	strb	wzr, [x0]
  4053d4:	9345fea2 	asr	x2, x21, #5
  4053d8:	f9004bf9 	str	x25, [sp, #144]
  4053dc:	f9403be0 	ldr	x0, [sp, #112]
  4053e0:	eb16001f 	cmp	x0, x22
  4053e4:	540007c0 	b.eq	4054dc <_ZSt16__introsort_loopIN9__gnu_cxx17__normal_iteratorIPNSt7__cxx1112basic_stringIcSt11char_traitsIcESaIcEEESt6vectorIS7_SaIS7_EEEElNS0_5__ops15_Iter_comp_iterIZN7segment5orderEvEUlRKS7_SH_E_EEEvT_SK_T0_T1_+0x60c>  // b.none
  4053e8:	f94043e1 	ldr	x1, [sp, #128]
  4053ec:	f9004be0 	str	x0, [sp, #144]
  4053f0:	f90053e1 	str	x1, [sp, #160]
  4053f4:	f9403fe5 	ldr	x5, [sp, #120]
  4053f8:	aa1703e4 	mov	x4, x23
  4053fc:	910243e3 	add	x3, sp, #0x90
  405400:	aa1403e0 	mov	x0, x20
  405404:	d2800001 	mov	x1, #0x0                   	// #0
  405408:	a9077ff6 	stp	x22, xzr, [sp, #112]
  40540c:	390203ff 	strb	wzr, [sp, #128]
  405410:	f9004fe5 	str	x5, [sp, #152]
  405414:	97fffd6f 	bl	4049d0 <_ZSt13__adjust_heapIN9__gnu_cxx17__normal_iteratorIPNSt7__cxx1112basic_stringIcSt11char_traitsIcESaIcEEESt6vectorIS7_SaIS7_EEEElS7_NS0_5__ops15_Iter_comp_iterIZN7segment5orderEvEUlRKS7_SH_E_EEEvT_T0_SL_T1_T2_>
  405418:	f9404be0 	ldr	x0, [sp, #144]
  40541c:	eb19001f 	cmp	x0, x25
  405420:	54000080 	b.eq	405430 <_ZSt16__introsort_loopIN9__gnu_cxx17__normal_iteratorIPNSt7__cxx1112basic_stringIcSt11char_traitsIcESaIcEEESt6vectorIS7_SaIS7_EEEElNS0_5__ops15_Iter_comp_iterIZN7segment5orderEvEUlRKS7_SH_E_EEEvT_SK_T0_T1_+0x560>  // b.none
  405424:	f94053e1 	ldr	x1, [sp, #160]
  405428:	91000421 	add	x1, x1, #0x1
  40542c:	97fff2d9 	bl	401f90 <_ZdlPvm@plt>
  405430:	f9403be0 	ldr	x0, [sp, #112]
  405434:	eb16001f 	cmp	x0, x22
  405438:	54000080 	b.eq	405448 <_ZSt16__introsort_loopIN9__gnu_cxx17__normal_iteratorIPNSt7__cxx1112basic_stringIcSt11char_traitsIcESaIcEEESt6vectorIS7_SaIS7_EEEElNS0_5__ops15_Iter_comp_iterIZN7segment5orderEvEUlRKS7_SH_E_EEEvT_SK_T0_T1_+0x578>  // b.none
  40543c:	f94043e1 	ldr	x1, [sp, #128]
  405440:	91000421 	add	x1, x1, #0x1
  405444:	97fff2d3 	bl	401f90 <_ZdlPvm@plt>
  405448:	d1008273 	sub	x19, x19, #0x20
  40544c:	f10082bf 	cmp	x21, #0x20
  405450:	54ffeead 	b.le	405224 <_ZSt16__introsort_loopIN9__gnu_cxx17__normal_iteratorIPNSt7__cxx1112basic_stringIcSt11char_traitsIcESaIcEEESt6vectorIS7_SaIS7_EEEElNS0_5__ops15_Iter_comp_iterIZN7segment5orderEvEUlRKS7_SH_E_EEEvT_SK_T0_T1_+0x354>
  405454:	f85f0260 	ldur	x0, [x19, #-16]
  405458:	f9003bf6 	str	x22, [sp, #112]
  40545c:	d1004275 	sub	x21, x19, #0x10
  405460:	eb13001f 	cmp	x0, x19
  405464:	54fff901 	b.ne	405384 <_ZSt16__introsort_loopIN9__gnu_cxx17__normal_iteratorIPNSt7__cxx1112basic_stringIcSt11char_traitsIcESaIcEEESt6vectorIS7_SaIS7_EEEElNS0_5__ops15_Iter_comp_iterIZN7segment5orderEvEUlRKS7_SH_E_EEEvT_SK_T0_T1_+0x4b4>  // b.any
  405468:	a9400660 	ldp	x0, x1, [x19]
  40546c:	f81f0273 	stur	x19, [x19, #-16]
  405470:	3900027f 	strb	wzr, [x19]
  405474:	a90807e0 	stp	x0, x1, [sp, #128]
  405478:	f85f8260 	ldur	x0, [x19, #-8]
  40547c:	f9003fe0 	str	x0, [sp, #120]
  405480:	f9400280 	ldr	x0, [x20]
  405484:	f81f827f 	stur	xzr, [x19, #-8]
  405488:	eb18001f 	cmp	x0, x24
  40548c:	54fff921 	b.ne	4053b0 <_ZSt16__introsort_loopIN9__gnu_cxx17__normal_iteratorIPNSt7__cxx1112basic_stringIcSt11char_traitsIcESaIcEEESt6vectorIS7_SaIS7_EEEElNS0_5__ops15_Iter_comp_iterIZN7segment5orderEvEUlRKS7_SH_E_EEEvT_SK_T0_T1_+0x4e0>  // b.any
  405490:	f9400682 	ldr	x2, [x20, #8]
  405494:	b40000e2 	cbz	x2, 4054b0 <_ZSt16__introsort_loopIN9__gnu_cxx17__normal_iteratorIPNSt7__cxx1112basic_stringIcSt11char_traitsIcESaIcEEESt6vectorIS7_SaIS7_EEEElNS0_5__ops15_Iter_comp_iterIZN7segment5orderEvEUlRKS7_SH_E_EEEvT_SK_T0_T1_+0x5e0>
  405498:	f100045f 	cmp	x2, #0x1
  40549c:	54000260 	b.eq	4054e8 <_ZSt16__introsort_loopIN9__gnu_cxx17__normal_iteratorIPNSt7__cxx1112basic_stringIcSt11char_traitsIcESaIcEEESt6vectorIS7_SaIS7_EEEElNS0_5__ops15_Iter_comp_iterIZN7segment5orderEvEUlRKS7_SH_E_EEEvT_SK_T0_T1_+0x618>  // b.none
  4054a0:	aa1803e1 	mov	x1, x24
  4054a4:	aa1303e0 	mov	x0, x19
  4054a8:	97fff256 	bl	401e00 <memcpy@plt>
  4054ac:	f9400682 	ldr	x2, [x20, #8]
  4054b0:	f81f8262 	stur	x2, [x19, #-8]
  4054b4:	38226a7f 	strb	wzr, [x19, x2]
  4054b8:	cb1402b5 	sub	x21, x21, x20
  4054bc:	f900069f 	str	xzr, [x20, #8]
  4054c0:	f9400280 	ldr	x0, [x20]
  4054c4:	9345fea2 	asr	x2, x21, #5
  4054c8:	3900001f 	strb	wzr, [x0]
  4054cc:	f9004bf9 	str	x25, [sp, #144]
  4054d0:	f9403be0 	ldr	x0, [sp, #112]
  4054d4:	eb16001f 	cmp	x0, x22
  4054d8:	54fff881 	b.ne	4053e8 <_ZSt16__introsort_loopIN9__gnu_cxx17__normal_iteratorIPNSt7__cxx1112basic_stringIcSt11char_traitsIcESaIcEEESt6vectorIS7_SaIS7_EEEElNS0_5__ops15_Iter_comp_iterIZN7segment5orderEvEUlRKS7_SH_E_EEEvT_SK_T0_T1_+0x518>  // b.any
  4054dc:	a94807e0 	ldp	x0, x1, [sp, #128]
  4054e0:	a90a07e0 	stp	x0, x1, [sp, #160]
  4054e4:	17ffffc4 	b	4053f4 <_ZSt16__introsort_loopIN9__gnu_cxx17__normal_iteratorIPNSt7__cxx1112basic_stringIcSt11char_traitsIcESaIcEEESt6vectorIS7_SaIS7_EEEElNS0_5__ops15_Iter_comp_iterIZN7segment5orderEvEUlRKS7_SH_E_EEEvT_SK_T0_T1_+0x524>
  4054e8:	39404280 	ldrb	w0, [x20, #16]
  4054ec:	39000260 	strb	w0, [x19]
  4054f0:	f9400682 	ldr	x2, [x20, #8]
  4054f4:	17ffffef 	b	4054b0 <_ZSt16__introsort_loopIN9__gnu_cxx17__normal_iteratorIPNSt7__cxx1112basic_stringIcSt11char_traitsIcESaIcEEESt6vectorIS7_SaIS7_EEEElNS0_5__ops15_Iter_comp_iterIZN7segment5orderEvEUlRKS7_SH_E_EEEvT_SK_T0_T1_+0x5e0>
  4054f8:	a9425bf5 	ldp	x21, x22, [sp, #32]
  4054fc:	a94363f7 	ldp	x23, x24, [sp, #48]
  405500:	a9446bf9 	ldp	x25, x26, [sp, #64]
  405504:	a94573fb 	ldp	x27, x28, [sp, #80]
  405508:	17ffff4a 	b	405230 <_ZSt16__introsort_loopIN9__gnu_cxx17__normal_iteratorIPNSt7__cxx1112basic_stringIcSt11char_traitsIcESaIcEEESt6vectorIS7_SaIS7_EEEElNS0_5__ops15_Iter_comp_iterIZN7segment5orderEvEUlRKS7_SH_E_EEEvT_SK_T0_T1_+0x360>
  40550c:	aa0003f3 	mov	x19, x0
  405510:	910243e0 	add	x0, sp, #0x90
  405514:	a90573fb 	stp	x27, x28, [sp, #80]
  405518:	97fff2b2 	bl	401fe0 <_ZNSt7__cxx1112basic_stringIcSt11char_traitsIcESaIcEE10_M_disposeEv@plt>
  40551c:	9101c3e0 	add	x0, sp, #0x70
  405520:	97fff2b0 	bl	401fe0 <_ZNSt7__cxx1112basic_stringIcSt11char_traitsIcESaIcEE10_M_disposeEv@plt>
  405524:	aa1303e0 	mov	x0, x19
  405528:	97fff2fe 	bl	402120 <_Unwind_Resume@plt>
  40552c:	17fffff8 	b	40550c <_ZSt16__introsort_loopIN9__gnu_cxx17__normal_iteratorIPNSt7__cxx1112basic_stringIcSt11char_traitsIcESaIcEEESt6vectorIS7_SaIS7_EEEElNS0_5__ops15_Iter_comp_iterIZN7segment5orderEvEUlRKS7_SH_E_EEEvT_SK_T0_T1_+0x63c>

0000000000405530 <_ZN7segment5orderEv>:
  405530:	a9b87bfd 	stp	x29, x30, [sp, #-128]!
  405534:	910003fd 	mov	x29, sp
  405538:	a9025bf5 	stp	x21, x22, [sp, #32]
  40553c:	91010016 	add	x22, x0, #0x40
  405540:	91002015 	add	x21, x0, #0x8
  405544:	a90153f3 	stp	x19, x20, [sp, #16]
  405548:	aa0003f4 	mov	x20, x0
  40554c:	f9400ad3 	ldr	x19, [x22, #16]
  405550:	a90363f7 	stp	x23, x24, [sp, #48]
  405554:	910163f8 	add	x24, sp, #0x58
  405558:	a9046bf9 	stp	x25, x26, [sp, #64]
  40555c:	91004319 	add	x25, x24, #0x10
  405560:	b5000273 	cbnz	x19, 4055ac <_ZN7segment5orderEv+0x7c>
  405564:	14000023 	b	4055f0 <_ZN7segment5orderEv+0xc0>
  405568:	91004001 	add	x1, x0, #0x10
  40556c:	f94033e2 	ldr	x2, [sp, #96]
  405570:	f9000001 	str	x1, [x0]
  405574:	f9402fe1 	ldr	x1, [sp, #88]
  405578:	8b020022 	add	x2, x1, x2
  40557c:	97fffa32 	bl	403e44 <_ZNSt7__cxx1112basic_stringIcSt11char_traitsIcESaIcEE12_M_constructIPcEEvT_S7_St20forward_iterator_tag.isra.0>
  405580:	f94006a0 	ldr	x0, [x21, #8]
  405584:	91008000 	add	x0, x0, #0x20
  405588:	f90006a0 	str	x0, [x21, #8]
  40558c:	f9402fe0 	ldr	x0, [sp, #88]
  405590:	eb19001f 	cmp	x0, x25
  405594:	54000080 	b.eq	4055a4 <_ZN7segment5orderEv+0x74>  // b.none
  405598:	f94037e1 	ldr	x1, [sp, #104]
  40559c:	91000421 	add	x1, x1, #0x1
  4055a0:	97fff27c 	bl	401f90 <_ZdlPvm@plt>
  4055a4:	f9400273 	ldr	x19, [x19]
  4055a8:	b4000253 	cbz	x19, 4055f0 <_ZN7segment5orderEv+0xc0>
  4055ac:	f9400a62 	ldr	x2, [x19, #16]
  4055b0:	f9002ff9 	str	x25, [sp, #88]
  4055b4:	aa1803e0 	mov	x0, x24
  4055b8:	91002277 	add	x23, x19, #0x8
  4055bc:	f9400661 	ldr	x1, [x19, #8]
  4055c0:	8b020022 	add	x2, x1, x2
  4055c4:	97fffa20 	bl	403e44 <_ZNSt7__cxx1112basic_stringIcSt11char_traitsIcESaIcEE12_M_constructIPcEEvT_S7_St20forward_iterator_tag.isra.0>
  4055c8:	a94086a0 	ldp	x0, x1, [x21, #8]
  4055cc:	b94022e2 	ldr	w2, [x23, #32]
  4055d0:	b9007be2 	str	w2, [sp, #120]
  4055d4:	eb01001f 	cmp	x0, x1
  4055d8:	54fffc81 	b.ne	405568 <_ZN7segment5orderEv+0x38>  // b.any
  4055dc:	aa0003e1 	mov	x1, x0
  4055e0:	aa1803e2 	mov	x2, x24
  4055e4:	aa1503e0 	mov	x0, x21
  4055e8:	94001666 	bl	40af80 <_ZNSt6vectorINSt7__cxx1112basic_stringIcSt11char_traitsIcESaIcEEESaIS5_EE17_M_realloc_insertIJRS5_EEEvN9__gnu_cxx17__normal_iteratorIPS5_S7_EEDpOT_>
  4055ec:	17ffffe8 	b	40558c <_ZN7segment5orderEv+0x5c>
  4055f0:	a940d693 	ldp	x19, x21, [x20, #8]
  4055f4:	eb1302bf 	cmp	x21, x19
  4055f8:	54000680 	b.eq	4056c8 <_ZN7segment5orderEv+0x198>  // b.none
  4055fc:	cb1302b7 	sub	x23, x21, x19
  405600:	528007e2 	mov	w2, #0x3f                  	// #63
  405604:	aa1403e3 	mov	x3, x20
  405608:	aa1503e1 	mov	x1, x21
  40560c:	9345fee4 	asr	x4, x23, #5
  405610:	aa1303e0 	mov	x0, x19
  405614:	dac01084 	clz	x4, x4
  405618:	4b040042 	sub	w2, w2, w4
  40561c:	937f7c42 	sbfiz	x2, x2, #1, #32
  405620:	97fffe2c 	bl	404ed0 <_ZSt16__introsort_loopIN9__gnu_cxx17__normal_iteratorIPNSt7__cxx1112basic_stringIcSt11char_traitsIcESaIcEEESt6vectorIS7_SaIS7_EEEElNS0_5__ops15_Iter_comp_iterIZN7segment5orderEvEUlRKS7_SH_E_EEEvT_SK_T0_T1_>
  405624:	f10802ff 	cmp	x23, #0x200
  405628:	540005cc 	b.gt	4056e0 <_ZN7segment5orderEv+0x1b0>
  40562c:	aa1503e1 	mov	x1, x21
  405630:	aa1303e0 	mov	x0, x19
  405634:	aa1403e2 	mov	x2, x20
  405638:	97fffc42 	bl	404740 <_ZSt16__insertion_sortIN9__gnu_cxx17__normal_iteratorIPNSt7__cxx1112basic_stringIcSt11char_traitsIcESaIcEEESt6vectorIS7_SaIS7_EEEENS0_5__ops15_Iter_comp_iterIZN7segment5orderEvEUlRKS7_SH_E_EEEvT_SK_T0_>
  40563c:	a940e295 	ldp	x21, x24, [x20, #8]
  405640:	eb15031f 	cmp	x24, x21
  405644:	54000420 	b.eq	4056c8 <_ZN7segment5orderEv+0x198>  // b.none
  405648:	91008293 	add	x19, x20, #0x20
  40564c:	9101e297 	add	x23, x20, #0x78
  405650:	14000011 	b	405694 <_ZN7segment5orderEv+0x164>
  405654:	b9400000 	ldr	w0, [x0]
  405658:	b8004420 	str	w0, [x1], #4
  40565c:	f9000661 	str	x1, [x19, #8]
  405660:	aa1503e1 	mov	x1, x21
  405664:	aa1603e0 	mov	x0, x22
  405668:	940018fa 	bl	40ba50 <_ZNSt8__detail9_Map_baseINSt7__cxx1112basic_stringIcSt11char_traitsIcESaIcEEESt4pairIKS6_iESaIS9_ENS_10_Select1stESt8equal_toIS6_ESt4hashIS6_ENS_18_Mod_range_hashingENS_20_Default_ranged_hashENS_20_Prime_rehash_policyENS_17_Hashtable_traitsILb1ELb0ELb1EEELb1EEixERS8_>
  40566c:	aa0003e1 	mov	x1, x0
  405670:	aa1703e0 	mov	x0, x23
  405674:	940016c7 	bl	40b190 <_ZNSt8__detail9_Map_baseIiSt4pairIKiiESaIS3_ENS_10_Select1stESt8equal_toIiESt4hashIiENS_18_Mod_range_hashingENS_20_Default_ranged_hashENS_20_Prime_rehash_policyENS_17_Hashtable_traitsILb0ELb0ELb1EEELb1EE2atERS2_>
  405678:	b9403a81 	ldr	w1, [x20, #56]
  40567c:	910082b5 	add	x21, x21, #0x20
  405680:	b9400000 	ldr	w0, [x0]
  405684:	0b000021 	add	w1, w1, w0
  405688:	b9003a81 	str	w1, [x20, #56]
  40568c:	eb15031f 	cmp	x24, x21
  405690:	54000460 	b.eq	40571c <_ZN7segment5orderEv+0x1ec>  // b.none
  405694:	aa1503e1 	mov	x1, x21
  405698:	aa1603e0 	mov	x0, x22
  40569c:	940018ed 	bl	40ba50 <_ZNSt8__detail9_Map_baseINSt7__cxx1112basic_stringIcSt11char_traitsIcESaIcEEESt4pairIKS6_iESaIS9_ENS_10_Select1stESt8equal_toIS6_ESt4hashIS6_ENS_18_Mod_range_hashingENS_20_Default_ranged_hashENS_20_Prime_rehash_policyENS_17_Hashtable_traitsILb1ELb0ELb1EEELb1EEixERS8_>
  4056a0:	aa0003e1 	mov	x1, x0
  4056a4:	aa1703e0 	mov	x0, x23
  4056a8:	940016ba 	bl	40b190 <_ZNSt8__detail9_Map_baseIiSt4pairIKiiESaIS3_ENS_10_Select1stESt8equal_toIiESt4hashIiENS_18_Mod_range_hashingENS_20_Default_ranged_hashENS_20_Prime_rehash_policyENS_17_Hashtable_traitsILb0ELb0ELb1EEELb1EE2atERS2_>
  4056ac:	a9408a61 	ldp	x1, x2, [x19, #8]
  4056b0:	eb02003f 	cmp	x1, x2
  4056b4:	54fffd01 	b.ne	405654 <_ZN7segment5orderEv+0x124>  // b.any
  4056b8:	aa0003e2 	mov	x2, x0
  4056bc:	aa1303e0 	mov	x0, x19
  4056c0:	940016d8 	bl	40b220 <_ZNSt6vectorIiSaIiEE17_M_realloc_insertIJRiEEEvN9__gnu_cxx17__normal_iteratorIPiS1_EEDpOT_>
  4056c4:	17ffffe7 	b	405660 <_ZN7segment5orderEv+0x130>
  4056c8:	a94153f3 	ldp	x19, x20, [sp, #16]
  4056cc:	a9425bf5 	ldp	x21, x22, [sp, #32]
  4056d0:	a94363f7 	ldp	x23, x24, [sp, #48]
  4056d4:	a9446bf9 	ldp	x25, x26, [sp, #64]
  4056d8:	a8c87bfd 	ldp	x29, x30, [sp], #128
  4056dc:	d65f03c0 	ret
  4056e0:	91080261 	add	x1, x19, #0x200
  4056e4:	aa1303e0 	mov	x0, x19
  4056e8:	aa1403e2 	mov	x2, x20
  4056ec:	aa0103f3 	mov	x19, x1
  4056f0:	97fffc14 	bl	404740 <_ZSt16__insertion_sortIN9__gnu_cxx17__normal_iteratorIPNSt7__cxx1112basic_stringIcSt11char_traitsIcESaIcEEESt6vectorIS7_SaIS7_EEEENS0_5__ops15_Iter_comp_iterIZN7segment5orderEvEUlRKS7_SH_E_EEEvT_SK_T0_>
  4056f4:	eb1302bf 	cmp	x21, x19
  4056f8:	54fffa20 	b.eq	40563c <_ZN7segment5orderEv+0x10c>  // b.none
  4056fc:	d503201f 	nop
  405700:	aa1303e0 	mov	x0, x19
  405704:	aa1403e1 	mov	x1, x20
  405708:	91008273 	add	x19, x19, #0x20
  40570c:	97fffb85 	bl	404520 <_ZSt25__unguarded_linear_insertIN9__gnu_cxx17__normal_iteratorIPNSt7__cxx1112basic_stringIcSt11char_traitsIcESaIcEEESt6vectorIS7_SaIS7_EEEENS0_5__ops14_Val_comp_iterIZN7segment5orderEvEUlRKS7_SH_E_EEEvT_T0_>
  405710:	eb1302bf 	cmp	x21, x19
  405714:	54ffff61 	b.ne	405700 <_ZN7segment5orderEv+0x1d0>  // b.any
  405718:	17ffffc9 	b	40563c <_ZN7segment5orderEv+0x10c>
  40571c:	a940ea95 	ldp	x21, x26, [x20, #8]
  405720:	eb15035f 	cmp	x26, x21
  405724:	54fffd20 	b.eq	4056c8 <_ZN7segment5orderEv+0x198>  // b.none
  405728:	910163f8 	add	x24, sp, #0x58
  40572c:	91004319 	add	x25, x24, #0x10
  405730:	14000018 	b	405790 <_ZN7segment5orderEv+0x260>
  405734:	b9400000 	ldr	w0, [x0]
  405738:	b8004420 	str	w0, [x1], #4
  40573c:	f9000661 	str	x1, [x19, #8]
  405740:	aa1803e1 	mov	x1, x24
  405744:	aa1603e0 	mov	x0, x22
  405748:	940018c2 	bl	40ba50 <_ZNSt8__detail9_Map_baseINSt7__cxx1112basic_stringIcSt11char_traitsIcESaIcEEESt4pairIKS6_iESaIS9_ENS_10_Select1stESt8equal_toIS6_ESt4hashIS6_ENS_18_Mod_range_hashingENS_20_Default_ranged_hashENS_20_Prime_rehash_policyENS_17_Hashtable_traitsILb1ELb0ELb1EEELb1EEixERS8_>
  40574c:	aa0003e1 	mov	x1, x0
  405750:	aa1703e0 	mov	x0, x23
  405754:	9400168f 	bl	40b190 <_ZNSt8__detail9_Map_baseIiSt4pairIKiiESaIS3_ENS_10_Select1stESt8equal_toIiESt4hashIiENS_18_Mod_range_hashingENS_20_Default_ranged_hashENS_20_Prime_rehash_policyENS_17_Hashtable_traitsILb0ELb0ELb1EEELb1EE2atERS2_>
  405758:	b9400000 	ldr	w0, [x0]
  40575c:	b9403a81 	ldr	w1, [x20, #56]
  405760:	f9402fe2 	ldr	x2, [sp, #88]
  405764:	0b000021 	add	w1, w1, w0
  405768:	b9003a81 	str	w1, [x20, #56]
  40576c:	eb19005f 	cmp	x2, x25
  405770:	540000a0 	b.eq	405784 <_ZN7segment5orderEv+0x254>  // b.none
  405774:	f94037e1 	ldr	x1, [sp, #104]
  405778:	aa0203e0 	mov	x0, x2
  40577c:	91000421 	add	x1, x1, #0x1
  405780:	97fff204 	bl	401f90 <_ZdlPvm@plt>
  405784:	910082b5 	add	x21, x21, #0x20
  405788:	eb15035f 	cmp	x26, x21
  40578c:	54fff9e0 	b.eq	4056c8 <_ZN7segment5orderEv+0x198>  // b.none
  405790:	f94006a2 	ldr	x2, [x21, #8]
  405794:	f9002ff9 	str	x25, [sp, #88]
  405798:	aa1803e0 	mov	x0, x24
  40579c:	f94002a1 	ldr	x1, [x21]
  4057a0:	8b020022 	add	x2, x1, x2
  4057a4:	97fff9a8 	bl	403e44 <_ZNSt7__cxx1112basic_stringIcSt11char_traitsIcESaIcEE12_M_constructIPcEEvT_S7_St20forward_iterator_tag.isra.0>
  4057a8:	aa1803e1 	mov	x1, x24
  4057ac:	aa1603e0 	mov	x0, x22
  4057b0:	940018a8 	bl	40ba50 <_ZNSt8__detail9_Map_baseINSt7__cxx1112basic_stringIcSt11char_traitsIcESaIcEEESt4pairIKS6_iESaIS9_ENS_10_Select1stESt8equal_toIS6_ESt4hashIS6_ENS_18_Mod_range_hashingENS_20_Default_ranged_hashENS_20_Prime_rehash_policyENS_17_Hashtable_traitsILb1ELb0ELb1EEELb1EEixERS8_>
  4057b4:	aa0003e1 	mov	x1, x0
  4057b8:	aa1703e0 	mov	x0, x23
  4057bc:	94001675 	bl	40b190 <_ZNSt8__detail9_Map_baseIiSt4pairIKiiESaIS3_ENS_10_Select1stESt8equal_toIiESt4hashIiENS_18_Mod_range_hashingENS_20_Default_ranged_hashENS_20_Prime_rehash_policyENS_17_Hashtable_traitsILb0ELb0ELb1EEELb1EE2atERS2_>
  4057c0:	a9408a61 	ldp	x1, x2, [x19, #8]
  4057c4:	eb02003f 	cmp	x1, x2
  4057c8:	54fffb61 	b.ne	405734 <_ZN7segment5orderEv+0x204>  // b.any
  4057cc:	aa0003e2 	mov	x2, x0
  4057d0:	aa1303e0 	mov	x0, x19
  4057d4:	94001693 	bl	40b220 <_ZNSt6vectorIiSaIiEE17_M_realloc_insertIJRiEEEvN9__gnu_cxx17__normal_iteratorIPiS1_EEDpOT_>
  4057d8:	17ffffda 	b	405740 <_ZN7segment5orderEv+0x210>
  4057dc:	aa0003f3 	mov	x19, x0
  4057e0:	aa1803e0 	mov	x0, x24
  4057e4:	97fff1ff 	bl	401fe0 <_ZNSt7__cxx1112basic_stringIcSt11char_traitsIcESaIcEE10_M_disposeEv@plt>
  4057e8:	aa1303e0 	mov	x0, x19
  4057ec:	97fff24d 	bl	402120 <_Unwind_Resume@plt>
  4057f0:	17fffffb 	b	4057dc <_ZN7segment5orderEv+0x2ac>

00000000004057f4 <_ZNSt10_HashtableIiSt4pairIKiiESaIS2_ENSt8__detail10_Select1stESt8equal_toIiESt4hashIiENS4_18_Mod_range_hashingENS4_20_Default_ranged_hashENS4_20_Prime_rehash_policyENS4_17_Hashtable_traitsILb0ELb0ELb1EEEE21_M_insert_unique_nodeERS1_mmPNS4_10_Hash_nodeIS2_Lb0EEEm.isra.0>:
  4057f4:	a9bc7bfd 	stp	x29, x30, [sp, #-64]!
  4057f8:	910003fd 	mov	x29, sp
  4057fc:	a90153f3 	stp	x19, x20, [sp, #16]
  405800:	aa0103f4 	mov	x20, x1
  405804:	aa0003f3 	mov	x19, x0
  405808:	a9025bf5 	stp	x21, x22, [sp, #32]
  40580c:	aa0303f5 	mov	x21, x3
  405810:	aa0203f6 	mov	x22, x2
  405814:	aa0403e3 	mov	x3, x4
  405818:	91008000 	add	x0, x0, #0x20
  40581c:	f85e8001 	ldur	x1, [x0, #-24]
  405820:	f85f8002 	ldur	x2, [x0, #-8]
  405824:	f9400404 	ldr	x4, [x0, #8]
  405828:	f9001fe4 	str	x4, [sp, #56]
  40582c:	97fff205 	bl	402040 <_ZNKSt8__detail20_Prime_rehash_policy14_M_need_rehashEmmm@plt>
  405830:	72001c1f 	tst	w0, #0xff
  405834:	54000221 	b.ne	405878 <_ZNSt10_HashtableIiSt4pairIKiiESaIS2_ENSt8__detail10_Select1stESt8equal_toIiESt4hashIiENS4_18_Mod_range_hashingENS4_20_Default_ranged_hashENS4_20_Prime_rehash_policyENS4_17_Hashtable_traitsILb0ELb0ELb1EEEE21_M_insert_unique_nodeERS1_mmPNS4_10_Hash_nodeIS2_Lb0EEEm.isra.0+0x84>  // b.any
  405838:	f9400260 	ldr	x0, [x19]
  40583c:	d37df282 	lsl	x2, x20, #3
  405840:	f8747801 	ldr	x1, [x0, x20, lsl #3]
  405844:	b40002e1 	cbz	x1, 4058a0 <_ZNSt10_HashtableIiSt4pairIKiiESaIS2_ENSt8__detail10_Select1stESt8equal_toIiESt4hashIiENS4_18_Mod_range_hashingENS4_20_Default_ranged_hashENS4_20_Prime_rehash_policyENS4_17_Hashtable_traitsILb0ELb0ELb1EEEE21_M_insert_unique_nodeERS1_mmPNS4_10_Hash_nodeIS2_Lb0EEEm.isra.0+0xac>
  405848:	f9400021 	ldr	x1, [x1]
  40584c:	f90002a1 	str	x1, [x21]
  405850:	f9400e61 	ldr	x1, [x19, #24]
  405854:	f8747800 	ldr	x0, [x0, x20, lsl #3]
  405858:	91000421 	add	x1, x1, #0x1
  40585c:	f9000015 	str	x21, [x0]
  405860:	aa1503e0 	mov	x0, x21
  405864:	a9425bf5 	ldp	x21, x22, [sp, #32]
  405868:	f9000e61 	str	x1, [x19, #24]
  40586c:	a94153f3 	ldp	x19, x20, [sp, #16]
  405870:	a8c47bfd 	ldp	x29, x30, [sp], #64
  405874:	d65f03c0 	ret
  405878:	9100e3e2 	add	x2, sp, #0x38
  40587c:	aa1303e0 	mov	x0, x19
  405880:	940018e0 	bl	40bc00 <_ZNSt10_HashtableIiSt4pairIKiiESaIS2_ENSt8__detail10_Select1stESt8equal_toIiESt4hashIiENS4_18_Mod_range_hashingENS4_20_Default_ranged_hashENS4_20_Prime_rehash_policyENS4_17_Hashtable_traitsILb0ELb0ELb1EEEE9_M_rehashEmRKm>
  405884:	f9400660 	ldr	x0, [x19, #8]
  405888:	9ac00ad4 	udiv	x20, x22, x0
  40588c:	9b00da94 	msub	x20, x20, x0, x22
  405890:	f9400260 	ldr	x0, [x19]
  405894:	d37df282 	lsl	x2, x20, #3
  405898:	f8747801 	ldr	x1, [x0, x20, lsl #3]
  40589c:	b5fffd61 	cbnz	x1, 405848 <_ZNSt10_HashtableIiSt4pairIKiiESaIS2_ENSt8__detail10_Select1stESt8equal_toIiESt4hashIiENS4_18_Mod_range_hashingENS4_20_Default_ranged_hashENS4_20_Prime_rehash_policyENS4_17_Hashtable_traitsILb0ELb0ELb1EEEE21_M_insert_unique_nodeERS1_mmPNS4_10_Hash_nodeIS2_Lb0EEEm.isra.0+0x54>
  4058a0:	f9400a61 	ldr	x1, [x19, #16]
  4058a4:	f90002a1 	str	x1, [x21]
  4058a8:	f9000a75 	str	x21, [x19, #16]
  4058ac:	f94002a1 	ldr	x1, [x21]
  4058b0:	b40000c1 	cbz	x1, 4058c8 <_ZNSt10_HashtableIiSt4pairIKiiESaIS2_ENSt8__detail10_Select1stESt8equal_toIiESt4hashIiENS4_18_Mod_range_hashingENS4_20_Default_ranged_hashENS4_20_Prime_rehash_policyENS4_17_Hashtable_traitsILb0ELb0ELb1EEEE21_M_insert_unique_nodeERS1_mmPNS4_10_Hash_nodeIS2_Lb0EEEm.isra.0+0xd4>
  4058b4:	b9800824 	ldrsw	x4, [x1, #8]
  4058b8:	f9400663 	ldr	x3, [x19, #8]
  4058bc:	9ac30881 	udiv	x1, x4, x3
  4058c0:	9b039021 	msub	x1, x1, x3, x4
  4058c4:	f8217815 	str	x21, [x0, x1, lsl #3]
  4058c8:	91004261 	add	x1, x19, #0x10
  4058cc:	f8226801 	str	x1, [x0, x2]
  4058d0:	f9400e61 	ldr	x1, [x19, #24]
  4058d4:	aa1503e0 	mov	x0, x21
  4058d8:	a9425bf5 	ldp	x21, x22, [sp, #32]
  4058dc:	91000421 	add	x1, x1, #0x1
  4058e0:	f9000e61 	str	x1, [x19, #24]
  4058e4:	a94153f3 	ldp	x19, x20, [sp, #16]
  4058e8:	a8c47bfd 	ldp	x29, x30, [sp], #64
  4058ec:	d65f03c0 	ret

00000000004058f0 <_ZN7segment6insertENSt7__cxx1112basic_stringIcSt11char_traitsIcESaIcEEE>:
  4058f0:	a9bd7bfd 	stp	x29, x30, [sp, #-48]!
  4058f4:	d28d20e2 	mov	x2, #0x6907                	// #26887
  4058f8:	f2b8e1e2 	movk	x2, #0xc70f, lsl #16
  4058fc:	910003fd 	mov	x29, sp
  405900:	a90153f3 	stp	x19, x20, [sp, #16]
  405904:	aa0103f3 	mov	x19, x1
  405908:	91010014 	add	x20, x0, #0x40
  40590c:	a9025bf5 	stp	x21, x22, [sp, #32]
  405910:	9101e015 	add	x21, x0, #0x78
  405914:	a9400420 	ldp	x0, x1, [x1]
  405918:	97fff13e 	bl	401e10 <_ZSt11_Hash_bytesPKvmm@plt>
  40591c:	aa0003e3 	mov	x3, x0
  405920:	f9400681 	ldr	x1, [x20, #8]
  405924:	aa1403e0 	mov	x0, x20
  405928:	aa1303e2 	mov	x2, x19
  40592c:	9ac10864 	udiv	x4, x3, x1
  405930:	9b018c81 	msub	x1, x4, x1, x3
  405934:	940017c7 	bl	40b850 <_ZNKSt10_HashtableINSt7__cxx1112basic_stringIcSt11char_traitsIcESaIcEEESt4pairIKS5_iESaIS8_ENSt8__detail10_Select1stESt8equal_toIS5_ESt4hashIS5_ENSA_18_Mod_range_hashingENSA_20_Default_ranged_hashENSA_20_Prime_rehash_policyENSA_17_Hashtable_traitsILb1ELb0ELb1EEEE19_M_find_before_nodeEmRS7_m>
  405938:	aa1303e1 	mov	x1, x19
  40593c:	b40001e0 	cbz	x0, 405978 <_ZN7segment6insertENSt7__cxx1112basic_stringIcSt11char_traitsIcESaIcEEE+0x88>
  405940:	f9400000 	ldr	x0, [x0]
  405944:	b40001a0 	cbz	x0, 405978 <_ZN7segment6insertENSt7__cxx1112basic_stringIcSt11char_traitsIcESaIcEEE+0x88>
  405948:	aa1403e0 	mov	x0, x20
  40594c:	94001841 	bl	40ba50 <_ZNSt8__detail9_Map_baseINSt7__cxx1112basic_stringIcSt11char_traitsIcESaIcEEESt4pairIKS6_iESaIS9_ENS_10_Select1stESt8equal_toIS6_ESt4hashIS6_ENS_18_Mod_range_hashingENS_20_Default_ranged_hashENS_20_Prime_rehash_policyENS_17_Hashtable_traitsILb1ELb0ELb1EEELb1EEixERS8_>
  405950:	aa0003e1 	mov	x1, x0
  405954:	aa1503e0 	mov	x0, x21
  405958:	94001932 	bl	40be20 <_ZNSt8__detail9_Map_baseIiSt4pairIKiiESaIS3_ENS_10_Select1stESt8equal_toIiESt4hashIiENS_18_Mod_range_hashingENS_20_Default_ranged_hashENS_20_Prime_rehash_policyENS_17_Hashtable_traitsILb0ELb0ELb1EEELb1EEixERS2_>
  40595c:	b9400001 	ldr	w1, [x0]
  405960:	a94153f3 	ldp	x19, x20, [sp, #16]
  405964:	11000421 	add	w1, w1, #0x1
  405968:	b9000001 	str	w1, [x0]
  40596c:	a9425bf5 	ldp	x21, x22, [sp, #32]
  405970:	a8c37bfd 	ldp	x29, x30, [sp], #48
  405974:	d65f03c0 	ret
  405978:	aa1403e0 	mov	x0, x20
  40597c:	f9400e96 	ldr	x22, [x20, #24]
  405980:	94001834 	bl	40ba50 <_ZNSt8__detail9_Map_baseINSt7__cxx1112basic_stringIcSt11char_traitsIcESaIcEEESt4pairIKS6_iESaIS9_ENS_10_Select1stESt8equal_toIS6_ESt4hashIS6_ENS_18_Mod_range_hashingENS_20_Default_ranged_hashENS_20_Prime_rehash_policyENS_17_Hashtable_traitsILb1ELb0ELb1EEELb1EEixERS8_>
  405984:	aa0003e2 	mov	x2, x0
  405988:	aa1303e1 	mov	x1, x19
  40598c:	aa1403e0 	mov	x0, x20
  405990:	b9000056 	str	w22, [x2]
  405994:	9400182f 	bl	40ba50 <_ZNSt8__detail9_Map_baseINSt7__cxx1112basic_stringIcSt11char_traitsIcESaIcEEESt4pairIKS6_iESaIS9_ENS_10_Select1stESt8equal_toIS6_ESt4hashIS6_ENS_18_Mod_range_hashingENS_20_Default_ranged_hashENS_20_Prime_rehash_policyENS_17_Hashtable_traitsILb1ELb0ELb1EEELb1EEixERS8_>
  405998:	aa0003e1 	mov	x1, x0
  40599c:	aa1503e0 	mov	x0, x21
  4059a0:	94001920 	bl	40be20 <_ZNSt8__detail9_Map_baseIiSt4pairIKiiESaIS3_ENS_10_Select1stESt8equal_toIiESt4hashIiENS_18_Mod_range_hashingENS_20_Default_ranged_hashENS_20_Prime_rehash_policyENS_17_Hashtable_traitsILb0ELb0ELb1EEELb1EEixERS2_>
  4059a4:	52800021 	mov	w1, #0x1                   	// #1
  4059a8:	b9000001 	str	w1, [x0]
  4059ac:	a94153f3 	ldp	x19, x20, [sp, #16]
  4059b0:	a9425bf5 	ldp	x21, x22, [sp, #32]
  4059b4:	a8c37bfd 	ldp	x29, x30, [sp], #48
  4059b8:	d65f03c0 	ret
  4059bc:	d503201f 	nop

00000000004059c0 <_ZN7segment11PrintValuesEv>:
  4059c0:	a9b87bfd 	stp	x29, x30, [sp, #-128]!
  4059c4:	910003fd 	mov	x29, sp
  4059c8:	a90153f3 	stp	x19, x20, [sp, #16]
  4059cc:	a9046bf9 	stp	x25, x26, [sp, #64]
  4059d0:	a940e814 	ldp	x20, x26, [x0, #8]
  4059d4:	eb1a029f 	cmp	x20, x26
  4059d8:	540008e0 	b.eq	405af4 <_ZN7segment11PrintValuesEv+0x134>  // b.none
  4059dc:	b0000079 	adrp	x25, 412000 <_Z19MD5Hash_simdversionPKNSt7__cxx1112basic_stringIcSt11char_traitsIcESaIcEEEP12__Uint32x4_t+0x1000>
  4059e0:	9134e339 	add	x25, x25, #0xd38
  4059e4:	a9025bf5 	stp	x21, x22, [sp, #32]
  4059e8:	aa0003f6 	mov	x22, x0
  4059ec:	a90363f7 	stp	x23, x24, [sp, #48]
  4059f0:	f0000158 	adrp	x24, 430000 <_Znam@GLIBCXX_3.4>
  4059f4:	9101c3f7 	add	x23, sp, #0x70
  4059f8:	91080318 	add	x24, x24, #0x200
  4059fc:	f9002bfb 	str	x27, [sp, #80]
  405a00:	d0fffffb 	adrp	x27, 403000 <main+0xe40>
  405a04:	9119437b 	add	x27, x27, #0x650
  405a08:	1400000e 	b	405a40 <_ZN7segment11PrintValuesEv+0x80>
  405a0c:	39410ea1 	ldrb	w1, [x21, #67]
  405a10:	aa1303e0 	mov	x0, x19
  405a14:	97fff0f3 	bl	401de0 <_ZNSo3putEc@plt>
  405a18:	97fff13e 	bl	401f10 <_ZNSo5flushEv@plt>
  405a1c:	f94033e0 	ldr	x0, [sp, #96]
  405a20:	eb17001f 	cmp	x0, x23
  405a24:	54000080 	b.eq	405a34 <_ZN7segment11PrintValuesEv+0x74>  // b.none
  405a28:	f9403be1 	ldr	x1, [sp, #112]
  405a2c:	91000421 	add	x1, x1, #0x1
  405a30:	97fff158 	bl	401f90 <_ZdlPvm@plt>
  405a34:	91008294 	add	x20, x20, #0x20
  405a38:	eb14035f 	cmp	x26, x20
  405a3c:	54000560 	b.eq	405ae8 <_ZN7segment11PrintValuesEv+0x128>  // b.none
  405a40:	f9400682 	ldr	x2, [x20, #8]
  405a44:	f90033f7 	str	x23, [sp, #96]
  405a48:	910183e0 	add	x0, sp, #0x60
  405a4c:	f9400281 	ldr	x1, [x20]
  405a50:	8b020022 	add	x2, x1, x2
  405a54:	97fff8fc 	bl	403e44 <_ZNSt7__cxx1112basic_stringIcSt11char_traitsIcESaIcEE12_M_constructIPcEEvT_S7_St20forward_iterator_tag.isra.0>
  405a58:	a9460be1 	ldp	x1, x2, [sp, #96]
  405a5c:	aa1803e0 	mov	x0, x24
  405a60:	97fff158 	bl	401fc0 <_ZSt16__ostream_insertIcSt11char_traitsIcEERSt13basic_ostreamIT_T0_ES6_PKS3_l@plt>
  405a64:	aa0003f3 	mov	x19, x0
  405a68:	aa1903e1 	mov	x1, x25
  405a6c:	d28000c2 	mov	x2, #0x6                   	// #6
  405a70:	97fff154 	bl	401fc0 <_ZSt16__ostream_insertIcSt11char_traitsIcEERSt13basic_ostreamIT_T0_ES6_PKS3_l@plt>
  405a74:	910183e1 	add	x1, sp, #0x60
  405a78:	910102c0 	add	x0, x22, #0x40
  405a7c:	940017f5 	bl	40ba50 <_ZNSt8__detail9_Map_baseINSt7__cxx1112basic_stringIcSt11char_traitsIcESaIcEEESt4pairIKS6_iESaIS9_ENS_10_Select1stESt8equal_toIS6_ESt4hashIS6_ENS_18_Mod_range_hashingENS_20_Default_ranged_hashENS_20_Prime_rehash_policyENS_17_Hashtable_traitsILb1ELb0ELb1EEELb1EEixERS8_>
  405a80:	aa0003e1 	mov	x1, x0
  405a84:	9101e2c0 	add	x0, x22, #0x78
  405a88:	940018e6 	bl	40be20 <_ZNSt8__detail9_Map_baseIiSt4pairIKiiESaIS3_ENS_10_Select1stESt8equal_toIiESt4hashIiENS_18_Mod_range_hashingENS_20_Default_ranged_hashENS_20_Prime_rehash_policyENS_17_Hashtable_traitsILb0ELb0ELb1EEELb1EEixERS2_>
  405a8c:	aa0003e1 	mov	x1, x0
  405a90:	aa1303e0 	mov	x0, x19
  405a94:	b9400021 	ldr	w1, [x1]
  405a98:	97fff19e 	bl	402110 <_ZNSolsEi@plt>
  405a9c:	aa0003f3 	mov	x19, x0
  405aa0:	f9400000 	ldr	x0, [x0]
  405aa4:	f85e8001 	ldur	x1, [x0, #-24]
  405aa8:	8b010261 	add	x1, x19, x1
  405aac:	f9407835 	ldr	x21, [x1, #240]
  405ab0:	b40002b5 	cbz	x21, 405b04 <_ZN7segment11PrintValuesEv+0x144>
  405ab4:	3940e2a0 	ldrb	w0, [x21, #56]
  405ab8:	35fffaa0 	cbnz	w0, 405a0c <_ZN7segment11PrintValuesEv+0x4c>
  405abc:	aa1503e0 	mov	x0, x21
  405ac0:	97fff144 	bl	401fd0 <_ZNKSt5ctypeIcE13_M_widen_initEv@plt>
  405ac4:	f94002a0 	ldr	x0, [x21]
  405ac8:	52800141 	mov	w1, #0xa                   	// #10
  405acc:	f9401802 	ldr	x2, [x0, #48]
  405ad0:	eb1b005f 	cmp	x2, x27
  405ad4:	54fff9e0 	b.eq	405a10 <_ZN7segment11PrintValuesEv+0x50>  // b.none
  405ad8:	aa1503e0 	mov	x0, x21
  405adc:	d63f0040 	blr	x2
  405ae0:	12001c01 	and	w1, w0, #0xff
  405ae4:	17ffffcb 	b	405a10 <_ZN7segment11PrintValuesEv+0x50>
  405ae8:	a9425bf5 	ldp	x21, x22, [sp, #32]
  405aec:	a94363f7 	ldp	x23, x24, [sp, #48]
  405af0:	f9402bfb 	ldr	x27, [sp, #80]
  405af4:	a94153f3 	ldp	x19, x20, [sp, #16]
  405af8:	a9446bf9 	ldp	x25, x26, [sp, #64]
  405afc:	a8c87bfd 	ldp	x29, x30, [sp], #128
  405b00:	d65f03c0 	ret
  405b04:	97fff13f 	bl	402000 <_ZSt16__throw_bad_castv@plt>
  405b08:	aa0003f3 	mov	x19, x0
  405b0c:	910183e0 	add	x0, sp, #0x60
  405b10:	97fff134 	bl	401fe0 <_ZNSt7__cxx1112basic_stringIcSt11char_traitsIcESaIcEE10_M_disposeEv@plt>
  405b14:	aa1303e0 	mov	x0, x19
  405b18:	97fff182 	bl	402120 <_Unwind_Resume@plt>
  405b1c:	d503201f 	nop

0000000000405b20 <_ZN5model5printEv>:
  405b20:	a9a87bfd 	stp	x29, x30, [sp, #-384]!
  405b24:	f0000141 	adrp	x1, 430000 <_Znam@GLIBCXX_3.4>
  405b28:	d28001a2 	mov	x2, #0xd                   	// #13
  405b2c:	910003fd 	mov	x29, sp
  405b30:	a90153f3 	stp	x19, x20, [sp, #16]
  405b34:	91080034 	add	x20, x1, #0x200
  405b38:	b0000061 	adrp	x1, 412000 <_Z19MD5Hash_simdversionPKNSt7__cxx1112basic_stringIcSt11char_traitsIcESaIcEEEP12__Uint32x4_t+0x1000>
  405b3c:	91350021 	add	x1, x1, #0xd40
  405b40:	a9025bf5 	stp	x21, x22, [sp, #32]
  405b44:	a90363f7 	stp	x23, x24, [sp, #48]
  405b48:	a9046bf9 	stp	x25, x26, [sp, #64]
  405b4c:	a90573fb 	stp	x27, x28, [sp, #80]
  405b50:	f90033e0 	str	x0, [sp, #96]
  405b54:	aa1403e0 	mov	x0, x20
  405b58:	97fff11a 	bl	401fc0 <_ZSt16__ostream_insertIcSt11char_traitsIcEERSt13basic_ostreamIT_T0_ES6_PKS3_l@plt>
  405b5c:	f0000140 	adrp	x0, 430000 <_Znam@GLIBCXX_3.4>
  405b60:	f9410000 	ldr	x0, [x0, #512]
  405b64:	f85e8000 	ldur	x0, [x0, #-24]
  405b68:	8b000280 	add	x0, x20, x0
  405b6c:	f9407813 	ldr	x19, [x0, #240]
  405b70:	b4005253 	cbz	x19, 4065b8 <_ZN5model5printEv+0xa98>
  405b74:	3940e260 	ldrb	w0, [x19, #56]
  405b78:	34004ea0 	cbz	w0, 40654c <_ZN5model5printEv+0xa2c>
  405b7c:	39410e61 	ldrb	w1, [x19, #67]
  405b80:	f94033f3 	ldr	x19, [sp, #96]
  405b84:	aa1403e0 	mov	x0, x20
  405b88:	97fff096 	bl	401de0 <_ZNSo3putEc@plt>
  405b8c:	9100627a 	add	x26, x19, #0x18
  405b90:	97fff0e0 	bl	401f10 <_ZNSo5flushEv@plt>
  405b94:	f9400e63 	ldr	x3, [x19, #24]
  405b98:	b90073ff 	str	wzr, [sp, #112]
  405b9c:	f9400740 	ldr	x0, [x26, #8]
  405ba0:	d2800001 	mov	x1, #0x0                   	// #0
  405ba4:	eb00007f 	cmp	x3, x0
  405ba8:	54000da0 	b.eq	405d5c <_ZN5model5printEv+0x23c>  // b.none
  405bac:	d291747b 	mov	x27, #0x8ba3                	// #35747
  405bb0:	9105e3f8 	add	x24, sp, #0x178
  405bb4:	f2b745db 	movk	x27, #0xba2e, lsl #16
  405bb8:	f2d45d1b 	movk	x27, #0xa2e8, lsl #32
  405bbc:	f2e5d17b 	movk	x27, #0x2e8b, lsl #48
  405bc0:	8b010420 	add	x0, x1, x1, lsl #1
  405bc4:	910343e2 	add	x2, sp, #0xd0
  405bc8:	910443f7 	add	x23, sp, #0x110
  405bcc:	9101c056 	add	x22, x2, #0x70
  405bd0:	d37ef400 	lsl	x0, x0, #2
  405bd4:	cb010000 	sub	x0, x0, x1
  405bd8:	8b000c61 	add	x1, x3, x0, lsl #3
  405bdc:	f8607873 	ldr	x19, [x3, x0, lsl #3]
  405be0:	f9400435 	ldr	x21, [x1, #8]
  405be4:	eb15027f 	cmp	x19, x21
  405be8:	54000760 	b.eq	405cd4 <_ZN5model5printEv+0x1b4>  // b.none
  405bec:	d503201f 	nop
  405bf0:	aa1303e1 	mov	x1, x19
  405bf4:	910343e0 	add	x0, sp, #0xd0
  405bf8:	940011fa 	bl	40a3e0 <_ZN7segmentC1ERKS_>
  405bfc:	910343e0 	add	x0, sp, #0xd0
  405c00:	97fff93d 	bl	4040f4 <_ZN7segment8PrintSegEv>
  405c04:	f940affc 	ldr	x28, [sp, #344]
  405c08:	b40000fc 	cbz	x28, 405c24 <_ZN5model5printEv+0x104>
  405c0c:	d503201f 	nop
  405c10:	aa1c03e0 	mov	x0, x28
  405c14:	d2800201 	mov	x1, #0x10                  	// #16
  405c18:	f940039c 	ldr	x28, [x28]
  405c1c:	97fff0dd 	bl	401f90 <_ZdlPvm@plt>
  405c20:	b5ffff9c 	cbnz	x28, 405c10 <_ZN5model5printEv+0xf0>
  405c24:	a9548be0 	ldp	x0, x2, [sp, #328]
  405c28:	52800001 	mov	w1, #0x0                   	// #0
  405c2c:	d37df042 	lsl	x2, x2, #3
  405c30:	97fff0b0 	bl	401ef0 <memset@plt>
  405c34:	a95487e0 	ldp	x0, x1, [sp, #328]
  405c38:	a915ffff 	stp	xzr, xzr, [sp, #344]
  405c3c:	eb18001f 	cmp	x0, x24
  405c40:	54000060 	b.eq	405c4c <_ZN5model5printEv+0x12c>  // b.none
  405c44:	d37df021 	lsl	x1, x1, #3
  405c48:	97fff0d2 	bl	401f90 <_ZdlPvm@plt>
  405c4c:	aa1703e0 	mov	x0, x23
  405c50:	9400111c 	bl	40a0c0 <_ZNSt10_HashtableINSt7__cxx1112basic_stringIcSt11char_traitsIcESaIcEEESt4pairIKS5_iESaIS8_ENSt8__detail10_Select1stESt8equal_toIS5_ESt4hashIS5_ENSA_18_Mod_range_hashingENSA_20_Default_ranged_hashENSA_20_Prime_rehash_policyENSA_17_Hashtable_traitsILb1ELb0ELb1EEEE5clearEv>
  405c54:	a95107e0 	ldp	x0, x1, [sp, #272]
  405c58:	eb16001f 	cmp	x0, x22
  405c5c:	54000060 	b.eq	405c68 <_ZN5model5printEv+0x148>  // b.none
  405c60:	d37df021 	lsl	x1, x1, #3
  405c64:	97fff0cb 	bl	401f90 <_ZdlPvm@plt>
  405c68:	f9407be0 	ldr	x0, [sp, #240]
  405c6c:	b4000080 	cbz	x0, 405c7c <_ZN5model5printEv+0x15c>
  405c70:	f94083e1 	ldr	x1, [sp, #256]
  405c74:	cb000021 	sub	x1, x1, x0
  405c78:	97fff0c6 	bl	401f90 <_ZdlPvm@plt>
  405c7c:	a94de7fc 	ldp	x28, x25, [sp, #216]
  405c80:	eb19039f 	cmp	x28, x25
  405c84:	54000180 	b.eq	405cb4 <_ZN5model5printEv+0x194>  // b.none
  405c88:	aa1c03e1 	mov	x1, x28
  405c8c:	f8410420 	ldr	x0, [x1], #16
  405c90:	eb01001f 	cmp	x0, x1
  405c94:	54000080 	b.eq	405ca4 <_ZN5model5printEv+0x184>  // b.none
  405c98:	f9400b81 	ldr	x1, [x28, #16]
  405c9c:	91000421 	add	x1, x1, #0x1
  405ca0:	97fff0bc 	bl	401f90 <_ZdlPvm@plt>
  405ca4:	9100839c 	add	x28, x28, #0x20
  405ca8:	eb1c033f 	cmp	x25, x28
  405cac:	54fffee1 	b.ne	405c88 <_ZN5model5printEv+0x168>  // b.any
  405cb0:	f9406ff9 	ldr	x25, [sp, #216]
  405cb4:	b40000b9 	cbz	x25, 405cc8 <_ZN5model5printEv+0x1a8>
  405cb8:	f94077e1 	ldr	x1, [sp, #232]
  405cbc:	aa1903e0 	mov	x0, x25
  405cc0:	cb190021 	sub	x1, x1, x25
  405cc4:	97fff0b3 	bl	401f90 <_ZdlPvm@plt>
  405cc8:	9102c273 	add	x19, x19, #0xb0
  405ccc:	eb1302bf 	cmp	x21, x19
  405cd0:	54fff901 	b.ne	405bf0 <_ZN5model5printEv+0xd0>  // b.any
  405cd4:	d28000c2 	mov	x2, #0x6                   	// #6
  405cd8:	b0000073 	adrp	x19, 412000 <_Z19MD5Hash_simdversionPKNSt7__cxx1112basic_stringIcSt11char_traitsIcESaIcEEEP12__Uint32x4_t+0x1000>
  405cdc:	aa1403e0 	mov	x0, x20
  405ce0:	9134e261 	add	x1, x19, #0xd38
  405ce4:	97fff0b7 	bl	401fc0 <_ZSt16__ostream_insertIcSt11char_traitsIcEERSt13basic_ostreamIT_T0_ES6_PKS3_l@plt>
  405ce8:	f94033e0 	ldr	x0, [sp, #96]
  405cec:	9101c3e1 	add	x1, sp, #0x70
  405cf0:	9101e000 	add	x0, x0, #0x78
  405cf4:	9400184b 	bl	40be20 <_ZNSt8__detail9_Map_baseIiSt4pairIKiiESaIS3_ENS_10_Select1stESt8equal_toIiESt4hashIiENS_18_Mod_range_hashingENS_20_Default_ranged_hashENS_20_Prime_rehash_policyENS_17_Hashtable_traitsILb0ELb0ELb1EEELb1EEixERS2_>
  405cf8:	aa0003e1 	mov	x1, x0
  405cfc:	aa1403e0 	mov	x0, x20
  405d00:	b9400021 	ldr	w1, [x1]
  405d04:	97fff103 	bl	402110 <_ZNSolsEi@plt>
  405d08:	f9400280 	ldr	x0, [x20]
  405d0c:	f85e8000 	ldur	x0, [x0, #-24]
  405d10:	8b000280 	add	x0, x20, x0
  405d14:	f9407813 	ldr	x19, [x0, #240]
  405d18:	b4004513 	cbz	x19, 4065b8 <_ZN5model5printEv+0xa98>
  405d1c:	3940e260 	ldrb	w0, [x19, #56]
  405d20:	34002c60 	cbz	w0, 4062ac <_ZN5model5printEv+0x78c>
  405d24:	39410e61 	ldrb	w1, [x19, #67]
  405d28:	aa1403e0 	mov	x0, x20
  405d2c:	97fff02d 	bl	401de0 <_ZNSo3putEc@plt>
  405d30:	97fff078 	bl	401f10 <_ZNSo5flushEv@plt>
  405d34:	a9400343 	ldp	x3, x0, [x26]
  405d38:	b94073e2 	ldr	w2, [sp, #112]
  405d3c:	11000442 	add	w2, w2, #0x1
  405d40:	b90073e2 	str	w2, [sp, #112]
  405d44:	cb030000 	sub	x0, x0, x3
  405d48:	93407c41 	sxtw	x1, w2
  405d4c:	9343fc00 	asr	x0, x0, #3
  405d50:	9b1b7c00 	mul	x0, x0, x27
  405d54:	eb00003f 	cmp	x1, x0
  405d58:	54fff343 	b.cc	405bc0 <_ZN5model5printEv+0xa0>  // b.lo, b.ul, b.last
  405d5c:	f94033e0 	ldr	x0, [sp, #96]
  405d60:	9105e3f8 	add	x24, sp, #0x178
  405d64:	9101e3fb 	add	x27, sp, #0x78
  405d68:	a955801a 	ldp	x26, x0, [x0, #344]
  405d6c:	f90037e0 	str	x0, [sp, #104]
  405d70:	eb1a001f 	cmp	x0, x26
  405d74:	54001f40 	b.eq	40615c <_ZN5model5printEv+0x63c>  // b.none
  405d78:	aa1b03e0 	mov	x0, x27
  405d7c:	aa1a03e1 	mov	x1, x26
  405d80:	940012b4 	bl	40a850 <_ZN2PTC1ERKS_>
  405d84:	910443f6 	add	x22, sp, #0x110
  405d88:	a947d7f3 	ldp	x19, x21, [sp, #120]
  405d8c:	910343e0 	add	x0, sp, #0xd0
  405d90:	9101c017 	add	x23, x0, #0x70
  405d94:	eb15027f 	cmp	x19, x21
  405d98:	54000760 	b.eq	405e84 <_ZN5model5printEv+0x364>  // b.none
  405d9c:	d503201f 	nop
  405da0:	aa1303e1 	mov	x1, x19
  405da4:	910343e0 	add	x0, sp, #0xd0
  405da8:	9400118e 	bl	40a3e0 <_ZN7segmentC1ERKS_>
  405dac:	910343e0 	add	x0, sp, #0xd0
  405db0:	97fff8d1 	bl	4040f4 <_ZN7segment8PrintSegEv>
  405db4:	f940aff9 	ldr	x25, [sp, #344]
  405db8:	b40000f9 	cbz	x25, 405dd4 <_ZN5model5printEv+0x2b4>
  405dbc:	d503201f 	nop
  405dc0:	aa1903e0 	mov	x0, x25
  405dc4:	d2800201 	mov	x1, #0x10                  	// #16
  405dc8:	f9400339 	ldr	x25, [x25]
  405dcc:	97fff071 	bl	401f90 <_ZdlPvm@plt>
  405dd0:	b5ffff99 	cbnz	x25, 405dc0 <_ZN5model5printEv+0x2a0>
  405dd4:	a9548be0 	ldp	x0, x2, [sp, #328]
  405dd8:	52800001 	mov	w1, #0x0                   	// #0
  405ddc:	d37df042 	lsl	x2, x2, #3
  405de0:	97fff044 	bl	401ef0 <memset@plt>
  405de4:	a95487e0 	ldp	x0, x1, [sp, #328]
  405de8:	a915ffff 	stp	xzr, xzr, [sp, #344]
  405dec:	eb18001f 	cmp	x0, x24
  405df0:	54000060 	b.eq	405dfc <_ZN5model5printEv+0x2dc>  // b.none
  405df4:	d37df021 	lsl	x1, x1, #3
  405df8:	97fff066 	bl	401f90 <_ZdlPvm@plt>
  405dfc:	aa1603e0 	mov	x0, x22
  405e00:	940010b0 	bl	40a0c0 <_ZNSt10_HashtableINSt7__cxx1112basic_stringIcSt11char_traitsIcESaIcEEESt4pairIKS5_iESaIS8_ENSt8__detail10_Select1stESt8equal_toIS5_ESt4hashIS5_ENSA_18_Mod_range_hashingENSA_20_Default_ranged_hashENSA_20_Prime_rehash_policyENSA_17_Hashtable_traitsILb1ELb0ELb1EEEE5clearEv>
  405e04:	a95107e0 	ldp	x0, x1, [sp, #272]
  405e08:	eb17001f 	cmp	x0, x23
  405e0c:	54000060 	b.eq	405e18 <_ZN5model5printEv+0x2f8>  // b.none
  405e10:	d37df021 	lsl	x1, x1, #3
  405e14:	97fff05f 	bl	401f90 <_ZdlPvm@plt>
  405e18:	f9407be0 	ldr	x0, [sp, #240]
  405e1c:	b4000080 	cbz	x0, 405e2c <_ZN5model5printEv+0x30c>
  405e20:	f94083e1 	ldr	x1, [sp, #256]
  405e24:	cb000021 	sub	x1, x1, x0
  405e28:	97fff05a 	bl	401f90 <_ZdlPvm@plt>
  405e2c:	a94df3f9 	ldp	x25, x28, [sp, #216]
  405e30:	eb1c033f 	cmp	x25, x28
  405e34:	54000180 	b.eq	405e64 <_ZN5model5printEv+0x344>  // b.none
  405e38:	aa1903e1 	mov	x1, x25
  405e3c:	f8410420 	ldr	x0, [x1], #16
  405e40:	eb01001f 	cmp	x0, x1
  405e44:	54000080 	b.eq	405e54 <_ZN5model5printEv+0x334>  // b.none
  405e48:	f9400b21 	ldr	x1, [x25, #16]
  405e4c:	91000421 	add	x1, x1, #0x1
  405e50:	97fff050 	bl	401f90 <_ZdlPvm@plt>
  405e54:	91008339 	add	x25, x25, #0x20
  405e58:	eb19039f 	cmp	x28, x25
  405e5c:	54fffee1 	b.ne	405e38 <_ZN5model5printEv+0x318>  // b.any
  405e60:	f9406ffc 	ldr	x28, [sp, #216]
  405e64:	b40000bc 	cbz	x28, 405e78 <_ZN5model5printEv+0x358>
  405e68:	f94077e1 	ldr	x1, [sp, #232]
  405e6c:	aa1c03e0 	mov	x0, x28
  405e70:	cb1c0021 	sub	x1, x1, x28
  405e74:	97fff047 	bl	401f90 <_ZdlPvm@plt>
  405e78:	9102c273 	add	x19, x19, #0xb0
  405e7c:	eb1302bf 	cmp	x21, x19
  405e80:	54fff901 	b.ne	405da0 <_ZN5model5printEv+0x280>  // b.any
  405e84:	b0000073 	adrp	x19, 412000 <_Z19MD5Hash_simdversionPKNSt7__cxx1112basic_stringIcSt11char_traitsIcESaIcEEEP12__Uint32x4_t+0x1000>
  405e88:	aa1403e0 	mov	x0, x20
  405e8c:	9134e261 	add	x1, x19, #0xd38
  405e90:	d28000c2 	mov	x2, #0x6                   	// #6
  405e94:	97fff04b 	bl	401fc0 <_ZSt16__ostream_insertIcSt11char_traitsIcEERSt13basic_ostreamIT_T0_ES6_PKS3_l@plt>
  405e98:	aa1b03e1 	mov	x1, x27
  405e9c:	910343e0 	add	x0, sp, #0xd0
  405ea0:	9400126c 	bl	40a850 <_ZN2PTC1ERKS_>
  405ea4:	f94033ee 	ldr	x14, [sp, #96]
  405ea8:	910343e1 	add	x1, sp, #0xd0
  405eac:	aa0e03e0 	mov	x0, x14
  405eb0:	97fff81c 	bl	403f20 <_ZN5model6FindPTE2PT>
  405eb4:	2a0003e2 	mov	w2, w0
  405eb8:	9101d3e1 	add	x1, sp, #0x74
  405ebc:	9101e1c0 	add	x0, x14, #0x78
  405ec0:	b90077e2 	str	w2, [sp, #116]
  405ec4:	9400179b 	bl	40bd30 <_ZNSt8__detail9_Map_baseIiSt4pairIKiiESaIS3_ENS_10_Select1stESt8equal_toIiESt4hashIiENS_18_Mod_range_hashingENS_20_Default_ranged_hashENS_20_Prime_rehash_policyENS_17_Hashtable_traitsILb0ELb0ELb1EEELb1EEixEOi>
  405ec8:	aa0003e1 	mov	x1, x0
  405ecc:	aa1403e0 	mov	x0, x20
  405ed0:	b9400021 	ldr	w1, [x1]
  405ed4:	97fff08f 	bl	402110 <_ZNSolsEi@plt>
  405ed8:	f94087e0 	ldr	x0, [sp, #264]
  405edc:	b4000080 	cbz	x0, 405eec <_ZN5model5printEv+0x3cc>
  405ee0:	f9408fe1 	ldr	x1, [sp, #280]
  405ee4:	cb000021 	sub	x1, x1, x0
  405ee8:	97fff02a 	bl	401f90 <_ZdlPvm@plt>
  405eec:	f9407be0 	ldr	x0, [sp, #240]
  405ef0:	b4000080 	cbz	x0, 405f00 <_ZN5model5printEv+0x3e0>
  405ef4:	f94083e1 	ldr	x1, [sp, #256]
  405ef8:	cb000021 	sub	x1, x1, x0
  405efc:	97fff025 	bl	401f90 <_ZdlPvm@plt>
  405f00:	a94d5bf5 	ldp	x21, x22, [sp, #208]
  405f04:	eb1602bf 	cmp	x21, x22
  405f08:	54000700 	b.eq	405fe8 <_ZN5model5printEv+0x4c8>  // b.none
  405f0c:	d503201f 	nop
  405f10:	f94046b3 	ldr	x19, [x21, #136]
  405f14:	b40000d3 	cbz	x19, 405f2c <_ZN5model5printEv+0x40c>
  405f18:	aa1303e0 	mov	x0, x19
  405f1c:	d2800201 	mov	x1, #0x10                  	// #16
  405f20:	f9400273 	ldr	x19, [x19]
  405f24:	97fff01b 	bl	401f90 <_ZdlPvm@plt>
  405f28:	b5ffff93 	cbnz	x19, 405f18 <_ZN5model5printEv+0x3f8>
  405f2c:	a9478aa0 	ldp	x0, x2, [x21, #120]
  405f30:	52800001 	mov	w1, #0x0                   	// #0
  405f34:	d37df042 	lsl	x2, x2, #3
  405f38:	97ffefee 	bl	401ef0 <memset@plt>
  405f3c:	a94786a0 	ldp	x0, x1, [x21, #120]
  405f40:	9102a2a2 	add	x2, x21, #0xa8
  405f44:	a908febf 	stp	xzr, xzr, [x21, #136]
  405f48:	eb02001f 	cmp	x0, x2
  405f4c:	54000060 	b.eq	405f58 <_ZN5model5printEv+0x438>  // b.none
  405f50:	d37df021 	lsl	x1, x1, #3
  405f54:	97fff00f 	bl	401f90 <_ZdlPvm@plt>
  405f58:	910102a0 	add	x0, x21, #0x40
  405f5c:	94001059 	bl	40a0c0 <_ZNSt10_HashtableINSt7__cxx1112basic_stringIcSt11char_traitsIcESaIcEEESt4pairIKS5_iESaIS8_ENSt8__detail10_Select1stESt8equal_toIS5_ESt4hashIS5_ENSA_18_Mod_range_hashingENSA_20_Default_ranged_hashENSA_20_Prime_rehash_policyENSA_17_Hashtable_traitsILb1ELb0ELb1EEEE5clearEv>
  405f60:	a94406a0 	ldp	x0, x1, [x21, #64]
  405f64:	9101c2a2 	add	x2, x21, #0x70
  405f68:	eb02001f 	cmp	x0, x2
  405f6c:	54000060 	b.eq	405f78 <_ZN5model5printEv+0x458>  // b.none
  405f70:	d37df021 	lsl	x1, x1, #3
  405f74:	97fff007 	bl	401f90 <_ZdlPvm@plt>
  405f78:	f94012a0 	ldr	x0, [x21, #32]
  405f7c:	b4000080 	cbz	x0, 405f8c <_ZN5model5printEv+0x46c>
  405f80:	f9401aa1 	ldr	x1, [x21, #48]
  405f84:	cb000021 	sub	x1, x1, x0
  405f88:	97fff002 	bl	401f90 <_ZdlPvm@plt>
  405f8c:	a940deb3 	ldp	x19, x23, [x21, #8]
  405f90:	eb17027f 	cmp	x19, x23
  405f94:	54000180 	b.eq	405fc4 <_ZN5model5printEv+0x4a4>  // b.none
  405f98:	aa1303e1 	mov	x1, x19
  405f9c:	f8410420 	ldr	x0, [x1], #16
  405fa0:	eb01001f 	cmp	x0, x1
  405fa4:	54000080 	b.eq	405fb4 <_ZN5model5printEv+0x494>  // b.none
  405fa8:	f9400a61 	ldr	x1, [x19, #16]
  405fac:	91000421 	add	x1, x1, #0x1
  405fb0:	97ffeff8 	bl	401f90 <_ZdlPvm@plt>
  405fb4:	91008273 	add	x19, x19, #0x20
  405fb8:	eb1302ff 	cmp	x23, x19
  405fbc:	54fffee1 	b.ne	405f98 <_ZN5model5printEv+0x478>  // b.any
  405fc0:	f94006b7 	ldr	x23, [x21, #8]
  405fc4:	b40000b7 	cbz	x23, 405fd8 <_ZN5model5printEv+0x4b8>
  405fc8:	f9400ea1 	ldr	x1, [x21, #24]
  405fcc:	aa1703e0 	mov	x0, x23
  405fd0:	cb170021 	sub	x1, x1, x23
  405fd4:	97ffefef 	bl	401f90 <_ZdlPvm@plt>
  405fd8:	9102c2b5 	add	x21, x21, #0xb0
  405fdc:	eb1502df 	cmp	x22, x21
  405fe0:	54fff981 	b.ne	405f10 <_ZN5model5printEv+0x3f0>  // b.any
  405fe4:	f9406bf6 	ldr	x22, [sp, #208]
  405fe8:	b40000b6 	cbz	x22, 405ffc <_ZN5model5printEv+0x4dc>
  405fec:	f94073e1 	ldr	x1, [sp, #224]
  405ff0:	aa1603e0 	mov	x0, x22
  405ff4:	cb160021 	sub	x1, x1, x22
  405ff8:	97ffefe6 	bl	401f90 <_ZdlPvm@plt>
  405ffc:	f9400280 	ldr	x0, [x20]
  406000:	f85e8000 	ldur	x0, [x0, #-24]
  406004:	8b000280 	add	x0, x20, x0
  406008:	f9407813 	ldr	x19, [x0, #240]
  40600c:	b4002d53 	cbz	x19, 4065b4 <_ZN5model5printEv+0xa94>
  406010:	3940e260 	ldrb	w0, [x19, #56]
  406014:	34001660 	cbz	w0, 4062e0 <_ZN5model5printEv+0x7c0>
  406018:	39410e61 	ldrb	w1, [x19, #67]
  40601c:	aa1403e0 	mov	x0, x20
  406020:	97ffef70 	bl	401de0 <_ZNSo3putEc@plt>
  406024:	97ffefbb 	bl	401f10 <_ZNSo5flushEv@plt>
  406028:	f9405be0 	ldr	x0, [sp, #176]
  40602c:	b4000080 	cbz	x0, 40603c <_ZN5model5printEv+0x51c>
  406030:	f94063e1 	ldr	x1, [sp, #192]
  406034:	cb000021 	sub	x1, x1, x0
  406038:	97ffefd6 	bl	401f90 <_ZdlPvm@plt>
  40603c:	f9404fe0 	ldr	x0, [sp, #152]
  406040:	b4000080 	cbz	x0, 406050 <_ZN5model5printEv+0x530>
  406044:	f94057e1 	ldr	x1, [sp, #168]
  406048:	cb000021 	sub	x1, x1, x0
  40604c:	97ffefd1 	bl	401f90 <_ZdlPvm@plt>
  406050:	a947dbf5 	ldp	x21, x22, [sp, #120]
  406054:	eb1602bf 	cmp	x21, x22
  406058:	54000700 	b.eq	406138 <_ZN5model5printEv+0x618>  // b.none
  40605c:	d503201f 	nop
  406060:	f94046b3 	ldr	x19, [x21, #136]
  406064:	b40000d3 	cbz	x19, 40607c <_ZN5model5printEv+0x55c>
  406068:	aa1303e0 	mov	x0, x19
  40606c:	d2800201 	mov	x1, #0x10                  	// #16
  406070:	f9400273 	ldr	x19, [x19]
  406074:	97ffefc7 	bl	401f90 <_ZdlPvm@plt>
  406078:	b5ffff93 	cbnz	x19, 406068 <_ZN5model5printEv+0x548>
  40607c:	a9478aa0 	ldp	x0, x2, [x21, #120]
  406080:	52800001 	mov	w1, #0x0                   	// #0
  406084:	d37df042 	lsl	x2, x2, #3
  406088:	97ffef9a 	bl	401ef0 <memset@plt>
  40608c:	a94786a0 	ldp	x0, x1, [x21, #120]
  406090:	9102a2a2 	add	x2, x21, #0xa8
  406094:	a908febf 	stp	xzr, xzr, [x21, #136]
  406098:	eb02001f 	cmp	x0, x2
  40609c:	54000060 	b.eq	4060a8 <_ZN5model5printEv+0x588>  // b.none
  4060a0:	d37df021 	lsl	x1, x1, #3
  4060a4:	97ffefbb 	bl	401f90 <_ZdlPvm@plt>
  4060a8:	910102a0 	add	x0, x21, #0x40
  4060ac:	94001005 	bl	40a0c0 <_ZNSt10_HashtableINSt7__cxx1112basic_stringIcSt11char_traitsIcESaIcEEESt4pairIKS5_iESaIS8_ENSt8__detail10_Select1stESt8equal_toIS5_ESt4hashIS5_ENSA_18_Mod_range_hashingENSA_20_Default_ranged_hashENSA_20_Prime_rehash_policyENSA_17_Hashtable_traitsILb1ELb0ELb1EEEE5clearEv>
  4060b0:	a94406a0 	ldp	x0, x1, [x21, #64]
  4060b4:	9101c2a2 	add	x2, x21, #0x70
  4060b8:	eb02001f 	cmp	x0, x2
  4060bc:	54000060 	b.eq	4060c8 <_ZN5model5printEv+0x5a8>  // b.none
  4060c0:	d37df021 	lsl	x1, x1, #3
  4060c4:	97ffefb3 	bl	401f90 <_ZdlPvm@plt>
  4060c8:	f94012a0 	ldr	x0, [x21, #32]
  4060cc:	b4000080 	cbz	x0, 4060dc <_ZN5model5printEv+0x5bc>
  4060d0:	f9401aa1 	ldr	x1, [x21, #48]
  4060d4:	cb000021 	sub	x1, x1, x0
  4060d8:	97ffefae 	bl	401f90 <_ZdlPvm@plt>
  4060dc:	a940deb3 	ldp	x19, x23, [x21, #8]
  4060e0:	eb17027f 	cmp	x19, x23
  4060e4:	54000180 	b.eq	406114 <_ZN5model5printEv+0x5f4>  // b.none
  4060e8:	aa1303e1 	mov	x1, x19
  4060ec:	f8410420 	ldr	x0, [x1], #16
  4060f0:	eb01001f 	cmp	x0, x1
  4060f4:	54000080 	b.eq	406104 <_ZN5model5printEv+0x5e4>  // b.none
  4060f8:	f9400a61 	ldr	x1, [x19, #16]
  4060fc:	91000421 	add	x1, x1, #0x1
  406100:	97ffefa4 	bl	401f90 <_ZdlPvm@plt>
  406104:	91008273 	add	x19, x19, #0x20
  406108:	eb1302ff 	cmp	x23, x19
  40610c:	54fffee1 	b.ne	4060e8 <_ZN5model5printEv+0x5c8>  // b.any
  406110:	f94006b7 	ldr	x23, [x21, #8]
  406114:	b40000b7 	cbz	x23, 406128 <_ZN5model5printEv+0x608>
  406118:	f9400ea1 	ldr	x1, [x21, #24]
  40611c:	aa1703e0 	mov	x0, x23
  406120:	cb170021 	sub	x1, x1, x23
  406124:	97ffef9b 	bl	401f90 <_ZdlPvm@plt>
  406128:	9102c2b5 	add	x21, x21, #0xb0
  40612c:	eb1502df 	cmp	x22, x21
  406130:	54fff981 	b.ne	406060 <_ZN5model5printEv+0x540>  // b.any
  406134:	f9403ff6 	ldr	x22, [sp, #120]
  406138:	b40000b6 	cbz	x22, 40614c <_ZN5model5printEv+0x62c>
  40613c:	f94047e1 	ldr	x1, [sp, #136]
  406140:	aa1603e0 	mov	x0, x22
  406144:	cb160021 	sub	x1, x1, x22
  406148:	97ffef92 	bl	401f90 <_ZdlPvm@plt>
  40614c:	f94037e0 	ldr	x0, [sp, #104]
  406150:	9101635a 	add	x26, x26, #0x58
  406154:	eb1a001f 	cmp	x0, x26
  406158:	54ffe101 	b.ne	405d78 <_ZN5model5printEv+0x258>  // b.any
  40615c:	aa1403e0 	mov	x0, x20
  406160:	90000061 	adrp	x1, 412000 <_Z19MD5Hash_simdversionPKNSt7__cxx1112basic_stringIcSt11char_traitsIcESaIcEEEP12__Uint32x4_t+0x1000>
  406164:	d2800122 	mov	x2, #0x9                   	// #9
  406168:	91354021 	add	x1, x1, #0xd50
  40616c:	97ffef95 	bl	401fc0 <_ZSt16__ostream_insertIcSt11char_traitsIcEERSt13basic_ostreamIT_T0_ES6_PKS3_l@plt>
  406170:	d0000140 	adrp	x0, 430000 <_Znam@GLIBCXX_3.4>
  406174:	f9410000 	ldr	x0, [x0, #512]
  406178:	f85e8000 	ldur	x0, [x0, #-24]
  40617c:	8b000280 	add	x0, x20, x0
  406180:	f9407813 	ldr	x19, [x0, #240]
  406184:	b40021b3 	cbz	x19, 4065b8 <_ZN5model5printEv+0xa98>
  406188:	3940e260 	ldrb	w0, [x19, #56]
  40618c:	34001fa0 	cbz	w0, 406580 <_ZN5model5printEv+0xa60>
  406190:	39410e61 	ldrb	w1, [x19, #67]
  406194:	f94033f3 	ldr	x19, [sp, #96]
  406198:	aa1403e0 	mov	x0, x20
  40619c:	97ffef11 	bl	401de0 <_ZNSo3putEc@plt>
  4061a0:	9100c275 	add	x21, x19, #0x30
  4061a4:	97ffef5b 	bl	401f10 <_ZNSo5flushEv@plt>
  4061a8:	f9401a64 	ldr	x4, [x19, #48]
  4061ac:	b90077ff 	str	wzr, [sp, #116]
  4061b0:	f94006a0 	ldr	x0, [x21, #8]
  4061b4:	eb04001f 	cmp	x0, x4
  4061b8:	54000ae0 	b.eq	406314 <_ZN5model5printEv+0x7f4>  // b.none
