
main_O1:     file format elf64-littleaarch64


Disassembly of section .init:

0000000000401eb8 <_init>:
  401eb8:	d503201f 	nop
  401ebc:	a9bf7bfd 	stp	x29, x30, [sp, #-16]!
  401ec0:	910003fd 	mov	x29, sp
  401ec4:	94000120 	bl	402344 <call_weak_fn>
  401ec8:	a8c17bfd 	ldp	x29, x30, [sp], #16
  401ecc:	d65f03c0 	ret

Disassembly of section .plt:

0000000000401ed0 <.plt>:
  401ed0:	a9bf7bf0 	stp	x16, x30, [sp, #-16]!
  401ed4:	d0000170 	adrp	x16, 42f000 <__FRAME_END__+0x1a654>
  401ed8:	f947fe11 	ldr	x17, [x16, #4088]
  401edc:	913fe210 	add	x16, x16, #0xff8
  401ee0:	d61f0220 	br	x17
  401ee4:	d503201f 	nop
  401ee8:	d503201f 	nop
  401eec:	d503201f 	nop

0000000000401ef0 <_Znam@plt>:
  401ef0:	f0000170 	adrp	x16, 430000 <_Znam@GLIBCXX_3.4>
  401ef4:	f9400211 	ldr	x17, [x16]
  401ef8:	91000210 	add	x16, x16, #0x0
  401efc:	d61f0220 	br	x17

0000000000401f00 <_ZNSo3putEc@plt>:
  401f00:	f0000170 	adrp	x16, 430000 <_Znam@GLIBCXX_3.4>
  401f04:	f9400611 	ldr	x17, [x16, #8]
  401f08:	91002210 	add	x16, x16, #0x8
  401f0c:	d61f0220 	br	x17

0000000000401f10 <_ZNSt6chrono3_V212system_clock3nowEv@plt>:
  401f10:	f0000170 	adrp	x16, 430000 <_Znam@GLIBCXX_3.4>
  401f14:	f9400a11 	ldr	x17, [x16, #16]
  401f18:	91004210 	add	x16, x16, #0x10
  401f1c:	d61f0220 	br	x17

0000000000401f20 <memcpy@plt>:
  401f20:	f0000170 	adrp	x16, 430000 <_Znam@GLIBCXX_3.4>
  401f24:	f9400e11 	ldr	x17, [x16, #24]
  401f28:	91006210 	add	x16, x16, #0x18
  401f2c:	d61f0220 	br	x17

0000000000401f30 <_ZSt11_Hash_bytesPKvmm@plt>:
  401f30:	f0000170 	adrp	x16, 430000 <_Znam@GLIBCXX_3.4>
  401f34:	f9401211 	ldr	x17, [x16, #32]
  401f38:	91008210 	add	x16, x16, #0x20
  401f3c:	d61f0220 	br	x17

0000000000401f40 <_ZNSdD2Ev@plt>:
  401f40:	f0000170 	adrp	x16, 430000 <_Znam@GLIBCXX_3.4>
  401f44:	f9401611 	ldr	x17, [x16, #40]
  401f48:	9100a210 	add	x16, x16, #0x28
  401f4c:	d61f0220 	br	x17

0000000000401f50 <_ZNSt13basic_filebufIcSt11char_traitsIcEE5closeEv@plt>:
  401f50:	f0000170 	adrp	x16, 430000 <_Znam@GLIBCXX_3.4>
  401f54:	f9401a11 	ldr	x17, [x16, #48]
  401f58:	9100c210 	add	x16, x16, #0x30
  401f5c:	d61f0220 	br	x17

0000000000401f60 <_ZNSt14basic_ifstreamIcSt11char_traitsIcEED1Ev@plt>:
  401f60:	f0000170 	adrp	x16, 430000 <_Znam@GLIBCXX_3.4>
  401f64:	f9401e11 	ldr	x17, [x16, #56]
  401f68:	9100e210 	add	x16, x16, #0x38
  401f6c:	d61f0220 	br	x17

0000000000401f70 <_ZNKSt7__cxx1112basic_stringIcSt11char_traitsIcESaIcEE7compareEPKc@plt>:
  401f70:	f0000170 	adrp	x16, 430000 <_Znam@GLIBCXX_3.4>
  401f74:	f9402211 	ldr	x17, [x16, #64]
  401f78:	91010210 	add	x16, x16, #0x40
  401f7c:	d61f0220 	br	x17

0000000000401f80 <_ZNSt8ios_baseC2Ev@plt>:
  401f80:	f0000170 	adrp	x16, 430000 <_Znam@GLIBCXX_3.4>
  401f84:	f9402611 	ldr	x17, [x16, #72]
  401f88:	91012210 	add	x16, x16, #0x48
  401f8c:	d61f0220 	br	x17

0000000000401f90 <strlen@plt>:
  401f90:	f0000170 	adrp	x16, 430000 <_Znam@GLIBCXX_3.4>
  401f94:	f9402a11 	ldr	x17, [x16, #80]
  401f98:	91014210 	add	x16, x16, #0x50
  401f9c:	d61f0220 	br	x17

0000000000401fa0 <_ZNSt7__cxx1112basic_stringIcSt11char_traitsIcESaIcEE9_M_appendEPKcm@plt>:
  401fa0:	f0000170 	adrp	x16, 430000 <_Znam@GLIBCXX_3.4>
  401fa4:	f9402e11 	ldr	x17, [x16, #88]
  401fa8:	91016210 	add	x16, x16, #0x58
  401fac:	d61f0220 	br	x17

0000000000401fb0 <_ZNSt8ios_baseD2Ev@plt>:
  401fb0:	f0000170 	adrp	x16, 430000 <_Znam@GLIBCXX_3.4>
  401fb4:	f9403211 	ldr	x17, [x16, #96]
  401fb8:	91018210 	add	x16, x16, #0x60
  401fbc:	d61f0220 	br	x17

0000000000401fc0 <_ZSt17__throw_bad_allocv@plt>:
  401fc0:	f0000170 	adrp	x16, 430000 <_Znam@GLIBCXX_3.4>
  401fc4:	f9403611 	ldr	x17, [x16, #104]
  401fc8:	9101a210 	add	x16, x16, #0x68
  401fcc:	d61f0220 	br	x17

0000000000401fd0 <__cxa_begin_catch@plt>:
  401fd0:	f0000170 	adrp	x16, 430000 <_Znam@GLIBCXX_3.4>
  401fd4:	f9403a11 	ldr	x17, [x16, #112]
  401fd8:	9101c210 	add	x16, x16, #0x70
  401fdc:	d61f0220 	br	x17

0000000000401fe0 <_ZSt4endlIcSt11char_traitsIcEERSt13basic_ostreamIT_T0_ES6_@plt>:
  401fe0:	f0000170 	adrp	x16, 430000 <_Znam@GLIBCXX_3.4>
  401fe4:	f9403e11 	ldr	x17, [x16, #120]
  401fe8:	9101e210 	add	x16, x16, #0x78
  401fec:	d61f0220 	br	x17

0000000000401ff0 <memcmp@plt>:
  401ff0:	f0000170 	adrp	x16, 430000 <_Znam@GLIBCXX_3.4>
  401ff4:	f9404211 	ldr	x17, [x16, #128]
  401ff8:	91020210 	add	x16, x16, #0x80
  401ffc:	d61f0220 	br	x17

0000000000402000 <_ZSt20__throw_length_errorPKc@plt>:
  402000:	d0000170 	adrp	x16, 430000 <_Znam@GLIBCXX_3.4>
  402004:	f9404611 	ldr	x17, [x16, #136]
  402008:	91022210 	add	x16, x16, #0x88
  40200c:	d61f0220 	br	x17

0000000000402010 <_ZNSt7__cxx1112basic_stringIcSt11char_traitsIcESaIcEE9_M_assignERKS4_@plt>:
  402010:	d0000170 	adrp	x16, 430000 <_Znam@GLIBCXX_3.4>
  402014:	f9404a11 	ldr	x17, [x16, #144]
  402018:	91024210 	add	x16, x16, #0x90
  40201c:	d61f0220 	br	x17

0000000000402020 <memset@plt>:
  402020:	d0000170 	adrp	x16, 430000 <_Znam@GLIBCXX_3.4>
  402024:	f9404e11 	ldr	x17, [x16, #152]
  402028:	91026210 	add	x16, x16, #0x98
  40202c:	d61f0220 	br	x17

0000000000402030 <_ZNSo9_M_insertImEERSoT_@plt>:
  402030:	d0000170 	adrp	x16, 430000 <_Znam@GLIBCXX_3.4>
  402034:	f9405211 	ldr	x17, [x16, #160]
  402038:	91028210 	add	x16, x16, #0xa0
  40203c:	d61f0220 	br	x17

0000000000402040 <_ZNSo5flushEv@plt>:
  402040:	d0000170 	adrp	x16, 430000 <_Znam@GLIBCXX_3.4>
  402044:	f9405611 	ldr	x17, [x16, #168]
  402048:	9102a210 	add	x16, x16, #0xa8
  40204c:	d61f0220 	br	x17

0000000000402050 <_ZSt19__throw_logic_errorPKc@plt>:
  402050:	d0000170 	adrp	x16, 430000 <_Znam@GLIBCXX_3.4>
  402054:	f9405a11 	ldr	x17, [x16, #176]
  402058:	9102c210 	add	x16, x16, #0xb0
  40205c:	d61f0220 	br	x17

0000000000402060 <_ZNSt7__cxx1112basic_stringIcSt11char_traitsIcESaIcEE4swapERS4_@plt>:
  402060:	d0000170 	adrp	x16, 430000 <_Znam@GLIBCXX_3.4>
  402064:	f9405e11 	ldr	x17, [x16, #184]
  402068:	9102e210 	add	x16, x16, #0xb8
  40206c:	d61f0220 	br	x17

0000000000402070 <__libc_start_main@plt>:
  402070:	d0000170 	adrp	x16, 430000 <_Znam@GLIBCXX_3.4>
  402074:	f9406211 	ldr	x17, [x16, #192]
  402078:	91030210 	add	x16, x16, #0xc0
  40207c:	d61f0220 	br	x17

0000000000402080 <_ZNSt7__cxx1118basic_stringstreamIcSt11char_traitsIcESaIcEED1Ev@plt>:
  402080:	d0000170 	adrp	x16, 430000 <_Znam@GLIBCXX_3.4>
  402084:	f9406611 	ldr	x17, [x16, #200]
  402088:	91032210 	add	x16, x16, #0xc8
  40208c:	d61f0220 	br	x17

0000000000402090 <_ZNSt13basic_filebufIcSt11char_traitsIcEE4openEPKcSt13_Ios_Openmode@plt>:
  402090:	d0000170 	adrp	x16, 430000 <_Znam@GLIBCXX_3.4>
  402094:	f9406a11 	ldr	x17, [x16, #208]
  402098:	91034210 	add	x16, x16, #0xd0
  40209c:	d61f0220 	br	x17

00000000004020a0 <_ZStlsISt11char_traitsIcEERSt13basic_ostreamIcT_ES5_PKc@plt>:
  4020a0:	d0000170 	adrp	x16, 430000 <_Znam@GLIBCXX_3.4>
  4020a4:	f9406e11 	ldr	x17, [x16, #216]
  4020a8:	91036210 	add	x16, x16, #0xd8
  4020ac:	d61f0220 	br	x17

00000000004020b0 <_Znwm@plt>:
  4020b0:	d0000170 	adrp	x16, 430000 <_Znam@GLIBCXX_3.4>
  4020b4:	f9407211 	ldr	x17, [x16, #224]
  4020b8:	91038210 	add	x16, x16, #0xe0
  4020bc:	d61f0220 	br	x17

00000000004020c0 <_ZdlPvm@plt>:
  4020c0:	d0000170 	adrp	x16, 430000 <_Znam@GLIBCXX_3.4>
  4020c4:	f9407611 	ldr	x17, [x16, #232]
  4020c8:	9103a210 	add	x16, x16, #0xe8
  4020cc:	d61f0220 	br	x17

00000000004020d0 <_ZNSt13basic_filebufIcSt11char_traitsIcEEC1Ev@plt>:
  4020d0:	d0000170 	adrp	x16, 430000 <_Znam@GLIBCXX_3.4>
  4020d4:	f9407a11 	ldr	x17, [x16, #240]
  4020d8:	9103c210 	add	x16, x16, #0xf0
  4020dc:	d61f0220 	br	x17

00000000004020e0 <__cxa_atexit@plt>:
  4020e0:	d0000170 	adrp	x16, 430000 <_Znam@GLIBCXX_3.4>
  4020e4:	f9407e11 	ldr	x17, [x16, #248]
  4020e8:	9103e210 	add	x16, x16, #0xf8
  4020ec:	d61f0220 	br	x17

00000000004020f0 <_ZSt16__ostream_insertIcSt11char_traitsIcEERSt13basic_ostreamIT_T0_ES6_PKS3_l@plt>:
  4020f0:	d0000170 	adrp	x16, 430000 <_Znam@GLIBCXX_3.4>
  4020f4:	f9408211 	ldr	x17, [x16, #256]
  4020f8:	91040210 	add	x16, x16, #0x100
  4020fc:	d61f0220 	br	x17

0000000000402100 <_ZNKSt5ctypeIcE13_M_widen_initEv@plt>:
  402100:	d0000170 	adrp	x16, 430000 <_Znam@GLIBCXX_3.4>
  402104:	f9408611 	ldr	x17, [x16, #264]
  402108:	91042210 	add	x16, x16, #0x108
  40210c:	d61f0220 	br	x17

0000000000402110 <_ZNSt7__cxx1112basic_stringIcSt11char_traitsIcESaIcEE10_M_disposeEv@plt>:
  402110:	d0000170 	adrp	x16, 430000 <_Znam@GLIBCXX_3.4>
  402114:	f9408a11 	ldr	x17, [x16, #272]
  402118:	91044210 	add	x16, x16, #0x110
  40211c:	d61f0220 	br	x17

0000000000402120 <memmove@plt>:
  402120:	d0000170 	adrp	x16, 430000 <_Znam@GLIBCXX_3.4>
  402124:	f9408e11 	ldr	x17, [x16, #280]
  402128:	91046210 	add	x16, x16, #0x118
  40212c:	d61f0220 	br	x17

0000000000402130 <_ZSt16__throw_bad_castv@plt>:
  402130:	d0000170 	adrp	x16, 430000 <_Znam@GLIBCXX_3.4>
  402134:	f9409211 	ldr	x17, [x16, #288]
  402138:	91048210 	add	x16, x16, #0x120
  40213c:	d61f0220 	br	x17

0000000000402140 <isalpha@plt>:
  402140:	d0000170 	adrp	x16, 430000 <_Znam@GLIBCXX_3.4>
  402144:	f9409611 	ldr	x17, [x16, #296]
  402148:	9104a210 	add	x16, x16, #0x128
  40214c:	d61f0220 	br	x17

0000000000402150 <_ZStrsIcSt11char_traitsIcESaIcEERSt13basic_istreamIT_T0_ES7_RNSt7__cxx1112basic_stringIS4_S5_T1_EE@plt>:
  402150:	d0000170 	adrp	x16, 430000 <_Znam@GLIBCXX_3.4>
  402154:	f9409a11 	ldr	x17, [x16, #304]
  402158:	9104c210 	add	x16, x16, #0x130
  40215c:	d61f0220 	br	x17

0000000000402160 <_ZdaPv@plt>:
  402160:	d0000170 	adrp	x16, 430000 <_Znam@GLIBCXX_3.4>
  402164:	f9409e11 	ldr	x17, [x16, #312]
  402168:	9104e210 	add	x16, x16, #0x138
  40216c:	d61f0220 	br	x17

0000000000402170 <_ZNKSt8__detail20_Prime_rehash_policy14_M_need_rehashEmmm@plt>:
  402170:	d0000170 	adrp	x16, 430000 <_Znam@GLIBCXX_3.4>
  402174:	f940a211 	ldr	x17, [x16, #320]
  402178:	91050210 	add	x16, x16, #0x140
  40217c:	d61f0220 	br	x17

0000000000402180 <_ZNSt9basic_iosIcSt11char_traitsIcEE4initEPSt15basic_streambufIcS1_E@plt>:
  402180:	d0000170 	adrp	x16, 430000 <_Znam@GLIBCXX_3.4>
  402184:	f940a611 	ldr	x17, [x16, #328]
  402188:	91052210 	add	x16, x16, #0x148
  40218c:	d61f0220 	br	x17

0000000000402190 <_ZNSt7__cxx1112basic_stringIcSt11char_traitsIcESaIcEEC1EPKcRKS3_@plt>:
  402190:	d0000170 	adrp	x16, 430000 <_Znam@GLIBCXX_3.4>
  402194:	f940aa11 	ldr	x17, [x16, #336]
  402198:	91054210 	add	x16, x16, #0x150
  40219c:	d61f0220 	br	x17

00000000004021a0 <_ZNSt6localeD1Ev@plt>:
  4021a0:	d0000170 	adrp	x16, 430000 <_Znam@GLIBCXX_3.4>
  4021a4:	f940ae11 	ldr	x17, [x16, #344]
  4021a8:	91056210 	add	x16, x16, #0x158
  4021ac:	d61f0220 	br	x17

00000000004021b0 <_ZSt20__throw_out_of_rangePKc@plt>:
  4021b0:	d0000170 	adrp	x16, 430000 <_Znam@GLIBCXX_3.4>
  4021b4:	f940b211 	ldr	x17, [x16, #352]
  4021b8:	91058210 	add	x16, x16, #0x160
  4021bc:	d61f0220 	br	x17

00000000004021c0 <__cxa_rethrow@plt>:
  4021c0:	d0000170 	adrp	x16, 430000 <_Znam@GLIBCXX_3.4>
  4021c4:	f940b611 	ldr	x17, [x16, #360]
  4021c8:	9105a210 	add	x16, x16, #0x168
  4021cc:	d61f0220 	br	x17

00000000004021d0 <_ZNSt8ios_base4InitC1Ev@plt>:
  4021d0:	d0000170 	adrp	x16, 430000 <_Znam@GLIBCXX_3.4>
  4021d4:	f940ba11 	ldr	x17, [x16, #368]
  4021d8:	9105c210 	add	x16, x16, #0x170
  4021dc:	d61f0220 	br	x17

00000000004021e0 <_ZNSt7__cxx1112basic_stringIcSt11char_traitsIcESaIcEE10_M_replaceEmmPKcm@plt>:
  4021e0:	d0000170 	adrp	x16, 430000 <_Znam@GLIBCXX_3.4>
  4021e4:	f940be11 	ldr	x17, [x16, #376]
  4021e8:	9105e210 	add	x16, x16, #0x178
  4021ec:	d61f0220 	br	x17

00000000004021f0 <_ZNSt13basic_filebufIcSt11char_traitsIcEED1Ev@plt>:
  4021f0:	d0000170 	adrp	x16, 430000 <_Znam@GLIBCXX_3.4>
  4021f4:	f940c211 	ldr	x17, [x16, #384]
  4021f8:	91060210 	add	x16, x16, #0x180
  4021fc:	d61f0220 	br	x17

0000000000402200 <abort@plt>:
  402200:	d0000170 	adrp	x16, 430000 <_Znam@GLIBCXX_3.4>
  402204:	f940c611 	ldr	x17, [x16, #392]
  402208:	91062210 	add	x16, x16, #0x188
  40220c:	d61f0220 	br	x17

0000000000402210 <_ZNSo9_M_insertIdEERSoT_@plt>:
  402210:	d0000170 	adrp	x16, 430000 <_Znam@GLIBCXX_3.4>
  402214:	f940ca11 	ldr	x17, [x16, #400]
  402218:	91064210 	add	x16, x16, #0x190
  40221c:	d61f0220 	br	x17

0000000000402220 <__cxa_end_catch@plt>:
  402220:	d0000170 	adrp	x16, 430000 <_Znam@GLIBCXX_3.4>
  402224:	f940ce11 	ldr	x17, [x16, #408]
  402228:	91066210 	add	x16, x16, #0x198
  40222c:	d61f0220 	br	x17

0000000000402230 <__gxx_personality_v0@plt>:
  402230:	d0000170 	adrp	x16, 430000 <_Znam@GLIBCXX_3.4>
  402234:	f940d211 	ldr	x17, [x16, #416]
  402238:	91068210 	add	x16, x16, #0x1a0
  40223c:	d61f0220 	br	x17

0000000000402240 <_ZNSt9basic_iosIcSt11char_traitsIcEE5clearESt12_Ios_Iostate@plt>:
  402240:	d0000170 	adrp	x16, 430000 <_Znam@GLIBCXX_3.4>
  402244:	f940d611 	ldr	x17, [x16, #424]
  402248:	9106a210 	add	x16, x16, #0x1a8
  40224c:	d61f0220 	br	x17

0000000000402250 <_ZNSolsEi@plt>:
  402250:	d0000170 	adrp	x16, 430000 <_Znam@GLIBCXX_3.4>
  402254:	f940da11 	ldr	x17, [x16, #432]
  402258:	9106c210 	add	x16, x16, #0x1b0
  40225c:	d61f0220 	br	x17

0000000000402260 <_Unwind_Resume@plt>:
  402260:	d0000170 	adrp	x16, 430000 <_Znam@GLIBCXX_3.4>
  402264:	f940de11 	ldr	x17, [x16, #440]
  402268:	9106e210 	add	x16, x16, #0x1b8
  40226c:	d61f0220 	br	x17

0000000000402270 <_ZNSt7__cxx1112basic_stringIcSt11char_traitsIcESaIcEE9_M_createERmm@plt>:
  402270:	d0000170 	adrp	x16, 430000 <_Znam@GLIBCXX_3.4>
  402274:	f940e211 	ldr	x17, [x16, #448]
  402278:	91070210 	add	x16, x16, #0x1c0
  40227c:	d61f0220 	br	x17

0000000000402280 <_ZNSt7__cxx1112basic_stringIcSt11char_traitsIcESaIcEE9_M_mutateEmmPKcm@plt>:
  402280:	d0000170 	adrp	x16, 430000 <_Znam@GLIBCXX_3.4>
  402284:	f940e611 	ldr	x17, [x16, #456]
  402288:	91072210 	add	x16, x16, #0x1c8
  40228c:	d61f0220 	br	x17

0000000000402290 <_ZNSt12__basic_fileIcED1Ev@plt>:
  402290:	d0000170 	adrp	x16, 430000 <_Znam@GLIBCXX_3.4>
  402294:	f940ea11 	ldr	x17, [x16, #464]
  402298:	91074210 	add	x16, x16, #0x1d0
  40229c:	d61f0220 	br	x17

00000000004022a0 <__gmon_start__@plt>:
  4022a0:	d0000170 	adrp	x16, 430000 <_Znam@GLIBCXX_3.4>
  4022a4:	f940ee11 	ldr	x17, [x16, #472]
  4022a8:	91076210 	add	x16, x16, #0x1d8
  4022ac:	d61f0220 	br	x17

00000000004022b0 <_ZNSt6localeC1Ev@plt>:
  4022b0:	d0000170 	adrp	x16, 430000 <_Znam@GLIBCXX_3.4>
  4022b4:	f940f211 	ldr	x17, [x16, #480]
  4022b8:	91078210 	add	x16, x16, #0x1e0
  4022bc:	d61f0220 	br	x17

00000000004022c0 <_ZNSt8ios_base4InitD1Ev@plt>:
  4022c0:	d0000170 	adrp	x16, 430000 <_Znam@GLIBCXX_3.4>
  4022c4:	f940f611 	ldr	x17, [x16, #488]
  4022c8:	9107a210 	add	x16, x16, #0x1e8
  4022cc:	d61f0220 	br	x17

Disassembly of section .text:

0000000000402300 <_start>:
  402300:	d503201f 	nop
  402304:	d280001d 	mov	x29, #0x0                   	// #0
  402308:	d280001e 	mov	x30, #0x0                   	// #0
  40230c:	aa0003e5 	mov	x5, x0
  402310:	f94003e1 	ldr	x1, [sp]
  402314:	910023e2 	add	x2, sp, #0x8
  402318:	910003e6 	mov	x6, sp
  40231c:	90000000 	adrp	x0, 402000 <_ZSt20__throw_length_errorPKc@plt>
  402320:	910cd000 	add	x0, x0, #0x334
  402324:	d2800003 	mov	x3, #0x0                   	// #0
  402328:	d2800004 	mov	x4, #0x0                   	// #0
  40232c:	97ffff51 	bl	402070 <__libc_start_main@plt>
  402330:	97ffffb4 	bl	402200 <abort@plt>

0000000000402334 <__wrap_main>:
  402334:	d503201f 	nop
  402338:	14000033 	b	402404 <main>
  40233c:	d503201f 	nop

0000000000402340 <_dl_relocate_static_pie>:
  402340:	d65f03c0 	ret

0000000000402344 <call_weak_fn>:
  402344:	b0000160 	adrp	x0, 42f000 <__FRAME_END__+0x1a654>
  402348:	f947ec00 	ldr	x0, [x0, #4056]
  40234c:	b4000040 	cbz	x0, 402354 <call_weak_fn+0x10>
  402350:	17ffffd4 	b	4022a0 <__gmon_start__@plt>
  402354:	d65f03c0 	ret
  402358:	d503201f 	nop
  40235c:	d503201f 	nop

0000000000402360 <deregister_tm_clones>:
  402360:	d0000160 	adrp	x0, 430000 <_Znam@GLIBCXX_3.4>
  402364:	91082000 	add	x0, x0, #0x208
  402368:	d0000161 	adrp	x1, 430000 <_Znam@GLIBCXX_3.4>
  40236c:	91082021 	add	x1, x1, #0x208
  402370:	eb00003f 	cmp	x1, x0
  402374:	540000c0 	b.eq	40238c <deregister_tm_clones+0x2c>  // b.none
  402378:	b0000161 	adrp	x1, 42f000 <__FRAME_END__+0x1a654>
  40237c:	f947e821 	ldr	x1, [x1, #4048]
  402380:	b4000061 	cbz	x1, 40238c <deregister_tm_clones+0x2c>
  402384:	aa0103f0 	mov	x16, x1
  402388:	d61f0200 	br	x16
  40238c:	d65f03c0 	ret

0000000000402390 <register_tm_clones>:
  402390:	d0000160 	adrp	x0, 430000 <_Znam@GLIBCXX_3.4>
  402394:	91082000 	add	x0, x0, #0x208
  402398:	d0000161 	adrp	x1, 430000 <_Znam@GLIBCXX_3.4>
  40239c:	91082021 	add	x1, x1, #0x208
  4023a0:	cb000021 	sub	x1, x1, x0
  4023a4:	d37ffc22 	lsr	x2, x1, #63
  4023a8:	8b810c41 	add	x1, x2, x1, asr #3
  4023ac:	9341fc21 	asr	x1, x1, #1
  4023b0:	b40000c1 	cbz	x1, 4023c8 <register_tm_clones+0x38>
  4023b4:	b0000162 	adrp	x2, 42f000 <__FRAME_END__+0x1a654>
  4023b8:	f947f042 	ldr	x2, [x2, #4064]
  4023bc:	b4000062 	cbz	x2, 4023c8 <register_tm_clones+0x38>
  4023c0:	aa0203f0 	mov	x16, x2
  4023c4:	d61f0200 	br	x16
  4023c8:	d65f03c0 	ret
  4023cc:	d503201f 	nop

00000000004023d0 <__do_global_dtors_aux>:
  4023d0:	a9be7bfd 	stp	x29, x30, [sp, #-32]!
  4023d4:	910003fd 	mov	x29, sp
  4023d8:	f9000bf3 	str	x19, [sp, #16]
  4023dc:	d0000173 	adrp	x19, 430000 <_Znam@GLIBCXX_3.4>
  4023e0:	394c8260 	ldrb	w0, [x19, #800]
  4023e4:	35000080 	cbnz	w0, 4023f4 <__do_global_dtors_aux+0x24>
  4023e8:	97ffffde 	bl	402360 <deregister_tm_clones>
  4023ec:	52800020 	mov	w0, #0x1                   	// #1
  4023f0:	390c8260 	strb	w0, [x19, #800]
  4023f4:	f9400bf3 	ldr	x19, [sp, #16]
  4023f8:	a8c27bfd 	ldp	x29, x30, [sp], #32
  4023fc:	d65f03c0 	ret

0000000000402400 <frame_dummy>:
  402400:	17ffffe4 	b	402390 <register_tm_clones>

0000000000402404 <main>:
  402404:	d11583ff 	sub	sp, sp, #0x560
  402408:	a9007bfd 	stp	x29, x30, [sp]
  40240c:	910003fd 	mov	x29, sp
  402410:	a90153f3 	stp	x19, x20, [sp, #16]
  402414:	a9025bf5 	stp	x21, x22, [sp, #32]
  402418:	a90363f7 	stp	x23, x24, [sp, #48]
  40241c:	a9046bf9 	stp	x25, x26, [sp, #64]
  402420:	a90573fb 	stp	x27, x28, [sp, #80]
  402424:	6d0627e8 	stp	d8, d9, [sp, #96]
  402428:	7100041f 	cmp	w0, #0x1
  40242c:	5400078d 	b.le	40251c <main+0x118>
  402430:	91002034 	add	x20, x1, #0x8
  402434:	51000800 	sub	w0, w0, #0x2
  402438:	91004021 	add	x1, x1, #0x10
  40243c:	8b000c37 	add	x23, x1, x0, lsl #3
  402440:	910683f6 	add	x22, sp, #0x1a0
  402444:	90000098 	adrp	x24, 412000 <_Z19MD5Hash_simdversionPKNSt7__cxx1112basic_stringIcSt11char_traitsIcESaIcEEEP12__Uint32x4_t+0x1480>
  402448:	911c4318 	add	x24, x24, #0x710
  40244c:	14000023 	b	4024d8 <main+0xd4>
  402450:	90000080 	adrp	x0, 412000 <_Z19MD5Hash_simdversionPKNSt7__cxx1112basic_stringIcSt11char_traitsIcESaIcEEEP12__Uint32x4_t+0x1480>
  402454:	911b8000 	add	x0, x0, #0x6e0
  402458:	97fffefe 	bl	402050 <_ZSt19__throw_logic_errorPKc@plt>
  40245c:	d2800002 	mov	x2, #0x0                   	// #0
  402460:	910543e1 	add	x1, sp, #0x150
  402464:	910643e0 	add	x0, sp, #0x190
  402468:	97ffff82 	bl	402270 <_ZNSt7__cxx1112basic_stringIcSt11char_traitsIcESaIcEE9_M_createERmm@plt>
  40246c:	f900cbe0 	str	x0, [sp, #400]
  402470:	f940abe1 	ldr	x1, [sp, #336]
  402474:	f900d3e1 	str	x1, [sp, #416]
  402478:	aa1303e2 	mov	x2, x19
  40247c:	aa1503e1 	mov	x1, x21
  402480:	97fffea8 	bl	401f20 <memcpy@plt>
  402484:	14000003 	b	402490 <main+0x8c>
  402488:	394002a0 	ldrb	w0, [x21]
  40248c:	390683e0 	strb	w0, [sp, #416]
  402490:	f940abe0 	ldr	x0, [sp, #336]
  402494:	f900cfe0 	str	x0, [sp, #408]
  402498:	f940cbe1 	ldr	x1, [sp, #400]
  40249c:	3820683f 	strb	wzr, [x1, x0]
  4024a0:	aa1803e1 	mov	x1, x24
  4024a4:	910643e0 	add	x0, sp, #0x190
  4024a8:	97fffeb2 	bl	401f70 <_ZNKSt7__cxx1112basic_stringIcSt11char_traitsIcESaIcEE7compareEPKc@plt>
  4024ac:	2a0003f3 	mov	w19, w0
  4024b0:	f940cbe0 	ldr	x0, [sp, #400]
  4024b4:	eb16001f 	cmp	x0, x22
  4024b8:	54000080 	b.eq	4024c8 <main+0xc4>  // b.none
  4024bc:	f940d3e1 	ldr	x1, [sp, #416]
  4024c0:	91000421 	add	x1, x1, #0x1
  4024c4:	97fffeff 	bl	4020c0 <_ZdlPvm@plt>
  4024c8:	34000313 	cbz	w19, 402528 <main+0x124>
  4024cc:	91002294 	add	x20, x20, #0x8
  4024d0:	eb1402ff 	cmp	x23, x20
  4024d4:	540001e0 	b.eq	402510 <main+0x10c>  // b.none
  4024d8:	f9400295 	ldr	x21, [x20]
  4024dc:	f900cbf6 	str	x22, [sp, #400]
  4024e0:	b4fffb95 	cbz	x21, 402450 <main+0x4c>
  4024e4:	aa1503e0 	mov	x0, x21
  4024e8:	97fffeaa 	bl	401f90 <strlen@plt>
  4024ec:	aa0003f3 	mov	x19, x0
  4024f0:	f900abe0 	str	x0, [sp, #336]
  4024f4:	f1003c1f 	cmp	x0, #0xf
  4024f8:	54fffb28 	b.hi	40245c <main+0x58>  // b.pmore
  4024fc:	f100041f 	cmp	x0, #0x1
  402500:	54fffc40 	b.eq	402488 <main+0x84>  // b.none
  402504:	b4fffc60 	cbz	x0, 402490 <main+0x8c>
  402508:	aa1603e0 	mov	x0, x22
  40250c:	17ffffdb 	b	402478 <main+0x74>
  402510:	52800020 	mov	w0, #0x1                   	// #1
  402514:	b900bfe0 	str	w0, [sp, #188]
  402518:	14000005 	b	40252c <main+0x128>
  40251c:	52800020 	mov	w0, #0x1                   	// #1
  402520:	b900bfe0 	str	w0, [sp, #188]
  402524:	14000002 	b	40252c <main+0x128>
  402528:	b900bfff 	str	wzr, [sp, #188]
  40252c:	911563e2 	add	x2, sp, #0x558
  402530:	90000081 	adrp	x1, 412000 <_Z19MD5Hash_simdversionPKNSt7__cxx1112basic_stringIcSt11char_traitsIcESaIcEEEP12__Uint32x4_t+0x1480>
  402534:	911c8021 	add	x1, x1, #0x720
  402538:	910643e0 	add	x0, sp, #0x190
  40253c:	97ffff15 	bl	402190 <_ZNSt7__cxx1112basic_stringIcSt11char_traitsIcESaIcEEC1EPKcRKS3_@plt>
  402540:	911543e2 	add	x2, sp, #0x550
  402544:	90000081 	adrp	x1, 412000 <_Z19MD5Hash_simdversionPKNSt7__cxx1112basic_stringIcSt11char_traitsIcESaIcEEEP12__Uint32x4_t+0x1480>
  402548:	911ca021 	add	x1, x1, #0x728
  40254c:	9106c3e0 	add	x0, sp, #0x1b0
  402550:	97ffff10 	bl	402190 <_ZNSt7__cxx1112basic_stringIcSt11char_traitsIcESaIcEEC1EPKcRKS3_@plt>
  402554:	911523e2 	add	x2, sp, #0x548
  402558:	90000081 	adrp	x1, 412000 <_Z19MD5Hash_simdversionPKNSt7__cxx1112basic_stringIcSt11char_traitsIcESaIcEEEP12__Uint32x4_t+0x1480>
  40255c:	911ce021 	add	x1, x1, #0x738
  402560:	910743e0 	add	x0, sp, #0x1d0
  402564:	97ffff0b 	bl	402190 <_ZNSt7__cxx1112basic_stringIcSt11char_traitsIcESaIcEEC1EPKcRKS3_@plt>
  402568:	911503e2 	add	x2, sp, #0x540
  40256c:	90000081 	adrp	x1, 412000 <_Z19MD5Hash_simdversionPKNSt7__cxx1112basic_stringIcSt11char_traitsIcESaIcEEEP12__Uint32x4_t+0x1480>
  402570:	911d2021 	add	x1, x1, #0x748
  402574:	9107c3e0 	add	x0, sp, #0x1f0
  402578:	97ffff06 	bl	402190 <_ZNSt7__cxx1112basic_stringIcSt11char_traitsIcESaIcEEC1EPKcRKS3_@plt>
  40257c:	9114e3e2 	add	x2, sp, #0x538
  402580:	90000081 	adrp	x1, 412000 <_Z19MD5Hash_simdversionPKNSt7__cxx1112basic_stringIcSt11char_traitsIcESaIcEEEP12__Uint32x4_t+0x1480>
  402584:	911d4021 	add	x1, x1, #0x750
  402588:	910843e0 	add	x0, sp, #0x210
  40258c:	97ffff01 	bl	402190 <_ZNSt7__cxx1112basic_stringIcSt11char_traitsIcESaIcEEC1EPKcRKS3_@plt>
  402590:	9114c3e2 	add	x2, sp, #0x530
  402594:	90000081 	adrp	x1, 412000 <_Z19MD5Hash_simdversionPKNSt7__cxx1112basic_stringIcSt11char_traitsIcESaIcEEEP12__Uint32x4_t+0x1480>
  402598:	911d8021 	add	x1, x1, #0x760
  40259c:	9108c3e0 	add	x0, sp, #0x230
  4025a0:	97fffefc 	bl	402190 <_ZNSt7__cxx1112basic_stringIcSt11char_traitsIcESaIcEEC1EPKcRKS3_@plt>
  4025a4:	9114a3e2 	add	x2, sp, #0x528
  4025a8:	90000081 	adrp	x1, 412000 <_Z19MD5Hash_simdversionPKNSt7__cxx1112basic_stringIcSt11char_traitsIcESaIcEEEP12__Uint32x4_t+0x1480>
  4025ac:	911da021 	add	x1, x1, #0x768
  4025b0:	910943e0 	add	x0, sp, #0x250
  4025b4:	97fffef7 	bl	402190 <_ZNSt7__cxx1112basic_stringIcSt11char_traitsIcESaIcEEC1EPKcRKS3_@plt>
  4025b8:	911483e2 	add	x2, sp, #0x520
  4025bc:	90000081 	adrp	x1, 412000 <_Z19MD5Hash_simdversionPKNSt7__cxx1112basic_stringIcSt11char_traitsIcESaIcEEEP12__Uint32x4_t+0x1480>
  4025c0:	911dc021 	add	x1, x1, #0x770
  4025c4:	9109c3e0 	add	x0, sp, #0x270
  4025c8:	97fffef2 	bl	402190 <_ZNSt7__cxx1112basic_stringIcSt11char_traitsIcESaIcEEC1EPKcRKS3_@plt>
  4025cc:	911463e3 	add	x3, sp, #0x518
  4025d0:	910643e1 	add	x1, sp, #0x190
  4025d4:	d2800102 	mov	x2, #0x8                   	// #8
  4025d8:	910303e0 	add	x0, sp, #0xc0
  4025dc:	94000660 	bl	403f5c <_ZNSt6vectorINSt7__cxx1112basic_stringIcSt11char_traitsIcESaIcEEESaIS5_EEC1ESt16initializer_listIS5_ERKS6_>
  4025e0:	1400000b 	b	40260c <main+0x208>
  4025e4:	aa0003f4 	mov	x20, x0
  4025e8:	d28000f3 	mov	x19, #0x7                   	// #7
  4025ec:	910643e0 	add	x0, sp, #0x190
  4025f0:	8b131400 	add	x0, x0, x19, lsl #5
  4025f4:	97fffec7 	bl	402110 <_ZNSt7__cxx1112basic_stringIcSt11char_traitsIcESaIcEE10_M_disposeEv@plt>
  4025f8:	d1000673 	sub	x19, x19, #0x1
  4025fc:	b100067f 	cmn	x19, #0x1
  402600:	54ffff61 	b.ne	4025ec <main+0x1e8>  // b.any
  402604:	aa1403e0 	mov	x0, x20
  402608:	97ffff16 	bl	402260 <_Unwind_Resume@plt>
  40260c:	910643f4 	add	x20, sp, #0x190
  402610:	91038293 	add	x19, x20, #0xe0
  402614:	14000005 	b	402628 <main+0x224>
  402618:	d1008260 	sub	x0, x19, #0x20
  40261c:	eb13029f 	cmp	x20, x19
  402620:	54000140 	b.eq	402648 <main+0x244>  // b.none
  402624:	aa0003f3 	mov	x19, x0
  402628:	aa1303e1 	mov	x1, x19
  40262c:	f8410420 	ldr	x0, [x1], #16
  402630:	eb01001f 	cmp	x0, x1
  402634:	54ffff20 	b.eq	402618 <main+0x214>  // b.none
  402638:	f9400a61 	ldr	x1, [x19, #16]
  40263c:	91000421 	add	x1, x1, #0x1
  402640:	97fffea0 	bl	4020c0 <_ZdlPvm@plt>
  402644:	17fffff5 	b	402618 <main+0x214>
  402648:	911443e2 	add	x2, sp, #0x510
  40264c:	90000081 	adrp	x1, 412000 <_Z19MD5Hash_simdversionPKNSt7__cxx1112basic_stringIcSt11char_traitsIcESaIcEEEP12__Uint32x4_t+0x1480>
  402650:	911de021 	add	x1, x1, #0x778
  402654:	910643e0 	add	x0, sp, #0x190
  402658:	97fffece 	bl	402190 <_ZNSt7__cxx1112basic_stringIcSt11char_traitsIcESaIcEEC1EPKcRKS3_@plt>
  40265c:	911423e2 	add	x2, sp, #0x508
  402660:	90000081 	adrp	x1, 412000 <_Z19MD5Hash_simdversionPKNSt7__cxx1112basic_stringIcSt11char_traitsIcESaIcEEEP12__Uint32x4_t+0x1480>
  402664:	911e8021 	add	x1, x1, #0x7a0
  402668:	9106c3e0 	add	x0, sp, #0x1b0
  40266c:	97fffec9 	bl	402190 <_ZNSt7__cxx1112basic_stringIcSt11char_traitsIcESaIcEEC1EPKcRKS3_@plt>
  402670:	911403e2 	add	x2, sp, #0x500
  402674:	90000081 	adrp	x1, 412000 <_Z19MD5Hash_simdversionPKNSt7__cxx1112basic_stringIcSt11char_traitsIcESaIcEEEP12__Uint32x4_t+0x1480>
  402678:	911f2021 	add	x1, x1, #0x7c8
  40267c:	910743e0 	add	x0, sp, #0x1d0
  402680:	97fffec4 	bl	402190 <_ZNSt7__cxx1112basic_stringIcSt11char_traitsIcESaIcEEC1EPKcRKS3_@plt>
  402684:	9113e3e2 	add	x2, sp, #0x4f8
  402688:	90000081 	adrp	x1, 412000 <_Z19MD5Hash_simdversionPKNSt7__cxx1112basic_stringIcSt11char_traitsIcESaIcEEEP12__Uint32x4_t+0x1480>
  40268c:	911fc021 	add	x1, x1, #0x7f0
  402690:	9107c3e0 	add	x0, sp, #0x1f0
  402694:	97fffebf 	bl	402190 <_ZNSt7__cxx1112basic_stringIcSt11char_traitsIcESaIcEEC1EPKcRKS3_@plt>
  402698:	9113c3e2 	add	x2, sp, #0x4f0
  40269c:	90000081 	adrp	x1, 412000 <_Z19MD5Hash_simdversionPKNSt7__cxx1112basic_stringIcSt11char_traitsIcESaIcEEEP12__Uint32x4_t+0x1480>
  4026a0:	91206021 	add	x1, x1, #0x818
  4026a4:	910843e0 	add	x0, sp, #0x210
  4026a8:	97fffeba 	bl	402190 <_ZNSt7__cxx1112basic_stringIcSt11char_traitsIcESaIcEEC1EPKcRKS3_@plt>
  4026ac:	9113a3e2 	add	x2, sp, #0x4e8
  4026b0:	90000081 	adrp	x1, 412000 <_Z19MD5Hash_simdversionPKNSt7__cxx1112basic_stringIcSt11char_traitsIcESaIcEEEP12__Uint32x4_t+0x1480>
  4026b4:	91210021 	add	x1, x1, #0x840
  4026b8:	9108c3e0 	add	x0, sp, #0x230
  4026bc:	97fffeb5 	bl	402190 <_ZNSt7__cxx1112basic_stringIcSt11char_traitsIcESaIcEEC1EPKcRKS3_@plt>
  4026c0:	911383e2 	add	x2, sp, #0x4e0
  4026c4:	90000081 	adrp	x1, 412000 <_Z19MD5Hash_simdversionPKNSt7__cxx1112basic_stringIcSt11char_traitsIcESaIcEEEP12__Uint32x4_t+0x1480>
  4026c8:	9121a021 	add	x1, x1, #0x868
  4026cc:	910943e0 	add	x0, sp, #0x250
  4026d0:	97fffeb0 	bl	402190 <_ZNSt7__cxx1112basic_stringIcSt11char_traitsIcESaIcEEC1EPKcRKS3_@plt>
  4026d4:	911363e2 	add	x2, sp, #0x4d8
  4026d8:	90000081 	adrp	x1, 412000 <_Z19MD5Hash_simdversionPKNSt7__cxx1112basic_stringIcSt11char_traitsIcESaIcEEEP12__Uint32x4_t+0x1480>
  4026dc:	91224021 	add	x1, x1, #0x890
  4026e0:	9109c3e0 	add	x0, sp, #0x270
  4026e4:	97fffeab 	bl	402190 <_ZNSt7__cxx1112basic_stringIcSt11char_traitsIcESaIcEEC1EPKcRKS3_@plt>
  4026e8:	911343e3 	add	x3, sp, #0x4d0
  4026ec:	910643e1 	add	x1, sp, #0x190
  4026f0:	d2800102 	mov	x2, #0x8                   	// #8
  4026f4:	910363e0 	add	x0, sp, #0xd8
  4026f8:	94000619 	bl	403f5c <_ZNSt6vectorINSt7__cxx1112basic_stringIcSt11char_traitsIcESaIcEEESaIS5_EEC1ESt16initializer_listIS5_ERKS6_>
  4026fc:	1400000d 	b	402730 <main+0x32c>
  402700:	aa0003f3 	mov	x19, x0
  402704:	d28000f4 	mov	x20, #0x7                   	// #7
  402708:	910643e0 	add	x0, sp, #0x190
  40270c:	8b141400 	add	x0, x0, x20, lsl #5
  402710:	97fffe80 	bl	402110 <_ZNSt7__cxx1112basic_stringIcSt11char_traitsIcESaIcEE10_M_disposeEv@plt>
  402714:	d1000694 	sub	x20, x20, #0x1
  402718:	b100069f 	cmn	x20, #0x1
  40271c:	54ffff61 	b.ne	402708 <main+0x304>  // b.any
  402720:	910303e0 	add	x0, sp, #0xc0
  402724:	94000410 	bl	403764 <_ZNSt6vectorINSt7__cxx1112basic_stringIcSt11char_traitsIcESaIcEEESaIS5_EED1Ev>
  402728:	aa1303e0 	mov	x0, x19
  40272c:	97fffecd 	bl	402260 <_Unwind_Resume@plt>
  402730:	910643f4 	add	x20, sp, #0x190
  402734:	91038293 	add	x19, x20, #0xe0
  402738:	14000005 	b	40274c <main+0x348>
  40273c:	d1008260 	sub	x0, x19, #0x20
  402740:	eb14027f 	cmp	x19, x20
  402744:	54000140 	b.eq	40276c <main+0x368>  // b.none
  402748:	aa0003f3 	mov	x19, x0
  40274c:	aa1303e1 	mov	x1, x19
  402750:	f8410420 	ldr	x0, [x1], #16
  402754:	eb01001f 	cmp	x0, x1
  402758:	54ffff20 	b.eq	40273c <main+0x338>  // b.none
  40275c:	f9400a61 	ldr	x1, [x19, #16]
  402760:	91000421 	add	x1, x1, #0x1
  402764:	97fffe57 	bl	4020c0 <_ZdlPvm@plt>
  402768:	17fffff5 	b	40273c <main+0x338>
  40276c:	90000081 	adrp	x1, 412000 <_Z19MD5Hash_simdversionPKNSt7__cxx1112basic_stringIcSt11char_traitsIcESaIcEEEP12__Uint32x4_t+0x1480>
  402770:	9122e021 	add	x1, x1, #0x8b8
  402774:	d0000160 	adrp	x0, 430000 <_Znam@GLIBCXX_3.4>
  402778:	91084000 	add	x0, x0, #0x210
  40277c:	97fffe49 	bl	4020a0 <_ZStlsISt11char_traitsIcEERSt13basic_ostreamIcT_ES5_PKc@plt>
  402780:	97fffe18 	bl	401fe0 <_ZSt4endlIcSt11char_traitsIcEERSt13basic_ostreamIT_T0_ES6_@plt>
  402784:	f94063e0 	ldr	x0, [sp, #192]
  402788:	f94067e1 	ldr	x1, [sp, #200]
  40278c:	eb00003f 	cmp	x1, x0
  402790:	54002800 	b.eq	402c90 <main+0x88c>  // b.none
  402794:	f9003bff 	str	xzr, [sp, #112]
  402798:	910643f5 	add	x21, sp, #0x190
  40279c:	910042b6 	add	x22, x21, #0x10
  4027a0:	910583e1 	add	x1, sp, #0x160
  4027a4:	f90043e1 	str	x1, [sp, #128]
  4027a8:	1400010c 	b	402bd8 <main+0x7d4>
  4027ac:	910202a0 	add	x0, x21, #0x80
  4027b0:	97fffdf4 	bl	401f80 <_ZNSt8ios_baseC2Ev@plt>
  4027b4:	b0000160 	adrp	x0, 42f000 <__FRAME_END__+0x1a654>
  4027b8:	912c0000 	add	x0, x0, #0xb00
  4027bc:	f9010be0 	str	x0, [sp, #528]
  4027c0:	f90177ff 	str	xzr, [sp, #744]
  4027c4:	390bc3ff 	strb	wzr, [sp, #752]
  4027c8:	390bc7ff 	strb	wzr, [sp, #753]
  4027cc:	f9017fff 	str	xzr, [sp, #760]
  4027d0:	f90183ff 	str	xzr, [sp, #768]
  4027d4:	f90187ff 	str	xzr, [sp, #776]
  4027d8:	f9018bff 	str	xzr, [sp, #784]
  4027dc:	b0000160 	adrp	x0, 42f000 <__FRAME_END__+0x1a654>
  4027e0:	912c4000 	add	x0, x0, #0xb10
  4027e4:	f9400818 	ldr	x24, [x0, #16]
  4027e8:	f900cbf8 	str	x24, [sp, #400]
  4027ec:	f9400c00 	ldr	x0, [x0, #24]
  4027f0:	aa0003e1 	mov	x1, x0
  4027f4:	f90047e0 	str	x0, [sp, #136]
  4027f8:	f85e8300 	ldur	x0, [x24, #-24]
  4027fc:	f8206aa1 	str	x1, [x21, x0]
  402800:	f900cfff 	str	xzr, [sp, #408]
  402804:	f940cbe0 	ldr	x0, [sp, #400]
  402808:	f85e8000 	ldur	x0, [x0, #-24]
  40280c:	d2800001 	mov	x1, #0x0                   	// #0
  402810:	8b0002a0 	add	x0, x21, x0
  402814:	97fffe5b 	bl	402180 <_ZNSt9basic_iosIcSt11char_traitsIcEE4initEPSt15basic_streambufIcS1_E@plt>
  402818:	b0000160 	adrp	x0, 42f000 <__FRAME_END__+0x1a654>
  40281c:	912c4000 	add	x0, x0, #0xb10
  402820:	f940101b 	ldr	x27, [x0, #32]
  402824:	f900d3fb 	str	x27, [sp, #416]
  402828:	f9401400 	ldr	x0, [x0, #40]
  40282c:	aa0003e2 	mov	x2, x0
  402830:	f9004fe0 	str	x0, [sp, #152]
  402834:	f85e8360 	ldur	x0, [x27, #-24]
  402838:	910683e1 	add	x1, sp, #0x1a0
  40283c:	f8206822 	str	x2, [x1, x0]
  402840:	f940d3e0 	ldr	x0, [sp, #416]
  402844:	f85e8000 	ldur	x0, [x0, #-24]
  402848:	d2800001 	mov	x1, #0x0                   	// #0
  40284c:	8b0002c0 	add	x0, x22, x0
  402850:	97fffe4c 	bl	402180 <_ZNSt9basic_iosIcSt11char_traitsIcEE4initEPSt15basic_streambufIcS1_E@plt>
  402854:	b0000160 	adrp	x0, 42f000 <__FRAME_END__+0x1a654>
  402858:	912c4000 	add	x0, x0, #0xb10
  40285c:	f940041c 	ldr	x28, [x0, #8]
  402860:	f900cbfc 	str	x28, [sp, #400]
  402864:	f9401800 	ldr	x0, [x0, #48]
  402868:	aa0003e1 	mov	x1, x0
  40286c:	f9004be0 	str	x0, [sp, #144]
  402870:	f85e8380 	ldur	x0, [x28, #-24]
  402874:	f8206aa1 	str	x1, [x21, x0]
  402878:	b0000160 	adrp	x0, 42f000 <__FRAME_END__+0x1a654>
  40287c:	91312000 	add	x0, x0, #0xc48
  402880:	f900cbe0 	str	x0, [sp, #400]
  402884:	b0000160 	adrp	x0, 42f000 <__FRAME_END__+0x1a654>
  402888:	91326000 	add	x0, x0, #0xc98
  40288c:	f9010be0 	str	x0, [sp, #528]
  402890:	b0000160 	adrp	x0, 42f000 <__FRAME_END__+0x1a654>
  402894:	9131c000 	add	x0, x0, #0xc70
  402898:	f900d3e0 	str	x0, [sp, #416]
  40289c:	b0000160 	adrp	x0, 42f000 <__FRAME_END__+0x1a654>
  4028a0:	912dc000 	add	x0, x0, #0xb70
  4028a4:	f900d7e0 	str	x0, [sp, #424]
  4028a8:	f900dbff 	str	xzr, [sp, #432]
  4028ac:	f900dfff 	str	xzr, [sp, #440]
  4028b0:	f900e3ff 	str	xzr, [sp, #448]
  4028b4:	f900e7ff 	str	xzr, [sp, #456]
  4028b8:	f900ebff 	str	xzr, [sp, #464]
  4028bc:	f900efff 	str	xzr, [sp, #472]
  4028c0:	910142a0 	add	x0, x21, #0x50
  4028c4:	97fffe7b 	bl	4022b0 <_ZNSt6localeC1Ev@plt>
  4028c8:	b0000160 	adrp	x0, 42f000 <__FRAME_END__+0x1a654>
  4028cc:	91356000 	add	x0, x0, #0xd58
  4028d0:	f900d7e0 	str	x0, [sp, #424]
  4028d4:	52800300 	mov	w0, #0x18                  	// #24
  4028d8:	b901ebe0 	str	w0, [sp, #488]
  4028dc:	9101c2a0 	add	x0, x21, #0x70
  4028e0:	f900fbe0 	str	x0, [sp, #496]
  4028e4:	f900ffff 	str	xzr, [sp, #504]
  4028e8:	390803ff 	strb	wzr, [sp, #512]
  4028ec:	910062a1 	add	x1, x21, #0x18
  4028f0:	910202a0 	add	x0, x21, #0x80
  4028f4:	97fffe23 	bl	402180 <_ZNSt9basic_iosIcSt11char_traitsIcEE4initEPSt15basic_streambufIcS1_E@plt>
  4028f8:	1400001a 	b	402960 <main+0x55c>
  4028fc:	f900cbf8 	str	x24, [sp, #400]
  402900:	f85e8301 	ldur	x1, [x24, #-24]
  402904:	910643e2 	add	x2, sp, #0x190
  402908:	f94047e3 	ldr	x3, [sp, #136]
  40290c:	f8216843 	str	x3, [x2, x1]
  402910:	f900cfff 	str	xzr, [sp, #408]
  402914:	aa0003f3 	mov	x19, x0
  402918:	b0000160 	adrp	x0, 42f000 <__FRAME_END__+0x1a654>
  40291c:	912c0000 	add	x0, x0, #0xb00
  402920:	f9010be0 	str	x0, [sp, #528]
  402924:	910843e0 	add	x0, sp, #0x210
  402928:	97fffda2 	bl	401fb0 <_ZNSt8ios_baseD2Ev@plt>
  40292c:	910363e0 	add	x0, sp, #0xd8
  402930:	9400038d 	bl	403764 <_ZNSt6vectorINSt7__cxx1112basic_stringIcSt11char_traitsIcESaIcEEESaIS5_EED1Ev>
  402934:	17ffff7b 	b	402720 <main+0x31c>
  402938:	aa0003f3 	mov	x19, x0
  40293c:	9106a3e0 	add	x0, sp, #0x1a8
  402940:	94000558 	bl	403ea0 <_ZNSt7__cxx1115basic_stringbufIcSt11char_traitsIcESaIcEED1Ev>
  402944:	b0000161 	adrp	x1, 42f000 <__FRAME_END__+0x1a654>
  402948:	912c6021 	add	x1, x1, #0xb18
  40294c:	910643e0 	add	x0, sp, #0x190
  402950:	97fffd7c 	bl	401f40 <_ZNSdD2Ev@plt>
  402954:	17fffff1 	b	402918 <main+0x514>
  402958:	aa0003f3 	mov	x19, x0
  40295c:	17ffffef 	b	402918 <main+0x514>
  402960:	910443f4 	add	x20, sp, #0x110
  402964:	9100429a 	add	x26, x20, #0x10
  402968:	d2800119 	mov	x25, #0x8                   	// #8
  40296c:	14000016 	b	4029c4 <main+0x5c0>
  402970:	f9407a77 	ldr	x23, [x19, #240]
  402974:	b40000d7 	cbz	x23, 40298c <main+0x588>
  402978:	3940e2e0 	ldrb	w0, [x23, #56]
  40297c:	340000e0 	cbz	w0, 402998 <main+0x594>
  402980:	52800020 	mov	w0, #0x1                   	// #1
  402984:	39038660 	strb	w0, [x19, #225]
  402988:	14000019 	b	4029ec <main+0x5e8>
  40298c:	97fffde9 	bl	402130 <_ZSt16__throw_bad_castv@plt>
  402990:	aa0003f3 	mov	x19, x0
  402994:	14000079 	b	402b78 <main+0x774>
  402998:	aa1703e0 	mov	x0, x23
  40299c:	97fffdd9 	bl	402100 <_ZNKSt5ctypeIcE13_M_widen_initEv@plt>
  4029a0:	f94002e0 	ldr	x0, [x23]
  4029a4:	f9401802 	ldr	x2, [x0, #48]
  4029a8:	52800401 	mov	w1, #0x20                  	// #32
  4029ac:	aa1703e0 	mov	x0, x23
  4029b0:	d63f0040 	blr	x2
  4029b4:	17fffff3 	b	402980 <main+0x57c>
  4029b8:	91001294 	add	x20, x20, #0x4
  4029bc:	eb1a029f 	cmp	x20, x26
  4029c0:	54000320 	b.eq	402a24 <main+0x620>  // b.none
  4029c4:	f940d3e0 	ldr	x0, [sp, #416]
  4029c8:	f85e8000 	ldur	x0, [x0, #-24]
  4029cc:	910683e1 	add	x1, sp, #0x1a0
  4029d0:	8b000020 	add	x0, x1, x0
  4029d4:	f9000819 	str	x25, [x0, #16]
  4029d8:	f940d3e0 	ldr	x0, [sp, #416]
  4029dc:	f85e8013 	ldur	x19, [x0, #-24]
  4029e0:	8b1302d3 	add	x19, x22, x19
  4029e4:	39438660 	ldrb	w0, [x19, #225]
  4029e8:	34fffc40 	cbz	w0, 402970 <main+0x56c>
  4029ec:	52800600 	mov	w0, #0x30                  	// #48
  4029f0:	39038260 	strb	w0, [x19, #224]
  4029f4:	f940d3e0 	ldr	x0, [sp, #416]
  4029f8:	f85e8001 	ldur	x1, [x0, #-24]
  4029fc:	8b0102c1 	add	x1, x22, x1
  402a00:	b9401820 	ldr	w0, [x1, #24]
  402a04:	12800942 	mov	w2, #0xffffffb5            	// #-75
  402a08:	0a020000 	and	w0, w0, w2
  402a0c:	321d0000 	orr	w0, w0, #0x8
  402a10:	b9001820 	str	w0, [x1, #24]
  402a14:	b9400281 	ldr	w1, [x20]
  402a18:	aa1603e0 	mov	x0, x22
  402a1c:	97fffd85 	bl	402030 <_ZNSo9_M_insertImEERSoT_@plt>
  402a20:	17ffffe6 	b	4029b8 <main+0x5b4>
  402a24:	f94043e0 	ldr	x0, [sp, #128]
  402a28:	f900abe0 	str	x0, [sp, #336]
  402a2c:	f900afff 	str	xzr, [sp, #344]
  402a30:	390583ff 	strb	wzr, [sp, #352]
  402a34:	f940ebe0 	ldr	x0, [sp, #464]
  402a38:	b4000240 	cbz	x0, 402a80 <main+0x67c>
  402a3c:	f940e3e4 	ldr	x4, [sp, #448]
  402a40:	eb04001f 	cmp	x0, x4
  402a44:	54000109 	b.ls	402a64 <main+0x660>  // b.plast
  402a48:	f940e7e3 	ldr	x3, [sp, #456]
  402a4c:	cb030004 	sub	x4, x0, x3
  402a50:	d2800002 	mov	x2, #0x0                   	// #0
  402a54:	d2800001 	mov	x1, #0x0                   	// #0
  402a58:	910543e0 	add	x0, sp, #0x150
  402a5c:	97fffde1 	bl	4021e0 <_ZNSt7__cxx1112basic_stringIcSt11char_traitsIcESaIcEE10_M_replaceEmmPKcm@plt>
  402a60:	1400000b 	b	402a8c <main+0x688>
  402a64:	f940e7e3 	ldr	x3, [sp, #456]
  402a68:	cb030084 	sub	x4, x4, x3
  402a6c:	d2800002 	mov	x2, #0x0                   	// #0
  402a70:	d2800001 	mov	x1, #0x0                   	// #0
  402a74:	910543e0 	add	x0, sp, #0x150
  402a78:	97fffdda 	bl	4021e0 <_ZNSt7__cxx1112basic_stringIcSt11char_traitsIcESaIcEE10_M_replaceEmmPKcm@plt>
  402a7c:	14000004 	b	402a8c <main+0x688>
  402a80:	910182a1 	add	x1, x21, #0x60
  402a84:	910543e0 	add	x0, sp, #0x150
  402a88:	97fffd62 	bl	402010 <_ZNSt7__cxx1112basic_stringIcSt11char_traitsIcESaIcEE9_M_assignERKS4_@plt>
  402a8c:	b0000160 	adrp	x0, 42f000 <__FRAME_END__+0x1a654>
  402a90:	91312000 	add	x0, x0, #0xc48
  402a94:	f900cbe0 	str	x0, [sp, #400]
  402a98:	b0000160 	adrp	x0, 42f000 <__FRAME_END__+0x1a654>
  402a9c:	91326000 	add	x0, x0, #0xc98
  402aa0:	f9010be0 	str	x0, [sp, #528]
  402aa4:	b0000160 	adrp	x0, 42f000 <__FRAME_END__+0x1a654>
  402aa8:	9131c000 	add	x0, x0, #0xc70
  402aac:	f900d3e0 	str	x0, [sp, #416]
  402ab0:	b0000160 	adrp	x0, 42f000 <__FRAME_END__+0x1a654>
  402ab4:	91356000 	add	x0, x0, #0xd58
  402ab8:	f900d7e0 	str	x0, [sp, #424]
  402abc:	f940fbe0 	ldr	x0, [sp, #496]
  402ac0:	9101c2a1 	add	x1, x21, #0x70
  402ac4:	eb01001f 	cmp	x0, x1
  402ac8:	54000080 	b.eq	402ad8 <main+0x6d4>  // b.none
  402acc:	f94103e1 	ldr	x1, [sp, #512]
  402ad0:	91000421 	add	x1, x1, #0x1
  402ad4:	97fffd7b 	bl	4020c0 <_ZdlPvm@plt>
  402ad8:	b0000160 	adrp	x0, 42f000 <__FRAME_END__+0x1a654>
  402adc:	912dc000 	add	x0, x0, #0xb70
  402ae0:	f900d7e0 	str	x0, [sp, #424]
  402ae4:	910142a0 	add	x0, x21, #0x50
  402ae8:	97fffdae 	bl	4021a0 <_ZNSt6localeD1Ev@plt>
  402aec:	f900cbfc 	str	x28, [sp, #400]
  402af0:	f85e8380 	ldur	x0, [x28, #-24]
  402af4:	f9404be1 	ldr	x1, [sp, #144]
  402af8:	f8206aa1 	str	x1, [x21, x0]
  402afc:	f900d3fb 	str	x27, [sp, #416]
  402b00:	f85e8360 	ldur	x0, [x27, #-24]
  402b04:	910683e1 	add	x1, sp, #0x1a0
  402b08:	f9404fe2 	ldr	x2, [sp, #152]
  402b0c:	f8206822 	str	x2, [x1, x0]
  402b10:	f900cbf8 	str	x24, [sp, #400]
  402b14:	f85e8300 	ldur	x0, [x24, #-24]
  402b18:	f94047e1 	ldr	x1, [sp, #136]
  402b1c:	f8206aa1 	str	x1, [x21, x0]
  402b20:	f900cfff 	str	xzr, [sp, #408]
  402b24:	b0000160 	adrp	x0, 42f000 <__FRAME_END__+0x1a654>
  402b28:	912c0000 	add	x0, x0, #0xb00
  402b2c:	f9010be0 	str	x0, [sp, #528]
  402b30:	910202a0 	add	x0, x21, #0x80
  402b34:	97fffd1f 	bl	401fb0 <_ZNSt8ios_baseD2Ev@plt>
  402b38:	f9406fe0 	ldr	x0, [sp, #216]
  402b3c:	f9403fe1 	ldr	x1, [sp, #120]
  402b40:	8b010001 	add	x1, x0, x1
  402b44:	f940afe2 	ldr	x2, [sp, #344]
  402b48:	f9400421 	ldr	x1, [x1, #8]
  402b4c:	eb01005f 	cmp	x2, x1
  402b50:	540001a0 	b.eq	402b84 <main+0x780>  // b.none
  402b54:	90000081 	adrp	x1, 412000 <_Z19MD5Hash_simdversionPKNSt7__cxx1112basic_stringIcSt11char_traitsIcESaIcEEEP12__Uint32x4_t+0x1480>
  402b58:	91284021 	add	x1, x1, #0xa10
  402b5c:	d0000160 	adrp	x0, 430000 <_Znam@GLIBCXX_3.4>
  402b60:	91084000 	add	x0, x0, #0x210
  402b64:	97fffd4f 	bl	4020a0 <_ZStlsISt11char_traitsIcEERSt13basic_ostreamIcT_ES5_PKc@plt>
  402b68:	140002e8 	b	403708 <main+0x1304>
  402b6c:	aa0003f3 	mov	x19, x0
  402b70:	910543e0 	add	x0, sp, #0x150
  402b74:	97fffd67 	bl	402110 <_ZNSt7__cxx1112basic_stringIcSt11char_traitsIcESaIcEE10_M_disposeEv@plt>
  402b78:	910643e0 	add	x0, sp, #0x190
  402b7c:	97fffd41 	bl	402080 <_ZNSt7__cxx1118basic_stringstreamIcSt11char_traitsIcESaIcEED1Ev@plt>
  402b80:	17ffff6b 	b	40292c <main+0x528>
  402b84:	b40000c2 	cbz	x2, 402b9c <main+0x798>
  402b88:	f9403fe1 	ldr	x1, [sp, #120]
  402b8c:	f8616801 	ldr	x1, [x0, x1]
  402b90:	f940abe0 	ldr	x0, [sp, #336]
  402b94:	97fffd17 	bl	401ff0 <memcmp@plt>
  402b98:	35fffde0 	cbnz	w0, 402b54 <main+0x750>
  402b9c:	f940abe0 	ldr	x0, [sp, #336]
  402ba0:	f94043e1 	ldr	x1, [sp, #128]
  402ba4:	eb01001f 	cmp	x0, x1
  402ba8:	54000080 	b.eq	402bb8 <main+0x7b4>  // b.none
  402bac:	f940b3e1 	ldr	x1, [sp, #352]
  402bb0:	91000421 	add	x1, x1, #0x1
  402bb4:	97fffd43 	bl	4020c0 <_ZdlPvm@plt>
  402bb8:	f9403be0 	ldr	x0, [sp, #112]
  402bbc:	91000402 	add	x2, x0, #0x1
  402bc0:	f9003be2 	str	x2, [sp, #112]
  402bc4:	f94063e0 	ldr	x0, [sp, #192]
  402bc8:	f94067e1 	ldr	x1, [sp, #200]
  402bcc:	cb000021 	sub	x1, x1, x0
  402bd0:	eb81145f 	cmp	x2, x1, asr #5
  402bd4:	540005e2 	b.cs	402c90 <main+0x88c>  // b.hs, b.nlast
  402bd8:	f9403be1 	ldr	x1, [sp, #112]
  402bdc:	d37be821 	lsl	x1, x1, #5
  402be0:	aa0103e2 	mov	x2, x1
  402be4:	f9003fe1 	str	x1, [sp, #120]
  402be8:	910443e1 	add	x1, sp, #0x110
  402bec:	8b020000 	add	x0, x0, x2
  402bf0:	94003514 	bl	410040 <_Z7MD5HashRKNSt7__cxx1112basic_stringIcSt11char_traitsIcESaIcEEEPj>
  402bf4:	17fffeee 	b	4027ac <main+0x3a8>
  402bf8:	90000081 	adrp	x1, 412000 <_Z19MD5Hash_simdversionPKNSt7__cxx1112basic_stringIcSt11char_traitsIcESaIcEEEP12__Uint32x4_t+0x1480>
  402bfc:	91236021 	add	x1, x1, #0x8d8
  402c00:	97fffd28 	bl	4020a0 <_ZStlsISt11char_traitsIcEERSt13basic_ostreamIcT_ES5_PKc@plt>
  402c04:	97fffcf7 	bl	401fe0 <_ZSt4endlIcSt11char_traitsIcEERSt13basic_ostreamIT_T0_ES6_@plt>
  402c08:	90000081 	adrp	x1, 412000 <_Z19MD5Hash_simdversionPKNSt7__cxx1112basic_stringIcSt11char_traitsIcESaIcEEEP12__Uint32x4_t+0x1480>
  402c0c:	91238021 	add	x1, x1, #0x8e0
  402c10:	d0000160 	adrp	x0, 430000 <_Znam@GLIBCXX_3.4>
  402c14:	91084000 	add	x0, x0, #0x210
  402c18:	97fffd22 	bl	4020a0 <_ZStlsISt11char_traitsIcEERSt13basic_ostreamIcT_ES5_PKc@plt>
  402c1c:	f9406fe1 	ldr	x1, [sp, #216]
  402c20:	f9403fe3 	ldr	x3, [sp, #120]
  402c24:	8b030022 	add	x2, x1, x3
  402c28:	f9400442 	ldr	x2, [x2, #8]
  402c2c:	f8636821 	ldr	x1, [x1, x3]
  402c30:	97fffd30 	bl	4020f0 <_ZSt16__ostream_insertIcSt11char_traitsIcEERSt13basic_ostreamIT_T0_ES6_PKS3_l@plt>
  402c34:	90000081 	adrp	x1, 412000 <_Z19MD5Hash_simdversionPKNSt7__cxx1112basic_stringIcSt11char_traitsIcESaIcEEEP12__Uint32x4_t+0x1480>
  402c38:	9123c021 	add	x1, x1, #0x8f0
  402c3c:	97fffd19 	bl	4020a0 <_ZStlsISt11char_traitsIcEERSt13basic_ostreamIcT_ES5_PKc@plt>
  402c40:	f940afe2 	ldr	x2, [sp, #344]
  402c44:	f940abe1 	ldr	x1, [sp, #336]
  402c48:	97fffd2a 	bl	4020f0 <_ZSt16__ostream_insertIcSt11char_traitsIcEERSt13basic_ostreamIT_T0_ES6_PKS3_l@plt>
  402c4c:	97fffce5 	bl	401fe0 <_ZSt4endlIcSt11char_traitsIcEERSt13basic_ostreamIT_T0_ES6_@plt>
  402c50:	910543e0 	add	x0, sp, #0x150
  402c54:	97fffd2f 	bl	402110 <_ZNSt7__cxx1112basic_stringIcSt11char_traitsIcESaIcEE10_M_disposeEv@plt>
  402c58:	910363e0 	add	x0, sp, #0xd8
  402c5c:	940002c2 	bl	403764 <_ZNSt6vectorINSt7__cxx1112basic_stringIcSt11char_traitsIcESaIcEEESaIS5_EED1Ev>
  402c60:	910303e0 	add	x0, sp, #0xc0
  402c64:	940002c0 	bl	403764 <_ZNSt6vectorINSt7__cxx1112basic_stringIcSt11char_traitsIcESaIcEEESaIS5_EED1Ev>
  402c68:	52800020 	mov	w0, #0x1                   	// #1
  402c6c:	6d4627e8 	ldp	d8, d9, [sp, #96]
  402c70:	a94153f3 	ldp	x19, x20, [sp, #16]
  402c74:	a9425bf5 	ldp	x21, x22, [sp, #32]
  402c78:	a94363f7 	ldp	x23, x24, [sp, #48]
  402c7c:	a9446bf9 	ldp	x25, x26, [sp, #64]
  402c80:	a94573fb 	ldp	x27, x28, [sp, #80]
  402c84:	a9407bfd 	ldp	x29, x30, [sp]
  402c88:	911583ff 	add	sp, sp, #0x560
  402c8c:	d65f03c0 	ret
  402c90:	90000081 	adrp	x1, 412000 <_Z19MD5Hash_simdversionPKNSt7__cxx1112basic_stringIcSt11char_traitsIcESaIcEEEP12__Uint32x4_t+0x1480>
  402c94:	91240021 	add	x1, x1, #0x900
  402c98:	d0000160 	adrp	x0, 430000 <_Znam@GLIBCXX_3.4>
  402c9c:	91084000 	add	x0, x0, #0x210
  402ca0:	97fffd00 	bl	4020a0 <_ZStlsISt11char_traitsIcEERSt13basic_ostreamIcT_ES5_PKc@plt>
  402ca4:	97fffccf 	bl	401fe0 <_ZSt4endlIcSt11char_traitsIcEERSt13basic_ostreamIT_T0_ES6_@plt>
  402ca8:	90000081 	adrp	x1, 412000 <_Z19MD5Hash_simdversionPKNSt7__cxx1112basic_stringIcSt11char_traitsIcESaIcEEEP12__Uint32x4_t+0x1480>
  402cac:	91246021 	add	x1, x1, #0x918
  402cb0:	d0000160 	adrp	x0, 430000 <_Znam@GLIBCXX_3.4>
  402cb4:	91084000 	add	x0, x0, #0x210
  402cb8:	97fffcfa 	bl	4020a0 <_ZStlsISt11char_traitsIcEERSt13basic_ostreamIcT_ES5_PKc@plt>
  402cbc:	97fffcc9 	bl	401fe0 <_ZSt4endlIcSt11char_traitsIcEERSt13basic_ostreamIT_T0_ES6_@plt>
  402cc0:	f94063e0 	ldr	x0, [sp, #192]
  402cc4:	f94067e1 	ldr	x1, [sp, #200]
  402cc8:	eb00003f 	cmp	x1, x0
  402ccc:	54002920 	b.eq	4031f0 <main+0xdec>  // b.none
  402cd0:	f90057ff 	str	xzr, [sp, #168]
  402cd4:	f9005bff 	str	xzr, [sp, #176]
  402cd8:	910643f4 	add	x20, sp, #0x190
  402cdc:	91004295 	add	x21, x20, #0x10
  402ce0:	1400013f 	b	4031dc <main+0xdd8>
  402ce4:	910543e0 	add	x0, sp, #0x150
  402ce8:	f9003fe0 	str	x0, [sp, #120]
  402cec:	910583e0 	add	x0, sp, #0x160
  402cf0:	f90053e0 	str	x0, [sp, #160]
  402cf4:	f9003bf3 	str	x19, [sp, #112]
  402cf8:	910403e0 	add	x0, sp, #0x100
  402cfc:	f90043e0 	str	x0, [sp, #128]
  402d00:	140000ef 	b	4030bc <main+0xcb8>
  402d04:	b0000160 	adrp	x0, 42f000 <__FRAME_END__+0x1a654>
  402d08:	912c4000 	add	x0, x0, #0xb10
  402d0c:	f940101a 	ldr	x26, [x0, #32]
  402d10:	f900d3fa 	str	x26, [sp, #416]
  402d14:	f9401400 	ldr	x0, [x0, #40]
  402d18:	aa0003e2 	mov	x2, x0
  402d1c:	f9004fe0 	str	x0, [sp, #152]
  402d20:	f85e8340 	ldur	x0, [x26, #-24]
  402d24:	910683e1 	add	x1, sp, #0x1a0
  402d28:	f8206822 	str	x2, [x1, x0]
  402d2c:	f940d3e0 	ldr	x0, [sp, #416]
  402d30:	f85e8000 	ldur	x0, [x0, #-24]
  402d34:	d2800001 	mov	x1, #0x0                   	// #0
  402d38:	8b0002a0 	add	x0, x21, x0
  402d3c:	97fffd11 	bl	402180 <_ZNSt9basic_iosIcSt11char_traitsIcEE4initEPSt15basic_streambufIcS1_E@plt>
  402d40:	b0000160 	adrp	x0, 42f000 <__FRAME_END__+0x1a654>
  402d44:	912c4000 	add	x0, x0, #0xb10
  402d48:	f940041b 	ldr	x27, [x0, #8]
  402d4c:	f900cbfb 	str	x27, [sp, #400]
  402d50:	f9401800 	ldr	x0, [x0, #48]
  402d54:	aa0003e1 	mov	x1, x0
  402d58:	f9004be0 	str	x0, [sp, #144]
  402d5c:	f85e8360 	ldur	x0, [x27, #-24]
  402d60:	f8206a81 	str	x1, [x20, x0]
  402d64:	b0000160 	adrp	x0, 42f000 <__FRAME_END__+0x1a654>
  402d68:	91312000 	add	x0, x0, #0xc48
  402d6c:	f900cbe0 	str	x0, [sp, #400]
  402d70:	b0000160 	adrp	x0, 42f000 <__FRAME_END__+0x1a654>
  402d74:	91326000 	add	x0, x0, #0xc98
  402d78:	f9010be0 	str	x0, [sp, #528]
  402d7c:	b0000160 	adrp	x0, 42f000 <__FRAME_END__+0x1a654>
  402d80:	9131c000 	add	x0, x0, #0xc70
  402d84:	f900d3e0 	str	x0, [sp, #416]
  402d88:	b0000160 	adrp	x0, 42f000 <__FRAME_END__+0x1a654>
  402d8c:	912dc000 	add	x0, x0, #0xb70
  402d90:	f900d7e0 	str	x0, [sp, #424]
  402d94:	f900dbff 	str	xzr, [sp, #432]
  402d98:	f900dfff 	str	xzr, [sp, #440]
  402d9c:	f900e3ff 	str	xzr, [sp, #448]
  402da0:	f900e7ff 	str	xzr, [sp, #456]
  402da4:	f900ebff 	str	xzr, [sp, #464]
  402da8:	f900efff 	str	xzr, [sp, #472]
  402dac:	91014280 	add	x0, x20, #0x50
  402db0:	97fffd40 	bl	4022b0 <_ZNSt6localeC1Ev@plt>
  402db4:	b0000160 	adrp	x0, 42f000 <__FRAME_END__+0x1a654>
  402db8:	91356000 	add	x0, x0, #0xd58
  402dbc:	f900d7e0 	str	x0, [sp, #424]
  402dc0:	52800300 	mov	w0, #0x18                  	// #24
  402dc4:	b901ebe0 	str	w0, [sp, #488]
  402dc8:	9101c280 	add	x0, x20, #0x70
  402dcc:	f900fbe0 	str	x0, [sp, #496]
  402dd0:	f900ffff 	str	xzr, [sp, #504]
  402dd4:	390803ff 	strb	wzr, [sp, #512]
  402dd8:	91006281 	add	x1, x20, #0x18
  402ddc:	91020280 	add	x0, x20, #0x80
  402de0:	97fffce8 	bl	402180 <_ZNSt9basic_iosIcSt11char_traitsIcEE4initEPSt15basic_streambufIcS1_E@plt>
  402de4:	14000018 	b	402e44 <main+0xa40>
  402de8:	f900cbf9 	str	x25, [sp, #400]
  402dec:	f85e8321 	ldur	x1, [x25, #-24]
  402df0:	910643e2 	add	x2, sp, #0x190
  402df4:	f94047e3 	ldr	x3, [sp, #136]
  402df8:	f8216843 	str	x3, [x2, x1]
  402dfc:	f900cfff 	str	xzr, [sp, #408]
  402e00:	aa0003f3 	mov	x19, x0
  402e04:	b0000160 	adrp	x0, 42f000 <__FRAME_END__+0x1a654>
  402e08:	912c0000 	add	x0, x0, #0xb00
  402e0c:	f9010be0 	str	x0, [sp, #528]
  402e10:	910843e0 	add	x0, sp, #0x210
  402e14:	97fffc67 	bl	401fb0 <_ZNSt8ios_baseD2Ev@plt>
  402e18:	17fffec5 	b	40292c <main+0x528>
  402e1c:	aa0003f3 	mov	x19, x0
  402e20:	9106a3e0 	add	x0, sp, #0x1a8
  402e24:	9400041f 	bl	403ea0 <_ZNSt7__cxx1115basic_stringbufIcSt11char_traitsIcESaIcEED1Ev>
  402e28:	b0000161 	adrp	x1, 42f000 <__FRAME_END__+0x1a654>
  402e2c:	912c6021 	add	x1, x1, #0xb18
  402e30:	910643e0 	add	x0, sp, #0x190
  402e34:	97fffc43 	bl	401f40 <_ZNSdD2Ev@plt>
  402e38:	17fffff3 	b	402e04 <main+0xa00>
  402e3c:	aa0003f3 	mov	x19, x0
  402e40:	17fffff1 	b	402e04 <main+0xa00>
  402e44:	f9403ff7 	ldr	x23, [sp, #120]
  402e48:	52800096 	mov	w22, #0x4                   	// #4
  402e4c:	d280011c 	mov	x28, #0x8                   	// #8
  402e50:	14000016 	b	402ea8 <main+0xaa4>
  402e54:	f9407a78 	ldr	x24, [x19, #240]
  402e58:	b40000d8 	cbz	x24, 402e70 <main+0xa6c>
  402e5c:	3940e300 	ldrb	w0, [x24, #56]
  402e60:	340000e0 	cbz	w0, 402e7c <main+0xa78>
  402e64:	52800020 	mov	w0, #0x1                   	// #1
  402e68:	39038660 	strb	w0, [x19, #225]
  402e6c:	14000019 	b	402ed0 <main+0xacc>
  402e70:	97fffcb0 	bl	402130 <_ZSt16__throw_bad_castv@plt>
  402e74:	aa0003f3 	mov	x19, x0
  402e78:	14000079 	b	40305c <main+0xc58>
  402e7c:	aa1803e0 	mov	x0, x24
  402e80:	97fffca0 	bl	402100 <_ZNKSt5ctypeIcE13_M_widen_initEv@plt>
  402e84:	f9400300 	ldr	x0, [x24]
  402e88:	f9401802 	ldr	x2, [x0, #48]
  402e8c:	52800401 	mov	w1, #0x20                  	// #32
  402e90:	aa1803e0 	mov	x0, x24
  402e94:	d63f0040 	blr	x2
  402e98:	17fffff3 	b	402e64 <main+0xa60>
  402e9c:	910042f7 	add	x23, x23, #0x10
  402ea0:	710006d6 	subs	w22, w22, #0x1
  402ea4:	54000320 	b.eq	402f08 <main+0xb04>  // b.none
  402ea8:	f940d3e0 	ldr	x0, [sp, #416]
  402eac:	f85e8000 	ldur	x0, [x0, #-24]
  402eb0:	910683e1 	add	x1, sp, #0x1a0
  402eb4:	8b000020 	add	x0, x1, x0
  402eb8:	f900081c 	str	x28, [x0, #16]
  402ebc:	f940d3e0 	ldr	x0, [sp, #416]
  402ec0:	f85e8013 	ldur	x19, [x0, #-24]
  402ec4:	8b1302b3 	add	x19, x21, x19
  402ec8:	39438660 	ldrb	w0, [x19, #225]
  402ecc:	34fffc40 	cbz	w0, 402e54 <main+0xa50>
  402ed0:	52800600 	mov	w0, #0x30                  	// #48
  402ed4:	39038260 	strb	w0, [x19, #224]
  402ed8:	f940d3e0 	ldr	x0, [sp, #416]
  402edc:	f85e8001 	ldur	x1, [x0, #-24]
  402ee0:	8b0102a1 	add	x1, x21, x1
  402ee4:	b9401820 	ldr	w0, [x1, #24]
  402ee8:	12800942 	mov	w2, #0xffffffb5            	// #-75
  402eec:	0a020000 	and	w0, w0, w2
  402ef0:	321d0000 	orr	w0, w0, #0x8
  402ef4:	b9001820 	str	w0, [x1, #24]
  402ef8:	b94002e1 	ldr	w1, [x23]
  402efc:	aa1503e0 	mov	x0, x21
  402f00:	97fffc4c 	bl	402030 <_ZNSo9_M_insertImEERSoT_@plt>
  402f04:	17ffffe6 	b	402e9c <main+0xa98>
  402f08:	f94043e0 	ldr	x0, [sp, #128]
  402f0c:	f9007be0 	str	x0, [sp, #240]
  402f10:	f9007fff 	str	xzr, [sp, #248]
  402f14:	390403ff 	strb	wzr, [sp, #256]
  402f18:	f940ebe0 	ldr	x0, [sp, #464]
  402f1c:	b4000240 	cbz	x0, 402f64 <main+0xb60>
  402f20:	f940e3e4 	ldr	x4, [sp, #448]
  402f24:	eb04001f 	cmp	x0, x4
  402f28:	54000109 	b.ls	402f48 <main+0xb44>  // b.plast
  402f2c:	f940e7e3 	ldr	x3, [sp, #456]
  402f30:	cb030004 	sub	x4, x0, x3
  402f34:	d2800002 	mov	x2, #0x0                   	// #0
  402f38:	d2800001 	mov	x1, #0x0                   	// #0
  402f3c:	9103c3e0 	add	x0, sp, #0xf0
  402f40:	97fffca8 	bl	4021e0 <_ZNSt7__cxx1112basic_stringIcSt11char_traitsIcESaIcEE10_M_replaceEmmPKcm@plt>
  402f44:	1400000b 	b	402f70 <main+0xb6c>
  402f48:	f940e7e3 	ldr	x3, [sp, #456]
  402f4c:	cb030084 	sub	x4, x4, x3
  402f50:	d2800002 	mov	x2, #0x0                   	// #0
  402f54:	d2800001 	mov	x1, #0x0                   	// #0
  402f58:	9103c3e0 	add	x0, sp, #0xf0
  402f5c:	97fffca1 	bl	4021e0 <_ZNSt7__cxx1112basic_stringIcSt11char_traitsIcESaIcEE10_M_replaceEmmPKcm@plt>
  402f60:	14000004 	b	402f70 <main+0xb6c>
  402f64:	91018281 	add	x1, x20, #0x60
  402f68:	9103c3e0 	add	x0, sp, #0xf0
  402f6c:	97fffc29 	bl	402010 <_ZNSt7__cxx1112basic_stringIcSt11char_traitsIcESaIcEE9_M_assignERKS4_@plt>
  402f70:	b0000160 	adrp	x0, 42f000 <__FRAME_END__+0x1a654>
  402f74:	91312000 	add	x0, x0, #0xc48
  402f78:	f900cbe0 	str	x0, [sp, #400]
  402f7c:	b0000160 	adrp	x0, 42f000 <__FRAME_END__+0x1a654>
  402f80:	91326000 	add	x0, x0, #0xc98
  402f84:	f9010be0 	str	x0, [sp, #528]
  402f88:	b0000160 	adrp	x0, 42f000 <__FRAME_END__+0x1a654>
  402f8c:	9131c000 	add	x0, x0, #0xc70
  402f90:	f900d3e0 	str	x0, [sp, #416]
  402f94:	b0000160 	adrp	x0, 42f000 <__FRAME_END__+0x1a654>
  402f98:	91356000 	add	x0, x0, #0xd58
  402f9c:	f900d7e0 	str	x0, [sp, #424]
  402fa0:	f940fbe0 	ldr	x0, [sp, #496]
  402fa4:	9101c281 	add	x1, x20, #0x70
  402fa8:	eb01001f 	cmp	x0, x1
  402fac:	54000080 	b.eq	402fbc <main+0xbb8>  // b.none
  402fb0:	f94103e1 	ldr	x1, [sp, #512]
  402fb4:	91000421 	add	x1, x1, #0x1
  402fb8:	97fffc42 	bl	4020c0 <_ZdlPvm@plt>
  402fbc:	b0000160 	adrp	x0, 42f000 <__FRAME_END__+0x1a654>
  402fc0:	912dc000 	add	x0, x0, #0xb70
  402fc4:	f900d7e0 	str	x0, [sp, #424]
  402fc8:	91014280 	add	x0, x20, #0x50
  402fcc:	97fffc75 	bl	4021a0 <_ZNSt6localeD1Ev@plt>
  402fd0:	f900cbfb 	str	x27, [sp, #400]
  402fd4:	f85e8360 	ldur	x0, [x27, #-24]
  402fd8:	f9404be1 	ldr	x1, [sp, #144]
  402fdc:	f8206a81 	str	x1, [x20, x0]
  402fe0:	f900d3fa 	str	x26, [sp, #416]
  402fe4:	f85e8340 	ldur	x0, [x26, #-24]
  402fe8:	910683e1 	add	x1, sp, #0x1a0
  402fec:	f9404fe2 	ldr	x2, [sp, #152]
  402ff0:	f8206822 	str	x2, [x1, x0]
  402ff4:	f900cbf9 	str	x25, [sp, #400]
  402ff8:	f85e8320 	ldur	x0, [x25, #-24]
  402ffc:	f94047e1 	ldr	x1, [sp, #136]
  403000:	f8206a81 	str	x1, [x20, x0]
  403004:	f900cfff 	str	xzr, [sp, #408]
  403008:	90000160 	adrp	x0, 42f000 <__FRAME_END__+0x1a654>
  40300c:	912c0000 	add	x0, x0, #0xb00
  403010:	f9010be0 	str	x0, [sp, #528]
  403014:	91020280 	add	x0, x20, #0x80
  403018:	97fffbe6 	bl	401fb0 <_ZNSt8ios_baseD2Ev@plt>
  40301c:	f9406fe0 	ldr	x0, [sp, #216]
  403020:	f9403be1 	ldr	x1, [sp, #112]
  403024:	8b010000 	add	x0, x0, x1
  403028:	f9407fe2 	ldr	x2, [sp, #248]
  40302c:	f9400401 	ldr	x1, [x0, #8]
  403030:	eb01005f 	cmp	x2, x1
  403034:	540001a0 	b.eq	403068 <main+0xc64>  // b.none
  403038:	f0000061 	adrp	x1, 412000 <_Z19MD5Hash_simdversionPKNSt7__cxx1112basic_stringIcSt11char_traitsIcESaIcEEEP12__Uint32x4_t+0x1480>
  40303c:	9127c021 	add	x1, x1, #0x9f0
  403040:	b0000160 	adrp	x0, 430000 <_Znam@GLIBCXX_3.4>
  403044:	91084000 	add	x0, x0, #0x210
  403048:	97fffc16 	bl	4020a0 <_ZStlsISt11char_traitsIcEERSt13basic_ostreamIcT_ES5_PKc@plt>
  40304c:	140001a8 	b	4036ec <main+0x12e8>
  403050:	aa0003f3 	mov	x19, x0
  403054:	9103c3e0 	add	x0, sp, #0xf0
  403058:	97fffc2e 	bl	402110 <_ZNSt7__cxx1112basic_stringIcSt11char_traitsIcESaIcEE10_M_disposeEv@plt>
  40305c:	910643e0 	add	x0, sp, #0x190
  403060:	97fffc08 	bl	402080 <_ZNSt7__cxx1118basic_stringstreamIcSt11char_traitsIcESaIcEED1Ev@plt>
  403064:	17fffe32 	b	40292c <main+0x528>
  403068:	b40000a2 	cbz	x2, 40307c <main+0xc78>
  40306c:	f9400001 	ldr	x1, [x0]
  403070:	f9407be0 	ldr	x0, [sp, #240]
  403074:	97fffbdf 	bl	401ff0 <memcmp@plt>
  403078:	35fffe00 	cbnz	w0, 403038 <main+0xc34>
  40307c:	f9407be0 	ldr	x0, [sp, #240]
  403080:	f94043e1 	ldr	x1, [sp, #128]
  403084:	eb01001f 	cmp	x0, x1
  403088:	54000080 	b.eq	403098 <main+0xc94>  // b.none
  40308c:	f94083e1 	ldr	x1, [sp, #256]
  403090:	91000421 	add	x1, x1, #0x1
  403094:	97fffc0b 	bl	4020c0 <_ZdlPvm@plt>
  403098:	f9403be0 	ldr	x0, [sp, #112]
  40309c:	91008000 	add	x0, x0, #0x20
  4030a0:	f9003be0 	str	x0, [sp, #112]
  4030a4:	f9403fe0 	ldr	x0, [sp, #120]
  4030a8:	91001000 	add	x0, x0, #0x4
  4030ac:	f9003fe0 	str	x0, [sp, #120]
  4030b0:	f94053e1 	ldr	x1, [sp, #160]
  4030b4:	eb01001f 	cmp	x0, x1
  4030b8:	540007c0 	b.eq	4031b0 <main+0xdac>  // b.none
  4030bc:	3dc047e0 	ldr	q0, [sp, #272]
  4030c0:	3d8057e0 	str	q0, [sp, #336]
  4030c4:	3dc04be0 	ldr	q0, [sp, #288]
  4030c8:	3d805be0 	str	q0, [sp, #352]
  4030cc:	3dc04fe0 	ldr	q0, [sp, #304]
  4030d0:	3d805fe0 	str	q0, [sp, #368]
  4030d4:	3dc053e0 	ldr	q0, [sp, #320]
  4030d8:	3d8063e0 	str	q0, [sp, #384]
  4030dc:	91020280 	add	x0, x20, #0x80
  4030e0:	97fffba8 	bl	401f80 <_ZNSt8ios_baseC2Ev@plt>
  4030e4:	90000160 	adrp	x0, 42f000 <__FRAME_END__+0x1a654>
  4030e8:	912c0000 	add	x0, x0, #0xb00
  4030ec:	f9010be0 	str	x0, [sp, #528]
  4030f0:	f90177ff 	str	xzr, [sp, #744]
  4030f4:	390bc3ff 	strb	wzr, [sp, #752]
  4030f8:	390bc7ff 	strb	wzr, [sp, #753]
  4030fc:	f9017fff 	str	xzr, [sp, #760]
  403100:	f90183ff 	str	xzr, [sp, #768]
  403104:	f90187ff 	str	xzr, [sp, #776]
  403108:	f9018bff 	str	xzr, [sp, #784]
  40310c:	90000160 	adrp	x0, 42f000 <__FRAME_END__+0x1a654>
  403110:	912c4000 	add	x0, x0, #0xb10
  403114:	f9400819 	ldr	x25, [x0, #16]
  403118:	f900cbf9 	str	x25, [sp, #400]
  40311c:	f9400c00 	ldr	x0, [x0, #24]
  403120:	aa0003e1 	mov	x1, x0
  403124:	f90047e0 	str	x0, [sp, #136]
  403128:	f85e8320 	ldur	x0, [x25, #-24]
  40312c:	f8206a81 	str	x1, [x20, x0]
  403130:	f900cfff 	str	xzr, [sp, #408]
  403134:	f940cbe0 	ldr	x0, [sp, #400]
  403138:	f85e8000 	ldur	x0, [x0, #-24]
  40313c:	d2800001 	mov	x1, #0x0                   	// #0
  403140:	8b000280 	add	x0, x20, x0
  403144:	97fffc0f 	bl	402180 <_ZNSt9basic_iosIcSt11char_traitsIcEE4initEPSt15basic_streambufIcS1_E@plt>
  403148:	17fffeef 	b	402d04 <main+0x900>
  40314c:	f0000061 	adrp	x1, 412000 <_Z19MD5Hash_simdversionPKNSt7__cxx1112basic_stringIcSt11char_traitsIcESaIcEEEP12__Uint32x4_t+0x1480>
  403150:	91236021 	add	x1, x1, #0x8d8
  403154:	97fffbd3 	bl	4020a0 <_ZStlsISt11char_traitsIcEERSt13basic_ostreamIcT_ES5_PKc@plt>
  403158:	97fffba2 	bl	401fe0 <_ZSt4endlIcSt11char_traitsIcEERSt13basic_ostreamIT_T0_ES6_@plt>
  40315c:	f0000061 	adrp	x1, 412000 <_Z19MD5Hash_simdversionPKNSt7__cxx1112basic_stringIcSt11char_traitsIcESaIcEEEP12__Uint32x4_t+0x1480>
  403160:	91238021 	add	x1, x1, #0x8e0
  403164:	b0000160 	adrp	x0, 430000 <_Znam@GLIBCXX_3.4>
  403168:	91084000 	add	x0, x0, #0x210
  40316c:	97fffbcd 	bl	4020a0 <_ZStlsISt11char_traitsIcEERSt13basic_ostreamIcT_ES5_PKc@plt>
  403170:	f9406fe1 	ldr	x1, [sp, #216]
  403174:	f9403be3 	ldr	x3, [sp, #112]
  403178:	8b030022 	add	x2, x1, x3
  40317c:	f9400442 	ldr	x2, [x2, #8]
  403180:	f8636821 	ldr	x1, [x1, x3]
  403184:	97fffbdb 	bl	4020f0 <_ZSt16__ostream_insertIcSt11char_traitsIcEERSt13basic_ostreamIT_T0_ES6_PKS3_l@plt>
  403188:	f0000061 	adrp	x1, 412000 <_Z19MD5Hash_simdversionPKNSt7__cxx1112basic_stringIcSt11char_traitsIcESaIcEEEP12__Uint32x4_t+0x1480>
  40318c:	9123c021 	add	x1, x1, #0x8f0
  403190:	97fffbc4 	bl	4020a0 <_ZStlsISt11char_traitsIcEERSt13basic_ostreamIcT_ES5_PKc@plt>
  403194:	f9407fe2 	ldr	x2, [sp, #248]
  403198:	f9407be1 	ldr	x1, [sp, #240]
  40319c:	97fffbd5 	bl	4020f0 <_ZSt16__ostream_insertIcSt11char_traitsIcEERSt13basic_ostreamIT_T0_ES6_PKS3_l@plt>
  4031a0:	97fffb90 	bl	401fe0 <_ZSt4endlIcSt11char_traitsIcEERSt13basic_ostreamIT_T0_ES6_@plt>
  4031a4:	9103c3e0 	add	x0, sp, #0xf0
  4031a8:	97fffbda 	bl	402110 <_ZNSt7__cxx1112basic_stringIcSt11char_traitsIcESaIcEE10_M_disposeEv@plt>
  4031ac:	17fffeab 	b	402c58 <main+0x854>
  4031b0:	f9405be0 	ldr	x0, [sp, #176]
  4031b4:	91001002 	add	x2, x0, #0x4
  4031b8:	f9005be2 	str	x2, [sp, #176]
  4031bc:	f94063e0 	ldr	x0, [sp, #192]
  4031c0:	f94057e1 	ldr	x1, [sp, #168]
  4031c4:	91020021 	add	x1, x1, #0x80
  4031c8:	f90057e1 	str	x1, [sp, #168]
  4031cc:	f94067e1 	ldr	x1, [sp, #200]
  4031d0:	cb000021 	sub	x1, x1, x0
  4031d4:	eb81145f 	cmp	x2, x1, asr #5
  4031d8:	540000c2 	b.cs	4031f0 <main+0xdec>  // b.hs, b.nlast
  4031dc:	910443e1 	add	x1, sp, #0x110
  4031e0:	f94057f3 	ldr	x19, [sp, #168]
  4031e4:	8b130000 	add	x0, x0, x19
  4031e8:	94003666 	bl	410b80 <_Z19MD5Hash_simdversionPKNSt7__cxx1112basic_stringIcSt11char_traitsIcESaIcEEEP12__Uint32x4_t>
  4031ec:	17fffebe 	b	402ce4 <main+0x8e0>
  4031f0:	f0000061 	adrp	x1, 412000 <_Z19MD5Hash_simdversionPKNSt7__cxx1112basic_stringIcSt11char_traitsIcESaIcEEEP12__Uint32x4_t+0x1480>
  4031f4:	91252021 	add	x1, x1, #0x948
  4031f8:	b0000160 	adrp	x0, 430000 <_Znam@GLIBCXX_3.4>
  4031fc:	91084000 	add	x0, x0, #0x210
  403200:	97fffba8 	bl	4020a0 <_ZStlsISt11char_traitsIcEERSt13basic_ostreamIcT_ES5_PKc@plt>
  403204:	97fffb77 	bl	401fe0 <_ZSt4endlIcSt11char_traitsIcEERSt13basic_ostreamIT_T0_ES6_@plt>
  403208:	910363e0 	add	x0, sp, #0xd8
  40320c:	94000156 	bl	403764 <_ZNSt6vectorINSt7__cxx1112basic_stringIcSt11char_traitsIcESaIcEEESaIS5_EED1Ev>
  403210:	910303e0 	add	x0, sp, #0xc0
  403214:	94000154 	bl	403764 <_ZNSt6vectorINSt7__cxx1112basic_stringIcSt11char_traitsIcESaIcEEESaIS5_EED1Ev>
  403218:	f90193ff 	str	xzr, [sp, #800]
  40321c:	f90197ff 	str	xzr, [sp, #808]
  403220:	f9019bff 	str	xzr, [sp, #816]
  403224:	12800000 	mov	w0, #0xffffffff            	// #-1
  403228:	b9033be0 	str	w0, [sp, #824]
  40322c:	b9033fe0 	str	w0, [sp, #828]
  403230:	b90343e0 	str	w0, [sp, #832]
  403234:	b90347e0 	str	w0, [sp, #836]
  403238:	b9034bff 	str	wzr, [sp, #840]
  40323c:	f901abff 	str	xzr, [sp, #848]
  403240:	f901afff 	str	xzr, [sp, #856]
  403244:	f901b3ff 	str	xzr, [sp, #864]
  403248:	f901b7ff 	str	xzr, [sp, #872]
  40324c:	f901bbff 	str	xzr, [sp, #880]
  403250:	f901bfff 	str	xzr, [sp, #888]
  403254:	f901c3ff 	str	xzr, [sp, #896]
  403258:	f901c7ff 	str	xzr, [sp, #904]
  40325c:	f901cbff 	str	xzr, [sp, #912]
  403260:	f901cfff 	str	xzr, [sp, #920]
  403264:	f901d3ff 	str	xzr, [sp, #928]
  403268:	f901d7ff 	str	xzr, [sp, #936]
  40326c:	910f83e0 	add	x0, sp, #0x3e0
  403270:	f901dbe0 	str	x0, [sp, #944]
  403274:	d2800021 	mov	x1, #0x1                   	// #1
  403278:	f901dfe1 	str	x1, [sp, #952]
  40327c:	f901e3ff 	str	xzr, [sp, #960]
  403280:	f901e7ff 	str	xzr, [sp, #968]
  403284:	1e2e1000 	fmov	s0, #1.000000000000000000e+00
  403288:	bd03d3e0 	str	s0, [sp, #976]
  40328c:	f901efff 	str	xzr, [sp, #984]
  403290:	f901f3ff 	str	xzr, [sp, #992]
  403294:	911063e0 	add	x0, sp, #0x418
  403298:	f901f7e0 	str	x0, [sp, #1000]
  40329c:	f901fbe1 	str	x1, [sp, #1008]
  4032a0:	f901ffff 	str	xzr, [sp, #1016]
  4032a4:	f90203ff 	str	xzr, [sp, #1024]
  4032a8:	bd040be0 	str	s0, [sp, #1032]
  4032ac:	f9020bff 	str	xzr, [sp, #1040]
  4032b0:	f9020fff 	str	xzr, [sp, #1048]
  4032b4:	911143e0 	add	x0, sp, #0x450
  4032b8:	f90213e0 	str	x0, [sp, #1056]
  4032bc:	f90217e1 	str	x1, [sp, #1064]
  4032c0:	f9021bff 	str	xzr, [sp, #1072]
  4032c4:	f9021fff 	str	xzr, [sp, #1080]
  4032c8:	bd0443e0 	str	s0, [sp, #1088]
  4032cc:	f90227ff 	str	xzr, [sp, #1096]
  4032d0:	f9022bff 	str	xzr, [sp, #1104]
  4032d4:	911223e0 	add	x0, sp, #0x488
  4032d8:	f9022fe0 	str	x0, [sp, #1112]
  4032dc:	f90233e1 	str	x1, [sp, #1120]
  4032e0:	f90237ff 	str	xzr, [sp, #1128]
  4032e4:	f9023bff 	str	xzr, [sp, #1136]
  4032e8:	bd047be0 	str	s0, [sp, #1144]
  4032ec:	f90243ff 	str	xzr, [sp, #1152]
  4032f0:	f90247ff 	str	xzr, [sp, #1160]
  4032f4:	f9024bff 	str	xzr, [sp, #1168]
  4032f8:	f9024fff 	str	xzr, [sp, #1176]
  4032fc:	f90253ff 	str	xzr, [sp, #1184]
  403300:	b904abff 	str	wzr, [sp, #1192]
  403304:	f9025bff 	str	xzr, [sp, #1200]
  403308:	f9025fff 	str	xzr, [sp, #1208]
  40330c:	f90263ff 	str	xzr, [sp, #1216]
  403310:	97fffb00 	bl	401f10 <_ZNSt6chrono3_V212system_clock3nowEv@plt>
  403314:	aa0003f9 	mov	x25, x0
  403318:	911323e2 	add	x2, sp, #0x4c8
  40331c:	f0000061 	adrp	x1, 412000 <_Z19MD5Hash_simdversionPKNSt7__cxx1112basic_stringIcSt11char_traitsIcESaIcEEEP12__Uint32x4_t+0x1480>
  403320:	9125c021 	add	x1, x1, #0x970
  403324:	910643e0 	add	x0, sp, #0x190
  403328:	97fffb9a 	bl	402190 <_ZNSt7__cxx1112basic_stringIcSt11char_traitsIcESaIcEEC1EPKcRKS3_@plt>
  40332c:	1400000d 	b	403360 <main+0xf5c>
  403330:	aa0003f3 	mov	x19, x0
  403334:	910543e0 	add	x0, sp, #0x150
  403338:	97fffb76 	bl	402110 <_ZNSt7__cxx1112basic_stringIcSt11char_traitsIcESaIcEE10_M_disposeEv@plt>
  40333c:	17fffd7c 	b	40292c <main+0x528>
  403340:	aa0003f3 	mov	x19, x0
  403344:	9103c3e0 	add	x0, sp, #0xf0
  403348:	97fffb72 	bl	402110 <_ZNSt7__cxx1112basic_stringIcSt11char_traitsIcESaIcEE10_M_disposeEv@plt>
  40334c:	17fffd78 	b	40292c <main+0x528>
  403350:	aa0003f3 	mov	x19, x0
  403354:	17fffd76 	b	40292c <main+0x528>
  403358:	aa0003f3 	mov	x19, x0
  40335c:	17fffcf1 	b	402720 <main+0x31c>
  403360:	910643e1 	add	x1, sp, #0x190
  403364:	910ce3e0 	add	x0, sp, #0x338
  403368:	940015d2 	bl	408ab0 <_ZN5model5trainENSt7__cxx1112basic_stringIcSt11char_traitsIcESaIcEEE>
  40336c:	910643e0 	add	x0, sp, #0x190
  403370:	97fffb68 	bl	402110 <_ZNSt7__cxx1112basic_stringIcSt11char_traitsIcESaIcEE10_M_disposeEv@plt>
  403374:	910ce3e0 	add	x0, sp, #0x338
  403378:	940016e7 	bl	408f14 <_ZN5model5orderEv>
  40337c:	97fffae5 	bl	401f10 <_ZNSt6chrono3_V212system_clock3nowEv@plt>
  403380:	aa0003f8 	mov	x24, x0
  403384:	910c83e0 	add	x0, sp, #0x320
  403388:	94002ae8 	bl	40df28 <_ZN13PriorityQueue4initEv>
  40338c:	f0000061 	adrp	x1, 412000 <_Z19MD5Hash_simdversionPKNSt7__cxx1112basic_stringIcSt11char_traitsIcESaIcEEEP12__Uint32x4_t+0x1480>
  403390:	91266021 	add	x1, x1, #0x998
  403394:	b0000160 	adrp	x0, 430000 <_Znam@GLIBCXX_3.4>
  403398:	91084000 	add	x0, x0, #0x210
  40339c:	97fffb41 	bl	4020a0 <_ZStlsISt11char_traitsIcEERSt13basic_ostreamIcT_ES5_PKc@plt>
  4033a0:	97fffb10 	bl	401fe0 <_ZSt4endlIcSt11char_traitsIcEERSt13basic_ostreamIT_T0_ES6_@plt>
  4033a4:	97fffadb 	bl	401f10 <_ZNSt6chrono3_V212system_clock3nowEv@plt>
  4033a8:	aa0003fa 	mov	x26, x0
  4033ac:	52800015 	mov	w21, #0x0                   	// #0
  4033b0:	2f00e408 	movi	d8, #0x0
  4033b4:	5290d3f4 	mov	w20, #0x869f                	// #34463
  4033b8:	72a00034 	movk	w20, #0x1, lsl #16
  4033bc:	f0000060 	adrp	x0, 412000 <_Z19MD5Hash_simdversionPKNSt7__cxx1112basic_stringIcSt11char_traitsIcESaIcEEEP12__Uint32x4_t+0x1480>
  4033c0:	fd451809 	ldr	d9, [x0, #2608]
  4033c4:	52800013 	mov	w19, #0x0                   	// #0
  4033c8:	f0000076 	adrp	x22, 412000 <_Z19MD5Hash_simdversionPKNSt7__cxx1112basic_stringIcSt11char_traitsIcESaIcEEEP12__Uint32x4_t+0x1480>
  4033cc:	912682d6 	add	x22, x22, #0x9a0
  4033d0:	5292d017 	mov	w23, #0x9680                	// #38528
  4033d4:	72a01317 	movk	w23, #0x98, lsl #16
  4033d8:	1400000d 	b	40340c <main+0x1008>
  4033dc:	f9425fe1 	ldr	x1, [sp, #1208]
  4033e0:	f9425be0 	ldr	x0, [sp, #1200]
  4033e4:	cb000021 	sub	x1, x1, x0
  4033e8:	9345fc21 	asr	x1, x1, #5
  4033ec:	b904abe1 	str	w1, [sp, #1192]
  4033f0:	4b130021 	sub	w1, w1, w19
  4033f4:	6b14003f 	cmp	w1, w20
  4033f8:	5400018c 	b.gt	403428 <main+0x1024>
  4033fc:	52884800 	mov	w0, #0x4240                	// #16960
  403400:	72a001e0 	movk	w0, #0xf, lsl #16
  403404:	6b00027f 	cmp	w19, w0
  403408:	54000c2c 	b.gt	40358c <main+0x1188>
  40340c:	f94193e1 	ldr	x1, [sp, #800]
  403410:	f94197e0 	ldr	x0, [sp, #808]
  403414:	eb00003f 	cmp	x1, x0
  403418:	54001540 	b.eq	4036c0 <main+0x12bc>  // b.none
  40341c:	910c83e0 	add	x0, sp, #0x320
  403420:	94002ee8 	bl	40efc0 <_ZN13PriorityQueue7PopNextEv>
  403424:	17ffffee 	b	4033dc <main+0xfd8>
  403428:	d2800262 	mov	x2, #0x13                  	// #19
  40342c:	aa1603e1 	mov	x1, x22
  403430:	b0000160 	adrp	x0, 430000 <_Znam@GLIBCXX_3.4>
  403434:	91084000 	add	x0, x0, #0x210
  403438:	97fffb2e 	bl	4020f0 <_ZSt16__ostream_insertIcSt11char_traitsIcEERSt13basic_ostreamIT_T0_ES6_PKS3_l@plt>
  40343c:	b944abe1 	ldr	w1, [sp, #1192]
  403440:	0b0102a1 	add	w1, w21, w1
  403444:	b0000160 	adrp	x0, 430000 <_Znam@GLIBCXX_3.4>
  403448:	91084000 	add	x0, x0, #0x210
  40344c:	97fffb81 	bl	402250 <_ZNSolsEi@plt>
  403450:	aa0003f3 	mov	x19, x0
  403454:	f9400000 	ldr	x0, [x0]
  403458:	f85e8000 	ldur	x0, [x0, #-24]
  40345c:	8b000260 	add	x0, x19, x0
  403460:	f940781b 	ldr	x27, [x0, #240]
  403464:	b40000fb 	cbz	x27, 403480 <main+0x107c>
  403468:	3940e360 	ldrb	w0, [x27, #56]
  40346c:	34000100 	cbz	w0, 40348c <main+0x1088>
  403470:	39410f61 	ldrb	w1, [x27, #67]
  403474:	aa1303e0 	mov	x0, x19
  403478:	97fffaa2 	bl	401f00 <_ZNSo3putEc@plt>
  40347c:	1400000d 	b	4034b0 <main+0x10ac>
  403480:	97fffb2c 	bl	402130 <_ZSt16__throw_bad_castv@plt>
  403484:	aa0003f3 	mov	x19, x0
  403488:	14000095 	b	4036dc <main+0x12d8>
  40348c:	aa1b03e0 	mov	x0, x27
  403490:	97fffb1c 	bl	402100 <_ZNKSt5ctypeIcE13_M_widen_initEv@plt>
  403494:	f9400360 	ldr	x0, [x27]
  403498:	f9401802 	ldr	x2, [x0, #48]
  40349c:	52800141 	mov	w1, #0xa                   	// #10
  4034a0:	aa1b03e0 	mov	x0, x27
  4034a4:	d63f0040 	blr	x2
  4034a8:	12001c01 	and	w1, w0, #0xff
  4034ac:	17fffff2 	b	403474 <main+0x1070>
  4034b0:	97fffae4 	bl	402040 <_ZNSo5flushEv@plt>
  4034b4:	b944abf3 	ldr	w19, [sp, #1192]
  4034b8:	0b1302a0 	add	w0, w21, w19
  4034bc:	6b17001f 	cmp	w0, w23
  4034c0:	54fff9ed 	b.le	4033fc <main+0xff8>
  4034c4:	97fffa93 	bl	401f10 <_ZNSt6chrono3_V212system_clock3nowEv@plt>
  4034c8:	cb1a0000 	sub	x0, x0, x26
  4034cc:	d2807d01 	mov	x1, #0x3e8                 	// #1000
  4034d0:	9ac10c00 	sdiv	x0, x0, x1
  4034d4:	9e620009 	scvtf	d9, x0
  4034d8:	d2d09000 	mov	x0, #0x848000000000        	// #145685290680320
  4034dc:	f2e825c0 	movk	x0, #0x412e, lsl #48
  4034e0:	9e670000 	fmov	d0, x0
  4034e4:	1e601929 	fdiv	d9, d9, d0
  4034e8:	f0000061 	adrp	x1, 412000 <_Z19MD5Hash_simdversionPKNSt7__cxx1112basic_stringIcSt11char_traitsIcESaIcEEEP12__Uint32x4_t+0x1480>
  4034ec:	9126e021 	add	x1, x1, #0x9b8
  4034f0:	b0000160 	adrp	x0, 430000 <_Znam@GLIBCXX_3.4>
  4034f4:	91084000 	add	x0, x0, #0x210
  4034f8:	97fffaea 	bl	4020a0 <_ZStlsISt11char_traitsIcEERSt13basic_ostreamIcT_ES5_PKc@plt>
  4034fc:	1e683920 	fsub	d0, d9, d8
  403500:	97fffb44 	bl	402210 <_ZNSo9_M_insertIdEERSoT_@plt>
  403504:	f0000061 	adrp	x1, 412000 <_Z19MD5Hash_simdversionPKNSt7__cxx1112basic_stringIcSt11char_traitsIcESaIcEEEP12__Uint32x4_t+0x1480>
  403508:	91272021 	add	x1, x1, #0x9c8
  40350c:	97fffae5 	bl	4020a0 <_ZStlsISt11char_traitsIcEERSt13basic_ostreamIcT_ES5_PKc@plt>
  403510:	97fffab4 	bl	401fe0 <_ZSt4endlIcSt11char_traitsIcEERSt13basic_ostreamIT_T0_ES6_@plt>
  403514:	f0000061 	adrp	x1, 412000 <_Z19MD5Hash_simdversionPKNSt7__cxx1112basic_stringIcSt11char_traitsIcESaIcEEEP12__Uint32x4_t+0x1480>
  403518:	91274021 	add	x1, x1, #0x9d0
  40351c:	b0000160 	adrp	x0, 430000 <_Znam@GLIBCXX_3.4>
  403520:	91084000 	add	x0, x0, #0x210
  403524:	97fffadf 	bl	4020a0 <_ZStlsISt11char_traitsIcEERSt13basic_ostreamIcT_ES5_PKc@plt>
  403528:	1e604100 	fmov	d0, d8
  40352c:	97fffb39 	bl	402210 <_ZNSo9_M_insertIdEERSoT_@plt>
  403530:	f0000061 	adrp	x1, 412000 <_Z19MD5Hash_simdversionPKNSt7__cxx1112basic_stringIcSt11char_traitsIcESaIcEEEP12__Uint32x4_t+0x1480>
  403534:	91272021 	add	x1, x1, #0x9c8
  403538:	97fffada 	bl	4020a0 <_ZStlsISt11char_traitsIcEERSt13basic_ostreamIcT_ES5_PKc@plt>
  40353c:	97fffaa9 	bl	401fe0 <_ZSt4endlIcSt11char_traitsIcEERSt13basic_ostreamIT_T0_ES6_@plt>
  403540:	f0000061 	adrp	x1, 412000 <_Z19MD5Hash_simdversionPKNSt7__cxx1112basic_stringIcSt11char_traitsIcESaIcEEEP12__Uint32x4_t+0x1480>
  403544:	91278021 	add	x1, x1, #0x9e0
  403548:	b0000160 	adrp	x0, 430000 <_Znam@GLIBCXX_3.4>
  40354c:	91084000 	add	x0, x0, #0x210
  403550:	97fffad4 	bl	4020a0 <_ZStlsISt11char_traitsIcEERSt13basic_ostreamIcT_ES5_PKc@plt>
  403554:	cb190301 	sub	x1, x24, x25
  403558:	d2807d02 	mov	x2, #0x3e8                 	// #1000
  40355c:	9ac20c21 	sdiv	x1, x1, x2
  403560:	9e620020 	scvtf	d0, x1
  403564:	d2d09001 	mov	x1, #0x848000000000        	// #145685290680320
  403568:	f2e825c1 	movk	x1, #0x412e, lsl #48
  40356c:	9e670021 	fmov	d1, x1
  403570:	1e611800 	fdiv	d0, d0, d1
  403574:	97fffb27 	bl	402210 <_ZNSo9_M_insertIdEERSoT_@plt>
  403578:	f0000061 	adrp	x1, 412000 <_Z19MD5Hash_simdversionPKNSt7__cxx1112basic_stringIcSt11char_traitsIcESaIcEEEP12__Uint32x4_t+0x1480>
  40357c:	91272021 	add	x1, x1, #0x9c8
  403580:	97fffac8 	bl	4020a0 <_ZStlsISt11char_traitsIcEERSt13basic_ostreamIcT_ES5_PKc@plt>
  403584:	97fffa97 	bl	401fe0 <_ZSt4endlIcSt11char_traitsIcEERSt13basic_ostreamIT_T0_ES6_@plt>
  403588:	1400004e 	b	4036c0 <main+0x12bc>
  40358c:	97fffa61 	bl	401f10 <_ZNSt6chrono3_V212system_clock3nowEv@plt>
  403590:	aa0003fb 	mov	x27, x0
  403594:	b940bfe0 	ldr	w0, [sp, #188]
  403598:	34000620 	cbz	w0, 40365c <main+0x1258>
  40359c:	f9425be0 	ldr	x0, [sp, #1200]
  4035a0:	f9425fe1 	ldr	x1, [sp, #1208]
  4035a4:	cb000021 	sub	x1, x1, x0
  4035a8:	d2800017 	mov	x23, #0x0                   	// #0
  4035ac:	f101803f 	cmp	x1, #0x60
  4035b0:	540003a8 	b.hi	403624 <main+0x1220>  // b.pmore
  4035b4:	d2800016 	mov	x22, #0x0                   	// #0
  4035b8:	f9425be0 	ldr	x0, [sp, #1200]
  4035bc:	f9425fe1 	ldr	x1, [sp, #1208]
  4035c0:	cb000021 	sub	x1, x1, x0
  4035c4:	eb8116df 	cmp	x22, x1, asr #5
  4035c8:	54000423 	b.cc	40364c <main+0x1248>  // b.lo, b.ul, b.last
  4035cc:	97fffa51 	bl	401f10 <_ZNSt6chrono3_V212system_clock3nowEv@plt>
  4035d0:	cb1b0000 	sub	x0, x0, x27
  4035d4:	d2807d01 	mov	x1, #0x3e8                 	// #1000
  4035d8:	9ac10c00 	sdiv	x0, x0, x1
  4035dc:	9e620000 	scvtf	d0, x0
  4035e0:	1e691800 	fdiv	d0, d0, d9
  4035e4:	1e602908 	fadd	d8, d8, d0
  4035e8:	0b1302b5 	add	w21, w21, w19
  4035ec:	f9425bf7 	ldr	x23, [sp, #1200]
  4035f0:	f9425ff6 	ldr	x22, [sp, #1208]
  4035f4:	eb1602ff 	cmp	x23, x22
  4035f8:	54ffee60 	b.eq	4033c4 <main+0xfc0>  // b.none
  4035fc:	aa1703f3 	mov	x19, x23
  403600:	14000026 	b	403698 <main+0x1294>
  403604:	910012f6 	add	x22, x23, #0x4
  403608:	f9425be0 	ldr	x0, [sp, #1200]
  40360c:	f9425fe1 	ldr	x1, [sp, #1208]
  403610:	cb000021 	sub	x1, x1, x0
  403614:	91001ef7 	add	x23, x23, #0x7
  403618:	eb8116ff 	cmp	x23, x1, asr #5
  40361c:	54fffce2 	b.cs	4035b8 <main+0x11b4>  // b.hs, b.nlast
  403620:	aa1603f7 	mov	x23, x22
  403624:	910643e1 	add	x1, sp, #0x190
  403628:	8b171400 	add	x0, x0, x23, lsl #5
  40362c:	94003555 	bl	410b80 <_Z19MD5Hash_simdversionPKNSt7__cxx1112basic_stringIcSt11char_traitsIcESaIcEEEP12__Uint32x4_t>
  403630:	17fffff5 	b	403604 <main+0x1200>
  403634:	910006d6 	add	x22, x22, #0x1
  403638:	f9425be0 	ldr	x0, [sp, #1200]
  40363c:	f9425fe1 	ldr	x1, [sp, #1208]
  403640:	cb000021 	sub	x1, x1, x0
  403644:	eb8116df 	cmp	x22, x1, asr #5
  403648:	54fffc22 	b.cs	4035cc <main+0x11c8>  // b.hs, b.nlast
  40364c:	910543e1 	add	x1, sp, #0x150
  403650:	8b161400 	add	x0, x0, x22, lsl #5
  403654:	9400327b 	bl	410040 <_Z7MD5HashRKNSt7__cxx1112basic_stringIcSt11char_traitsIcESaIcEEEPj>
  403658:	17fffff7 	b	403634 <main+0x1230>
  40365c:	f9425bf6 	ldr	x22, [sp, #1200]
  403660:	f9425ff7 	ldr	x23, [sp, #1208]
  403664:	eb1702df 	cmp	x22, x23
  403668:	540000a1 	b.ne	40367c <main+0x1278>  // b.any
  40366c:	17ffffd8 	b	4035cc <main+0x11c8>
  403670:	910082d6 	add	x22, x22, #0x20
  403674:	eb1602ff 	cmp	x23, x22
  403678:	54fffaa0 	b.eq	4035cc <main+0x11c8>  // b.none
  40367c:	910643e1 	add	x1, sp, #0x190
  403680:	aa1603e0 	mov	x0, x22
  403684:	9400326f 	bl	410040 <_Z7MD5HashRKNSt7__cxx1112basic_stringIcSt11char_traitsIcESaIcEEEPj>
  403688:	17fffffa 	b	403670 <main+0x126c>
  40368c:	91008273 	add	x19, x19, #0x20
  403690:	eb1302df 	cmp	x22, x19
  403694:	54000120 	b.eq	4036b8 <main+0x12b4>  // b.none
  403698:	aa1303e1 	mov	x1, x19
  40369c:	f8410420 	ldr	x0, [x1], #16
  4036a0:	eb01001f 	cmp	x0, x1
  4036a4:	54ffff40 	b.eq	40368c <main+0x1288>  // b.none
  4036a8:	f9400a61 	ldr	x1, [x19, #16]
  4036ac:	91000421 	add	x1, x1, #0x1
  4036b0:	97fffa84 	bl	4020c0 <_ZdlPvm@plt>
  4036b4:	17fffff6 	b	40368c <main+0x1288>
  4036b8:	f9025ff7 	str	x23, [sp, #1208]
  4036bc:	17ffff42 	b	4033c4 <main+0xfc0>
  4036c0:	910c83e0 	add	x0, sp, #0x320
  4036c4:	9400008d 	bl	4038f8 <_ZN13PriorityQueueD1Ev>
  4036c8:	52800000 	mov	w0, #0x0                   	// #0
  4036cc:	17fffd68 	b	402c6c <main+0x868>
  4036d0:	aa0003f3 	mov	x19, x0
  4036d4:	910643e0 	add	x0, sp, #0x190
  4036d8:	97fffa8e 	bl	402110 <_ZNSt7__cxx1112basic_stringIcSt11char_traitsIcESaIcEE10_M_disposeEv@plt>
  4036dc:	910c83e0 	add	x0, sp, #0x320
  4036e0:	94000086 	bl	4038f8 <_ZN13PriorityQueueD1Ev>
  4036e4:	aa1303e0 	mov	x0, x19
  4036e8:	97fffade 	bl	402260 <_Unwind_Resume@plt>
  4036ec:	f94063e1 	ldr	x1, [sp, #192]
  4036f0:	f9403be3 	ldr	x3, [sp, #112]
  4036f4:	8b030022 	add	x2, x1, x3
  4036f8:	f9400442 	ldr	x2, [x2, #8]
  4036fc:	f8636821 	ldr	x1, [x1, x3]
  403700:	97fffa7c 	bl	4020f0 <_ZSt16__ostream_insertIcSt11char_traitsIcEERSt13basic_ostreamIT_T0_ES6_PKS3_l@plt>
  403704:	17fffe92 	b	40314c <main+0xd48>
  403708:	f94063e1 	ldr	x1, [sp, #192]
  40370c:	f9403fe3 	ldr	x3, [sp, #120]
  403710:	8b030022 	add	x2, x1, x3
  403714:	f9400442 	ldr	x2, [x2, #8]
  403718:	f8636821 	ldr	x1, [x1, x3]
  40371c:	97fffa75 	bl	4020f0 <_ZSt16__ostream_insertIcSt11char_traitsIcEERSt13basic_ostreamIT_T0_ES6_PKS3_l@plt>
  403720:	17fffd36 	b	402bf8 <main+0x7f4>

0000000000403724 <_GLOBAL__sub_I_main>:
  403724:	a9be7bfd 	stp	x29, x30, [sp, #-32]!
  403728:	910003fd 	mov	x29, sp
  40372c:	f9000bf3 	str	x19, [sp, #16]
  403730:	b0000173 	adrp	x19, 430000 <_Znam@GLIBCXX_3.4>
  403734:	910ca273 	add	x19, x19, #0x328
  403738:	aa1303e0 	mov	x0, x19
  40373c:	97fffaa5 	bl	4021d0 <_ZNSt8ios_base4InitC1Ev@plt>
  403740:	b0000162 	adrp	x2, 430000 <_Znam@GLIBCXX_3.4>
  403744:	9107e042 	add	x2, x2, #0x1f8
  403748:	aa1303e1 	mov	x1, x19
  40374c:	f0ffffe0 	adrp	x0, 402000 <_ZSt20__throw_length_errorPKc@plt>
  403750:	910b0000 	add	x0, x0, #0x2c0
  403754:	97fffa63 	bl	4020e0 <__cxa_atexit@plt>
  403758:	f9400bf3 	ldr	x19, [sp, #16]
  40375c:	a8c27bfd 	ldp	x29, x30, [sp], #32
  403760:	d65f03c0 	ret

0000000000403764 <_ZNSt6vectorINSt7__cxx1112basic_stringIcSt11char_traitsIcESaIcEEESaIS5_EED1Ev>:
  403764:	a9bd7bfd 	stp	x29, x30, [sp, #-48]!
  403768:	910003fd 	mov	x29, sp
  40376c:	a90153f3 	stp	x19, x20, [sp, #16]
  403770:	f90013f5 	str	x21, [sp, #32]
  403774:	aa0003f5 	mov	x21, x0
  403778:	f9400013 	ldr	x19, [x0]
  40377c:	f9400414 	ldr	x20, [x0, #8]
  403780:	eb14027f 	cmp	x19, x20
  403784:	540001a1 	b.ne	4037b8 <_ZNSt6vectorINSt7__cxx1112basic_stringIcSt11char_traitsIcESaIcEEESaIS5_EED1Ev+0x54>  // b.any
  403788:	f94002a0 	ldr	x0, [x21]
  40378c:	b4000080 	cbz	x0, 40379c <_ZNSt6vectorINSt7__cxx1112basic_stringIcSt11char_traitsIcESaIcEEESaIS5_EED1Ev+0x38>
  403790:	f9400aa1 	ldr	x1, [x21, #16]
  403794:	cb000021 	sub	x1, x1, x0
  403798:	97fffa4a 	bl	4020c0 <_ZdlPvm@plt>
  40379c:	a94153f3 	ldp	x19, x20, [sp, #16]
  4037a0:	f94013f5 	ldr	x21, [sp, #32]
  4037a4:	a8c37bfd 	ldp	x29, x30, [sp], #48
  4037a8:	d65f03c0 	ret
  4037ac:	91008273 	add	x19, x19, #0x20
  4037b0:	eb13029f 	cmp	x20, x19
  4037b4:	54fffea0 	b.eq	403788 <_ZNSt6vectorINSt7__cxx1112basic_stringIcSt11char_traitsIcESaIcEEESaIS5_EED1Ev+0x24>  // b.none
  4037b8:	aa1303e1 	mov	x1, x19
  4037bc:	f8410420 	ldr	x0, [x1], #16
  4037c0:	eb01001f 	cmp	x0, x1
  4037c4:	54ffff40 	b.eq	4037ac <_ZNSt6vectorINSt7__cxx1112basic_stringIcSt11char_traitsIcESaIcEEESaIS5_EED1Ev+0x48>  // b.none
  4037c8:	f9400a61 	ldr	x1, [x19, #16]
  4037cc:	91000421 	add	x1, x1, #0x1
  4037d0:	97fffa3c 	bl	4020c0 <_ZdlPvm@plt>
  4037d4:	17fffff6 	b	4037ac <_ZNSt6vectorINSt7__cxx1112basic_stringIcSt11char_traitsIcESaIcEEESaIS5_EED1Ev+0x48>

00000000004037d8 <_ZNSt10_HashtableINSt7__cxx1112basic_stringIcSt11char_traitsIcESaIcEEESt4pairIKS5_iESaIS8_ENSt8__detail10_Select1stESt8equal_toIS5_ESt4hashIS5_ENSA_18_Mod_range_hashingENSA_20_Default_ranged_hashENSA_20_Prime_rehash_policyENSA_17_Hashtable_traitsILb1ELb0ELb1EEEED1Ev>:
  4037d8:	a9bd7bfd 	stp	x29, x30, [sp, #-48]!
  4037dc:	910003fd 	mov	x29, sp
  4037e0:	a90153f3 	stp	x19, x20, [sp, #16]
  4037e4:	a9025bf5 	stp	x21, x22, [sp, #32]
  4037e8:	aa0003f5 	mov	x21, x0
  4037ec:	f9400814 	ldr	x20, [x0, #16]
  4037f0:	b4000234 	cbz	x20, 403834 <_ZNSt10_HashtableINSt7__cxx1112basic_stringIcSt11char_traitsIcESaIcEEESt4pairIKS5_iESaIS8_ENSt8__detail10_Select1stESt8equal_toIS5_ESt4hashIS5_ENSA_18_Mod_range_hashingENSA_20_Default_ranged_hashENSA_20_Prime_rehash_policyENSA_17_Hashtable_traitsILb1ELb0ELb1EEEED1Ev+0x5c>
  4037f4:	d2800716 	mov	x22, #0x38                  	// #56
  4037f8:	14000005 	b	40380c <_ZNSt10_HashtableINSt7__cxx1112basic_stringIcSt11char_traitsIcESaIcEEESt4pairIKS5_iESaIS8_ENSt8__detail10_Select1stESt8equal_toIS5_ESt4hashIS5_ENSA_18_Mod_range_hashingENSA_20_Default_ranged_hashENSA_20_Prime_rehash_policyENSA_17_Hashtable_traitsILb1ELb0ELb1EEEED1Ev+0x34>
  4037fc:	aa1603e1 	mov	x1, x22
  403800:	aa1303e0 	mov	x0, x19
  403804:	97fffa2f 	bl	4020c0 <_ZdlPvm@plt>
  403808:	b4000174 	cbz	x20, 403834 <_ZNSt10_HashtableINSt7__cxx1112basic_stringIcSt11char_traitsIcESaIcEEESt4pairIKS5_iESaIS8_ENSt8__detail10_Select1stESt8equal_toIS5_ESt4hashIS5_ENSA_18_Mod_range_hashingENSA_20_Default_ranged_hashENSA_20_Prime_rehash_policyENSA_17_Hashtable_traitsILb1ELb0ELb1EEEED1Ev+0x5c>
  40380c:	aa1403f3 	mov	x19, x20
  403810:	f9400294 	ldr	x20, [x20]
  403814:	f9400660 	ldr	x0, [x19, #8]
  403818:	91006261 	add	x1, x19, #0x18
  40381c:	eb01001f 	cmp	x0, x1
  403820:	54fffee0 	b.eq	4037fc <_ZNSt10_HashtableINSt7__cxx1112basic_stringIcSt11char_traitsIcESaIcEEESt4pairIKS5_iESaIS8_ENSt8__detail10_Select1stESt8equal_toIS5_ESt4hashIS5_ENSA_18_Mod_range_hashingENSA_20_Default_ranged_hashENSA_20_Prime_rehash_policyENSA_17_Hashtable_traitsILb1ELb0ELb1EEEED1Ev+0x24>  // b.none
  403824:	f9400e61 	ldr	x1, [x19, #24]
  403828:	91000421 	add	x1, x1, #0x1
  40382c:	97fffa25 	bl	4020c0 <_ZdlPvm@plt>
  403830:	17fffff3 	b	4037fc <_ZNSt10_HashtableINSt7__cxx1112basic_stringIcSt11char_traitsIcESaIcEEESt4pairIKS5_iESaIS8_ENSt8__detail10_Select1stESt8equal_toIS5_ESt4hashIS5_ENSA_18_Mod_range_hashingENSA_20_Default_ranged_hashENSA_20_Prime_rehash_policyENSA_17_Hashtable_traitsILb1ELb0ELb1EEEED1Ev+0x24>
  403834:	f94006a2 	ldr	x2, [x21, #8]
  403838:	d37df042 	lsl	x2, x2, #3
  40383c:	52800001 	mov	w1, #0x0                   	// #0
  403840:	f94002a0 	ldr	x0, [x21]
  403844:	97fff9f7 	bl	402020 <memset@plt>
  403848:	f9000ebf 	str	xzr, [x21, #24]
  40384c:	f9000abf 	str	xzr, [x21, #16]
  403850:	f94002a0 	ldr	x0, [x21]
  403854:	f94006a1 	ldr	x1, [x21, #8]
  403858:	9100c2b5 	add	x21, x21, #0x30
  40385c:	eb15001f 	cmp	x0, x21
  403860:	54000060 	b.eq	40386c <_ZNSt10_HashtableINSt7__cxx1112basic_stringIcSt11char_traitsIcESaIcEEESt4pairIKS5_iESaIS8_ENSt8__detail10_Select1stESt8equal_toIS5_ESt4hashIS5_ENSA_18_Mod_range_hashingENSA_20_Default_ranged_hashENSA_20_Prime_rehash_policyENSA_17_Hashtable_traitsILb1ELb0ELb1EEEED1Ev+0x94>  // b.none
  403864:	d37df021 	lsl	x1, x1, #3
  403868:	97fffa16 	bl	4020c0 <_ZdlPvm@plt>
  40386c:	a94153f3 	ldp	x19, x20, [sp, #16]
  403870:	a9425bf5 	ldp	x21, x22, [sp, #32]
  403874:	a8c37bfd 	ldp	x29, x30, [sp], #48
  403878:	d65f03c0 	ret

000000000040387c <_ZNSt10_HashtableIiSt4pairIKiiESaIS2_ENSt8__detail10_Select1stESt8equal_toIiESt4hashIiENS4_18_Mod_range_hashingENS4_20_Default_ranged_hashENS4_20_Prime_rehash_policyENS4_17_Hashtable_traitsILb0ELb0ELb1EEEED1Ev>:
  40387c:	a9bd7bfd 	stp	x29, x30, [sp, #-48]!
  403880:	910003fd 	mov	x29, sp
  403884:	a90153f3 	stp	x19, x20, [sp, #16]
  403888:	aa0003f4 	mov	x20, x0
  40388c:	f9400813 	ldr	x19, [x0, #16]
  403890:	b4000133 	cbz	x19, 4038b4 <_ZNSt10_HashtableIiSt4pairIKiiESaIS2_ENSt8__detail10_Select1stESt8equal_toIiESt4hashIiENS4_18_Mod_range_hashingENS4_20_Default_ranged_hashENS4_20_Prime_rehash_policyENS4_17_Hashtable_traitsILb0ELb0ELb1EEEED1Ev+0x38>
  403894:	f90013f5 	str	x21, [sp, #32]
  403898:	d2800215 	mov	x21, #0x10                  	// #16
  40389c:	aa1303e0 	mov	x0, x19
  4038a0:	f9400273 	ldr	x19, [x19]
  4038a4:	aa1503e1 	mov	x1, x21
  4038a8:	97fffa06 	bl	4020c0 <_ZdlPvm@plt>
  4038ac:	b5ffff93 	cbnz	x19, 40389c <_ZNSt10_HashtableIiSt4pairIKiiESaIS2_ENSt8__detail10_Select1stESt8equal_toIiESt4hashIiENS4_18_Mod_range_hashingENS4_20_Default_ranged_hashENS4_20_Prime_rehash_policyENS4_17_Hashtable_traitsILb0ELb0ELb1EEEED1Ev+0x20>
  4038b0:	f94013f5 	ldr	x21, [sp, #32]
  4038b4:	f9400682 	ldr	x2, [x20, #8]
  4038b8:	d37df042 	lsl	x2, x2, #3
  4038bc:	52800001 	mov	w1, #0x0                   	// #0
  4038c0:	f9400280 	ldr	x0, [x20]
  4038c4:	97fff9d7 	bl	402020 <memset@plt>
  4038c8:	f9000e9f 	str	xzr, [x20, #24]
  4038cc:	f9000a9f 	str	xzr, [x20, #16]
  4038d0:	f9400280 	ldr	x0, [x20]
  4038d4:	f9400681 	ldr	x1, [x20, #8]
  4038d8:	9100c294 	add	x20, x20, #0x30
  4038dc:	eb14001f 	cmp	x0, x20
  4038e0:	54000060 	b.eq	4038ec <_ZNSt10_HashtableIiSt4pairIKiiESaIS2_ENSt8__detail10_Select1stESt8equal_toIiESt4hashIiENS4_18_Mod_range_hashingENS4_20_Default_ranged_hashENS4_20_Prime_rehash_policyENS4_17_Hashtable_traitsILb0ELb0ELb1EEEED1Ev+0x70>  // b.none
  4038e4:	d37df021 	lsl	x1, x1, #3
  4038e8:	97fff9f6 	bl	4020c0 <_ZdlPvm@plt>
  4038ec:	a94153f3 	ldp	x19, x20, [sp, #16]
  4038f0:	a8c37bfd 	ldp	x29, x30, [sp], #48
  4038f4:	d65f03c0 	ret

00000000004038f8 <_ZN13PriorityQueueD1Ev>:
  4038f8:	a9bb7bfd 	stp	x29, x30, [sp, #-80]!
  4038fc:	910003fd 	mov	x29, sp
  403900:	a90153f3 	stp	x19, x20, [sp, #16]
  403904:	a9025bf5 	stp	x21, x22, [sp, #32]
  403908:	a90363f7 	stp	x23, x24, [sp, #48]
  40390c:	f90023f9 	str	x25, [sp, #64]
  403910:	aa0003f4 	mov	x20, x0
  403914:	f940c813 	ldr	x19, [x0, #400]
  403918:	f940cc15 	ldr	x21, [x0, #408]
  40391c:	eb15027f 	cmp	x19, x21
  403920:	540009a1 	b.ne	403a54 <_ZN13PriorityQueueD1Ev+0x15c>  // b.any
  403924:	f940ca80 	ldr	x0, [x20, #400]
  403928:	b4000080 	cbz	x0, 403938 <_ZN13PriorityQueueD1Ev+0x40>
  40392c:	f940d281 	ldr	x1, [x20, #416]
  403930:	cb000021 	sub	x1, x1, x0
  403934:	97fff9e3 	bl	4020c0 <_ZdlPvm@plt>
  403938:	f940ba98 	ldr	x24, [x20, #368]
  40393c:	f940be99 	ldr	x25, [x20, #376]
  403940:	eb19031f 	cmp	x24, x25
  403944:	54000ea1 	b.ne	403b18 <_ZN13PriorityQueueD1Ev+0x220>  // b.any
  403948:	f940ba80 	ldr	x0, [x20, #368]
  40394c:	b4000080 	cbz	x0, 40395c <_ZN13PriorityQueueD1Ev+0x64>
  403950:	f940c281 	ldr	x1, [x20, #384]
  403954:	cb000021 	sub	x1, x1, x0
  403958:	97fff9da 	bl	4020c0 <_ZdlPvm@plt>
  40395c:	9104e280 	add	x0, x20, #0x138
  403960:	97ffffc7 	bl	40387c <_ZNSt10_HashtableIiSt4pairIKiiESaIS2_ENSt8__detail10_Select1stESt8equal_toIiESt4hashIiENS4_18_Mod_range_hashingENS4_20_Default_ranged_hashENS4_20_Prime_rehash_policyENS4_17_Hashtable_traitsILb0ELb0ELb1EEEED1Ev>
  403964:	91040280 	add	x0, x20, #0x100
  403968:	97ffffc5 	bl	40387c <_ZNSt10_HashtableIiSt4pairIKiiESaIS2_ENSt8__detail10_Select1stESt8equal_toIiESt4hashIiENS4_18_Mod_range_hashingENS4_20_Default_ranged_hashENS4_20_Prime_rehash_policyENS4_17_Hashtable_traitsILb0ELb0ELb1EEEED1Ev>
  40396c:	91032280 	add	x0, x20, #0xc8
  403970:	97ffffc3 	bl	40387c <_ZNSt10_HashtableIiSt4pairIKiiESaIS2_ENSt8__detail10_Select1stESt8equal_toIiESt4hashIiENS4_18_Mod_range_hashingENS4_20_Default_ranged_hashENS4_20_Prime_rehash_policyENS4_17_Hashtable_traitsILb0ELb0ELb1EEEED1Ev>
  403974:	91024280 	add	x0, x20, #0x90
  403978:	97ffffc1 	bl	40387c <_ZNSt10_HashtableIiSt4pairIKiiESaIS2_ENSt8__detail10_Select1stESt8equal_toIiESt4hashIiENS4_18_Mod_range_hashingENS4_20_Default_ranged_hashENS4_20_Prime_rehash_policyENS4_17_Hashtable_traitsILb0ELb0ELb1EEEED1Ev>
  40397c:	f9403e96 	ldr	x22, [x20, #120]
  403980:	f9404297 	ldr	x23, [x20, #128]
  403984:	eb1702df 	cmp	x22, x23
  403988:	540010c1 	b.ne	403ba0 <_ZN13PriorityQueueD1Ev+0x2a8>  // b.any
  40398c:	f9403e80 	ldr	x0, [x20, #120]
  403990:	b4000080 	cbz	x0, 4039a0 <_ZN13PriorityQueueD1Ev+0xa8>
  403994:	f9404681 	ldr	x1, [x20, #136]
  403998:	cb000021 	sub	x1, x1, x0
  40399c:	97fff9c9 	bl	4020c0 <_ZdlPvm@plt>
  4039a0:	f9403296 	ldr	x22, [x20, #96]
  4039a4:	f9403697 	ldr	x23, [x20, #104]
  4039a8:	eb1702df 	cmp	x22, x23
  4039ac:	540013c1 	b.ne	403c24 <_ZN13PriorityQueueD1Ev+0x32c>  // b.any
  4039b0:	f9403280 	ldr	x0, [x20, #96]
  4039b4:	b4000080 	cbz	x0, 4039c4 <_ZN13PriorityQueueD1Ev+0xcc>
  4039b8:	f9403a81 	ldr	x1, [x20, #112]
  4039bc:	cb000021 	sub	x1, x1, x0
  4039c0:	97fff9c0 	bl	4020c0 <_ZdlPvm@plt>
  4039c4:	f9402696 	ldr	x22, [x20, #72]
  4039c8:	f9402a97 	ldr	x23, [x20, #80]
  4039cc:	eb1702df 	cmp	x22, x23
  4039d0:	540016c1 	b.ne	403ca8 <_ZN13PriorityQueueD1Ev+0x3b0>  // b.any
  4039d4:	f9402680 	ldr	x0, [x20, #72]
  4039d8:	b4000080 	cbz	x0, 4039e8 <_ZN13PriorityQueueD1Ev+0xf0>
  4039dc:	f9402e81 	ldr	x1, [x20, #88]
  4039e0:	cb000021 	sub	x1, x1, x0
  4039e4:	97fff9b7 	bl	4020c0 <_ZdlPvm@plt>
  4039e8:	f9401a98 	ldr	x24, [x20, #48]
  4039ec:	f9401e99 	ldr	x25, [x20, #56]
  4039f0:	eb19031f 	cmp	x24, x25
  4039f4:	54001c81 	b.ne	403d84 <_ZN13PriorityQueueD1Ev+0x48c>  // b.any
  4039f8:	f9401a80 	ldr	x0, [x20, #48]
  4039fc:	b4000080 	cbz	x0, 403a0c <_ZN13PriorityQueueD1Ev+0x114>
  403a00:	f9402281 	ldr	x1, [x20, #64]
  403a04:	cb000021 	sub	x1, x1, x0
  403a08:	97fff9ae 	bl	4020c0 <_ZdlPvm@plt>
  403a0c:	f9400298 	ldr	x24, [x20]
  403a10:	f9400699 	ldr	x25, [x20, #8]
  403a14:	eb19031f 	cmp	x24, x25
  403a18:	54002261 	b.ne	403e64 <_ZN13PriorityQueueD1Ev+0x56c>  // b.any
  403a1c:	f9400280 	ldr	x0, [x20]
  403a20:	b4000080 	cbz	x0, 403a30 <_ZN13PriorityQueueD1Ev+0x138>
  403a24:	f9400a81 	ldr	x1, [x20, #16]
  403a28:	cb000021 	sub	x1, x1, x0
  403a2c:	97fff9a5 	bl	4020c0 <_ZdlPvm@plt>
  403a30:	a94153f3 	ldp	x19, x20, [sp, #16]
  403a34:	a9425bf5 	ldp	x21, x22, [sp, #32]
  403a38:	a94363f7 	ldp	x23, x24, [sp, #48]
  403a3c:	f94023f9 	ldr	x25, [sp, #64]
  403a40:	a8c57bfd 	ldp	x29, x30, [sp], #80
  403a44:	d65f03c0 	ret
  403a48:	91008273 	add	x19, x19, #0x20
  403a4c:	eb1302bf 	cmp	x21, x19
  403a50:	54fff6a0 	b.eq	403924 <_ZN13PriorityQueueD1Ev+0x2c>  // b.none
  403a54:	aa1303e1 	mov	x1, x19
  403a58:	f8410420 	ldr	x0, [x1], #16
  403a5c:	eb01001f 	cmp	x0, x1
  403a60:	54ffff40 	b.eq	403a48 <_ZN13PriorityQueueD1Ev+0x150>  // b.none
  403a64:	f9400a61 	ldr	x1, [x19, #16]
  403a68:	91000421 	add	x1, x1, #0x1
  403a6c:	97fff995 	bl	4020c0 <_ZdlPvm@plt>
  403a70:	17fffff6 	b	403a48 <_ZN13PriorityQueueD1Ev+0x150>
  403a74:	910082b5 	add	x21, x21, #0x20
  403a78:	eb1502df 	cmp	x22, x21
  403a7c:	54000120 	b.eq	403aa0 <_ZN13PriorityQueueD1Ev+0x1a8>  // b.none
  403a80:	aa1503e1 	mov	x1, x21
  403a84:	f8410420 	ldr	x0, [x1], #16
  403a88:	eb01001f 	cmp	x0, x1
  403a8c:	54ffff40 	b.eq	403a74 <_ZN13PriorityQueueD1Ev+0x17c>  // b.none
  403a90:	f9400aa1 	ldr	x1, [x21, #16]
  403a94:	91000421 	add	x1, x1, #0x1
  403a98:	97fff98a 	bl	4020c0 <_ZdlPvm@plt>
  403a9c:	17fffff6 	b	403a74 <_ZN13PriorityQueueD1Ev+0x17c>
  403aa0:	f9400660 	ldr	x0, [x19, #8]
  403aa4:	b4000080 	cbz	x0, 403ab4 <_ZN13PriorityQueueD1Ev+0x1bc>
  403aa8:	f9400e61 	ldr	x1, [x19, #24]
  403aac:	cb000021 	sub	x1, x1, x0
  403ab0:	97fff984 	bl	4020c0 <_ZdlPvm@plt>
  403ab4:	9102c273 	add	x19, x19, #0xb0
  403ab8:	eb1302ff 	cmp	x23, x19
  403abc:	540001e0 	b.eq	403af8 <_ZN13PriorityQueueD1Ev+0x200>  // b.none
  403ac0:	9101e260 	add	x0, x19, #0x78
  403ac4:	97ffff6e 	bl	40387c <_ZNSt10_HashtableIiSt4pairIKiiESaIS2_ENSt8__detail10_Select1stESt8equal_toIiESt4hashIiENS4_18_Mod_range_hashingENS4_20_Default_ranged_hashENS4_20_Prime_rehash_policyENS4_17_Hashtable_traitsILb0ELb0ELb1EEEED1Ev>
  403ac8:	91010260 	add	x0, x19, #0x40
  403acc:	97ffff43 	bl	4037d8 <_ZNSt10_HashtableINSt7__cxx1112basic_stringIcSt11char_traitsIcESaIcEEESt4pairIKS5_iESaIS8_ENSt8__detail10_Select1stESt8equal_toIS5_ESt4hashIS5_ENSA_18_Mod_range_hashingENSA_20_Default_ranged_hashENSA_20_Prime_rehash_policyENSA_17_Hashtable_traitsILb1ELb0ELb1EEEED1Ev>
  403ad0:	f9401260 	ldr	x0, [x19, #32]
  403ad4:	b4000080 	cbz	x0, 403ae4 <_ZN13PriorityQueueD1Ev+0x1ec>
  403ad8:	f9401a61 	ldr	x1, [x19, #48]
  403adc:	cb000021 	sub	x1, x1, x0
  403ae0:	97fff978 	bl	4020c0 <_ZdlPvm@plt>
  403ae4:	f9400675 	ldr	x21, [x19, #8]
  403ae8:	f9400a76 	ldr	x22, [x19, #16]
  403aec:	eb1602bf 	cmp	x21, x22
  403af0:	54fffc81 	b.ne	403a80 <_ZN13PriorityQueueD1Ev+0x188>  // b.any
  403af4:	17ffffeb 	b	403aa0 <_ZN13PriorityQueueD1Ev+0x1a8>
  403af8:	f9400300 	ldr	x0, [x24]
  403afc:	b4000080 	cbz	x0, 403b0c <_ZN13PriorityQueueD1Ev+0x214>
  403b00:	f9400b01 	ldr	x1, [x24, #16]
  403b04:	cb000021 	sub	x1, x1, x0
  403b08:	97fff96e 	bl	4020c0 <_ZdlPvm@plt>
  403b0c:	91016318 	add	x24, x24, #0x58
  403b10:	eb18033f 	cmp	x25, x24
  403b14:	54fff1a0 	b.eq	403948 <_ZN13PriorityQueueD1Ev+0x50>  // b.none
  403b18:	f9401f00 	ldr	x0, [x24, #56]
  403b1c:	b4000080 	cbz	x0, 403b2c <_ZN13PriorityQueueD1Ev+0x234>
  403b20:	f9402701 	ldr	x1, [x24, #72]
  403b24:	cb000021 	sub	x1, x1, x0
  403b28:	97fff966 	bl	4020c0 <_ZdlPvm@plt>
  403b2c:	f9401300 	ldr	x0, [x24, #32]
  403b30:	b4000080 	cbz	x0, 403b40 <_ZN13PriorityQueueD1Ev+0x248>
  403b34:	f9401b01 	ldr	x1, [x24, #48]
  403b38:	cb000021 	sub	x1, x1, x0
  403b3c:	97fff961 	bl	4020c0 <_ZdlPvm@plt>
  403b40:	f9400313 	ldr	x19, [x24]
  403b44:	f9400717 	ldr	x23, [x24, #8]
  403b48:	eb17027f 	cmp	x19, x23
  403b4c:	54fffba1 	b.ne	403ac0 <_ZN13PriorityQueueD1Ev+0x1c8>  // b.any
  403b50:	17ffffea 	b	403af8 <_ZN13PriorityQueueD1Ev+0x200>
  403b54:	91008273 	add	x19, x19, #0x20
  403b58:	eb1302bf 	cmp	x21, x19
  403b5c:	54000120 	b.eq	403b80 <_ZN13PriorityQueueD1Ev+0x288>  // b.none
  403b60:	aa1303e1 	mov	x1, x19
  403b64:	f8410420 	ldr	x0, [x1], #16
  403b68:	eb01001f 	cmp	x0, x1
  403b6c:	54ffff40 	b.eq	403b54 <_ZN13PriorityQueueD1Ev+0x25c>  // b.none
  403b70:	f9400a61 	ldr	x1, [x19, #16]
  403b74:	91000421 	add	x1, x1, #0x1
  403b78:	97fff952 	bl	4020c0 <_ZdlPvm@plt>
  403b7c:	17fffff6 	b	403b54 <_ZN13PriorityQueueD1Ev+0x25c>
  403b80:	f94006c0 	ldr	x0, [x22, #8]
  403b84:	b4000080 	cbz	x0, 403b94 <_ZN13PriorityQueueD1Ev+0x29c>
  403b88:	f9400ec1 	ldr	x1, [x22, #24]
  403b8c:	cb000021 	sub	x1, x1, x0
  403b90:	97fff94c 	bl	4020c0 <_ZdlPvm@plt>
  403b94:	9102c2d6 	add	x22, x22, #0xb0
  403b98:	eb1602ff 	cmp	x23, x22
  403b9c:	54ffef80 	b.eq	40398c <_ZN13PriorityQueueD1Ev+0x94>  // b.none
  403ba0:	9101e2c0 	add	x0, x22, #0x78
  403ba4:	97ffff36 	bl	40387c <_ZNSt10_HashtableIiSt4pairIKiiESaIS2_ENSt8__detail10_Select1stESt8equal_toIiESt4hashIiENS4_18_Mod_range_hashingENS4_20_Default_ranged_hashENS4_20_Prime_rehash_policyENS4_17_Hashtable_traitsILb0ELb0ELb1EEEED1Ev>
  403ba8:	910102c0 	add	x0, x22, #0x40
  403bac:	97ffff0b 	bl	4037d8 <_ZNSt10_HashtableINSt7__cxx1112basic_stringIcSt11char_traitsIcESaIcEEESt4pairIKS5_iESaIS8_ENSt8__detail10_Select1stESt8equal_toIS5_ESt4hashIS5_ENSA_18_Mod_range_hashingENSA_20_Default_ranged_hashENSA_20_Prime_rehash_policyENSA_17_Hashtable_traitsILb1ELb0ELb1EEEED1Ev>
  403bb0:	f94012c0 	ldr	x0, [x22, #32]
  403bb4:	b4000080 	cbz	x0, 403bc4 <_ZN13PriorityQueueD1Ev+0x2cc>
  403bb8:	f9401ac1 	ldr	x1, [x22, #48]
  403bbc:	cb000021 	sub	x1, x1, x0
  403bc0:	97fff940 	bl	4020c0 <_ZdlPvm@plt>
  403bc4:	f94006d3 	ldr	x19, [x22, #8]
  403bc8:	f9400ad5 	ldr	x21, [x22, #16]
  403bcc:	eb15027f 	cmp	x19, x21
  403bd0:	54fffc81 	b.ne	403b60 <_ZN13PriorityQueueD1Ev+0x268>  // b.any
  403bd4:	17ffffeb 	b	403b80 <_ZN13PriorityQueueD1Ev+0x288>
  403bd8:	91008273 	add	x19, x19, #0x20
  403bdc:	eb1302bf 	cmp	x21, x19
  403be0:	54000120 	b.eq	403c04 <_ZN13PriorityQueueD1Ev+0x30c>  // b.none
  403be4:	aa1303e1 	mov	x1, x19
  403be8:	f8410420 	ldr	x0, [x1], #16
  403bec:	eb01001f 	cmp	x0, x1
  403bf0:	54ffff40 	b.eq	403bd8 <_ZN13PriorityQueueD1Ev+0x2e0>  // b.none
  403bf4:	f9400a61 	ldr	x1, [x19, #16]
  403bf8:	91000421 	add	x1, x1, #0x1
  403bfc:	97fff931 	bl	4020c0 <_ZdlPvm@plt>
  403c00:	17fffff6 	b	403bd8 <_ZN13PriorityQueueD1Ev+0x2e0>
  403c04:	f94006c0 	ldr	x0, [x22, #8]
  403c08:	b4000080 	cbz	x0, 403c18 <_ZN13PriorityQueueD1Ev+0x320>
  403c0c:	f9400ec1 	ldr	x1, [x22, #24]
  403c10:	cb000021 	sub	x1, x1, x0
  403c14:	97fff92b 	bl	4020c0 <_ZdlPvm@plt>
  403c18:	9102c2d6 	add	x22, x22, #0xb0
  403c1c:	eb1602ff 	cmp	x23, x22
  403c20:	54ffec80 	b.eq	4039b0 <_ZN13PriorityQueueD1Ev+0xb8>  // b.none
  403c24:	9101e2c0 	add	x0, x22, #0x78
  403c28:	97ffff15 	bl	40387c <_ZNSt10_HashtableIiSt4pairIKiiESaIS2_ENSt8__detail10_Select1stESt8equal_toIiESt4hashIiENS4_18_Mod_range_hashingENS4_20_Default_ranged_hashENS4_20_Prime_rehash_policyENS4_17_Hashtable_traitsILb0ELb0ELb1EEEED1Ev>
  403c2c:	910102c0 	add	x0, x22, #0x40
  403c30:	97fffeea 	bl	4037d8 <_ZNSt10_HashtableINSt7__cxx1112basic_stringIcSt11char_traitsIcESaIcEEESt4pairIKS5_iESaIS8_ENSt8__detail10_Select1stESt8equal_toIS5_ESt4hashIS5_ENSA_18_Mod_range_hashingENSA_20_Default_ranged_hashENSA_20_Prime_rehash_policyENSA_17_Hashtable_traitsILb1ELb0ELb1EEEED1Ev>
  403c34:	f94012c0 	ldr	x0, [x22, #32]
  403c38:	b4000080 	cbz	x0, 403c48 <_ZN13PriorityQueueD1Ev+0x350>
  403c3c:	f9401ac1 	ldr	x1, [x22, #48]
  403c40:	cb000021 	sub	x1, x1, x0
  403c44:	97fff91f 	bl	4020c0 <_ZdlPvm@plt>
  403c48:	f94006d3 	ldr	x19, [x22, #8]
  403c4c:	f9400ad5 	ldr	x21, [x22, #16]
  403c50:	eb15027f 	cmp	x19, x21
  403c54:	54fffc81 	b.ne	403be4 <_ZN13PriorityQueueD1Ev+0x2ec>  // b.any
  403c58:	17ffffeb 	b	403c04 <_ZN13PriorityQueueD1Ev+0x30c>
  403c5c:	91008273 	add	x19, x19, #0x20
  403c60:	eb1302bf 	cmp	x21, x19
  403c64:	54000120 	b.eq	403c88 <_ZN13PriorityQueueD1Ev+0x390>  // b.none
  403c68:	aa1303e1 	mov	x1, x19
  403c6c:	f8410420 	ldr	x0, [x1], #16
  403c70:	eb01001f 	cmp	x0, x1
  403c74:	54ffff40 	b.eq	403c5c <_ZN13PriorityQueueD1Ev+0x364>  // b.none
  403c78:	f9400a61 	ldr	x1, [x19, #16]
  403c7c:	91000421 	add	x1, x1, #0x1
  403c80:	97fff910 	bl	4020c0 <_ZdlPvm@plt>
  403c84:	17fffff6 	b	403c5c <_ZN13PriorityQueueD1Ev+0x364>
  403c88:	f94006c0 	ldr	x0, [x22, #8]
  403c8c:	b4000080 	cbz	x0, 403c9c <_ZN13PriorityQueueD1Ev+0x3a4>
  403c90:	f9400ec1 	ldr	x1, [x22, #24]
  403c94:	cb000021 	sub	x1, x1, x0
  403c98:	97fff90a 	bl	4020c0 <_ZdlPvm@plt>
  403c9c:	9102c2d6 	add	x22, x22, #0xb0
  403ca0:	eb1602ff 	cmp	x23, x22
  403ca4:	54ffe980 	b.eq	4039d4 <_ZN13PriorityQueueD1Ev+0xdc>  // b.none
  403ca8:	9101e2c0 	add	x0, x22, #0x78
  403cac:	97fffef4 	bl	40387c <_ZNSt10_HashtableIiSt4pairIKiiESaIS2_ENSt8__detail10_Select1stESt8equal_toIiESt4hashIiENS4_18_Mod_range_hashingENS4_20_Default_ranged_hashENS4_20_Prime_rehash_policyENS4_17_Hashtable_traitsILb0ELb0ELb1EEEED1Ev>
  403cb0:	910102c0 	add	x0, x22, #0x40
  403cb4:	97fffec9 	bl	4037d8 <_ZNSt10_HashtableINSt7__cxx1112basic_stringIcSt11char_traitsIcESaIcEEESt4pairIKS5_iESaIS8_ENSt8__detail10_Select1stESt8equal_toIS5_ESt4hashIS5_ENSA_18_Mod_range_hashingENSA_20_Default_ranged_hashENSA_20_Prime_rehash_policyENSA_17_Hashtable_traitsILb1ELb0ELb1EEEED1Ev>
  403cb8:	f94012c0 	ldr	x0, [x22, #32]
  403cbc:	b4000080 	cbz	x0, 403ccc <_ZN13PriorityQueueD1Ev+0x3d4>
  403cc0:	f9401ac1 	ldr	x1, [x22, #48]
  403cc4:	cb000021 	sub	x1, x1, x0
  403cc8:	97fff8fe 	bl	4020c0 <_ZdlPvm@plt>
  403ccc:	f94006d3 	ldr	x19, [x22, #8]
  403cd0:	f9400ad5 	ldr	x21, [x22, #16]
  403cd4:	eb15027f 	cmp	x19, x21
  403cd8:	54fffc81 	b.ne	403c68 <_ZN13PriorityQueueD1Ev+0x370>  // b.any
  403cdc:	17ffffeb 	b	403c88 <_ZN13PriorityQueueD1Ev+0x390>
  403ce0:	910082b5 	add	x21, x21, #0x20
  403ce4:	eb1502df 	cmp	x22, x21
  403ce8:	54000120 	b.eq	403d0c <_ZN13PriorityQueueD1Ev+0x414>  // b.none
  403cec:	aa1503e1 	mov	x1, x21
  403cf0:	f8410420 	ldr	x0, [x1], #16
  403cf4:	eb01001f 	cmp	x0, x1
  403cf8:	54ffff40 	b.eq	403ce0 <_ZN13PriorityQueueD1Ev+0x3e8>  // b.none
  403cfc:	f9400aa1 	ldr	x1, [x21, #16]
  403d00:	91000421 	add	x1, x1, #0x1
  403d04:	97fff8ef 	bl	4020c0 <_ZdlPvm@plt>
  403d08:	17fffff6 	b	403ce0 <_ZN13PriorityQueueD1Ev+0x3e8>
  403d0c:	f9400660 	ldr	x0, [x19, #8]
  403d10:	b4000080 	cbz	x0, 403d20 <_ZN13PriorityQueueD1Ev+0x428>
  403d14:	f9400e61 	ldr	x1, [x19, #24]
  403d18:	cb000021 	sub	x1, x1, x0
  403d1c:	97fff8e9 	bl	4020c0 <_ZdlPvm@plt>
  403d20:	9102c273 	add	x19, x19, #0xb0
  403d24:	eb1302ff 	cmp	x23, x19
  403d28:	540001e0 	b.eq	403d64 <_ZN13PriorityQueueD1Ev+0x46c>  // b.none
  403d2c:	9101e260 	add	x0, x19, #0x78
  403d30:	97fffed3 	bl	40387c <_ZNSt10_HashtableIiSt4pairIKiiESaIS2_ENSt8__detail10_Select1stESt8equal_toIiESt4hashIiENS4_18_Mod_range_hashingENS4_20_Default_ranged_hashENS4_20_Prime_rehash_policyENS4_17_Hashtable_traitsILb0ELb0ELb1EEEED1Ev>
  403d34:	91010260 	add	x0, x19, #0x40
  403d38:	97fffea8 	bl	4037d8 <_ZNSt10_HashtableINSt7__cxx1112basic_stringIcSt11char_traitsIcESaIcEEESt4pairIKS5_iESaIS8_ENSt8__detail10_Select1stESt8equal_toIS5_ESt4hashIS5_ENSA_18_Mod_range_hashingENSA_20_Default_ranged_hashENSA_20_Prime_rehash_policyENSA_17_Hashtable_traitsILb1ELb0ELb1EEEED1Ev>
  403d3c:	f9401260 	ldr	x0, [x19, #32]
  403d40:	b4000080 	cbz	x0, 403d50 <_ZN13PriorityQueueD1Ev+0x458>
  403d44:	f9401a61 	ldr	x1, [x19, #48]
  403d48:	cb000021 	sub	x1, x1, x0
  403d4c:	97fff8dd 	bl	4020c0 <_ZdlPvm@plt>
  403d50:	f9400675 	ldr	x21, [x19, #8]
  403d54:	f9400a76 	ldr	x22, [x19, #16]
  403d58:	eb1602bf 	cmp	x21, x22
  403d5c:	54fffc81 	b.ne	403cec <_ZN13PriorityQueueD1Ev+0x3f4>  // b.any
  403d60:	17ffffeb 	b	403d0c <_ZN13PriorityQueueD1Ev+0x414>
  403d64:	f9400300 	ldr	x0, [x24]
  403d68:	b4000080 	cbz	x0, 403d78 <_ZN13PriorityQueueD1Ev+0x480>
  403d6c:	f9400b01 	ldr	x1, [x24, #16]
  403d70:	cb000021 	sub	x1, x1, x0
  403d74:	97fff8d3 	bl	4020c0 <_ZdlPvm@plt>
  403d78:	91016318 	add	x24, x24, #0x58
  403d7c:	eb18033f 	cmp	x25, x24
  403d80:	54ffe3c0 	b.eq	4039f8 <_ZN13PriorityQueueD1Ev+0x100>  // b.none
  403d84:	f9401f00 	ldr	x0, [x24, #56]
  403d88:	b4000080 	cbz	x0, 403d98 <_ZN13PriorityQueueD1Ev+0x4a0>
  403d8c:	f9402701 	ldr	x1, [x24, #72]
  403d90:	cb000021 	sub	x1, x1, x0
  403d94:	97fff8cb 	bl	4020c0 <_ZdlPvm@plt>
  403d98:	f9401300 	ldr	x0, [x24, #32]
  403d9c:	b4000080 	cbz	x0, 403dac <_ZN13PriorityQueueD1Ev+0x4b4>
  403da0:	f9401b01 	ldr	x1, [x24, #48]
  403da4:	cb000021 	sub	x1, x1, x0
  403da8:	97fff8c6 	bl	4020c0 <_ZdlPvm@plt>
  403dac:	f9400313 	ldr	x19, [x24]
  403db0:	f9400717 	ldr	x23, [x24, #8]
  403db4:	eb17027f 	cmp	x19, x23
  403db8:	54fffba1 	b.ne	403d2c <_ZN13PriorityQueueD1Ev+0x434>  // b.any
  403dbc:	17ffffea 	b	403d64 <_ZN13PriorityQueueD1Ev+0x46c>
  403dc0:	910082b5 	add	x21, x21, #0x20
  403dc4:	eb1502df 	cmp	x22, x21
  403dc8:	54000120 	b.eq	403dec <_ZN13PriorityQueueD1Ev+0x4f4>  // b.none
  403dcc:	aa1503e1 	mov	x1, x21
  403dd0:	f8410420 	ldr	x0, [x1], #16
  403dd4:	eb01001f 	cmp	x0, x1
  403dd8:	54ffff40 	b.eq	403dc0 <_ZN13PriorityQueueD1Ev+0x4c8>  // b.none
  403ddc:	f9400aa1 	ldr	x1, [x21, #16]
  403de0:	91000421 	add	x1, x1, #0x1
  403de4:	97fff8b7 	bl	4020c0 <_ZdlPvm@plt>
  403de8:	17fffff6 	b	403dc0 <_ZN13PriorityQueueD1Ev+0x4c8>
  403dec:	f9400660 	ldr	x0, [x19, #8]
  403df0:	b4000080 	cbz	x0, 403e00 <_ZN13PriorityQueueD1Ev+0x508>
  403df4:	f9400e61 	ldr	x1, [x19, #24]
  403df8:	cb000021 	sub	x1, x1, x0
  403dfc:	97fff8b1 	bl	4020c0 <_ZdlPvm@plt>
  403e00:	9102c273 	add	x19, x19, #0xb0
  403e04:	eb1302ff 	cmp	x23, x19
  403e08:	540001e0 	b.eq	403e44 <_ZN13PriorityQueueD1Ev+0x54c>  // b.none
  403e0c:	9101e260 	add	x0, x19, #0x78
  403e10:	97fffe9b 	bl	40387c <_ZNSt10_HashtableIiSt4pairIKiiESaIS2_ENSt8__detail10_Select1stESt8equal_toIiESt4hashIiENS4_18_Mod_range_hashingENS4_20_Default_ranged_hashENS4_20_Prime_rehash_policyENS4_17_Hashtable_traitsILb0ELb0ELb1EEEED1Ev>
  403e14:	91010260 	add	x0, x19, #0x40
  403e18:	97fffe70 	bl	4037d8 <_ZNSt10_HashtableINSt7__cxx1112basic_stringIcSt11char_traitsIcESaIcEEESt4pairIKS5_iESaIS8_ENSt8__detail10_Select1stESt8equal_toIS5_ESt4hashIS5_ENSA_18_Mod_range_hashingENSA_20_Default_ranged_hashENSA_20_Prime_rehash_policyENSA_17_Hashtable_traitsILb1ELb0ELb1EEEED1Ev>
  403e1c:	f9401260 	ldr	x0, [x19, #32]
  403e20:	b4000080 	cbz	x0, 403e30 <_ZN13PriorityQueueD1Ev+0x538>
  403e24:	f9401a61 	ldr	x1, [x19, #48]
  403e28:	cb000021 	sub	x1, x1, x0
  403e2c:	97fff8a5 	bl	4020c0 <_ZdlPvm@plt>
  403e30:	f9400675 	ldr	x21, [x19, #8]
  403e34:	f9400a76 	ldr	x22, [x19, #16]
  403e38:	eb1602bf 	cmp	x21, x22
  403e3c:	54fffc81 	b.ne	403dcc <_ZN13PriorityQueueD1Ev+0x4d4>  // b.any
  403e40:	17ffffeb 	b	403dec <_ZN13PriorityQueueD1Ev+0x4f4>
  403e44:	f9400300 	ldr	x0, [x24]
  403e48:	b4000080 	cbz	x0, 403e58 <_ZN13PriorityQueueD1Ev+0x560>
  403e4c:	f9400b01 	ldr	x1, [x24, #16]
  403e50:	cb000021 	sub	x1, x1, x0
  403e54:	97fff89b 	bl	4020c0 <_ZdlPvm@plt>
  403e58:	91016318 	add	x24, x24, #0x58
  403e5c:	eb18033f 	cmp	x25, x24
  403e60:	54ffdde0 	b.eq	403a1c <_ZN13PriorityQueueD1Ev+0x124>  // b.none
  403e64:	f9401f00 	ldr	x0, [x24, #56]
  403e68:	b4000080 	cbz	x0, 403e78 <_ZN13PriorityQueueD1Ev+0x580>
  403e6c:	f9402701 	ldr	x1, [x24, #72]
  403e70:	cb000021 	sub	x1, x1, x0
  403e74:	97fff893 	bl	4020c0 <_ZdlPvm@plt>
  403e78:	f9401300 	ldr	x0, [x24, #32]
  403e7c:	b4000080 	cbz	x0, 403e8c <_ZN13PriorityQueueD1Ev+0x594>
  403e80:	f9401b01 	ldr	x1, [x24, #48]
  403e84:	cb000021 	sub	x1, x1, x0
  403e88:	97fff88e 	bl	4020c0 <_ZdlPvm@plt>
  403e8c:	f9400313 	ldr	x19, [x24]
  403e90:	f9400717 	ldr	x23, [x24, #8]
  403e94:	eb17027f 	cmp	x19, x23
  403e98:	54fffba1 	b.ne	403e0c <_ZN13PriorityQueueD1Ev+0x514>  // b.any
  403e9c:	17ffffea 	b	403e44 <_ZN13PriorityQueueD1Ev+0x54c>

0000000000403ea0 <_ZNSt7__cxx1115basic_stringbufIcSt11char_traitsIcESaIcEED1Ev>:
  403ea0:	a9be7bfd 	stp	x29, x30, [sp, #-32]!
  403ea4:	910003fd 	mov	x29, sp
  403ea8:	f9000bf3 	str	x19, [sp, #16]
  403eac:	aa0003f3 	mov	x19, x0
  403eb0:	90000160 	adrp	x0, 42f000 <__FRAME_END__+0x1a654>
  403eb4:	91356000 	add	x0, x0, #0xd58
  403eb8:	f9000260 	str	x0, [x19]
  403ebc:	f9402660 	ldr	x0, [x19, #72]
  403ec0:	91016261 	add	x1, x19, #0x58
  403ec4:	eb01001f 	cmp	x0, x1
  403ec8:	54000080 	b.eq	403ed8 <_ZNSt7__cxx1115basic_stringbufIcSt11char_traitsIcESaIcEED1Ev+0x38>  // b.none
  403ecc:	f9402e61 	ldr	x1, [x19, #88]
  403ed0:	91000421 	add	x1, x1, #0x1
  403ed4:	97fff87b 	bl	4020c0 <_ZdlPvm@plt>
  403ed8:	aa1303e0 	mov	x0, x19
  403edc:	90000161 	adrp	x1, 42f000 <__FRAME_END__+0x1a654>
  403ee0:	912dc021 	add	x1, x1, #0xb70
  403ee4:	f8038401 	str	x1, [x0], #56
  403ee8:	97fff8ae 	bl	4021a0 <_ZNSt6localeD1Ev@plt>
  403eec:	f9400bf3 	ldr	x19, [sp, #16]
  403ef0:	a8c27bfd 	ldp	x29, x30, [sp], #32
  403ef4:	d65f03c0 	ret

0000000000403ef8 <_ZNSt7__cxx1115basic_stringbufIcSt11char_traitsIcESaIcEED0Ev>:
  403ef8:	a9be7bfd 	stp	x29, x30, [sp, #-32]!
  403efc:	910003fd 	mov	x29, sp
  403f00:	f9000bf3 	str	x19, [sp, #16]
  403f04:	aa0003f3 	mov	x19, x0
  403f08:	90000160 	adrp	x0, 42f000 <__FRAME_END__+0x1a654>
  403f0c:	91356000 	add	x0, x0, #0xd58
  403f10:	f9000260 	str	x0, [x19]
  403f14:	f9402660 	ldr	x0, [x19, #72]
  403f18:	91016261 	add	x1, x19, #0x58
  403f1c:	eb01001f 	cmp	x0, x1
  403f20:	54000080 	b.eq	403f30 <_ZNSt7__cxx1115basic_stringbufIcSt11char_traitsIcESaIcEED0Ev+0x38>  // b.none
  403f24:	f9402e61 	ldr	x1, [x19, #88]
  403f28:	91000421 	add	x1, x1, #0x1
  403f2c:	97fff865 	bl	4020c0 <_ZdlPvm@plt>
  403f30:	aa1303e0 	mov	x0, x19
  403f34:	90000161 	adrp	x1, 42f000 <__FRAME_END__+0x1a654>
  403f38:	912dc021 	add	x1, x1, #0xb70
  403f3c:	f8038401 	str	x1, [x0], #56
  403f40:	97fff898 	bl	4021a0 <_ZNSt6localeD1Ev@plt>
  403f44:	d2800d01 	mov	x1, #0x68                  	// #104
  403f48:	aa1303e0 	mov	x0, x19
  403f4c:	97fff85d 	bl	4020c0 <_ZdlPvm@plt>
  403f50:	f9400bf3 	ldr	x19, [sp, #16]
  403f54:	a8c27bfd 	ldp	x29, x30, [sp], #32
  403f58:	d65f03c0 	ret

0000000000403f5c <_ZNSt6vectorINSt7__cxx1112basic_stringIcSt11char_traitsIcESaIcEEESaIS5_EEC1ESt16initializer_listIS5_ERKS6_>:
  403f5c:	a9ba7bfd 	stp	x29, x30, [sp, #-96]!
  403f60:	910003fd 	mov	x29, sp
  403f64:	a90153f3 	stp	x19, x20, [sp, #16]
  403f68:	a9025bf5 	stp	x21, x22, [sp, #32]
  403f6c:	a90363f7 	stp	x23, x24, [sp, #48]
  403f70:	f90023f9 	str	x25, [sp, #64]
  403f74:	aa0003f8 	mov	x24, x0
  403f78:	f900001f 	str	xzr, [x0]
  403f7c:	f900041f 	str	xzr, [x0, #8]
  403f80:	f900081f 	str	xzr, [x0, #16]
  403f84:	d37be853 	lsl	x19, x2, #5
  403f88:	8b130037 	add	x23, x1, x19
  403f8c:	b27be7e0 	mov	x0, #0x7fffffffffffffe0    	// #9223372036854775776
  403f90:	eb00027f 	cmp	x19, x0
  403f94:	540000e8 	b.hi	403fb0 <_ZNSt6vectorINSt7__cxx1112basic_stringIcSt11char_traitsIcESaIcEEESaIS5_EEC1ESt16initializer_listIS5_ERKS6_+0x54>  // b.pmore
  403f98:	aa0103f4 	mov	x20, x1
  403f9c:	aa0103f5 	mov	x21, x1
  403fa0:	b4000933 	cbz	x19, 4040c4 <_ZNSt6vectorINSt7__cxx1112basic_stringIcSt11char_traitsIcESaIcEEESaIS5_EEC1ESt16initializer_listIS5_ERKS6_+0x168>
  403fa4:	aa1303e0 	mov	x0, x19
  403fa8:	97fff842 	bl	4020b0 <_Znwm@plt>
  403fac:	14000006 	b	403fc4 <_ZNSt6vectorINSt7__cxx1112basic_stringIcSt11char_traitsIcESaIcEEESaIS5_EEC1ESt16initializer_listIS5_ERKS6_+0x68>
  403fb0:	f0000060 	adrp	x0, 412000 <_Z19MD5Hash_simdversionPKNSt7__cxx1112basic_stringIcSt11char_traitsIcESaIcEEEP12__Uint32x4_t+0x1480>
  403fb4:	911aa000 	add	x0, x0, #0x6a8
  403fb8:	97fff812 	bl	402000 <_ZSt20__throw_length_errorPKc@plt>
  403fbc:	aa0003f3 	mov	x19, x0
  403fc0:	1400003a 	b	4040a8 <_ZNSt6vectorINSt7__cxx1112basic_stringIcSt11char_traitsIcESaIcEEESaIS5_EEC1ESt16initializer_listIS5_ERKS6_+0x14c>
  403fc4:	aa0003f9 	mov	x25, x0
  403fc8:	f9000300 	str	x0, [x24]
  403fcc:	8b130013 	add	x19, x0, x19
  403fd0:	f9000b13 	str	x19, [x24, #16]
  403fd4:	eb1402ff 	cmp	x23, x20
  403fd8:	540005e0 	b.eq	404094 <_ZNSt6vectorINSt7__cxx1112basic_stringIcSt11char_traitsIcESaIcEEESaIS5_EEC1ESt16initializer_listIS5_ERKS6_+0x138>  // b.none
  403fdc:	aa0003f3 	mov	x19, x0
  403fe0:	1400001f 	b	40405c <_ZNSt6vectorINSt7__cxx1112basic_stringIcSt11char_traitsIcESaIcEEESaIS5_EEC1ESt16initializer_listIS5_ERKS6_+0x100>
  403fe4:	f0000060 	adrp	x0, 412000 <_Z19MD5Hash_simdversionPKNSt7__cxx1112basic_stringIcSt11char_traitsIcESaIcEEEP12__Uint32x4_t+0x1480>
  403fe8:	911b8000 	add	x0, x0, #0x6e0
  403fec:	97fff819 	bl	402050 <_ZSt19__throw_logic_errorPKc@plt>
  403ff0:	97fff7f8 	bl	401fd0 <__cxa_begin_catch@plt>
  403ff4:	eb19027f 	cmp	x19, x25
  403ff8:	54000520 	b.eq	40409c <_ZNSt6vectorINSt7__cxx1112basic_stringIcSt11char_traitsIcESaIcEEESaIS5_EEC1ESt16initializer_listIS5_ERKS6_+0x140>  // b.none
  403ffc:	aa1903e0 	mov	x0, x25
  404000:	97fff844 	bl	402110 <_ZNSt7__cxx1112basic_stringIcSt11char_traitsIcESaIcEE10_M_disposeEv@plt>
  404004:	91008339 	add	x25, x25, #0x20
  404008:	17fffffb 	b	403ff4 <_ZNSt6vectorINSt7__cxx1112basic_stringIcSt11char_traitsIcESaIcEEESaIS5_EEC1ESt16initializer_listIS5_ERKS6_+0x98>
  40400c:	d2800002 	mov	x2, #0x0                   	// #0
  404010:	910163e1 	add	x1, sp, #0x58
  404014:	aa1303e0 	mov	x0, x19
  404018:	97fff896 	bl	402270 <_ZNSt7__cxx1112basic_stringIcSt11char_traitsIcESaIcEE9_M_createERmm@plt>
  40401c:	f9000260 	str	x0, [x19]
  404020:	f9402fe1 	ldr	x1, [sp, #88]
  404024:	f9000a61 	str	x1, [x19, #16]
  404028:	aa1403e2 	mov	x2, x20
  40402c:	aa1603e1 	mov	x1, x22
  404030:	97fff7bc 	bl	401f20 <memcpy@plt>
  404034:	14000003 	b	404040 <_ZNSt6vectorINSt7__cxx1112basic_stringIcSt11char_traitsIcESaIcEEESaIS5_EEC1ESt16initializer_listIS5_ERKS6_+0xe4>
  404038:	394002c1 	ldrb	w1, [x22]
  40403c:	39000001 	strb	w1, [x0]
  404040:	f9402fe1 	ldr	x1, [sp, #88]
  404044:	f9000661 	str	x1, [x19, #8]
  404048:	f8420660 	ldr	x0, [x19], #32
  40404c:	3821681f 	strb	wzr, [x0, x1]
  404050:	910082b5 	add	x21, x21, #0x20
  404054:	eb1502ff 	cmp	x23, x21
  404058:	540003c0 	b.eq	4040d0 <_ZNSt6vectorINSt7__cxx1112basic_stringIcSt11char_traitsIcESaIcEEESaIS5_EEC1ESt16initializer_listIS5_ERKS6_+0x174>  // b.none
  40405c:	91004260 	add	x0, x19, #0x10
  404060:	f9000260 	str	x0, [x19]
  404064:	f94002b6 	ldr	x22, [x21]
  404068:	f94006b4 	ldr	x20, [x21, #8]
  40406c:	f100029f 	cmp	x20, #0x0
  404070:	fa401ac0 	ccmp	x22, #0x0, #0x0, ne  // ne = any
  404074:	54fffb80 	b.eq	403fe4 <_ZNSt6vectorINSt7__cxx1112basic_stringIcSt11char_traitsIcESaIcEEESaIS5_EEC1ESt16initializer_listIS5_ERKS6_+0x88>  // b.none
  404078:	f9002ff4 	str	x20, [sp, #88]
  40407c:	f1003e9f 	cmp	x20, #0xf
  404080:	54fffc68 	b.hi	40400c <_ZNSt6vectorINSt7__cxx1112basic_stringIcSt11char_traitsIcESaIcEEESaIS5_EEC1ESt16initializer_listIS5_ERKS6_+0xb0>  // b.pmore
  404084:	f100069f 	cmp	x20, #0x1
  404088:	54fffd80 	b.eq	404038 <_ZNSt6vectorINSt7__cxx1112basic_stringIcSt11char_traitsIcESaIcEEESaIS5_EEC1ESt16initializer_listIS5_ERKS6_+0xdc>  // b.none
  40408c:	b4fffdb4 	cbz	x20, 404040 <_ZNSt6vectorINSt7__cxx1112basic_stringIcSt11char_traitsIcESaIcEEESaIS5_EEC1ESt16initializer_listIS5_ERKS6_+0xe4>
  404090:	17ffffe6 	b	404028 <_ZNSt6vectorINSt7__cxx1112basic_stringIcSt11char_traitsIcESaIcEEESaIS5_EEC1ESt16initializer_listIS5_ERKS6_+0xcc>
  404094:	aa0003f3 	mov	x19, x0
  404098:	1400000e 	b	4040d0 <_ZNSt6vectorINSt7__cxx1112basic_stringIcSt11char_traitsIcESaIcEEESaIS5_EEC1ESt16initializer_listIS5_ERKS6_+0x174>
  40409c:	97fff849 	bl	4021c0 <__cxa_rethrow@plt>
  4040a0:	aa0003f3 	mov	x19, x0
  4040a4:	97fff85f 	bl	402220 <__cxa_end_catch@plt>
  4040a8:	f9400300 	ldr	x0, [x24]
  4040ac:	f9400b01 	ldr	x1, [x24, #16]
  4040b0:	cb000021 	sub	x1, x1, x0
  4040b4:	b4000040 	cbz	x0, 4040bc <_ZNSt6vectorINSt7__cxx1112basic_stringIcSt11char_traitsIcESaIcEEESaIS5_EEC1ESt16initializer_listIS5_ERKS6_+0x160>
  4040b8:	97fff802 	bl	4020c0 <_ZdlPvm@plt>
  4040bc:	aa1303e0 	mov	x0, x19
  4040c0:	97fff868 	bl	402260 <_Unwind_Resume@plt>
  4040c4:	f900031f 	str	xzr, [x24]
  4040c8:	f9000b13 	str	x19, [x24, #16]
  4040cc:	d2800013 	mov	x19, #0x0                   	// #0
  4040d0:	f9000713 	str	x19, [x24, #8]
  4040d4:	a94153f3 	ldp	x19, x20, [sp, #16]
  4040d8:	a9425bf5 	ldp	x21, x22, [sp, #32]
  4040dc:	a94363f7 	ldp	x23, x24, [sp, #48]
  4040e0:	f94023f9 	ldr	x25, [sp, #64]
  4040e4:	a8c67bfd 	ldp	x29, x30, [sp], #96
  4040e8:	d65f03c0 	ret

00000000004040ec <_Z20compareByPretermProbRK2PTS1_>:
  4040ec:	bd405001 	ldr	s1, [x0, #80]
  4040f0:	bd405020 	ldr	s0, [x1, #80]
  4040f4:	1e202030 	fcmpe	s1, s0
  4040f8:	1a9fd7e0 	cset	w0, gt
  4040fc:	d65f03c0 	ret

0000000000404100 <_ZN5model6FindPTE2PT>:
  404100:	f9400c07 	ldr	x7, [x0, #24]
  404104:	f940100c 	ldr	x12, [x0, #32]
  404108:	cb07018c 	sub	x12, x12, x7
  40410c:	9343fd8c 	asr	x12, x12, #3
  404110:	d2917460 	mov	x0, #0x8ba3                	// #35747
  404114:	f2b745c0 	movk	x0, #0xba2e, lsl #16
  404118:	f2d45d00 	movk	x0, #0xa2e8, lsl #32
  40411c:	f2e5d160 	movk	x0, #0x2e8b, lsl #48
  404120:	9b007d8c 	mul	x12, x12, x0
  404124:	b40004ec 	cbz	x12, 4041c0 <_ZN5model6FindPTE2PT+0xc0>
  404128:	f9400029 	ldr	x9, [x1]
  40412c:	f940042d 	ldr	x13, [x1, #8]
  404130:	cb0901ad 	sub	x13, x13, x9
  404134:	d2800008 	mov	x8, #0x0                   	// #0
  404138:	aa0003ee 	mov	x14, x0
  40413c:	9100112b 	add	x11, x9, #0x4
  404140:	14000005 	b	404154 <_ZN5model6FindPTE2PT+0x54>
  404144:	91000508 	add	x8, x8, #0x1
  404148:	910160e7 	add	x7, x7, #0x58
  40414c:	eb08019f 	cmp	x12, x8
  404150:	54000340 	b.eq	4041b8 <_ZN5model6FindPTE2PT+0xb8>  // b.none
  404154:	2a0803e0 	mov	w0, w8
  404158:	f94000e6 	ldr	x6, [x7]
  40415c:	f94004e2 	ldr	x2, [x7, #8]
  404160:	cb060042 	sub	x2, x2, x6
  404164:	eb0201bf 	cmp	x13, x2
  404168:	54fffee1 	b.ne	404144 <_ZN5model6FindPTE2PT+0x44>  // b.any
  40416c:	9344fc42 	asr	x2, x2, #4
  404170:	9b0e7c42 	mul	x2, x2, x14
  404174:	b4000202 	cbz	x2, 4041b4 <_ZN5model6FindPTE2PT+0xb4>
  404178:	d2800001 	mov	x1, #0x0                   	// #0
  40417c:	d2800003 	mov	x3, #0x0                   	// #0
  404180:	910010ca 	add	x10, x6, #0x4
  404184:	b86168c5 	ldr	w5, [x6, x1]
  404188:	b8616924 	ldr	w4, [x9, x1]
  40418c:	6b0400bf 	cmp	w5, w4
  404190:	54fffda1 	b.ne	404144 <_ZN5model6FindPTE2PT+0x44>  // b.any
  404194:	b8616945 	ldr	w5, [x10, x1]
  404198:	b8616964 	ldr	w4, [x11, x1]
  40419c:	6b0400bf 	cmp	w5, w4
  4041a0:	54fffd21 	b.ne	404144 <_ZN5model6FindPTE2PT+0x44>  // b.any
  4041a4:	91000463 	add	x3, x3, #0x1
  4041a8:	9102c021 	add	x1, x1, #0xb0
  4041ac:	eb02007f 	cmp	x3, x2
  4041b0:	54fffea1 	b.ne	404184 <_ZN5model6FindPTE2PT+0x84>  // b.any
  4041b4:	d65f03c0 	ret
  4041b8:	12800000 	mov	w0, #0xffffffff            	// #-1
  4041bc:	17fffffe 	b	4041b4 <_ZN5model6FindPTE2PT+0xb4>
  4041c0:	12800000 	mov	w0, #0xffffffff            	// #-1
  4041c4:	17fffffc 	b	4041b4 <_ZN5model6FindPTE2PT+0xb4>

00000000004041c8 <_ZN5model10FindLetterE7segment>:
  4041c8:	f9401802 	ldr	x2, [x0, #48]
  4041cc:	f9401c04 	ldr	x4, [x0, #56]
  4041d0:	cb020084 	sub	x4, x4, x2
  4041d4:	9344fc84 	asr	x4, x4, #4
  4041d8:	d2917460 	mov	x0, #0x8ba3                	// #35747
  4041dc:	f2b745c0 	movk	x0, #0xba2e, lsl #16
  4041e0:	f2d45d00 	movk	x0, #0xa2e8, lsl #32
  4041e4:	f2e5d160 	movk	x0, #0x2e8b, lsl #48
  4041e8:	9b007c84 	mul	x4, x4, x0
  4041ec:	b40001c4 	cbz	x4, 404224 <_ZN5model10FindLetterE7segment+0x5c>
  4041f0:	b9400425 	ldr	w5, [x1, #4]
  4041f4:	91001042 	add	x2, x2, #0x4
  4041f8:	d2800001 	mov	x1, #0x0                   	// #0
  4041fc:	2a0103e0 	mov	w0, w1
  404200:	b9400043 	ldr	w3, [x2]
  404204:	6b05007f 	cmp	w3, w5
  404208:	540000c0 	b.eq	404220 <_ZN5model10FindLetterE7segment+0x58>  // b.none
  40420c:	91000421 	add	x1, x1, #0x1
  404210:	9102c042 	add	x2, x2, #0xb0
  404214:	eb04003f 	cmp	x1, x4
  404218:	54ffff21 	b.ne	4041fc <_ZN5model10FindLetterE7segment+0x34>  // b.any
  40421c:	12800000 	mov	w0, #0xffffffff            	// #-1
  404220:	d65f03c0 	ret
  404224:	12800000 	mov	w0, #0xffffffff            	// #-1
  404228:	17fffffe 	b	404220 <_ZN5model10FindLetterE7segment+0x58>

000000000040422c <_ZN5model9FindDigitE7segment>:
  40422c:	f9402402 	ldr	x2, [x0, #72]
  404230:	f9402804 	ldr	x4, [x0, #80]
  404234:	cb020084 	sub	x4, x4, x2
  404238:	9344fc84 	asr	x4, x4, #4
  40423c:	d2917460 	mov	x0, #0x8ba3                	// #35747
  404240:	f2b745c0 	movk	x0, #0xba2e, lsl #16
  404244:	f2d45d00 	movk	x0, #0xa2e8, lsl #32
  404248:	f2e5d160 	movk	x0, #0x2e8b, lsl #48
  40424c:	9b007c84 	mul	x4, x4, x0
  404250:	b40001c4 	cbz	x4, 404288 <_ZN5model9FindDigitE7segment+0x5c>
  404254:	b9400425 	ldr	w5, [x1, #4]
  404258:	91001042 	add	x2, x2, #0x4
  40425c:	d2800001 	mov	x1, #0x0                   	// #0
  404260:	2a0103e0 	mov	w0, w1
  404264:	b9400043 	ldr	w3, [x2]
  404268:	6b05007f 	cmp	w3, w5
  40426c:	540000c0 	b.eq	404284 <_ZN5model9FindDigitE7segment+0x58>  // b.none
  404270:	91000421 	add	x1, x1, #0x1
  404274:	9102c042 	add	x2, x2, #0xb0
  404278:	eb04003f 	cmp	x1, x4
  40427c:	54ffff21 	b.ne	404260 <_ZN5model9FindDigitE7segment+0x34>  // b.any
  404280:	12800000 	mov	w0, #0xffffffff            	// #-1
  404284:	d65f03c0 	ret
  404288:	12800000 	mov	w0, #0xffffffff            	// #-1
  40428c:	17fffffe 	b	404284 <_ZN5model9FindDigitE7segment+0x58>

0000000000404290 <_ZN5model10FindSymbolE7segment>:
  404290:	f9403002 	ldr	x2, [x0, #96]
  404294:	f9403404 	ldr	x4, [x0, #104]
  404298:	cb020084 	sub	x4, x4, x2
  40429c:	9344fc84 	asr	x4, x4, #4
  4042a0:	d2917460 	mov	x0, #0x8ba3                	// #35747
  4042a4:	f2b745c0 	movk	x0, #0xba2e, lsl #16
  4042a8:	f2d45d00 	movk	x0, #0xa2e8, lsl #32
  4042ac:	f2e5d160 	movk	x0, #0x2e8b, lsl #48
  4042b0:	9b007c84 	mul	x4, x4, x0
  4042b4:	b40001c4 	cbz	x4, 4042ec <_ZN5model10FindSymbolE7segment+0x5c>
  4042b8:	b9400425 	ldr	w5, [x1, #4]
  4042bc:	91001042 	add	x2, x2, #0x4
  4042c0:	d2800001 	mov	x1, #0x0                   	// #0
  4042c4:	2a0103e0 	mov	w0, w1
  4042c8:	b9400043 	ldr	w3, [x2]
  4042cc:	6b05007f 	cmp	w3, w5
  4042d0:	540000c0 	b.eq	4042e8 <_ZN5model10FindSymbolE7segment+0x58>  // b.none
  4042d4:	91000421 	add	x1, x1, #0x1
  4042d8:	9102c042 	add	x2, x2, #0xb0
  4042dc:	eb04003f 	cmp	x1, x4
  4042e0:	54ffff21 	b.ne	4042c4 <_ZN5model10FindSymbolE7segment+0x34>  // b.any
  4042e4:	12800000 	mov	w0, #0xffffffff            	// #-1
  4042e8:	d65f03c0 	ret
  4042ec:	12800000 	mov	w0, #0xffffffff            	// #-1
  4042f0:	17fffffe 	b	4042e8 <_ZN5model10FindSymbolE7segment+0x58>

00000000004042f4 <_ZN7segment8PrintSegEv>:
  4042f4:	a9be7bfd 	stp	x29, x30, [sp, #-32]!
  4042f8:	910003fd 	mov	x29, sp
  4042fc:	a90153f3 	stp	x19, x20, [sp, #16]
  404300:	aa0003f3 	mov	x19, x0
  404304:	b9400000 	ldr	w0, [x0]
  404308:	7100041f 	cmp	w0, #0x1
  40430c:	54000140 	b.eq	404334 <_ZN7segment8PrintSegEv+0x40>  // b.none
  404310:	b9400260 	ldr	w0, [x19]
  404314:	7100081f 	cmp	w0, #0x2
  404318:	54000240 	b.eq	404360 <_ZN7segment8PrintSegEv+0x6c>  // b.none
  40431c:	b9400260 	ldr	w0, [x19]
  404320:	71000c1f 	cmp	w0, #0x3
  404324:	54000340 	b.eq	40438c <_ZN7segment8PrintSegEv+0x98>  // b.none
  404328:	a94153f3 	ldp	x19, x20, [sp, #16]
  40432c:	a8c27bfd 	ldp	x29, x30, [sp], #32
  404330:	d65f03c0 	ret
  404334:	90000174 	adrp	x20, 430000 <_Znam@GLIBCXX_3.4>
  404338:	91084294 	add	x20, x20, #0x210
  40433c:	d2800022 	mov	x2, #0x1                   	// #1
  404340:	d0000061 	adrp	x1, 412000 <_Z19MD5Hash_simdversionPKNSt7__cxx1112basic_stringIcSt11char_traitsIcESaIcEEEP12__Uint32x4_t+0x1480>
  404344:	9128e021 	add	x1, x1, #0xa38
  404348:	aa1403e0 	mov	x0, x20
  40434c:	97fff769 	bl	4020f0 <_ZSt16__ostream_insertIcSt11char_traitsIcEERSt13basic_ostreamIT_T0_ES6_PKS3_l@plt>
  404350:	b9400661 	ldr	w1, [x19, #4]
  404354:	aa1403e0 	mov	x0, x20
  404358:	97fff7be 	bl	402250 <_ZNSolsEi@plt>
  40435c:	17ffffed 	b	404310 <_ZN7segment8PrintSegEv+0x1c>
  404360:	90000174 	adrp	x20, 430000 <_Znam@GLIBCXX_3.4>
  404364:	91084294 	add	x20, x20, #0x210
  404368:	d2800022 	mov	x2, #0x1                   	// #1
  40436c:	d0000061 	adrp	x1, 412000 <_Z19MD5Hash_simdversionPKNSt7__cxx1112basic_stringIcSt11char_traitsIcESaIcEEEP12__Uint32x4_t+0x1480>
  404370:	91290021 	add	x1, x1, #0xa40
  404374:	aa1403e0 	mov	x0, x20
  404378:	97fff75e 	bl	4020f0 <_ZSt16__ostream_insertIcSt11char_traitsIcEERSt13basic_ostreamIT_T0_ES6_PKS3_l@plt>
  40437c:	b9400661 	ldr	w1, [x19, #4]
  404380:	aa1403e0 	mov	x0, x20
  404384:	97fff7b3 	bl	402250 <_ZNSolsEi@plt>
  404388:	17ffffe5 	b	40431c <_ZN7segment8PrintSegEv+0x28>
  40438c:	90000174 	adrp	x20, 430000 <_Znam@GLIBCXX_3.4>
  404390:	91084294 	add	x20, x20, #0x210
  404394:	d2800022 	mov	x2, #0x1                   	// #1
  404398:	d0000061 	adrp	x1, 412000 <_Z19MD5Hash_simdversionPKNSt7__cxx1112basic_stringIcSt11char_traitsIcESaIcEEEP12__Uint32x4_t+0x1480>
  40439c:	91292021 	add	x1, x1, #0xa48
  4043a0:	aa1403e0 	mov	x0, x20
  4043a4:	97fff753 	bl	4020f0 <_ZSt16__ostream_insertIcSt11char_traitsIcEERSt13basic_ostreamIT_T0_ES6_PKS3_l@plt>
  4043a8:	b9400661 	ldr	w1, [x19, #4]
  4043ac:	aa1403e0 	mov	x0, x20
  4043b0:	97fff7a8 	bl	402250 <_ZNSolsEi@plt>
  4043b4:	17ffffdd 	b	404328 <_ZN7segment8PrintSegEv+0x34>

00000000004043b8 <_ZSt25__unguarded_linear_insertIN9__gnu_cxx17__normal_iteratorIPNSt7__cxx1112basic_stringIcSt11char_traitsIcESaIcEEESt6vectorIS7_SaIS7_EEEENS0_5__ops14_Val_comp_iterIZN7segment5orderEvEUlRKS7_SH_E_EEEvT_T0_>:
  4043b8:	a9ba7bfd 	stp	x29, x30, [sp, #-96]!
  4043bc:	910003fd 	mov	x29, sp
  4043c0:	a90153f3 	stp	x19, x20, [sp, #16]
  4043c4:	a9025bf5 	stp	x21, x22, [sp, #32]
  4043c8:	a90363f7 	stp	x23, x24, [sp, #48]
  4043cc:	910143e2 	add	x2, sp, #0x50
  4043d0:	f90023e2 	str	x2, [sp, #64]
  4043d4:	aa0003e2 	mov	x2, x0
  4043d8:	f8410443 	ldr	x3, [x2], #16
  4043dc:	eb03005f 	cmp	x2, x3
  4043e0:	540001a0 	b.eq	404414 <_ZSt25__unguarded_linear_insertIN9__gnu_cxx17__normal_iteratorIPNSt7__cxx1112basic_stringIcSt11char_traitsIcESaIcEEESt6vectorIS7_SaIS7_EEEENS0_5__ops14_Val_comp_iterIZN7segment5orderEvEUlRKS7_SH_E_EEEvT_T0_+0x5c>  // b.none
  4043e4:	f90023e3 	str	x3, [sp, #64]
  4043e8:	f9400803 	ldr	x3, [x0, #16]
  4043ec:	f9002be3 	str	x3, [sp, #80]
  4043f0:	f9400403 	ldr	x3, [x0, #8]
  4043f4:	f90027e3 	str	x3, [sp, #72]
  4043f8:	f9000002 	str	x2, [x0]
  4043fc:	f900041f 	str	xzr, [x0, #8]
  404400:	3900401f 	strb	wzr, [x0, #16]
  404404:	d1004013 	sub	x19, x0, #0x10
  404408:	91010036 	add	x22, x1, #0x40
  40440c:	9101e035 	add	x21, x1, #0x78
  404410:	14000026 	b	4044a8 <_ZSt25__unguarded_linear_insertIN9__gnu_cxx17__normal_iteratorIPNSt7__cxx1112basic_stringIcSt11char_traitsIcESaIcEEESt6vectorIS7_SaIS7_EEEENS0_5__ops14_Val_comp_iterIZN7segment5orderEvEUlRKS7_SH_E_EEEvT_T0_+0xf0>
  404414:	a9411404 	ldp	x4, x5, [x0, #16]
  404418:	a90517e4 	stp	x4, x5, [sp, #80]
  40441c:	17fffff5 	b	4043f0 <_ZSt25__unguarded_linear_insertIN9__gnu_cxx17__normal_iteratorIPNSt7__cxx1112basic_stringIcSt11char_traitsIcESaIcEEESt6vectorIS7_SaIS7_EEEENS0_5__ops14_Val_comp_iterIZN7segment5orderEvEUlRKS7_SH_E_EEEvT_T0_+0x38>
  404420:	aa0003e1 	mov	x1, x0
  404424:	aa1503e0 	mov	x0, x21
  404428:	940016fe 	bl	40a020 <_ZNSt8__detail9_Map_baseIiSt4pairIKiiESaIS3_ENS_10_Select1stESt8equal_toIiESt4hashIiENS_18_Mod_range_hashingENS_20_Default_ranged_hashENS_20_Prime_rehash_policyENS_17_Hashtable_traitsILb0ELb0ELb1EEELb1EE2atERS2_>
  40442c:	b9400014 	ldr	w20, [x0]
  404430:	aa1703e1 	mov	x1, x23
  404434:	aa1603e0 	mov	x0, x22
  404438:	9400175e 	bl	40a1b0 <_ZNSt8__detail9_Map_baseINSt7__cxx1112basic_stringIcSt11char_traitsIcESaIcEEESt4pairIKS6_iESaIS9_ENS_10_Select1stESt8equal_toIS6_ESt4hashIS6_ENS_18_Mod_range_hashingENS_20_Default_ranged_hashENS_20_Prime_rehash_policyENS_17_Hashtable_traitsILb1ELb0ELb1EEELb1EEixERS8_>
  40443c:	aa0003e1 	mov	x1, x0
  404440:	aa1503e0 	mov	x0, x21
  404444:	940016f7 	bl	40a020 <_ZNSt8__detail9_Map_baseIiSt4pairIKiiESaIS3_ENS_10_Select1stESt8equal_toIiESt4hashIiENS_18_Mod_range_hashingENS_20_Default_ranged_hashENS_20_Prime_rehash_policyENS_17_Hashtable_traitsILb0ELb0ELb1EEELb1EE2atERS2_>
  404448:	b9400000 	ldr	w0, [x0]
  40444c:	6b00029f 	cmp	w20, w0
  404450:	5400056d 	b.le	4044fc <_ZSt25__unguarded_linear_insertIN9__gnu_cxx17__normal_iteratorIPNSt7__cxx1112basic_stringIcSt11char_traitsIcESaIcEEESt6vectorIS7_SaIS7_EEEENS0_5__ops14_Val_comp_iterIZN7segment5orderEvEUlRKS7_SH_E_EEEvT_T0_+0x144>
  404454:	aa1303f4 	mov	x20, x19
  404458:	f9400a60 	ldr	x0, [x19, #16]
  40445c:	f85f0261 	ldur	x1, [x19, #-16]
  404460:	eb13003f 	cmp	x1, x19
  404464:	540002e0 	b.eq	4044c0 <_ZSt25__unguarded_linear_insertIN9__gnu_cxx17__normal_iteratorIPNSt7__cxx1112basic_stringIcSt11char_traitsIcESaIcEEESt6vectorIS7_SaIS7_EEEENS0_5__ops14_Val_comp_iterIZN7segment5orderEvEUlRKS7_SH_E_EEEvT_T0_+0x108>  // b.none
  404468:	91008262 	add	x2, x19, #0x20
  40446c:	eb02001f 	cmp	x0, x2
  404470:	54000ae0 	b.eq	4045cc <_ZSt25__unguarded_linear_insertIN9__gnu_cxx17__normal_iteratorIPNSt7__cxx1112basic_stringIcSt11char_traitsIcESaIcEEESt6vectorIS7_SaIS7_EEEENS0_5__ops14_Val_comp_iterIZN7segment5orderEvEUlRKS7_SH_E_EEEvT_T0_+0x214>  // b.none
  404474:	f9401262 	ldr	x2, [x19, #32]
  404478:	f9000a61 	str	x1, [x19, #16]
  40447c:	f85f8261 	ldur	x1, [x19, #-8]
  404480:	f9000e61 	str	x1, [x19, #24]
  404484:	f9400261 	ldr	x1, [x19]
  404488:	f9001261 	str	x1, [x19, #32]
  40448c:	b4000aa0 	cbz	x0, 4045e0 <_ZSt25__unguarded_linear_insertIN9__gnu_cxx17__normal_iteratorIPNSt7__cxx1112basic_stringIcSt11char_traitsIcESaIcEEESt6vectorIS7_SaIS7_EEEENS0_5__ops14_Val_comp_iterIZN7segment5orderEvEUlRKS7_SH_E_EEEvT_T0_+0x228>
  404490:	f81f0260 	stur	x0, [x19, #-16]
  404494:	f9000262 	str	x2, [x19]
  404498:	f81f829f 	stur	xzr, [x20, #-8]
  40449c:	f85f0280 	ldur	x0, [x20, #-16]
  4044a0:	3900001f 	strb	wzr, [x0]
  4044a4:	d1008273 	sub	x19, x19, #0x20
  4044a8:	d1004277 	sub	x23, x19, #0x10
  4044ac:	91004278 	add	x24, x19, #0x10
  4044b0:	910103e1 	add	x1, sp, #0x40
  4044b4:	aa1603e0 	mov	x0, x22
  4044b8:	9400173e 	bl	40a1b0 <_ZNSt8__detail9_Map_baseINSt7__cxx1112basic_stringIcSt11char_traitsIcESaIcEEESt4pairIKS6_iESaIS9_ENS_10_Select1stESt8equal_toIS6_ESt4hashIS6_ENS_18_Mod_range_hashingENS_20_Default_ranged_hashENS_20_Prime_rehash_policyENS_17_Hashtable_traitsILb1ELb0ELb1EEELb1EEixERS8_>
  4044bc:	17ffffd9 	b	404420 <_ZSt25__unguarded_linear_insertIN9__gnu_cxx17__normal_iteratorIPNSt7__cxx1112basic_stringIcSt11char_traitsIcESaIcEEESt6vectorIS7_SaIS7_EEEENS0_5__ops14_Val_comp_iterIZN7segment5orderEvEUlRKS7_SH_E_EEEvT_T0_+0x68>
  4044c0:	f85f8262 	ldur	x2, [x19, #-8]
  4044c4:	b50000c2 	cbnz	x2, 4044dc <_ZSt25__unguarded_linear_insertIN9__gnu_cxx17__normal_iteratorIPNSt7__cxx1112basic_stringIcSt11char_traitsIcESaIcEEESt6vectorIS7_SaIS7_EEEENS0_5__ops14_Val_comp_iterIZN7segment5orderEvEUlRKS7_SH_E_EEEvT_T0_+0x124>
  4044c8:	f85f8280 	ldur	x0, [x20, #-8]
  4044cc:	f9000e80 	str	x0, [x20, #24]
  4044d0:	f9400a81 	ldr	x1, [x20, #16]
  4044d4:	3820683f 	strb	wzr, [x1, x0]
  4044d8:	17fffff0 	b	404498 <_ZSt25__unguarded_linear_insertIN9__gnu_cxx17__normal_iteratorIPNSt7__cxx1112basic_stringIcSt11char_traitsIcESaIcEEESt6vectorIS7_SaIS7_EEEENS0_5__ops14_Val_comp_iterIZN7segment5orderEvEUlRKS7_SH_E_EEEvT_T0_+0xe0>
  4044dc:	f100045f 	cmp	x2, #0x1
  4044e0:	54000080 	b.eq	4044f0 <_ZSt25__unguarded_linear_insertIN9__gnu_cxx17__normal_iteratorIPNSt7__cxx1112basic_stringIcSt11char_traitsIcESaIcEEESt6vectorIS7_SaIS7_EEEENS0_5__ops14_Val_comp_iterIZN7segment5orderEvEUlRKS7_SH_E_EEEvT_T0_+0x138>  // b.none
  4044e4:	aa1303e1 	mov	x1, x19
  4044e8:	97fff68e 	bl	401f20 <memcpy@plt>
  4044ec:	17fffff7 	b	4044c8 <_ZSt25__unguarded_linear_insertIN9__gnu_cxx17__normal_iteratorIPNSt7__cxx1112basic_stringIcSt11char_traitsIcESaIcEEESt6vectorIS7_SaIS7_EEEENS0_5__ops14_Val_comp_iterIZN7segment5orderEvEUlRKS7_SH_E_EEEvT_T0_+0x110>
  4044f0:	39400261 	ldrb	w1, [x19]
  4044f4:	39000001 	strb	w1, [x0]
  4044f8:	17fffff4 	b	4044c8 <_ZSt25__unguarded_linear_insertIN9__gnu_cxx17__normal_iteratorIPNSt7__cxx1112basic_stringIcSt11char_traitsIcESaIcEEESt6vectorIS7_SaIS7_EEEENS0_5__ops14_Val_comp_iterIZN7segment5orderEvEUlRKS7_SH_E_EEEvT_T0_+0x110>
  4044fc:	f9400300 	ldr	x0, [x24]
  404500:	f94023e1 	ldr	x1, [sp, #64]
  404504:	910143e2 	add	x2, sp, #0x50
  404508:	eb02003f 	cmp	x1, x2
  40450c:	54000380 	b.eq	40457c <_ZSt25__unguarded_linear_insertIN9__gnu_cxx17__normal_iteratorIPNSt7__cxx1112basic_stringIcSt11char_traitsIcESaIcEEESt6vectorIS7_SaIS7_EEEENS0_5__ops14_Val_comp_iterIZN7segment5orderEvEUlRKS7_SH_E_EEEvT_T0_+0x1c4>  // b.none
  404510:	91004302 	add	x2, x24, #0x10
  404514:	eb02001f 	cmp	x0, x2
  404518:	54000680 	b.eq	4045e8 <_ZSt25__unguarded_linear_insertIN9__gnu_cxx17__normal_iteratorIPNSt7__cxx1112basic_stringIcSt11char_traitsIcESaIcEEESt6vectorIS7_SaIS7_EEEENS0_5__ops14_Val_comp_iterIZN7segment5orderEvEUlRKS7_SH_E_EEEvT_T0_+0x230>  // b.none
  40451c:	f9400b02 	ldr	x2, [x24, #16]
  404520:	f9000301 	str	x1, [x24]
  404524:	f94027e1 	ldr	x1, [sp, #72]
  404528:	f9000701 	str	x1, [x24, #8]
  40452c:	f9402be1 	ldr	x1, [sp, #80]
  404530:	f9000b01 	str	x1, [x24, #16]
  404534:	b4000640 	cbz	x0, 4045fc <_ZSt25__unguarded_linear_insertIN9__gnu_cxx17__normal_iteratorIPNSt7__cxx1112basic_stringIcSt11char_traitsIcESaIcEEESt6vectorIS7_SaIS7_EEEENS0_5__ops14_Val_comp_iterIZN7segment5orderEvEUlRKS7_SH_E_EEEvT_T0_+0x244>
  404538:	f90023e0 	str	x0, [sp, #64]
  40453c:	f9002be2 	str	x2, [sp, #80]
  404540:	f90027ff 	str	xzr, [sp, #72]
  404544:	f94023e0 	ldr	x0, [sp, #64]
  404548:	3900001f 	strb	wzr, [x0]
  40454c:	f94023e0 	ldr	x0, [sp, #64]
  404550:	910143e1 	add	x1, sp, #0x50
  404554:	eb01001f 	cmp	x0, x1
  404558:	54000080 	b.eq	404568 <_ZSt25__unguarded_linear_insertIN9__gnu_cxx17__normal_iteratorIPNSt7__cxx1112basic_stringIcSt11char_traitsIcESaIcEEESt6vectorIS7_SaIS7_EEEENS0_5__ops14_Val_comp_iterIZN7segment5orderEvEUlRKS7_SH_E_EEEvT_T0_+0x1b0>  // b.none
  40455c:	f9402be1 	ldr	x1, [sp, #80]
  404560:	91000421 	add	x1, x1, #0x1
  404564:	97fff6d7 	bl	4020c0 <_ZdlPvm@plt>
  404568:	a94153f3 	ldp	x19, x20, [sp, #16]
  40456c:	a9425bf5 	ldp	x21, x22, [sp, #32]
  404570:	a94363f7 	ldp	x23, x24, [sp, #48]
  404574:	a8c67bfd 	ldp	x29, x30, [sp], #96
  404578:	d65f03c0 	ret
  40457c:	f94027e2 	ldr	x2, [sp, #72]
  404580:	b50000c2 	cbnz	x2, 404598 <_ZSt25__unguarded_linear_insertIN9__gnu_cxx17__normal_iteratorIPNSt7__cxx1112basic_stringIcSt11char_traitsIcESaIcEEESt6vectorIS7_SaIS7_EEEENS0_5__ops14_Val_comp_iterIZN7segment5orderEvEUlRKS7_SH_E_EEEvT_T0_+0x1e0>
  404584:	f94027e0 	ldr	x0, [sp, #72]
  404588:	f9000700 	str	x0, [x24, #8]
  40458c:	f9400301 	ldr	x1, [x24]
  404590:	3820683f 	strb	wzr, [x1, x0]
  404594:	17ffffeb 	b	404540 <_ZSt25__unguarded_linear_insertIN9__gnu_cxx17__normal_iteratorIPNSt7__cxx1112basic_stringIcSt11char_traitsIcESaIcEEESt6vectorIS7_SaIS7_EEEENS0_5__ops14_Val_comp_iterIZN7segment5orderEvEUlRKS7_SH_E_EEEvT_T0_+0x188>
  404598:	f100045f 	cmp	x2, #0x1
  40459c:	54000080 	b.eq	4045ac <_ZSt25__unguarded_linear_insertIN9__gnu_cxx17__normal_iteratorIPNSt7__cxx1112basic_stringIcSt11char_traitsIcESaIcEEESt6vectorIS7_SaIS7_EEEENS0_5__ops14_Val_comp_iterIZN7segment5orderEvEUlRKS7_SH_E_EEEvT_T0_+0x1f4>  // b.none
  4045a0:	910143e1 	add	x1, sp, #0x50
  4045a4:	97fff65f 	bl	401f20 <memcpy@plt>
  4045a8:	17fffff7 	b	404584 <_ZSt25__unguarded_linear_insertIN9__gnu_cxx17__normal_iteratorIPNSt7__cxx1112basic_stringIcSt11char_traitsIcESaIcEEESt6vectorIS7_SaIS7_EEEENS0_5__ops14_Val_comp_iterIZN7segment5orderEvEUlRKS7_SH_E_EEEvT_T0_+0x1cc>
  4045ac:	394143e1 	ldrb	w1, [sp, #80]
  4045b0:	39000001 	strb	w1, [x0]
  4045b4:	17fffff4 	b	404584 <_ZSt25__unguarded_linear_insertIN9__gnu_cxx17__normal_iteratorIPNSt7__cxx1112basic_stringIcSt11char_traitsIcESaIcEEESt6vectorIS7_SaIS7_EEEENS0_5__ops14_Val_comp_iterIZN7segment5orderEvEUlRKS7_SH_E_EEEvT_T0_+0x1cc>
  4045b8:	aa0003f3 	mov	x19, x0
  4045bc:	910103e0 	add	x0, sp, #0x40
  4045c0:	97fff6d4 	bl	402110 <_ZNSt7__cxx1112basic_stringIcSt11char_traitsIcESaIcEE10_M_disposeEv@plt>
  4045c4:	aa1303e0 	mov	x0, x19
  4045c8:	97fff726 	bl	402260 <_Unwind_Resume@plt>
  4045cc:	f9000a61 	str	x1, [x19, #16]
  4045d0:	f85f8260 	ldur	x0, [x19, #-8]
  4045d4:	f9000e60 	str	x0, [x19, #24]
  4045d8:	f9400260 	ldr	x0, [x19]
  4045dc:	f9001260 	str	x0, [x19, #32]
  4045e0:	f81f0294 	stur	x20, [x20, #-16]
  4045e4:	17ffffad 	b	404498 <_ZSt25__unguarded_linear_insertIN9__gnu_cxx17__normal_iteratorIPNSt7__cxx1112basic_stringIcSt11char_traitsIcESaIcEEESt6vectorIS7_SaIS7_EEEENS0_5__ops14_Val_comp_iterIZN7segment5orderEvEUlRKS7_SH_E_EEEvT_T0_+0xe0>
  4045e8:	f9000301 	str	x1, [x24]
  4045ec:	f94027e0 	ldr	x0, [sp, #72]
  4045f0:	f9000700 	str	x0, [x24, #8]
  4045f4:	f9402be0 	ldr	x0, [sp, #80]
  4045f8:	f9000b00 	str	x0, [x24, #16]
  4045fc:	910143e0 	add	x0, sp, #0x50
  404600:	f90023e0 	str	x0, [sp, #64]
  404604:	17ffffcf 	b	404540 <_ZSt25__unguarded_linear_insertIN9__gnu_cxx17__normal_iteratorIPNSt7__cxx1112basic_stringIcSt11char_traitsIcESaIcEEESt6vectorIS7_SaIS7_EEEENS0_5__ops14_Val_comp_iterIZN7segment5orderEvEUlRKS7_SH_E_EEEvT_T0_+0x188>

0000000000404608 <_ZSt13__adjust_heapIN9__gnu_cxx17__normal_iteratorIPNSt7__cxx1112basic_stringIcSt11char_traitsIcESaIcEEESt6vectorIS7_SaIS7_EEEElS7_NS0_5__ops15_Iter_comp_iterIZN7segment5orderEvEUlRKS7_SH_E_EEEvT_T0_SL_T1_T2_>:
  404608:	a9b67bfd 	stp	x29, x30, [sp, #-160]!
  40460c:	910003fd 	mov	x29, sp
  404610:	a90153f3 	stp	x19, x20, [sp, #16]
  404614:	a9025bf5 	stp	x21, x22, [sp, #32]
  404618:	a90363f7 	stp	x23, x24, [sp, #48]
  40461c:	a9046bf9 	stp	x25, x26, [sp, #64]
  404620:	a90573fb 	stp	x27, x28, [sp, #80]
  404624:	aa0003f3 	mov	x19, x0
  404628:	aa0103fb 	mov	x27, x1
  40462c:	f9003be2 	str	x2, [sp, #112]
  404630:	f90037e3 	str	x3, [sp, #104]
  404634:	f9003fe4 	str	x4, [sp, #120]
  404638:	d100045a 	sub	x26, x2, #0x1
  40463c:	8b5aff5a 	add	x26, x26, x26, lsr #63
  404640:	9341ff5a 	asr	x26, x26, #1
  404644:	eb1a003f 	cmp	x1, x26
  404648:	5400086a 	b.ge	404754 <_ZSt13__adjust_heapIN9__gnu_cxx17__normal_iteratorIPNSt7__cxx1112basic_stringIcSt11char_traitsIcESaIcEEESt6vectorIS7_SaIS7_EEEElS7_NS0_5__ops15_Iter_comp_iterIZN7segment5orderEvEUlRKS7_SH_E_EEEvT_T0_SL_T1_T2_+0x14c>  // b.tcont
  40464c:	aa0103f7 	mov	x23, x1
  404650:	91010099 	add	x25, x4, #0x40
  404654:	9101e098 	add	x24, x4, #0x78
  404658:	1400000d 	b	40468c <_ZSt13__adjust_heapIN9__gnu_cxx17__normal_iteratorIPNSt7__cxx1112basic_stringIcSt11char_traitsIcESaIcEEESt6vectorIS7_SaIS7_EEEElS7_NS0_5__ops15_Iter_comp_iterIZN7segment5orderEvEUlRKS7_SH_E_EEEvT_T0_SL_T1_T2_+0x84>
  40465c:	f94006a2 	ldr	x2, [x21, #8]
  404660:	b50006c2 	cbnz	x2, 404738 <_ZSt13__adjust_heapIN9__gnu_cxx17__normal_iteratorIPNSt7__cxx1112basic_stringIcSt11char_traitsIcESaIcEEESt6vectorIS7_SaIS7_EEEElS7_NS0_5__ops15_Iter_comp_iterIZN7segment5orderEvEUlRKS7_SH_E_EEEvT_T0_SL_T1_T2_+0x130>
  404664:	f94006a0 	ldr	x0, [x21, #8]
  404668:	f9000780 	str	x0, [x28, #8]
  40466c:	f8776a61 	ldr	x1, [x19, x23]
  404670:	3820683f 	strb	wzr, [x1, x0]
  404674:	f90006bf 	str	xzr, [x21, #8]
  404678:	f8766a60 	ldr	x0, [x19, x22]
  40467c:	3900001f 	strb	wzr, [x0]
  404680:	eb1a029f 	cmp	x20, x26
  404684:	540006aa 	b.ge	404758 <_ZSt13__adjust_heapIN9__gnu_cxx17__normal_iteratorIPNSt7__cxx1112basic_stringIcSt11char_traitsIcESaIcEEESt6vectorIS7_SaIS7_EEEElS7_NS0_5__ops15_Iter_comp_iterIZN7segment5orderEvEUlRKS7_SH_E_EEEvT_T0_SL_T1_T2_+0x150>  // b.tcont
  404688:	aa1403f7 	mov	x23, x20
  40468c:	910006f5 	add	x21, x23, #0x1
  404690:	d37ffab4 	lsl	x20, x21, #1
  404694:	d1000694 	sub	x20, x20, #0x1
  404698:	8b14167c 	add	x28, x19, x20, lsl #5
  40469c:	8b151a61 	add	x1, x19, x21, lsl #6
  4046a0:	aa1903e0 	mov	x0, x25
  4046a4:	940016c3 	bl	40a1b0 <_ZNSt8__detail9_Map_baseINSt7__cxx1112basic_stringIcSt11char_traitsIcESaIcEEESt4pairIKS6_iESaIS9_ENS_10_Select1stESt8equal_toIS6_ESt4hashIS6_ENS_18_Mod_range_hashingENS_20_Default_ranged_hashENS_20_Prime_rehash_policyENS_17_Hashtable_traitsILb1ELb0ELb1EEELb1EEixERS8_>
  4046a8:	aa0003e1 	mov	x1, x0
  4046ac:	aa1803e0 	mov	x0, x24
  4046b0:	9400165c 	bl	40a020 <_ZNSt8__detail9_Map_baseIiSt4pairIKiiESaIS3_ENS_10_Select1stESt8equal_toIiESt4hashIiENS_18_Mod_range_hashingENS_20_Default_ranged_hashENS_20_Prime_rehash_policyENS_17_Hashtable_traitsILb0ELb0ELb1EEELb1EE2atERS2_>
  4046b4:	b9400016 	ldr	w22, [x0]
  4046b8:	aa1c03e1 	mov	x1, x28
  4046bc:	aa1903e0 	mov	x0, x25
  4046c0:	940016bc 	bl	40a1b0 <_ZNSt8__detail9_Map_baseINSt7__cxx1112basic_stringIcSt11char_traitsIcESaIcEEESt4pairIKS6_iESaIS9_ENS_10_Select1stESt8equal_toIS6_ESt4hashIS6_ENS_18_Mod_range_hashingENS_20_Default_ranged_hashENS_20_Prime_rehash_policyENS_17_Hashtable_traitsILb1ELb0ELb1EEELb1EEixERS8_>
  4046c4:	aa0003e1 	mov	x1, x0
  4046c8:	aa1803e0 	mov	x0, x24
  4046cc:	94001655 	bl	40a020 <_ZNSt8__detail9_Map_baseIiSt4pairIKiiESaIS3_ENS_10_Select1stESt8equal_toIiESt4hashIiENS_18_Mod_range_hashingENS_20_Default_ranged_hashENS_20_Prime_rehash_policyENS_17_Hashtable_traitsILb0ELb0ELb1EEELb1EE2atERS2_>
  4046d0:	b9400000 	ldr	w0, [x0]
  4046d4:	d37ffab5 	lsl	x21, x21, #1
  4046d8:	6b0002df 	cmp	w22, w0
  4046dc:	9a94d2b4 	csel	x20, x21, x20, le
  4046e0:	d37beaf7 	lsl	x23, x23, #5
  4046e4:	8b17027c 	add	x28, x19, x23
  4046e8:	d37bea96 	lsl	x22, x20, #5
  4046ec:	8b160275 	add	x21, x19, x22
  4046f0:	f8776a60 	ldr	x0, [x19, x23]
  4046f4:	f8766a62 	ldr	x2, [x19, x22]
  4046f8:	910042a1 	add	x1, x21, #0x10
  4046fc:	eb01005f 	cmp	x2, x1
  404700:	54fffae0 	b.eq	40465c <_ZSt13__adjust_heapIN9__gnu_cxx17__normal_iteratorIPNSt7__cxx1112basic_stringIcSt11char_traitsIcESaIcEEESt6vectorIS7_SaIS7_EEEElS7_NS0_5__ops15_Iter_comp_iterIZN7segment5orderEvEUlRKS7_SH_E_EEEvT_T0_SL_T1_T2_+0x54>  // b.none
  404704:	91004383 	add	x3, x28, #0x10
  404708:	eb03001f 	cmp	x0, x3
  40470c:	54001d60 	b.eq	404ab8 <_ZSt13__adjust_heapIN9__gnu_cxx17__normal_iteratorIPNSt7__cxx1112basic_stringIcSt11char_traitsIcESaIcEEESt6vectorIS7_SaIS7_EEEElS7_NS0_5__ops15_Iter_comp_iterIZN7segment5orderEvEUlRKS7_SH_E_EEEvT_T0_SL_T1_T2_+0x4b0>  // b.none
  404710:	f9400b83 	ldr	x3, [x28, #16]
  404714:	f8376a62 	str	x2, [x19, x23]
  404718:	f94006a2 	ldr	x2, [x21, #8]
  40471c:	f9000782 	str	x2, [x28, #8]
  404720:	f9400aa2 	ldr	x2, [x21, #16]
  404724:	f9000b82 	str	x2, [x28, #16]
  404728:	b4001d20 	cbz	x0, 404acc <_ZSt13__adjust_heapIN9__gnu_cxx17__normal_iteratorIPNSt7__cxx1112basic_stringIcSt11char_traitsIcESaIcEEESt6vectorIS7_SaIS7_EEEElS7_NS0_5__ops15_Iter_comp_iterIZN7segment5orderEvEUlRKS7_SH_E_EEEvT_T0_SL_T1_T2_+0x4c4>
  40472c:	f8366a60 	str	x0, [x19, x22]
  404730:	f9000aa3 	str	x3, [x21, #16]
  404734:	17ffffd0 	b	404674 <_ZSt13__adjust_heapIN9__gnu_cxx17__normal_iteratorIPNSt7__cxx1112basic_stringIcSt11char_traitsIcESaIcEEESt6vectorIS7_SaIS7_EEEElS7_NS0_5__ops15_Iter_comp_iterIZN7segment5orderEvEUlRKS7_SH_E_EEEvT_T0_SL_T1_T2_+0x6c>
  404738:	f100045f 	cmp	x2, #0x1
  40473c:	54000060 	b.eq	404748 <_ZSt13__adjust_heapIN9__gnu_cxx17__normal_iteratorIPNSt7__cxx1112basic_stringIcSt11char_traitsIcESaIcEEESt6vectorIS7_SaIS7_EEEElS7_NS0_5__ops15_Iter_comp_iterIZN7segment5orderEvEUlRKS7_SH_E_EEEvT_T0_SL_T1_T2_+0x140>  // b.none
  404740:	97fff5f8 	bl	401f20 <memcpy@plt>
  404744:	17ffffc8 	b	404664 <_ZSt13__adjust_heapIN9__gnu_cxx17__normal_iteratorIPNSt7__cxx1112basic_stringIcSt11char_traitsIcESaIcEEESt6vectorIS7_SaIS7_EEEElS7_NS0_5__ops15_Iter_comp_iterIZN7segment5orderEvEUlRKS7_SH_E_EEEvT_T0_SL_T1_T2_+0x5c>
  404748:	394042a1 	ldrb	w1, [x21, #16]
  40474c:	39000001 	strb	w1, [x0]
  404750:	17ffffc5 	b	404664 <_ZSt13__adjust_heapIN9__gnu_cxx17__normal_iteratorIPNSt7__cxx1112basic_stringIcSt11char_traitsIcESaIcEEESt6vectorIS7_SaIS7_EEEElS7_NS0_5__ops15_Iter_comp_iterIZN7segment5orderEvEUlRKS7_SH_E_EEEvT_T0_SL_T1_T2_+0x5c>
  404754:	aa0103f4 	mov	x20, x1
  404758:	f9403be0 	ldr	x0, [sp, #112]
  40475c:	370000a0 	tbnz	w0, #0, 404770 <_ZSt13__adjust_heapIN9__gnu_cxx17__normal_iteratorIPNSt7__cxx1112basic_stringIcSt11char_traitsIcESaIcEEESt6vectorIS7_SaIS7_EEEElS7_NS0_5__ops15_Iter_comp_iterIZN7segment5orderEvEUlRKS7_SH_E_EEEvT_T0_SL_T1_T2_+0x168>
  404760:	d1000800 	sub	x0, x0, #0x2
  404764:	8b40fc00 	add	x0, x0, x0, lsr #63
  404768:	eb80069f 	cmp	x20, x0, asr #1
  40476c:	54000340 	b.eq	4047d4 <_ZSt13__adjust_heapIN9__gnu_cxx17__normal_iteratorIPNSt7__cxx1112basic_stringIcSt11char_traitsIcESaIcEEESt6vectorIS7_SaIS7_EEEElS7_NS0_5__ops15_Iter_comp_iterIZN7segment5orderEvEUlRKS7_SH_E_EEEvT_T0_SL_T1_T2_+0x1cc>  // b.none
  404770:	910243e0 	add	x0, sp, #0x90
  404774:	f90043e0 	str	x0, [sp, #128]
  404778:	f94037e0 	ldr	x0, [sp, #104]
  40477c:	f8410401 	ldr	x1, [x0], #16
  404780:	eb00003f 	cmp	x1, x0
  404784:	540007a0 	b.eq	404878 <_ZSt13__adjust_heapIN9__gnu_cxx17__normal_iteratorIPNSt7__cxx1112basic_stringIcSt11char_traitsIcESaIcEEESt6vectorIS7_SaIS7_EEEElS7_NS0_5__ops15_Iter_comp_iterIZN7segment5orderEvEUlRKS7_SH_E_EEEvT_T0_SL_T1_T2_+0x270>  // b.none
  404788:	f90043e1 	str	x1, [sp, #128]
  40478c:	f94037e1 	ldr	x1, [sp, #104]
  404790:	f9400821 	ldr	x1, [x1, #16]
  404794:	f9004be1 	str	x1, [sp, #144]
  404798:	f94037e2 	ldr	x2, [sp, #104]
  40479c:	f9400441 	ldr	x1, [x2, #8]
  4047a0:	f90047e1 	str	x1, [sp, #136]
  4047a4:	f9000040 	str	x0, [x2]
  4047a8:	f900045f 	str	xzr, [x2, #8]
  4047ac:	3900405f 	strb	wzr, [x2, #16]
  4047b0:	d1000696 	sub	x22, x20, #0x1
  4047b4:	8b56fed6 	add	x22, x22, x22, lsr #63
  4047b8:	9341fed6 	asr	x22, x22, #1
  4047bc:	eb1b029f 	cmp	x20, x27
  4047c0:	54000e0d 	b.le	404980 <_ZSt13__adjust_heapIN9__gnu_cxx17__normal_iteratorIPNSt7__cxx1112basic_stringIcSt11char_traitsIcESaIcEEESt6vectorIS7_SaIS7_EEEElS7_NS0_5__ops15_Iter_comp_iterIZN7segment5orderEvEUlRKS7_SH_E_EEEvT_T0_SL_T1_T2_+0x378>
  4047c4:	f9403fe0 	ldr	x0, [sp, #120]
  4047c8:	91010017 	add	x23, x0, #0x40
  4047cc:	9101e018 	add	x24, x0, #0x78
  4047d0:	14000058 	b	404930 <_ZSt13__adjust_heapIN9__gnu_cxx17__normal_iteratorIPNSt7__cxx1112basic_stringIcSt11char_traitsIcESaIcEEESt6vectorIS7_SaIS7_EEEElS7_NS0_5__ops15_Iter_comp_iterIZN7segment5orderEvEUlRKS7_SH_E_EEEvT_T0_SL_T1_T2_+0x328>
  4047d4:	d37bea97 	lsl	x23, x20, #5
  4047d8:	8b170278 	add	x24, x19, x23
  4047dc:	d37ffa94 	lsl	x20, x20, #1
  4047e0:	91000694 	add	x20, x20, #0x1
  4047e4:	d37bea96 	lsl	x22, x20, #5
  4047e8:	8b160275 	add	x21, x19, x22
  4047ec:	f8776a60 	ldr	x0, [x19, x23]
  4047f0:	f8766a62 	ldr	x2, [x19, x22]
  4047f4:	910042a1 	add	x1, x21, #0x10
  4047f8:	eb01005f 	cmp	x2, x1
  4047fc:	54000220 	b.eq	404840 <_ZSt13__adjust_heapIN9__gnu_cxx17__normal_iteratorIPNSt7__cxx1112basic_stringIcSt11char_traitsIcESaIcEEESt6vectorIS7_SaIS7_EEEElS7_NS0_5__ops15_Iter_comp_iterIZN7segment5orderEvEUlRKS7_SH_E_EEEvT_T0_SL_T1_T2_+0x238>  // b.none
  404800:	91004303 	add	x3, x24, #0x10
  404804:	eb03001f 	cmp	x0, x3
  404808:	540014a0 	b.eq	404a9c <_ZSt13__adjust_heapIN9__gnu_cxx17__normal_iteratorIPNSt7__cxx1112basic_stringIcSt11char_traitsIcESaIcEEESt6vectorIS7_SaIS7_EEEElS7_NS0_5__ops15_Iter_comp_iterIZN7segment5orderEvEUlRKS7_SH_E_EEEvT_T0_SL_T1_T2_+0x494>  // b.none
  40480c:	f9400b03 	ldr	x3, [x24, #16]
  404810:	f8376a62 	str	x2, [x19, x23]
  404814:	f94006a2 	ldr	x2, [x21, #8]
  404818:	f9000702 	str	x2, [x24, #8]
  40481c:	f9400aa2 	ldr	x2, [x21, #16]
  404820:	f9000b02 	str	x2, [x24, #16]
  404824:	b4001460 	cbz	x0, 404ab0 <_ZSt13__adjust_heapIN9__gnu_cxx17__normal_iteratorIPNSt7__cxx1112basic_stringIcSt11char_traitsIcESaIcEEESt6vectorIS7_SaIS7_EEEElS7_NS0_5__ops15_Iter_comp_iterIZN7segment5orderEvEUlRKS7_SH_E_EEEvT_T0_SL_T1_T2_+0x4a8>
  404828:	f8366a60 	str	x0, [x19, x22]
  40482c:	f9000aa3 	str	x3, [x21, #16]
  404830:	f90006bf 	str	xzr, [x21, #8]
  404834:	f8766a60 	ldr	x0, [x19, x22]
  404838:	3900001f 	strb	wzr, [x0]
  40483c:	17ffffcd 	b	404770 <_ZSt13__adjust_heapIN9__gnu_cxx17__normal_iteratorIPNSt7__cxx1112basic_stringIcSt11char_traitsIcESaIcEEESt6vectorIS7_SaIS7_EEEElS7_NS0_5__ops15_Iter_comp_iterIZN7segment5orderEvEUlRKS7_SH_E_EEEvT_T0_SL_T1_T2_+0x168>
  404840:	f94006a2 	ldr	x2, [x21, #8]
  404844:	b50000c2 	cbnz	x2, 40485c <_ZSt13__adjust_heapIN9__gnu_cxx17__normal_iteratorIPNSt7__cxx1112basic_stringIcSt11char_traitsIcESaIcEEESt6vectorIS7_SaIS7_EEEElS7_NS0_5__ops15_Iter_comp_iterIZN7segment5orderEvEUlRKS7_SH_E_EEEvT_T0_SL_T1_T2_+0x254>
  404848:	f94006a0 	ldr	x0, [x21, #8]
  40484c:	f9000700 	str	x0, [x24, #8]
  404850:	f8776a61 	ldr	x1, [x19, x23]
  404854:	3820683f 	strb	wzr, [x1, x0]
  404858:	17fffff6 	b	404830 <_ZSt13__adjust_heapIN9__gnu_cxx17__normal_iteratorIPNSt7__cxx1112basic_stringIcSt11char_traitsIcESaIcEEESt6vectorIS7_SaIS7_EEEElS7_NS0_5__ops15_Iter_comp_iterIZN7segment5orderEvEUlRKS7_SH_E_EEEvT_T0_SL_T1_T2_+0x228>
  40485c:	f100045f 	cmp	x2, #0x1
  404860:	54000060 	b.eq	40486c <_ZSt13__adjust_heapIN9__gnu_cxx17__normal_iteratorIPNSt7__cxx1112basic_stringIcSt11char_traitsIcESaIcEEESt6vectorIS7_SaIS7_EEEElS7_NS0_5__ops15_Iter_comp_iterIZN7segment5orderEvEUlRKS7_SH_E_EEEvT_T0_SL_T1_T2_+0x264>  // b.none
  404864:	97fff5af 	bl	401f20 <memcpy@plt>
  404868:	17fffff8 	b	404848 <_ZSt13__adjust_heapIN9__gnu_cxx17__normal_iteratorIPNSt7__cxx1112basic_stringIcSt11char_traitsIcESaIcEEESt6vectorIS7_SaIS7_EEEElS7_NS0_5__ops15_Iter_comp_iterIZN7segment5orderEvEUlRKS7_SH_E_EEEvT_T0_SL_T1_T2_+0x240>
  40486c:	394042a1 	ldrb	w1, [x21, #16]
  404870:	39000001 	strb	w1, [x0]
  404874:	17fffff5 	b	404848 <_ZSt13__adjust_heapIN9__gnu_cxx17__normal_iteratorIPNSt7__cxx1112basic_stringIcSt11char_traitsIcESaIcEEESt6vectorIS7_SaIS7_EEEElS7_NS0_5__ops15_Iter_comp_iterIZN7segment5orderEvEUlRKS7_SH_E_EEEvT_T0_SL_T1_T2_+0x240>
  404878:	f94037e1 	ldr	x1, [sp, #104]
  40487c:	a9410c22 	ldp	x2, x3, [x1, #16]
  404880:	a9090fe2 	stp	x2, x3, [sp, #144]
  404884:	17ffffc5 	b	404798 <_ZSt13__adjust_heapIN9__gnu_cxx17__normal_iteratorIPNSt7__cxx1112basic_stringIcSt11char_traitsIcESaIcEEESt6vectorIS7_SaIS7_EEEElS7_NS0_5__ops15_Iter_comp_iterIZN7segment5orderEvEUlRKS7_SH_E_EEEvT_T0_SL_T1_T2_+0x190>
  404888:	aa0003e1 	mov	x1, x0
  40488c:	aa1803e0 	mov	x0, x24
  404890:	940015e4 	bl	40a020 <_ZNSt8__detail9_Map_baseIiSt4pairIKiiESaIS3_ENS_10_Select1stESt8equal_toIiESt4hashIiENS_18_Mod_range_hashingENS_20_Default_ranged_hashENS_20_Prime_rehash_policyENS_17_Hashtable_traitsILb0ELb0ELb1EEELb1EE2atERS2_>
  404894:	b940001a 	ldr	w26, [x0]
  404898:	910203e1 	add	x1, sp, #0x80
  40489c:	aa1703e0 	mov	x0, x23
  4048a0:	94001644 	bl	40a1b0 <_ZNSt8__detail9_Map_baseINSt7__cxx1112basic_stringIcSt11char_traitsIcESaIcEEESt4pairIKS6_iESaIS9_ENS_10_Select1stESt8equal_toIS6_ESt4hashIS6_ENS_18_Mod_range_hashingENS_20_Default_ranged_hashENS_20_Prime_rehash_policyENS_17_Hashtable_traitsILb1ELb0ELb1EEELb1EEixERS8_>
  4048a4:	aa0003e1 	mov	x1, x0
  4048a8:	aa1803e0 	mov	x0, x24
  4048ac:	940015dd 	bl	40a020 <_ZNSt8__detail9_Map_baseIiSt4pairIKiiESaIS3_ENS_10_Select1stESt8equal_toIiESt4hashIiENS_18_Mod_range_hashingENS_20_Default_ranged_hashENS_20_Prime_rehash_policyENS_17_Hashtable_traitsILb0ELb0ELb1EEELb1EE2atERS2_>
  4048b0:	b9400000 	ldr	w0, [x0]
  4048b4:	6b00035f 	cmp	w26, w0
  4048b8:	5400064d 	b.le	404980 <_ZSt13__adjust_heapIN9__gnu_cxx17__normal_iteratorIPNSt7__cxx1112basic_stringIcSt11char_traitsIcESaIcEEESt6vectorIS7_SaIS7_EEEElS7_NS0_5__ops15_Iter_comp_iterIZN7segment5orderEvEUlRKS7_SH_E_EEEvT_T0_SL_T1_T2_+0x378>
  4048bc:	d37bea94 	lsl	x20, x20, #5
  4048c0:	8b14027a 	add	x26, x19, x20
  4048c4:	f8746a60 	ldr	x0, [x19, x20]
  4048c8:	f8796a62 	ldr	x2, [x19, x25]
  4048cc:	910042a1 	add	x1, x21, #0x10
  4048d0:	eb01005f 	cmp	x2, x1
  4048d4:	540003a0 	b.eq	404948 <_ZSt13__adjust_heapIN9__gnu_cxx17__normal_iteratorIPNSt7__cxx1112basic_stringIcSt11char_traitsIcESaIcEEESt6vectorIS7_SaIS7_EEEElS7_NS0_5__ops15_Iter_comp_iterIZN7segment5orderEvEUlRKS7_SH_E_EEEvT_T0_SL_T1_T2_+0x340>  // b.none
  4048d8:	91004343 	add	x3, x26, #0x10
  4048dc:	eb03001f 	cmp	x0, x3
  4048e0:	54000d00 	b.eq	404a80 <_ZSt13__adjust_heapIN9__gnu_cxx17__normal_iteratorIPNSt7__cxx1112basic_stringIcSt11char_traitsIcESaIcEEESt6vectorIS7_SaIS7_EEEElS7_NS0_5__ops15_Iter_comp_iterIZN7segment5orderEvEUlRKS7_SH_E_EEEvT_T0_SL_T1_T2_+0x478>  // b.none
  4048e4:	f9400b43 	ldr	x3, [x26, #16]
  4048e8:	f8346a62 	str	x2, [x19, x20]
  4048ec:	f94006a2 	ldr	x2, [x21, #8]
  4048f0:	f9000742 	str	x2, [x26, #8]
  4048f4:	f9400aa2 	ldr	x2, [x21, #16]
  4048f8:	f9000b42 	str	x2, [x26, #16]
  4048fc:	b4000cc0 	cbz	x0, 404a94 <_ZSt13__adjust_heapIN9__gnu_cxx17__normal_iteratorIPNSt7__cxx1112basic_stringIcSt11char_traitsIcESaIcEEESt6vectorIS7_SaIS7_EEEElS7_NS0_5__ops15_Iter_comp_iterIZN7segment5orderEvEUlRKS7_SH_E_EEEvT_T0_SL_T1_T2_+0x48c>
  404900:	f8396a60 	str	x0, [x19, x25]
  404904:	f9000aa3 	str	x3, [x21, #16]
  404908:	f90006bf 	str	xzr, [x21, #8]
  40490c:	f8796a60 	ldr	x0, [x19, x25]
  404910:	3900001f 	strb	wzr, [x0]
  404914:	d10006c0 	sub	x0, x22, #0x1
  404918:	8b40fc00 	add	x0, x0, x0, lsr #63
  40491c:	9341fc00 	asr	x0, x0, #1
  404920:	aa1603f4 	mov	x20, x22
  404924:	eb16037f 	cmp	x27, x22
  404928:	540002ca 	b.ge	404980 <_ZSt13__adjust_heapIN9__gnu_cxx17__normal_iteratorIPNSt7__cxx1112basic_stringIcSt11char_traitsIcESaIcEEESt6vectorIS7_SaIS7_EEEElS7_NS0_5__ops15_Iter_comp_iterIZN7segment5orderEvEUlRKS7_SH_E_EEEvT_T0_SL_T1_T2_+0x378>  // b.tcont
  40492c:	aa0003f6 	mov	x22, x0
  404930:	d37bead9 	lsl	x25, x22, #5
  404934:	8b190275 	add	x21, x19, x25
  404938:	aa1503e1 	mov	x1, x21
  40493c:	aa1703e0 	mov	x0, x23
  404940:	9400161c 	bl	40a1b0 <_ZNSt8__detail9_Map_baseINSt7__cxx1112basic_stringIcSt11char_traitsIcESaIcEEESt4pairIKS6_iESaIS9_ENS_10_Select1stESt8equal_toIS6_ESt4hashIS6_ENS_18_Mod_range_hashingENS_20_Default_ranged_hashENS_20_Prime_rehash_policyENS_17_Hashtable_traitsILb1ELb0ELb1EEELb1EEixERS8_>
  404944:	17ffffd1 	b	404888 <_ZSt13__adjust_heapIN9__gnu_cxx17__normal_iteratorIPNSt7__cxx1112basic_stringIcSt11char_traitsIcESaIcEEESt6vectorIS7_SaIS7_EEEElS7_NS0_5__ops15_Iter_comp_iterIZN7segment5orderEvEUlRKS7_SH_E_EEEvT_T0_SL_T1_T2_+0x280>
  404948:	f94006a2 	ldr	x2, [x21, #8]
  40494c:	b50000c2 	cbnz	x2, 404964 <_ZSt13__adjust_heapIN9__gnu_cxx17__normal_iteratorIPNSt7__cxx1112basic_stringIcSt11char_traitsIcESaIcEEESt6vectorIS7_SaIS7_EEEElS7_NS0_5__ops15_Iter_comp_iterIZN7segment5orderEvEUlRKS7_SH_E_EEEvT_T0_SL_T1_T2_+0x35c>
  404950:	f94006a0 	ldr	x0, [x21, #8]
  404954:	f9000740 	str	x0, [x26, #8]
  404958:	f8746a61 	ldr	x1, [x19, x20]
  40495c:	3820683f 	strb	wzr, [x1, x0]
  404960:	17ffffea 	b	404908 <_ZSt13__adjust_heapIN9__gnu_cxx17__normal_iteratorIPNSt7__cxx1112basic_stringIcSt11char_traitsIcESaIcEEESt6vectorIS7_SaIS7_EEEElS7_NS0_5__ops15_Iter_comp_iterIZN7segment5orderEvEUlRKS7_SH_E_EEEvT_T0_SL_T1_T2_+0x300>
  404964:	f100045f 	cmp	x2, #0x1
  404968:	54000060 	b.eq	404974 <_ZSt13__adjust_heapIN9__gnu_cxx17__normal_iteratorIPNSt7__cxx1112basic_stringIcSt11char_traitsIcESaIcEEESt6vectorIS7_SaIS7_EEEElS7_NS0_5__ops15_Iter_comp_iterIZN7segment5orderEvEUlRKS7_SH_E_EEEvT_T0_SL_T1_T2_+0x36c>  // b.none
  40496c:	97fff56d 	bl	401f20 <memcpy@plt>
  404970:	17fffff8 	b	404950 <_ZSt13__adjust_heapIN9__gnu_cxx17__normal_iteratorIPNSt7__cxx1112basic_stringIcSt11char_traitsIcESaIcEEESt6vectorIS7_SaIS7_EEEElS7_NS0_5__ops15_Iter_comp_iterIZN7segment5orderEvEUlRKS7_SH_E_EEEvT_T0_SL_T1_T2_+0x348>
  404974:	394042a1 	ldrb	w1, [x21, #16]
  404978:	39000001 	strb	w1, [x0]
  40497c:	17fffff5 	b	404950 <_ZSt13__adjust_heapIN9__gnu_cxx17__normal_iteratorIPNSt7__cxx1112basic_stringIcSt11char_traitsIcESaIcEEESt6vectorIS7_SaIS7_EEEElS7_NS0_5__ops15_Iter_comp_iterIZN7segment5orderEvEUlRKS7_SH_E_EEEvT_T0_SL_T1_T2_+0x348>
  404980:	d37bea94 	lsl	x20, x20, #5
  404984:	8b140275 	add	x21, x19, x20
  404988:	f8746a60 	ldr	x0, [x19, x20]
  40498c:	f94043e1 	ldr	x1, [sp, #128]
  404990:	910243e2 	add	x2, sp, #0x90
  404994:	eb02003f 	cmp	x1, x2
  404998:	540003c0 	b.eq	404a10 <_ZSt13__adjust_heapIN9__gnu_cxx17__normal_iteratorIPNSt7__cxx1112basic_stringIcSt11char_traitsIcESaIcEEESt6vectorIS7_SaIS7_EEEElS7_NS0_5__ops15_Iter_comp_iterIZN7segment5orderEvEUlRKS7_SH_E_EEEvT_T0_SL_T1_T2_+0x408>  // b.none
  40499c:	910042a2 	add	x2, x21, #0x10
  4049a0:	eb02001f 	cmp	x0, x2
  4049a4:	540005e0 	b.eq	404a60 <_ZSt13__adjust_heapIN9__gnu_cxx17__normal_iteratorIPNSt7__cxx1112basic_stringIcSt11char_traitsIcESaIcEEESt6vectorIS7_SaIS7_EEEElS7_NS0_5__ops15_Iter_comp_iterIZN7segment5orderEvEUlRKS7_SH_E_EEEvT_T0_SL_T1_T2_+0x458>  // b.none
  4049a8:	f9400aa2 	ldr	x2, [x21, #16]
  4049ac:	f8346a61 	str	x1, [x19, x20]
  4049b0:	f94047e1 	ldr	x1, [sp, #136]
  4049b4:	f90006a1 	str	x1, [x21, #8]
  4049b8:	f9404be1 	ldr	x1, [sp, #144]
  4049bc:	f9000aa1 	str	x1, [x21, #16]
  4049c0:	b40005a0 	cbz	x0, 404a74 <_ZSt13__adjust_heapIN9__gnu_cxx17__normal_iteratorIPNSt7__cxx1112basic_stringIcSt11char_traitsIcESaIcEEESt6vectorIS7_SaIS7_EEEElS7_NS0_5__ops15_Iter_comp_iterIZN7segment5orderEvEUlRKS7_SH_E_EEEvT_T0_SL_T1_T2_+0x46c>
  4049c4:	f90043e0 	str	x0, [sp, #128]
  4049c8:	f9004be2 	str	x2, [sp, #144]
  4049cc:	f90047ff 	str	xzr, [sp, #136]
  4049d0:	f94043e0 	ldr	x0, [sp, #128]
  4049d4:	3900001f 	strb	wzr, [x0]
  4049d8:	f94043e0 	ldr	x0, [sp, #128]
  4049dc:	910243e1 	add	x1, sp, #0x90
  4049e0:	eb01001f 	cmp	x0, x1
  4049e4:	54000080 	b.eq	4049f4 <_ZSt13__adjust_heapIN9__gnu_cxx17__normal_iteratorIPNSt7__cxx1112basic_stringIcSt11char_traitsIcESaIcEEESt6vectorIS7_SaIS7_EEEElS7_NS0_5__ops15_Iter_comp_iterIZN7segment5orderEvEUlRKS7_SH_E_EEEvT_T0_SL_T1_T2_+0x3ec>  // b.none
  4049e8:	f9404be1 	ldr	x1, [sp, #144]
  4049ec:	91000421 	add	x1, x1, #0x1
  4049f0:	97fff5b4 	bl	4020c0 <_ZdlPvm@plt>
  4049f4:	a94153f3 	ldp	x19, x20, [sp, #16]
  4049f8:	a9425bf5 	ldp	x21, x22, [sp, #32]
  4049fc:	a94363f7 	ldp	x23, x24, [sp, #48]
  404a00:	a9446bf9 	ldp	x25, x26, [sp, #64]
  404a04:	a94573fb 	ldp	x27, x28, [sp, #80]
  404a08:	a8ca7bfd 	ldp	x29, x30, [sp], #160
  404a0c:	d65f03c0 	ret
  404a10:	f94047e2 	ldr	x2, [sp, #136]
  404a14:	b50000c2 	cbnz	x2, 404a2c <_ZSt13__adjust_heapIN9__gnu_cxx17__normal_iteratorIPNSt7__cxx1112basic_stringIcSt11char_traitsIcESaIcEEESt6vectorIS7_SaIS7_EEEElS7_NS0_5__ops15_Iter_comp_iterIZN7segment5orderEvEUlRKS7_SH_E_EEEvT_T0_SL_T1_T2_+0x424>
  404a18:	f94047e0 	ldr	x0, [sp, #136]
  404a1c:	f90006a0 	str	x0, [x21, #8]
  404a20:	f8746a61 	ldr	x1, [x19, x20]
  404a24:	3820683f 	strb	wzr, [x1, x0]
  404a28:	17ffffe9 	b	4049cc <_ZSt13__adjust_heapIN9__gnu_cxx17__normal_iteratorIPNSt7__cxx1112basic_stringIcSt11char_traitsIcESaIcEEESt6vectorIS7_SaIS7_EEEElS7_NS0_5__ops15_Iter_comp_iterIZN7segment5orderEvEUlRKS7_SH_E_EEEvT_T0_SL_T1_T2_+0x3c4>
  404a2c:	f100045f 	cmp	x2, #0x1
  404a30:	54000080 	b.eq	404a40 <_ZSt13__adjust_heapIN9__gnu_cxx17__normal_iteratorIPNSt7__cxx1112basic_stringIcSt11char_traitsIcESaIcEEESt6vectorIS7_SaIS7_EEEElS7_NS0_5__ops15_Iter_comp_iterIZN7segment5orderEvEUlRKS7_SH_E_EEEvT_T0_SL_T1_T2_+0x438>  // b.none
  404a34:	910243e1 	add	x1, sp, #0x90
  404a38:	97fff53a 	bl	401f20 <memcpy@plt>
  404a3c:	17fffff7 	b	404a18 <_ZSt13__adjust_heapIN9__gnu_cxx17__normal_iteratorIPNSt7__cxx1112basic_stringIcSt11char_traitsIcESaIcEEESt6vectorIS7_SaIS7_EEEElS7_NS0_5__ops15_Iter_comp_iterIZN7segment5orderEvEUlRKS7_SH_E_EEEvT_T0_SL_T1_T2_+0x410>
  404a40:	394243e1 	ldrb	w1, [sp, #144]
  404a44:	39000001 	strb	w1, [x0]
  404a48:	17fffff4 	b	404a18 <_ZSt13__adjust_heapIN9__gnu_cxx17__normal_iteratorIPNSt7__cxx1112basic_stringIcSt11char_traitsIcESaIcEEESt6vectorIS7_SaIS7_EEEElS7_NS0_5__ops15_Iter_comp_iterIZN7segment5orderEvEUlRKS7_SH_E_EEEvT_T0_SL_T1_T2_+0x410>
  404a4c:	aa0003f3 	mov	x19, x0
  404a50:	910203e0 	add	x0, sp, #0x80
  404a54:	97fff5af 	bl	402110 <_ZNSt7__cxx1112basic_stringIcSt11char_traitsIcESaIcEE10_M_disposeEv@plt>
  404a58:	aa1303e0 	mov	x0, x19
  404a5c:	97fff601 	bl	402260 <_Unwind_Resume@plt>
  404a60:	f8346a61 	str	x1, [x19, x20]
  404a64:	f94047e0 	ldr	x0, [sp, #136]
  404a68:	f90006a0 	str	x0, [x21, #8]
  404a6c:	f9404be0 	ldr	x0, [sp, #144]
  404a70:	f9000aa0 	str	x0, [x21, #16]
  404a74:	910243e0 	add	x0, sp, #0x90
  404a78:	f90043e0 	str	x0, [sp, #128]
  404a7c:	17ffffd4 	b	4049cc <_ZSt13__adjust_heapIN9__gnu_cxx17__normal_iteratorIPNSt7__cxx1112basic_stringIcSt11char_traitsIcESaIcEEESt6vectorIS7_SaIS7_EEEElS7_NS0_5__ops15_Iter_comp_iterIZN7segment5orderEvEUlRKS7_SH_E_EEEvT_T0_SL_T1_T2_+0x3c4>
  404a80:	f8346a62 	str	x2, [x19, x20]
  404a84:	f94006a0 	ldr	x0, [x21, #8]
  404a88:	f9000740 	str	x0, [x26, #8]
  404a8c:	f9400aa0 	ldr	x0, [x21, #16]
  404a90:	f9000b40 	str	x0, [x26, #16]
  404a94:	f8396a61 	str	x1, [x19, x25]
  404a98:	17ffff9c 	b	404908 <_ZSt13__adjust_heapIN9__gnu_cxx17__normal_iteratorIPNSt7__cxx1112basic_stringIcSt11char_traitsIcESaIcEEESt6vectorIS7_SaIS7_EEEElS7_NS0_5__ops15_Iter_comp_iterIZN7segment5orderEvEUlRKS7_SH_E_EEEvT_T0_SL_T1_T2_+0x300>
  404a9c:	f8376a62 	str	x2, [x19, x23]
  404aa0:	f94006a0 	ldr	x0, [x21, #8]
  404aa4:	f9000700 	str	x0, [x24, #8]
  404aa8:	f9400aa0 	ldr	x0, [x21, #16]
  404aac:	f9000b00 	str	x0, [x24, #16]
  404ab0:	f8366a61 	str	x1, [x19, x22]
  404ab4:	17ffff5f 	b	404830 <_ZSt13__adjust_heapIN9__gnu_cxx17__normal_iteratorIPNSt7__cxx1112basic_stringIcSt11char_traitsIcESaIcEEESt6vectorIS7_SaIS7_EEEElS7_NS0_5__ops15_Iter_comp_iterIZN7segment5orderEvEUlRKS7_SH_E_EEEvT_T0_SL_T1_T2_+0x228>
  404ab8:	f8376a62 	str	x2, [x19, x23]
  404abc:	f94006a0 	ldr	x0, [x21, #8]
  404ac0:	f9000780 	str	x0, [x28, #8]
  404ac4:	f9400aa0 	ldr	x0, [x21, #16]
  404ac8:	f9000b80 	str	x0, [x28, #16]
  404acc:	f8366a61 	str	x1, [x19, x22]
  404ad0:	17fffee9 	b	404674 <_ZSt13__adjust_heapIN9__gnu_cxx17__normal_iteratorIPNSt7__cxx1112basic_stringIcSt11char_traitsIcESaIcEEESt6vectorIS7_SaIS7_EEEElS7_NS0_5__ops15_Iter_comp_iterIZN7segment5orderEvEUlRKS7_SH_E_EEEvT_T0_SL_T1_T2_+0x6c>

0000000000404ad4 <_ZSt16__insertion_sortIN9__gnu_cxx17__normal_iteratorIPNSt7__cxx1112basic_stringIcSt11char_traitsIcESaIcEEESt6vectorIS7_SaIS7_EEEENS0_5__ops15_Iter_comp_iterIZN7segment5orderEvEUlRKS7_SH_E_EEEvT_SK_T0_>:
  404ad4:	a9b67bfd 	stp	x29, x30, [sp, #-160]!
  404ad8:	910003fd 	mov	x29, sp
  404adc:	a90363f7 	stp	x23, x24, [sp, #48]
  404ae0:	aa0003f8 	mov	x24, x0
  404ae4:	f90037e1 	str	x1, [sp, #104]
  404ae8:	f9003fe2 	str	x2, [sp, #120]
  404aec:	eb01001f 	cmp	x0, x1
  404af0:	54001240 	b.eq	404d38 <_ZSt16__insertion_sortIN9__gnu_cxx17__normal_iteratorIPNSt7__cxx1112basic_stringIcSt11char_traitsIcESaIcEEESt6vectorIS7_SaIS7_EEEENS0_5__ops15_Iter_comp_iterIZN7segment5orderEvEUlRKS7_SH_E_EEEvT_SK_T0_+0x264>  // b.none
  404af4:	91008017 	add	x23, x0, #0x20
  404af8:	eb0102ff 	cmp	x23, x1
  404afc:	540011e0 	b.eq	404d38 <_ZSt16__insertion_sortIN9__gnu_cxx17__normal_iteratorIPNSt7__cxx1112basic_stringIcSt11char_traitsIcESaIcEEESt6vectorIS7_SaIS7_EEEENS0_5__ops15_Iter_comp_iterIZN7segment5orderEvEUlRKS7_SH_E_EEEvT_SK_T0_+0x264>  // b.none
  404b00:	a90153f3 	stp	x19, x20, [sp, #16]
  404b04:	a9025bf5 	stp	x21, x22, [sp, #32]
  404b08:	a9046bf9 	stp	x25, x26, [sp, #64]
  404b0c:	a90573fb 	stp	x27, x28, [sp, #80]
  404b10:	9100c319 	add	x25, x24, #0x30
  404b14:	9101005c 	add	x28, x2, #0x40
  404b18:	9101e05b 	add	x27, x2, #0x78
  404b1c:	910243fa 	add	x26, sp, #0x90
  404b20:	91004300 	add	x0, x24, #0x10
  404b24:	f9003be0 	str	x0, [sp, #112]
  404b28:	14000049 	b	404c4c <_ZSt16__insertion_sortIN9__gnu_cxx17__normal_iteratorIPNSt7__cxx1112basic_stringIcSt11char_traitsIcESaIcEEESt6vectorIS7_SaIS7_EEEENS0_5__ops15_Iter_comp_iterIZN7segment5orderEvEUlRKS7_SH_E_EEEvT_SK_T0_+0x178>
  404b2c:	a9400f22 	ldp	x2, x3, [x25]
  404b30:	a9090fe2 	stp	x2, x3, [sp, #144]
  404b34:	1400005f 	b	404cb0 <_ZSt16__insertion_sortIN9__gnu_cxx17__normal_iteratorIPNSt7__cxx1112basic_stringIcSt11char_traitsIcESaIcEEESt6vectorIS7_SaIS7_EEEENS0_5__ops15_Iter_comp_iterIZN7segment5orderEvEUlRKS7_SH_E_EEEvT_SK_T0_+0x1dc>
  404b38:	f85f82a2 	ldur	x2, [x21, #-8]
  404b3c:	b50003c2 	cbnz	x2, 404bb4 <_ZSt16__insertion_sortIN9__gnu_cxx17__normal_iteratorIPNSt7__cxx1112basic_stringIcSt11char_traitsIcESaIcEEESt6vectorIS7_SaIS7_EEEENS0_5__ops15_Iter_comp_iterIZN7segment5orderEvEUlRKS7_SH_E_EEEvT_SK_T0_+0xe0>
  404b40:	f85f82a0 	ldur	x0, [x21, #-8]
  404b44:	f9000ea0 	str	x0, [x21, #24]
  404b48:	f9400aa1 	ldr	x1, [x21, #16]
  404b4c:	3820683f 	strb	wzr, [x1, x0]
  404b50:	f81f827f 	stur	xzr, [x19, #-8]
  404b54:	f85f0260 	ldur	x0, [x19, #-16]
  404b58:	3900001f 	strb	wzr, [x0]
  404b5c:	d10006d6 	sub	x22, x22, #0x1
  404b60:	d1008294 	sub	x20, x20, #0x20
  404b64:	f10002df 	cmp	x22, #0x0
  404b68:	5400036d 	b.le	404bd4 <_ZSt16__insertion_sortIN9__gnu_cxx17__normal_iteratorIPNSt7__cxx1112basic_stringIcSt11char_traitsIcESaIcEEESt6vectorIS7_SaIS7_EEEENS0_5__ops15_Iter_comp_iterIZN7segment5orderEvEUlRKS7_SH_E_EEEvT_SK_T0_+0x100>
  404b6c:	aa1403f3 	mov	x19, x20
  404b70:	f9400a80 	ldr	x0, [x20, #16]
  404b74:	f85f0295 	ldur	x21, [x20, #-16]
  404b78:	eb15029f 	cmp	x20, x21
  404b7c:	54fffde0 	b.eq	404b38 <_ZSt16__insertion_sortIN9__gnu_cxx17__normal_iteratorIPNSt7__cxx1112basic_stringIcSt11char_traitsIcESaIcEEESt6vectorIS7_SaIS7_EEEENS0_5__ops15_Iter_comp_iterIZN7segment5orderEvEUlRKS7_SH_E_EEEvT_SK_T0_+0x64>  // b.none
  404b80:	91008281 	add	x1, x20, #0x20
  404b84:	eb01001f 	cmp	x0, x1
  404b88:	54000ec0 	b.eq	404d60 <_ZSt16__insertion_sortIN9__gnu_cxx17__normal_iteratorIPNSt7__cxx1112basic_stringIcSt11char_traitsIcESaIcEEESt6vectorIS7_SaIS7_EEEENS0_5__ops15_Iter_comp_iterIZN7segment5orderEvEUlRKS7_SH_E_EEEvT_SK_T0_+0x28c>  // b.none
  404b8c:	f9401281 	ldr	x1, [x20, #32]
  404b90:	f9000a95 	str	x21, [x20, #16]
  404b94:	f85f8282 	ldur	x2, [x20, #-8]
  404b98:	f9000e82 	str	x2, [x20, #24]
  404b9c:	f9400282 	ldr	x2, [x20]
  404ba0:	f9001282 	str	x2, [x20, #32]
  404ba4:	b4000e80 	cbz	x0, 404d74 <_ZSt16__insertion_sortIN9__gnu_cxx17__normal_iteratorIPNSt7__cxx1112basic_stringIcSt11char_traitsIcESaIcEEESt6vectorIS7_SaIS7_EEEENS0_5__ops15_Iter_comp_iterIZN7segment5orderEvEUlRKS7_SH_E_EEEvT_SK_T0_+0x2a0>
  404ba8:	f81f0280 	stur	x0, [x20, #-16]
  404bac:	f9000281 	str	x1, [x20]
  404bb0:	17ffffe8 	b	404b50 <_ZSt16__insertion_sortIN9__gnu_cxx17__normal_iteratorIPNSt7__cxx1112basic_stringIcSt11char_traitsIcESaIcEEESt6vectorIS7_SaIS7_EEEENS0_5__ops15_Iter_comp_iterIZN7segment5orderEvEUlRKS7_SH_E_EEEvT_SK_T0_+0x7c>
  404bb4:	f100045f 	cmp	x2, #0x1
  404bb8:	54000080 	b.eq	404bc8 <_ZSt16__insertion_sortIN9__gnu_cxx17__normal_iteratorIPNSt7__cxx1112basic_stringIcSt11char_traitsIcESaIcEEESt6vectorIS7_SaIS7_EEEENS0_5__ops15_Iter_comp_iterIZN7segment5orderEvEUlRKS7_SH_E_EEEvT_SK_T0_+0xf4>  // b.none
  404bbc:	aa1503e1 	mov	x1, x21
  404bc0:	97fff4d8 	bl	401f20 <memcpy@plt>
  404bc4:	17ffffdf 	b	404b40 <_ZSt16__insertion_sortIN9__gnu_cxx17__normal_iteratorIPNSt7__cxx1112basic_stringIcSt11char_traitsIcESaIcEEESt6vectorIS7_SaIS7_EEEENS0_5__ops15_Iter_comp_iterIZN7segment5orderEvEUlRKS7_SH_E_EEEvT_SK_T0_+0x6c>
  404bc8:	394002a1 	ldrb	w1, [x21]
  404bcc:	39000001 	strb	w1, [x0]
  404bd0:	17ffffdc 	b	404b40 <_ZSt16__insertion_sortIN9__gnu_cxx17__normal_iteratorIPNSt7__cxx1112basic_stringIcSt11char_traitsIcESaIcEEESt6vectorIS7_SaIS7_EEEENS0_5__ops15_Iter_comp_iterIZN7segment5orderEvEUlRKS7_SH_E_EEEvT_SK_T0_+0x6c>
  404bd4:	f9400300 	ldr	x0, [x24]
  404bd8:	f94043e1 	ldr	x1, [sp, #128]
  404bdc:	eb1a003f 	cmp	x1, x26
  404be0:	540007e0 	b.eq	404cdc <_ZSt16__insertion_sortIN9__gnu_cxx17__normal_iteratorIPNSt7__cxx1112basic_stringIcSt11char_traitsIcESaIcEEESt6vectorIS7_SaIS7_EEEENS0_5__ops15_Iter_comp_iterIZN7segment5orderEvEUlRKS7_SH_E_EEEvT_SK_T0_+0x208>  // b.none
  404be4:	f9403be2 	ldr	x2, [sp, #112]
  404be8:	eb02001f 	cmp	x0, x2
  404bec:	54000ac0 	b.eq	404d44 <_ZSt16__insertion_sortIN9__gnu_cxx17__normal_iteratorIPNSt7__cxx1112basic_stringIcSt11char_traitsIcESaIcEEESt6vectorIS7_SaIS7_EEEENS0_5__ops15_Iter_comp_iterIZN7segment5orderEvEUlRKS7_SH_E_EEEvT_SK_T0_+0x270>  // b.none
  404bf0:	f9400b02 	ldr	x2, [x24, #16]
  404bf4:	f9000301 	str	x1, [x24]
  404bf8:	f94047e1 	ldr	x1, [sp, #136]
  404bfc:	f9000701 	str	x1, [x24, #8]
  404c00:	f9404be1 	ldr	x1, [sp, #144]
  404c04:	f9000b01 	str	x1, [x24, #16]
  404c08:	b4000a80 	cbz	x0, 404d58 <_ZSt16__insertion_sortIN9__gnu_cxx17__normal_iteratorIPNSt7__cxx1112basic_stringIcSt11char_traitsIcESaIcEEESt6vectorIS7_SaIS7_EEEENS0_5__ops15_Iter_comp_iterIZN7segment5orderEvEUlRKS7_SH_E_EEEvT_SK_T0_+0x284>
  404c0c:	f90043e0 	str	x0, [sp, #128]
  404c10:	f9004be2 	str	x2, [sp, #144]
  404c14:	f90047ff 	str	xzr, [sp, #136]
  404c18:	f94043e0 	ldr	x0, [sp, #128]
  404c1c:	3900001f 	strb	wzr, [x0]
  404c20:	f94043e0 	ldr	x0, [sp, #128]
  404c24:	eb1a001f 	cmp	x0, x26
  404c28:	54000080 	b.eq	404c38 <_ZSt16__insertion_sortIN9__gnu_cxx17__normal_iteratorIPNSt7__cxx1112basic_stringIcSt11char_traitsIcESaIcEEESt6vectorIS7_SaIS7_EEEENS0_5__ops15_Iter_comp_iterIZN7segment5orderEvEUlRKS7_SH_E_EEEvT_SK_T0_+0x164>  // b.none
  404c2c:	f9404be1 	ldr	x1, [sp, #144]
  404c30:	91000421 	add	x1, x1, #0x1
  404c34:	97fff523 	bl	4020c0 <_ZdlPvm@plt>
  404c38:	910082f7 	add	x23, x23, #0x20
  404c3c:	91008339 	add	x25, x25, #0x20
  404c40:	f94037e0 	ldr	x0, [sp, #104]
  404c44:	eb17001f 	cmp	x0, x23
  404c48:	54000700 	b.eq	404d28 <_ZSt16__insertion_sortIN9__gnu_cxx17__normal_iteratorIPNSt7__cxx1112basic_stringIcSt11char_traitsIcESaIcEEESt6vectorIS7_SaIS7_EEEENS0_5__ops15_Iter_comp_iterIZN7segment5orderEvEUlRKS7_SH_E_EEEvT_SK_T0_+0x254>  // b.none
  404c4c:	aa1703f3 	mov	x19, x23
  404c50:	aa1703e1 	mov	x1, x23
  404c54:	aa1c03e0 	mov	x0, x28
  404c58:	94001556 	bl	40a1b0 <_ZNSt8__detail9_Map_baseINSt7__cxx1112basic_stringIcSt11char_traitsIcESaIcEEESt4pairIKS6_iESaIS9_ENS_10_Select1stESt8equal_toIS6_ESt4hashIS6_ENS_18_Mod_range_hashingENS_20_Default_ranged_hashENS_20_Prime_rehash_policyENS_17_Hashtable_traitsILb1ELb0ELb1EEELb1EEixERS8_>
  404c5c:	aa0003e1 	mov	x1, x0
  404c60:	aa1b03e0 	mov	x0, x27
  404c64:	940014ef 	bl	40a020 <_ZNSt8__detail9_Map_baseIiSt4pairIKiiESaIS3_ENS_10_Select1stESt8equal_toIiESt4hashIiENS_18_Mod_range_hashingENS_20_Default_ranged_hashENS_20_Prime_rehash_policyENS_17_Hashtable_traitsILb0ELb0ELb1EEELb1EE2atERS2_>
  404c68:	b9400014 	ldr	w20, [x0]
  404c6c:	aa1803e1 	mov	x1, x24
  404c70:	aa1c03e0 	mov	x0, x28
  404c74:	9400154f 	bl	40a1b0 <_ZNSt8__detail9_Map_baseINSt7__cxx1112basic_stringIcSt11char_traitsIcESaIcEEESt4pairIKS6_iESaIS9_ENS_10_Select1stESt8equal_toIS6_ESt4hashIS6_ENS_18_Mod_range_hashingENS_20_Default_ranged_hashENS_20_Prime_rehash_policyENS_17_Hashtable_traitsILb1ELb0ELb1EEELb1EEixERS8_>
  404c78:	aa0003e1 	mov	x1, x0
  404c7c:	aa1b03e0 	mov	x0, x27
  404c80:	940014e8 	bl	40a020 <_ZNSt8__detail9_Map_baseIiSt4pairIKiiESaIS3_ENS_10_Select1stESt8equal_toIiESt4hashIiENS_18_Mod_range_hashingENS_20_Default_ranged_hashENS_20_Prime_rehash_policyENS_17_Hashtable_traitsILb0ELb0ELb1EEELb1EE2atERS2_>
  404c84:	b9400000 	ldr	w0, [x0]
  404c88:	6b00029f 	cmp	w20, w0
  404c8c:	5400046d 	b.le	404d18 <_ZSt16__insertion_sortIN9__gnu_cxx17__normal_iteratorIPNSt7__cxx1112basic_stringIcSt11char_traitsIcESaIcEEESt6vectorIS7_SaIS7_EEEENS0_5__ops15_Iter_comp_iterIZN7segment5orderEvEUlRKS7_SH_E_EEEvT_SK_T0_+0x244>
  404c90:	f90043fa 	str	x26, [sp, #128]
  404c94:	aa1903e0 	mov	x0, x25
  404c98:	f85f0321 	ldur	x1, [x25, #-16]
  404c9c:	eb19003f 	cmp	x1, x25
  404ca0:	54fff460 	b.eq	404b2c <_ZSt16__insertion_sortIN9__gnu_cxx17__normal_iteratorIPNSt7__cxx1112basic_stringIcSt11char_traitsIcESaIcEEESt6vectorIS7_SaIS7_EEEENS0_5__ops15_Iter_comp_iterIZN7segment5orderEvEUlRKS7_SH_E_EEEvT_SK_T0_+0x58>  // b.none
  404ca4:	f90043e1 	str	x1, [sp, #128]
  404ca8:	f9400321 	ldr	x1, [x25]
  404cac:	f9004be1 	str	x1, [sp, #144]
  404cb0:	f85f8001 	ldur	x1, [x0, #-8]
  404cb4:	f90047e1 	str	x1, [sp, #136]
  404cb8:	f81f0000 	stur	x0, [x0, #-16]
  404cbc:	f81f801f 	stur	xzr, [x0, #-8]
  404cc0:	3900001f 	strb	wzr, [x0]
  404cc4:	cb180273 	sub	x19, x19, x24
  404cc8:	9345fe76 	asr	x22, x19, #5
  404ccc:	f100027f 	cmp	x19, #0x0
  404cd0:	54fff82d 	b.le	404bd4 <_ZSt16__insertion_sortIN9__gnu_cxx17__normal_iteratorIPNSt7__cxx1112basic_stringIcSt11char_traitsIcESaIcEEESt6vectorIS7_SaIS7_EEEENS0_5__ops15_Iter_comp_iterIZN7segment5orderEvEUlRKS7_SH_E_EEEvT_SK_T0_+0x100>
  404cd4:	d10042f4 	sub	x20, x23, #0x10
  404cd8:	17ffffa5 	b	404b6c <_ZSt16__insertion_sortIN9__gnu_cxx17__normal_iteratorIPNSt7__cxx1112basic_stringIcSt11char_traitsIcESaIcEEESt6vectorIS7_SaIS7_EEEENS0_5__ops15_Iter_comp_iterIZN7segment5orderEvEUlRKS7_SH_E_EEEvT_SK_T0_+0x98>
  404cdc:	f94047e2 	ldr	x2, [sp, #136]
  404ce0:	b50000c2 	cbnz	x2, 404cf8 <_ZSt16__insertion_sortIN9__gnu_cxx17__normal_iteratorIPNSt7__cxx1112basic_stringIcSt11char_traitsIcESaIcEEESt6vectorIS7_SaIS7_EEEENS0_5__ops15_Iter_comp_iterIZN7segment5orderEvEUlRKS7_SH_E_EEEvT_SK_T0_+0x224>
  404ce4:	f94047e0 	ldr	x0, [sp, #136]
  404ce8:	f9000700 	str	x0, [x24, #8]
  404cec:	f9400301 	ldr	x1, [x24]
  404cf0:	3820683f 	strb	wzr, [x1, x0]
  404cf4:	17ffffc8 	b	404c14 <_ZSt16__insertion_sortIN9__gnu_cxx17__normal_iteratorIPNSt7__cxx1112basic_stringIcSt11char_traitsIcESaIcEEESt6vectorIS7_SaIS7_EEEENS0_5__ops15_Iter_comp_iterIZN7segment5orderEvEUlRKS7_SH_E_EEEvT_SK_T0_+0x140>
  404cf8:	f100045f 	cmp	x2, #0x1
  404cfc:	54000080 	b.eq	404d0c <_ZSt16__insertion_sortIN9__gnu_cxx17__normal_iteratorIPNSt7__cxx1112basic_stringIcSt11char_traitsIcESaIcEEESt6vectorIS7_SaIS7_EEEENS0_5__ops15_Iter_comp_iterIZN7segment5orderEvEUlRKS7_SH_E_EEEvT_SK_T0_+0x238>  // b.none
  404d00:	aa1a03e1 	mov	x1, x26
  404d04:	97fff487 	bl	401f20 <memcpy@plt>
  404d08:	17fffff7 	b	404ce4 <_ZSt16__insertion_sortIN9__gnu_cxx17__normal_iteratorIPNSt7__cxx1112basic_stringIcSt11char_traitsIcESaIcEEESt6vectorIS7_SaIS7_EEEENS0_5__ops15_Iter_comp_iterIZN7segment5orderEvEUlRKS7_SH_E_EEEvT_SK_T0_+0x210>
  404d0c:	394243e1 	ldrb	w1, [sp, #144]
  404d10:	39000001 	strb	w1, [x0]
  404d14:	17fffff4 	b	404ce4 <_ZSt16__insertion_sortIN9__gnu_cxx17__normal_iteratorIPNSt7__cxx1112basic_stringIcSt11char_traitsIcESaIcEEESt6vectorIS7_SaIS7_EEEENS0_5__ops15_Iter_comp_iterIZN7segment5orderEvEUlRKS7_SH_E_EEEvT_SK_T0_+0x210>
  404d18:	f9403fe1 	ldr	x1, [sp, #120]
  404d1c:	aa1703e0 	mov	x0, x23
  404d20:	97fffda6 	bl	4043b8 <_ZSt25__unguarded_linear_insertIN9__gnu_cxx17__normal_iteratorIPNSt7__cxx1112basic_stringIcSt11char_traitsIcESaIcEEESt6vectorIS7_SaIS7_EEEENS0_5__ops14_Val_comp_iterIZN7segment5orderEvEUlRKS7_SH_E_EEEvT_T0_>
  404d24:	17ffffc5 	b	404c38 <_ZSt16__insertion_sortIN9__gnu_cxx17__normal_iteratorIPNSt7__cxx1112basic_stringIcSt11char_traitsIcESaIcEEESt6vectorIS7_SaIS7_EEEENS0_5__ops15_Iter_comp_iterIZN7segment5orderEvEUlRKS7_SH_E_EEEvT_SK_T0_+0x164>
  404d28:	a94153f3 	ldp	x19, x20, [sp, #16]
  404d2c:	a9425bf5 	ldp	x21, x22, [sp, #32]
  404d30:	a9446bf9 	ldp	x25, x26, [sp, #64]
  404d34:	a94573fb 	ldp	x27, x28, [sp, #80]
  404d38:	a94363f7 	ldp	x23, x24, [sp, #48]
  404d3c:	a8ca7bfd 	ldp	x29, x30, [sp], #160
  404d40:	d65f03c0 	ret
  404d44:	f9000301 	str	x1, [x24]
  404d48:	f94047e0 	ldr	x0, [sp, #136]
  404d4c:	f9000700 	str	x0, [x24, #8]
  404d50:	f9404be0 	ldr	x0, [sp, #144]
  404d54:	f9000b00 	str	x0, [x24, #16]
  404d58:	f90043fa 	str	x26, [sp, #128]
  404d5c:	17ffffae 	b	404c14 <_ZSt16__insertion_sortIN9__gnu_cxx17__normal_iteratorIPNSt7__cxx1112basic_stringIcSt11char_traitsIcESaIcEEESt6vectorIS7_SaIS7_EEEENS0_5__ops15_Iter_comp_iterIZN7segment5orderEvEUlRKS7_SH_E_EEEvT_SK_T0_+0x140>
  404d60:	f9000a95 	str	x21, [x20, #16]
  404d64:	f85f8280 	ldur	x0, [x20, #-8]
  404d68:	f9000e80 	str	x0, [x20, #24]
  404d6c:	f9400280 	ldr	x0, [x20]
  404d70:	f9001280 	str	x0, [x20, #32]
  404d74:	f81f0273 	stur	x19, [x19, #-16]
  404d78:	17ffff76 	b	404b50 <_ZSt16__insertion_sortIN9__gnu_cxx17__normal_iteratorIPNSt7__cxx1112basic_stringIcSt11char_traitsIcESaIcEEESt6vectorIS7_SaIS7_EEEENS0_5__ops15_Iter_comp_iterIZN7segment5orderEvEUlRKS7_SH_E_EEEvT_SK_T0_+0x7c>

0000000000404d7c <_ZSt16__introsort_loopIN9__gnu_cxx17__normal_iteratorIPNSt7__cxx1112basic_stringIcSt11char_traitsIcESaIcEEESt6vectorIS7_SaIS7_EEEElNS0_5__ops15_Iter_comp_iterIZN7segment5orderEvEUlRKS7_SH_E_EEEvT_SK_T0_T1_>:
  404d7c:	a9b57bfd 	stp	x29, x30, [sp, #-176]!
  404d80:	910003fd 	mov	x29, sp
  404d84:	a90363f7 	stp	x23, x24, [sp, #48]
  404d88:	aa0003f7 	mov	x23, x0
  404d8c:	f90037e3 	str	x3, [sp, #104]
  404d90:	cb000020 	sub	x0, x1, x0
  404d94:	f108001f 	cmp	x0, #0x200
  404d98:	5400152d 	b.le	40503c <_ZSt16__introsort_loopIN9__gnu_cxx17__normal_iteratorIPNSt7__cxx1112basic_stringIcSt11char_traitsIcESaIcEEESt6vectorIS7_SaIS7_EEEElNS0_5__ops15_Iter_comp_iterIZN7segment5orderEvEUlRKS7_SH_E_EEEvT_SK_T0_T1_+0x2c0>
  404d9c:	a90153f3 	stp	x19, x20, [sp, #16]
  404da0:	a9025bf5 	stp	x21, x22, [sp, #32]
  404da4:	a9046bf9 	stp	x25, x26, [sp, #64]
  404da8:	a90573fb 	stp	x27, x28, [sp, #80]
  404dac:	aa0203fc 	mov	x28, x2
  404db0:	aa0103fb 	mov	x27, x1
  404db4:	b4002b02 	cbz	x2, 405314 <_ZSt16__introsort_loopIN9__gnu_cxx17__normal_iteratorIPNSt7__cxx1112basic_stringIcSt11char_traitsIcESaIcEEESt6vectorIS7_SaIS7_EEEElNS0_5__ops15_Iter_comp_iterIZN7segment5orderEvEUlRKS7_SH_E_EEEvT_SK_T0_T1_+0x598>
  404db8:	910082e0 	add	x0, x23, #0x20
  404dbc:	f90033e0 	str	x0, [sp, #96]
  404dc0:	91010075 	add	x21, x3, #0x40
  404dc4:	9101e074 	add	x20, x3, #0x78
  404dc8:	14000121 	b	40524c <_ZSt16__introsort_loopIN9__gnu_cxx17__normal_iteratorIPNSt7__cxx1112basic_stringIcSt11char_traitsIcESaIcEEESt6vectorIS7_SaIS7_EEEElNS0_5__ops15_Iter_comp_iterIZN7segment5orderEvEUlRKS7_SH_E_EEEvT_SK_T0_T1_+0x4d0>
  404dcc:	a9400e62 	ldp	x2, x3, [x19]
  404dd0:	a9080fe2 	stp	x2, x3, [sp, #128]
  404dd4:	1400001b 	b	404e40 <_ZSt16__introsort_loopIN9__gnu_cxx17__normal_iteratorIPNSt7__cxx1112basic_stringIcSt11char_traitsIcESaIcEEESt6vectorIS7_SaIS7_EEEElNS0_5__ops15_Iter_comp_iterIZN7segment5orderEvEUlRKS7_SH_E_EEEvT_SK_T0_T1_+0xc4>
  404dd8:	a9480fe2 	ldp	x2, x3, [sp, #128]
  404ddc:	a90a0fe2 	stp	x2, x3, [sp, #160]
  404de0:	14000023 	b	404e6c <_ZSt16__introsort_loopIN9__gnu_cxx17__normal_iteratorIPNSt7__cxx1112basic_stringIcSt11char_traitsIcESaIcEEESt6vectorIS7_SaIS7_EEEElNS0_5__ops15_Iter_comp_iterIZN7segment5orderEvEUlRKS7_SH_E_EEEvT_SK_T0_T1_+0xf0>
  404de4:	f9404be0 	ldr	x0, [sp, #144]
  404de8:	eb16001f 	cmp	x0, x22
  404dec:	54000080 	b.eq	404dfc <_ZSt16__introsort_loopIN9__gnu_cxx17__normal_iteratorIPNSt7__cxx1112basic_stringIcSt11char_traitsIcESaIcEEESt6vectorIS7_SaIS7_EEEElNS0_5__ops15_Iter_comp_iterIZN7segment5orderEvEUlRKS7_SH_E_EEEvT_SK_T0_T1_+0x80>  // b.none
  404df0:	f94053e1 	ldr	x1, [sp, #160]
  404df4:	91000421 	add	x1, x1, #0x1
  404df8:	97fff4b2 	bl	4020c0 <_ZdlPvm@plt>
  404dfc:	b40004f4 	cbz	x20, 404e98 <_ZSt16__introsort_loopIN9__gnu_cxx17__normal_iteratorIPNSt7__cxx1112basic_stringIcSt11char_traitsIcESaIcEEESt6vectorIS7_SaIS7_EEEElNS0_5__ops15_Iter_comp_iterIZN7segment5orderEvEUlRKS7_SH_E_EEEvT_SK_T0_T1_+0x11c>
  404e00:	d1000694 	sub	x20, x20, #0x1
  404e04:	f9403be0 	ldr	x0, [sp, #112]
  404e08:	eb15001f 	cmp	x0, x21
  404e0c:	54000080 	b.eq	404e1c <_ZSt16__introsort_loopIN9__gnu_cxx17__normal_iteratorIPNSt7__cxx1112basic_stringIcSt11char_traitsIcESaIcEEESt6vectorIS7_SaIS7_EEEElNS0_5__ops15_Iter_comp_iterIZN7segment5orderEvEUlRKS7_SH_E_EEEvT_SK_T0_T1_+0xa0>  // b.none
  404e10:	f94043e1 	ldr	x1, [sp, #128]
  404e14:	91000421 	add	x1, x1, #0x1
  404e18:	97fff4aa 	bl	4020c0 <_ZdlPvm@plt>
  404e1c:	d1008273 	sub	x19, x19, #0x20
  404e20:	f9003bf5 	str	x21, [sp, #112]
  404e24:	aa1303e0 	mov	x0, x19
  404e28:	f85f0261 	ldur	x1, [x19, #-16]
  404e2c:	eb13003f 	cmp	x1, x19
  404e30:	54fffce0 	b.eq	404dcc <_ZSt16__introsort_loopIN9__gnu_cxx17__normal_iteratorIPNSt7__cxx1112basic_stringIcSt11char_traitsIcESaIcEEESt6vectorIS7_SaIS7_EEEElNS0_5__ops15_Iter_comp_iterIZN7segment5orderEvEUlRKS7_SH_E_EEEvT_SK_T0_T1_+0x50>  // b.none
  404e34:	f9003be1 	str	x1, [sp, #112]
  404e38:	f9400261 	ldr	x1, [x19]
  404e3c:	f90043e1 	str	x1, [sp, #128]
  404e40:	f85f8001 	ldur	x1, [x0, #-8]
  404e44:	f81f0000 	stur	x0, [x0, #-16]
  404e48:	f81f801f 	stur	xzr, [x0, #-8]
  404e4c:	3900001f 	strb	wzr, [x0]
  404e50:	f9004bf6 	str	x22, [sp, #144]
  404e54:	f9403be0 	ldr	x0, [sp, #112]
  404e58:	eb15001f 	cmp	x0, x21
  404e5c:	54fffbe0 	b.eq	404dd8 <_ZSt16__introsort_loopIN9__gnu_cxx17__normal_iteratorIPNSt7__cxx1112basic_stringIcSt11char_traitsIcESaIcEEESt6vectorIS7_SaIS7_EEEElNS0_5__ops15_Iter_comp_iterIZN7segment5orderEvEUlRKS7_SH_E_EEEvT_SK_T0_T1_+0x5c>  // b.none
  404e60:	f9004be0 	str	x0, [sp, #144]
  404e64:	f94043e0 	ldr	x0, [sp, #128]
  404e68:	f90053e0 	str	x0, [sp, #160]
  404e6c:	f9004fe1 	str	x1, [sp, #152]
  404e70:	f9003bf5 	str	x21, [sp, #112]
  404e74:	f9003fff 	str	xzr, [sp, #120]
  404e78:	390203ff 	strb	wzr, [sp, #128]
  404e7c:	f94037e4 	ldr	x4, [sp, #104]
  404e80:	910243e3 	add	x3, sp, #0x90
  404e84:	aa1803e2 	mov	x2, x24
  404e88:	aa1403e1 	mov	x1, x20
  404e8c:	aa1703e0 	mov	x0, x23
  404e90:	97fffdde 	bl	404608 <_ZSt13__adjust_heapIN9__gnu_cxx17__normal_iteratorIPNSt7__cxx1112basic_stringIcSt11char_traitsIcESaIcEEESt6vectorIS7_SaIS7_EEEElS7_NS0_5__ops15_Iter_comp_iterIZN7segment5orderEvEUlRKS7_SH_E_EEEvT_T0_SL_T1_T2_>
  404e94:	17ffffd4 	b	404de4 <_ZSt16__introsort_loopIN9__gnu_cxx17__normal_iteratorIPNSt7__cxx1112basic_stringIcSt11char_traitsIcESaIcEEESt6vectorIS7_SaIS7_EEEElNS0_5__ops15_Iter_comp_iterIZN7segment5orderEvEUlRKS7_SH_E_EEEvT_SK_T0_T1_+0x68>
  404e98:	f9403be0 	ldr	x0, [sp, #112]
  404e9c:	910203e1 	add	x1, sp, #0x80
  404ea0:	eb01001f 	cmp	x0, x1
  404ea4:	54000080 	b.eq	404eb4 <_ZSt16__introsort_loopIN9__gnu_cxx17__normal_iteratorIPNSt7__cxx1112basic_stringIcSt11char_traitsIcESaIcEEESt6vectorIS7_SaIS7_EEEElNS0_5__ops15_Iter_comp_iterIZN7segment5orderEvEUlRKS7_SH_E_EEEvT_SK_T0_T1_+0x138>  // b.none
  404ea8:	f94043e1 	ldr	x1, [sp, #128]
  404eac:	91000421 	add	x1, x1, #0x1
  404eb0:	97fff484 	bl	4020c0 <_ZdlPvm@plt>
  404eb4:	d100435a 	sub	x26, x26, #0x10
  404eb8:	910203f4 	add	x20, sp, #0x80
  404ebc:	910042f6 	add	x22, x23, #0x10
  404ec0:	910283f5 	add	x21, sp, #0xa0
  404ec4:	1400002c 	b	404f74 <_ZSt16__introsort_loopIN9__gnu_cxx17__normal_iteratorIPNSt7__cxx1112basic_stringIcSt11char_traitsIcESaIcEEESt6vectorIS7_SaIS7_EEEElNS0_5__ops15_Iter_comp_iterIZN7segment5orderEvEUlRKS7_SH_E_EEEvT_SK_T0_T1_+0x1f8>
  404ec8:	aa0003f3 	mov	x19, x0
  404ecc:	910243e0 	add	x0, sp, #0x90
  404ed0:	97fff490 	bl	402110 <_ZNSt7__cxx1112basic_stringIcSt11char_traitsIcESaIcEE10_M_disposeEv@plt>
  404ed4:	9101c3e0 	add	x0, sp, #0x70
  404ed8:	97fff48e 	bl	402110 <_ZNSt7__cxx1112basic_stringIcSt11char_traitsIcESaIcEE10_M_disposeEv@plt>
  404edc:	aa1303e0 	mov	x0, x19
  404ee0:	97fff4e0 	bl	402260 <_Unwind_Resume@plt>
  404ee4:	a9400740 	ldp	x0, x1, [x26]
  404ee8:	a90807e0 	stp	x0, x1, [sp, #128]
  404eec:	1400002b 	b	404f98 <_ZSt16__introsort_loopIN9__gnu_cxx17__normal_iteratorIPNSt7__cxx1112basic_stringIcSt11char_traitsIcESaIcEEESt6vectorIS7_SaIS7_EEEElNS0_5__ops15_Iter_comp_iterIZN7segment5orderEvEUlRKS7_SH_E_EEEvT_SK_T0_T1_+0x21c>
  404ef0:	f94006e2 	ldr	x2, [x23, #8]
  404ef4:	b50000a2 	cbnz	x2, 404f08 <_ZSt16__introsort_loopIN9__gnu_cxx17__normal_iteratorIPNSt7__cxx1112basic_stringIcSt11char_traitsIcESaIcEEESt6vectorIS7_SaIS7_EEEElNS0_5__ops15_Iter_comp_iterIZN7segment5orderEvEUlRKS7_SH_E_EEEvT_SK_T0_T1_+0x18c>
  404ef8:	f94006e0 	ldr	x0, [x23, #8]
  404efc:	f81f8260 	stur	x0, [x19, #-8]
  404f00:	38206a7f 	strb	wzr, [x19, x0]
  404f04:	14000033 	b	404fd0 <_ZSt16__introsort_loopIN9__gnu_cxx17__normal_iteratorIPNSt7__cxx1112basic_stringIcSt11char_traitsIcESaIcEEESt6vectorIS7_SaIS7_EEEElNS0_5__ops15_Iter_comp_iterIZN7segment5orderEvEUlRKS7_SH_E_EEEvT_SK_T0_T1_+0x254>
  404f08:	f100045f 	cmp	x2, #0x1
  404f0c:	540000a0 	b.eq	404f20 <_ZSt16__introsort_loopIN9__gnu_cxx17__normal_iteratorIPNSt7__cxx1112basic_stringIcSt11char_traitsIcESaIcEEESt6vectorIS7_SaIS7_EEEElNS0_5__ops15_Iter_comp_iterIZN7segment5orderEvEUlRKS7_SH_E_EEEvT_SK_T0_T1_+0x1a4>  // b.none
  404f10:	aa1603e1 	mov	x1, x22
  404f14:	aa1303e0 	mov	x0, x19
  404f18:	97fff402 	bl	401f20 <memcpy@plt>
  404f1c:	17fffff7 	b	404ef8 <_ZSt16__introsort_loopIN9__gnu_cxx17__normal_iteratorIPNSt7__cxx1112basic_stringIcSt11char_traitsIcESaIcEEESt6vectorIS7_SaIS7_EEEElNS0_5__ops15_Iter_comp_iterIZN7segment5orderEvEUlRKS7_SH_E_EEEvT_SK_T0_T1_+0x17c>
  404f20:	394042e0 	ldrb	w0, [x23, #16]
  404f24:	39000260 	strb	w0, [x19]
  404f28:	17fffff4 	b	404ef8 <_ZSt16__introsort_loopIN9__gnu_cxx17__normal_iteratorIPNSt7__cxx1112basic_stringIcSt11char_traitsIcESaIcEEESt6vectorIS7_SaIS7_EEEElNS0_5__ops15_Iter_comp_iterIZN7segment5orderEvEUlRKS7_SH_E_EEEvT_SK_T0_T1_+0x17c>
  404f2c:	a94807e0 	ldp	x0, x1, [sp, #128]
  404f30:	a90a07e0 	stp	x0, x1, [sp, #160]
  404f34:	14000033 	b	405000 <_ZSt16__introsort_loopIN9__gnu_cxx17__normal_iteratorIPNSt7__cxx1112basic_stringIcSt11char_traitsIcESaIcEEESt6vectorIS7_SaIS7_EEEElNS0_5__ops15_Iter_comp_iterIZN7segment5orderEvEUlRKS7_SH_E_EEEvT_SK_T0_T1_+0x284>
  404f38:	f9404be0 	ldr	x0, [sp, #144]
  404f3c:	eb15001f 	cmp	x0, x21
  404f40:	54000080 	b.eq	404f50 <_ZSt16__introsort_loopIN9__gnu_cxx17__normal_iteratorIPNSt7__cxx1112basic_stringIcSt11char_traitsIcESaIcEEESt6vectorIS7_SaIS7_EEEElNS0_5__ops15_Iter_comp_iterIZN7segment5orderEvEUlRKS7_SH_E_EEEvT_SK_T0_T1_+0x1d4>  // b.none
  404f44:	f94053e1 	ldr	x1, [sp, #160]
  404f48:	91000421 	add	x1, x1, #0x1
  404f4c:	97fff45d 	bl	4020c0 <_ZdlPvm@plt>
  404f50:	f9403be0 	ldr	x0, [sp, #112]
  404f54:	eb14001f 	cmp	x0, x20
  404f58:	54000080 	b.eq	404f68 <_ZSt16__introsort_loopIN9__gnu_cxx17__normal_iteratorIPNSt7__cxx1112basic_stringIcSt11char_traitsIcESaIcEEESt6vectorIS7_SaIS7_EEEElNS0_5__ops15_Iter_comp_iterIZN7segment5orderEvEUlRKS7_SH_E_EEEvT_SK_T0_T1_+0x1ec>  // b.none
  404f5c:	f94043e1 	ldr	x1, [sp, #128]
  404f60:	91000421 	add	x1, x1, #0x1
  404f64:	97fff457 	bl	4020c0 <_ZdlPvm@plt>
  404f68:	d100835a 	sub	x26, x26, #0x20
  404f6c:	f100831f 	cmp	x24, #0x20
  404f70:	540005ed 	b.le	40502c <_ZSt16__introsort_loopIN9__gnu_cxx17__normal_iteratorIPNSt7__cxx1112basic_stringIcSt11char_traitsIcESaIcEEESt6vectorIS7_SaIS7_EEEElNS0_5__ops15_Iter_comp_iterIZN7segment5orderEvEUlRKS7_SH_E_EEEvT_SK_T0_T1_+0x2b0>
  404f74:	d1004358 	sub	x24, x26, #0x10
  404f78:	f9003bf4 	str	x20, [sp, #112]
  404f7c:	aa1a03f3 	mov	x19, x26
  404f80:	f85f0340 	ldur	x0, [x26, #-16]
  404f84:	eb1a001f 	cmp	x0, x26
  404f88:	54fffae0 	b.eq	404ee4 <_ZSt16__introsort_loopIN9__gnu_cxx17__normal_iteratorIPNSt7__cxx1112basic_stringIcSt11char_traitsIcESaIcEEESt6vectorIS7_SaIS7_EEEElNS0_5__ops15_Iter_comp_iterIZN7segment5orderEvEUlRKS7_SH_E_EEEvT_SK_T0_T1_+0x168>  // b.none
  404f8c:	f9003be0 	str	x0, [sp, #112]
  404f90:	f9400340 	ldr	x0, [x26]
  404f94:	f90043e0 	str	x0, [sp, #128]
  404f98:	f85f8260 	ldur	x0, [x19, #-8]
  404f9c:	f9003fe0 	str	x0, [sp, #120]
  404fa0:	f81f0273 	stur	x19, [x19, #-16]
  404fa4:	f81f827f 	stur	xzr, [x19, #-8]
  404fa8:	3900027f 	strb	wzr, [x19]
  404fac:	f94002e0 	ldr	x0, [x23]
  404fb0:	eb16001f 	cmp	x0, x22
  404fb4:	54fff9e0 	b.eq	404ef0 <_ZSt16__introsort_loopIN9__gnu_cxx17__normal_iteratorIPNSt7__cxx1112basic_stringIcSt11char_traitsIcESaIcEEESt6vectorIS7_SaIS7_EEEElNS0_5__ops15_Iter_comp_iterIZN7segment5orderEvEUlRKS7_SH_E_EEEvT_SK_T0_T1_+0x174>  // b.none
  404fb8:	f81f0260 	stur	x0, [x19, #-16]
  404fbc:	f94006e0 	ldr	x0, [x23, #8]
  404fc0:	f81f8260 	stur	x0, [x19, #-8]
  404fc4:	f9400ae0 	ldr	x0, [x23, #16]
  404fc8:	f9000260 	str	x0, [x19]
  404fcc:	f90002f6 	str	x22, [x23]
  404fd0:	f90006ff 	str	xzr, [x23, #8]
  404fd4:	f94002e0 	ldr	x0, [x23]
  404fd8:	3900001f 	strb	wzr, [x0]
  404fdc:	cb170318 	sub	x24, x24, x23
  404fe0:	9345ff02 	asr	x2, x24, #5
  404fe4:	f9004bf5 	str	x21, [sp, #144]
  404fe8:	f9403be0 	ldr	x0, [sp, #112]
  404fec:	eb14001f 	cmp	x0, x20
  404ff0:	54fff9e0 	b.eq	404f2c <_ZSt16__introsort_loopIN9__gnu_cxx17__normal_iteratorIPNSt7__cxx1112basic_stringIcSt11char_traitsIcESaIcEEESt6vectorIS7_SaIS7_EEEElNS0_5__ops15_Iter_comp_iterIZN7segment5orderEvEUlRKS7_SH_E_EEEvT_SK_T0_T1_+0x1b0>  // b.none
  404ff4:	f9004be0 	str	x0, [sp, #144]
  404ff8:	f94043e0 	ldr	x0, [sp, #128]
  404ffc:	f90053e0 	str	x0, [sp, #160]
  405000:	f9403fe0 	ldr	x0, [sp, #120]
  405004:	f9004fe0 	str	x0, [sp, #152]
  405008:	f9003bf4 	str	x20, [sp, #112]
  40500c:	f9003fff 	str	xzr, [sp, #120]
  405010:	390203ff 	strb	wzr, [sp, #128]
  405014:	f94037e4 	ldr	x4, [sp, #104]
  405018:	910243e3 	add	x3, sp, #0x90
  40501c:	d2800001 	mov	x1, #0x0                   	// #0
  405020:	aa1703e0 	mov	x0, x23
  405024:	97fffd79 	bl	404608 <_ZSt13__adjust_heapIN9__gnu_cxx17__normal_iteratorIPNSt7__cxx1112basic_stringIcSt11char_traitsIcESaIcEEESt6vectorIS7_SaIS7_EEEElS7_NS0_5__ops15_Iter_comp_iterIZN7segment5orderEvEUlRKS7_SH_E_EEEvT_T0_SL_T1_T2_>
  405028:	17ffffc4 	b	404f38 <_ZSt16__introsort_loopIN9__gnu_cxx17__normal_iteratorIPNSt7__cxx1112basic_stringIcSt11char_traitsIcESaIcEEESt6vectorIS7_SaIS7_EEEElNS0_5__ops15_Iter_comp_iterIZN7segment5orderEvEUlRKS7_SH_E_EEEvT_SK_T0_T1_+0x1bc>
  40502c:	a94153f3 	ldp	x19, x20, [sp, #16]
  405030:	a9425bf5 	ldp	x21, x22, [sp, #32]
  405034:	a9446bf9 	ldp	x25, x26, [sp, #64]
  405038:	a94573fb 	ldp	x27, x28, [sp, #80]
  40503c:	a94363f7 	ldp	x23, x24, [sp, #48]
  405040:	a8cb7bfd 	ldp	x29, x30, [sp], #176
  405044:	d65f03c0 	ret
  405048:	aa0003f3 	mov	x19, x0
  40504c:	910243e0 	add	x0, sp, #0x90
  405050:	97fff430 	bl	402110 <_ZNSt7__cxx1112basic_stringIcSt11char_traitsIcESaIcEE10_M_disposeEv@plt>
  405054:	9101c3e0 	add	x0, sp, #0x70
  405058:	97fff42e 	bl	402110 <_ZNSt7__cxx1112basic_stringIcSt11char_traitsIcESaIcEE10_M_disposeEv@plt>
  40505c:	aa1303e0 	mov	x0, x19
  405060:	97fff480 	bl	402260 <_Unwind_Resume@plt>
  405064:	f94033e1 	ldr	x1, [sp, #96]
  405068:	aa1503e0 	mov	x0, x21
  40506c:	94001451 	bl	40a1b0 <_ZNSt8__detail9_Map_baseINSt7__cxx1112basic_stringIcSt11char_traitsIcESaIcEEESt4pairIKS6_iESaIS9_ENS_10_Select1stESt8equal_toIS6_ESt4hashIS6_ENS_18_Mod_range_hashingENS_20_Default_ranged_hashENS_20_Prime_rehash_policyENS_17_Hashtable_traitsILb1ELb0ELb1EEELb1EEixERS8_>
  405070:	aa0003e1 	mov	x1, x0
  405074:	aa1403e0 	mov	x0, x20
  405078:	940013ea 	bl	40a020 <_ZNSt8__detail9_Map_baseIiSt4pairIKiiESaIS3_ENS_10_Select1stESt8equal_toIiESt4hashIiENS_18_Mod_range_hashingENS_20_Default_ranged_hashENS_20_Prime_rehash_policyENS_17_Hashtable_traitsILb0ELb0ELb1EEELb1EE2atERS2_>
  40507c:	b9400013 	ldr	w19, [x0]
  405080:	aa1603e1 	mov	x1, x22
  405084:	aa1503e0 	mov	x0, x21
  405088:	9400144a 	bl	40a1b0 <_ZNSt8__detail9_Map_baseINSt7__cxx1112basic_stringIcSt11char_traitsIcESaIcEEESt4pairIKS6_iESaIS9_ENS_10_Select1stESt8equal_toIS6_ESt4hashIS6_ENS_18_Mod_range_hashingENS_20_Default_ranged_hashENS_20_Prime_rehash_policyENS_17_Hashtable_traitsILb1ELb0ELb1EEELb1EEixERS8_>
  40508c:	aa0003e1 	mov	x1, x0
  405090:	aa1403e0 	mov	x0, x20
  405094:	940013e3 	bl	40a020 <_ZNSt8__detail9_Map_baseIiSt4pairIKiiESaIS3_ENS_10_Select1stESt8equal_toIiESt4hashIiENS_18_Mod_range_hashingENS_20_Default_ranged_hashENS_20_Prime_rehash_policyENS_17_Hashtable_traitsILb0ELb0ELb1EEELb1EE2atERS2_>
  405098:	b9400000 	ldr	w0, [x0]
  40509c:	6b00027f 	cmp	w19, w0
  4050a0:	540000ad 	b.le	4050b4 <_ZSt16__introsort_loopIN9__gnu_cxx17__normal_iteratorIPNSt7__cxx1112basic_stringIcSt11char_traitsIcESaIcEEESt6vectorIS7_SaIS7_EEEElNS0_5__ops15_Iter_comp_iterIZN7segment5orderEvEUlRKS7_SH_E_EEEvT_SK_T0_T1_+0x338>
  4050a4:	aa1603e1 	mov	x1, x22
  4050a8:	aa1703e0 	mov	x0, x23
  4050ac:	97fff3ed 	bl	402060 <_ZNSt7__cxx1112basic_stringIcSt11char_traitsIcESaIcEE4swapERS4_@plt>
  4050b0:	14000091 	b	4052f4 <_ZSt16__introsort_loopIN9__gnu_cxx17__normal_iteratorIPNSt7__cxx1112basic_stringIcSt11char_traitsIcESaIcEEESt6vectorIS7_SaIS7_EEEElNS0_5__ops15_Iter_comp_iterIZN7segment5orderEvEUlRKS7_SH_E_EEEvT_SK_T0_T1_+0x578>
  4050b4:	f94033e1 	ldr	x1, [sp, #96]
  4050b8:	aa1703e0 	mov	x0, x23
  4050bc:	97fff3e9 	bl	402060 <_ZNSt7__cxx1112basic_stringIcSt11char_traitsIcESaIcEE4swapERS4_@plt>
  4050c0:	1400008d 	b	4052f4 <_ZSt16__introsort_loopIN9__gnu_cxx17__normal_iteratorIPNSt7__cxx1112basic_stringIcSt11char_traitsIcESaIcEEESt6vectorIS7_SaIS7_EEEElNS0_5__ops15_Iter_comp_iterIZN7segment5orderEvEUlRKS7_SH_E_EEEvT_SK_T0_T1_+0x578>
  4050c4:	f94033f9 	ldr	x25, [sp, #96]
  4050c8:	aa1903e1 	mov	x1, x25
  4050cc:	aa1503e0 	mov	x0, x21
  4050d0:	94001438 	bl	40a1b0 <_ZNSt8__detail9_Map_baseINSt7__cxx1112basic_stringIcSt11char_traitsIcESaIcEEESt4pairIKS6_iESaIS9_ENS_10_Select1stESt8equal_toIS6_ESt4hashIS6_ENS_18_Mod_range_hashingENS_20_Default_ranged_hashENS_20_Prime_rehash_policyENS_17_Hashtable_traitsILb1ELb0ELb1EEELb1EEixERS8_>
  4050d4:	aa0003e1 	mov	x1, x0
  4050d8:	aa1403e0 	mov	x0, x20
  4050dc:	940013d1 	bl	40a020 <_ZNSt8__detail9_Map_baseIiSt4pairIKiiESaIS3_ENS_10_Select1stESt8equal_toIiESt4hashIiENS_18_Mod_range_hashingENS_20_Default_ranged_hashENS_20_Prime_rehash_policyENS_17_Hashtable_traitsILb0ELb0ELb1EEELb1EE2atERS2_>
  4050e0:	b9400018 	ldr	w24, [x0]
  4050e4:	aa1603e1 	mov	x1, x22
  4050e8:	aa1503e0 	mov	x0, x21
  4050ec:	94001431 	bl	40a1b0 <_ZNSt8__detail9_Map_baseINSt7__cxx1112basic_stringIcSt11char_traitsIcESaIcEEESt4pairIKS6_iESaIS9_ENS_10_Select1stESt8equal_toIS6_ESt4hashIS6_ENS_18_Mod_range_hashingENS_20_Default_ranged_hashENS_20_Prime_rehash_policyENS_17_Hashtable_traitsILb1ELb0ELb1EEELb1EEixERS8_>
  4050f0:	aa0003e1 	mov	x1, x0
  4050f4:	aa1403e0 	mov	x0, x20
  4050f8:	940013ca 	bl	40a020 <_ZNSt8__detail9_Map_baseIiSt4pairIKiiESaIS3_ENS_10_Select1stESt8equal_toIiESt4hashIiENS_18_Mod_range_hashingENS_20_Default_ranged_hashENS_20_Prime_rehash_policyENS_17_Hashtable_traitsILb0ELb0ELb1EEELb1EE2atERS2_>
  4050fc:	b9400000 	ldr	w0, [x0]
  405100:	6b00031f 	cmp	w24, w0
  405104:	540000ad 	b.le	405118 <_ZSt16__introsort_loopIN9__gnu_cxx17__normal_iteratorIPNSt7__cxx1112basic_stringIcSt11char_traitsIcESaIcEEESt6vectorIS7_SaIS7_EEEElNS0_5__ops15_Iter_comp_iterIZN7segment5orderEvEUlRKS7_SH_E_EEEvT_SK_T0_T1_+0x39c>
  405108:	aa1903e1 	mov	x1, x25
  40510c:	aa1703e0 	mov	x0, x23
  405110:	97fff3d4 	bl	402060 <_ZNSt7__cxx1112basic_stringIcSt11char_traitsIcESaIcEE4swapERS4_@plt>
  405114:	14000078 	b	4052f4 <_ZSt16__introsort_loopIN9__gnu_cxx17__normal_iteratorIPNSt7__cxx1112basic_stringIcSt11char_traitsIcESaIcEEESt6vectorIS7_SaIS7_EEEElNS0_5__ops15_Iter_comp_iterIZN7segment5orderEvEUlRKS7_SH_E_EEEvT_SK_T0_T1_+0x578>
  405118:	aa1303e1 	mov	x1, x19
  40511c:	aa1503e0 	mov	x0, x21
  405120:	94001424 	bl	40a1b0 <_ZNSt8__detail9_Map_baseINSt7__cxx1112basic_stringIcSt11char_traitsIcESaIcEEESt4pairIKS6_iESaIS9_ENS_10_Select1stESt8equal_toIS6_ESt4hashIS6_ENS_18_Mod_range_hashingENS_20_Default_ranged_hashENS_20_Prime_rehash_policyENS_17_Hashtable_traitsILb1ELb0ELb1EEELb1EEixERS8_>
  405124:	aa0003e1 	mov	x1, x0
  405128:	aa1403e0 	mov	x0, x20
  40512c:	940013bd 	bl	40a020 <_ZNSt8__detail9_Map_baseIiSt4pairIKiiESaIS3_ENS_10_Select1stESt8equal_toIiESt4hashIiENS_18_Mod_range_hashingENS_20_Default_ranged_hashENS_20_Prime_rehash_policyENS_17_Hashtable_traitsILb0ELb0ELb1EEELb1EE2atERS2_>
  405130:	b9400018 	ldr	w24, [x0]
  405134:	aa1603e1 	mov	x1, x22
  405138:	aa1503e0 	mov	x0, x21
  40513c:	9400141d 	bl	40a1b0 <_ZNSt8__detail9_Map_baseINSt7__cxx1112basic_stringIcSt11char_traitsIcESaIcEEESt4pairIKS6_iESaIS9_ENS_10_Select1stESt8equal_toIS6_ESt4hashIS6_ENS_18_Mod_range_hashingENS_20_Default_ranged_hashENS_20_Prime_rehash_policyENS_17_Hashtable_traitsILb1ELb0ELb1EEELb1EEixERS8_>
  405140:	aa0003e1 	mov	x1, x0
  405144:	aa1403e0 	mov	x0, x20
  405148:	940013b6 	bl	40a020 <_ZNSt8__detail9_Map_baseIiSt4pairIKiiESaIS3_ENS_10_Select1stESt8equal_toIiESt4hashIiENS_18_Mod_range_hashingENS_20_Default_ranged_hashENS_20_Prime_rehash_policyENS_17_Hashtable_traitsILb0ELb0ELb1EEELb1EE2atERS2_>
  40514c:	b9400000 	ldr	w0, [x0]
  405150:	6b00031f 	cmp	w24, w0
  405154:	540000ad 	b.le	405168 <_ZSt16__introsort_loopIN9__gnu_cxx17__normal_iteratorIPNSt7__cxx1112basic_stringIcSt11char_traitsIcESaIcEEESt6vectorIS7_SaIS7_EEEElNS0_5__ops15_Iter_comp_iterIZN7segment5orderEvEUlRKS7_SH_E_EEEvT_SK_T0_T1_+0x3ec>
  405158:	aa1603e1 	mov	x1, x22
  40515c:	aa1703e0 	mov	x0, x23
  405160:	97fff3c0 	bl	402060 <_ZNSt7__cxx1112basic_stringIcSt11char_traitsIcESaIcEE4swapERS4_@plt>
  405164:	14000064 	b	4052f4 <_ZSt16__introsort_loopIN9__gnu_cxx17__normal_iteratorIPNSt7__cxx1112basic_stringIcSt11char_traitsIcESaIcEEESt6vectorIS7_SaIS7_EEEElNS0_5__ops15_Iter_comp_iterIZN7segment5orderEvEUlRKS7_SH_E_EEEvT_SK_T0_T1_+0x578>
  405168:	aa1303e1 	mov	x1, x19
  40516c:	aa1703e0 	mov	x0, x23
  405170:	97fff3bc 	bl	402060 <_ZNSt7__cxx1112basic_stringIcSt11char_traitsIcESaIcEE4swapERS4_@plt>
  405174:	14000060 	b	4052f4 <_ZSt16__introsort_loopIN9__gnu_cxx17__normal_iteratorIPNSt7__cxx1112basic_stringIcSt11char_traitsIcESaIcEEESt6vectorIS7_SaIS7_EEEElNS0_5__ops15_Iter_comp_iterIZN7segment5orderEvEUlRKS7_SH_E_EEEvT_SK_T0_T1_+0x578>
  405178:	91008339 	add	x25, x25, #0x20
  40517c:	aa1903fa 	mov	x26, x25
  405180:	aa1903e1 	mov	x1, x25
  405184:	aa1503e0 	mov	x0, x21
  405188:	9400140a 	bl	40a1b0 <_ZNSt8__detail9_Map_baseINSt7__cxx1112basic_stringIcSt11char_traitsIcESaIcEEESt4pairIKS6_iESaIS9_ENS_10_Select1stESt8equal_toIS6_ESt4hashIS6_ENS_18_Mod_range_hashingENS_20_Default_ranged_hashENS_20_Prime_rehash_policyENS_17_Hashtable_traitsILb1ELb0ELb1EEELb1EEixERS8_>
  40518c:	aa0003e1 	mov	x1, x0
  405190:	aa1403e0 	mov	x0, x20
  405194:	940013a3 	bl	40a020 <_ZNSt8__detail9_Map_baseIiSt4pairIKiiESaIS3_ENS_10_Select1stESt8equal_toIiESt4hashIiENS_18_Mod_range_hashingENS_20_Default_ranged_hashENS_20_Prime_rehash_policyENS_17_Hashtable_traitsILb0ELb0ELb1EEELb1EE2atERS2_>
  405198:	b9400013 	ldr	w19, [x0]
  40519c:	aa1703e1 	mov	x1, x23
  4051a0:	aa1503e0 	mov	x0, x21
  4051a4:	94001403 	bl	40a1b0 <_ZNSt8__detail9_Map_baseINSt7__cxx1112basic_stringIcSt11char_traitsIcESaIcEEESt4pairIKS6_iESaIS9_ENS_10_Select1stESt8equal_toIS6_ESt4hashIS6_ENS_18_Mod_range_hashingENS_20_Default_ranged_hashENS_20_Prime_rehash_policyENS_17_Hashtable_traitsILb1ELb0ELb1EEELb1EEixERS8_>
  4051a8:	aa0003e1 	mov	x1, x0
  4051ac:	aa1403e0 	mov	x0, x20
  4051b0:	9400139c 	bl	40a020 <_ZNSt8__detail9_Map_baseIiSt4pairIKiiESaIS3_ENS_10_Select1stESt8equal_toIiESt4hashIiENS_18_Mod_range_hashingENS_20_Default_ranged_hashENS_20_Prime_rehash_policyENS_17_Hashtable_traitsILb0ELb0ELb1EEELb1EE2atERS2_>
  4051b4:	b9400000 	ldr	w0, [x0]
  4051b8:	6b00027f 	cmp	w19, w0
  4051bc:	54fffdec 	b.gt	405178 <_ZSt16__introsort_loopIN9__gnu_cxx17__normal_iteratorIPNSt7__cxx1112basic_stringIcSt11char_traitsIcESaIcEEESt6vectorIS7_SaIS7_EEEElNS0_5__ops15_Iter_comp_iterIZN7segment5orderEvEUlRKS7_SH_E_EEEvT_SK_T0_T1_+0x3fc>
  4051c0:	d1008313 	sub	x19, x24, #0x20
  4051c4:	aa1303f8 	mov	x24, x19
  4051c8:	aa1703e1 	mov	x1, x23
  4051cc:	aa1503e0 	mov	x0, x21
  4051d0:	940013f8 	bl	40a1b0 <_ZNSt8__detail9_Map_baseINSt7__cxx1112basic_stringIcSt11char_traitsIcESaIcEEESt4pairIKS6_iESaIS9_ENS_10_Select1stESt8equal_toIS6_ESt4hashIS6_ENS_18_Mod_range_hashingENS_20_Default_ranged_hashENS_20_Prime_rehash_policyENS_17_Hashtable_traitsILb1ELb0ELb1EEELb1EEixERS8_>
  4051d4:	aa0003e1 	mov	x1, x0
  4051d8:	aa1403e0 	mov	x0, x20
  4051dc:	94001391 	bl	40a020 <_ZNSt8__detail9_Map_baseIiSt4pairIKiiESaIS3_ENS_10_Select1stESt8equal_toIiESt4hashIiENS_18_Mod_range_hashingENS_20_Default_ranged_hashENS_20_Prime_rehash_policyENS_17_Hashtable_traitsILb0ELb0ELb1EEELb1EE2atERS2_>
  4051e0:	b9400016 	ldr	w22, [x0]
  4051e4:	aa1303e1 	mov	x1, x19
  4051e8:	aa1503e0 	mov	x0, x21
  4051ec:	940013f1 	bl	40a1b0 <_ZNSt8__detail9_Map_baseINSt7__cxx1112basic_stringIcSt11char_traitsIcESaIcEEESt4pairIKS6_iESaIS9_ENS_10_Select1stESt8equal_toIS6_ESt4hashIS6_ENS_18_Mod_range_hashingENS_20_Default_ranged_hashENS_20_Prime_rehash_policyENS_17_Hashtable_traitsILb1ELb0ELb1EEELb1EEixERS8_>
  4051f0:	aa0003e1 	mov	x1, x0
  4051f4:	aa1403e0 	mov	x0, x20
  4051f8:	9400138a 	bl	40a020 <_ZNSt8__detail9_Map_baseIiSt4pairIKiiESaIS3_ENS_10_Select1stESt8equal_toIiESt4hashIiENS_18_Mod_range_hashingENS_20_Default_ranged_hashENS_20_Prime_rehash_policyENS_17_Hashtable_traitsILb0ELb0ELb1EEELb1EE2atERS2_>
  4051fc:	d1008273 	sub	x19, x19, #0x20
  405200:	b9400000 	ldr	w0, [x0]
  405204:	6b0002df 	cmp	w22, w0
  405208:	54fffdec 	b.gt	4051c4 <_ZSt16__introsort_loopIN9__gnu_cxx17__normal_iteratorIPNSt7__cxx1112basic_stringIcSt11char_traitsIcESaIcEEESt6vectorIS7_SaIS7_EEEElNS0_5__ops15_Iter_comp_iterIZN7segment5orderEvEUlRKS7_SH_E_EEEvT_SK_T0_T1_+0x448>
  40520c:	eb18035f 	cmp	x26, x24
  405210:	540000a2 	b.cs	405224 <_ZSt16__introsort_loopIN9__gnu_cxx17__normal_iteratorIPNSt7__cxx1112basic_stringIcSt11char_traitsIcESaIcEEESt6vectorIS7_SaIS7_EEEElNS0_5__ops15_Iter_comp_iterIZN7segment5orderEvEUlRKS7_SH_E_EEEvT_SK_T0_T1_+0x4a8>  // b.hs, b.nlast
  405214:	aa1803e1 	mov	x1, x24
  405218:	aa1a03e0 	mov	x0, x26
  40521c:	97fff391 	bl	402060 <_ZNSt7__cxx1112basic_stringIcSt11char_traitsIcESaIcEE4swapERS4_@plt>
  405220:	17ffffd6 	b	405178 <_ZSt16__introsort_loopIN9__gnu_cxx17__normal_iteratorIPNSt7__cxx1112basic_stringIcSt11char_traitsIcESaIcEEESt6vectorIS7_SaIS7_EEEElNS0_5__ops15_Iter_comp_iterIZN7segment5orderEvEUlRKS7_SH_E_EEEvT_SK_T0_T1_+0x3fc>
  405224:	f94037e3 	ldr	x3, [sp, #104]
  405228:	aa1c03e2 	mov	x2, x28
  40522c:	aa1b03e1 	mov	x1, x27
  405230:	aa1a03e0 	mov	x0, x26
  405234:	97fffed2 	bl	404d7c <_ZSt16__introsort_loopIN9__gnu_cxx17__normal_iteratorIPNSt7__cxx1112basic_stringIcSt11char_traitsIcESaIcEEESt6vectorIS7_SaIS7_EEEElNS0_5__ops15_Iter_comp_iterIZN7segment5orderEvEUlRKS7_SH_E_EEEvT_SK_T0_T1_>
  405238:	cb170340 	sub	x0, x26, x23
  40523c:	f108001f 	cmp	x0, #0x200
  405240:	5400060d 	b.le	405300 <_ZSt16__introsort_loopIN9__gnu_cxx17__normal_iteratorIPNSt7__cxx1112basic_stringIcSt11char_traitsIcESaIcEEESt6vectorIS7_SaIS7_EEEElNS0_5__ops15_Iter_comp_iterIZN7segment5orderEvEUlRKS7_SH_E_EEEvT_SK_T0_T1_+0x584>
  405244:	b40006bc 	cbz	x28, 405318 <_ZSt16__introsort_loopIN9__gnu_cxx17__normal_iteratorIPNSt7__cxx1112basic_stringIcSt11char_traitsIcESaIcEEESt6vectorIS7_SaIS7_EEEElNS0_5__ops15_Iter_comp_iterIZN7segment5orderEvEUlRKS7_SH_E_EEEvT_SK_T0_T1_+0x59c>
  405248:	aa1a03fb 	mov	x27, x26
  40524c:	d100079c 	sub	x28, x28, #0x1
  405250:	cb170360 	sub	x0, x27, x23
  405254:	d37ffc01 	lsr	x1, x0, #63
  405258:	8b801433 	add	x19, x1, x0, asr #5
  40525c:	9341fe73 	asr	x19, x19, #1
  405260:	8b1316f3 	add	x19, x23, x19, lsl #5
  405264:	d1008376 	sub	x22, x27, #0x20
  405268:	f94033e1 	ldr	x1, [sp, #96]
  40526c:	aa1503e0 	mov	x0, x21
  405270:	940013d0 	bl	40a1b0 <_ZNSt8__detail9_Map_baseINSt7__cxx1112basic_stringIcSt11char_traitsIcESaIcEEESt4pairIKS6_iESaIS9_ENS_10_Select1stESt8equal_toIS6_ESt4hashIS6_ENS_18_Mod_range_hashingENS_20_Default_ranged_hashENS_20_Prime_rehash_policyENS_17_Hashtable_traitsILb1ELb0ELb1EEELb1EEixERS8_>
  405274:	aa0003e1 	mov	x1, x0
  405278:	aa1403e0 	mov	x0, x20
  40527c:	94001369 	bl	40a020 <_ZNSt8__detail9_Map_baseIiSt4pairIKiiESaIS3_ENS_10_Select1stESt8equal_toIiESt4hashIiENS_18_Mod_range_hashingENS_20_Default_ranged_hashENS_20_Prime_rehash_policyENS_17_Hashtable_traitsILb0ELb0ELb1EEELb1EE2atERS2_>
  405280:	b9400018 	ldr	w24, [x0]
  405284:	aa1303e1 	mov	x1, x19
  405288:	aa1503e0 	mov	x0, x21
  40528c:	940013c9 	bl	40a1b0 <_ZNSt8__detail9_Map_baseINSt7__cxx1112basic_stringIcSt11char_traitsIcESaIcEEESt4pairIKS6_iESaIS9_ENS_10_Select1stESt8equal_toIS6_ESt4hashIS6_ENS_18_Mod_range_hashingENS_20_Default_ranged_hashENS_20_Prime_rehash_policyENS_17_Hashtable_traitsILb1ELb0ELb1EEELb1EEixERS8_>
  405290:	aa0003e1 	mov	x1, x0
  405294:	aa1403e0 	mov	x0, x20
  405298:	94001362 	bl	40a020 <_ZNSt8__detail9_Map_baseIiSt4pairIKiiESaIS3_ENS_10_Select1stESt8equal_toIiESt4hashIiENS_18_Mod_range_hashingENS_20_Default_ranged_hashENS_20_Prime_rehash_policyENS_17_Hashtable_traitsILb0ELb0ELb1EEELb1EE2atERS2_>
  40529c:	b9400000 	ldr	w0, [x0]
  4052a0:	6b00031f 	cmp	w24, w0
  4052a4:	54fff10d 	b.le	4050c4 <_ZSt16__introsort_loopIN9__gnu_cxx17__normal_iteratorIPNSt7__cxx1112basic_stringIcSt11char_traitsIcESaIcEEESt6vectorIS7_SaIS7_EEEElNS0_5__ops15_Iter_comp_iterIZN7segment5orderEvEUlRKS7_SH_E_EEEvT_SK_T0_T1_+0x348>
  4052a8:	aa1303e1 	mov	x1, x19
  4052ac:	aa1503e0 	mov	x0, x21
  4052b0:	940013c0 	bl	40a1b0 <_ZNSt8__detail9_Map_baseINSt7__cxx1112basic_stringIcSt11char_traitsIcESaIcEEESt4pairIKS6_iESaIS9_ENS_10_Select1stESt8equal_toIS6_ESt4hashIS6_ENS_18_Mod_range_hashingENS_20_Default_ranged_hashENS_20_Prime_rehash_policyENS_17_Hashtable_traitsILb1ELb0ELb1EEELb1EEixERS8_>
  4052b4:	aa0003e1 	mov	x1, x0
  4052b8:	aa1403e0 	mov	x0, x20
  4052bc:	94001359 	bl	40a020 <_ZNSt8__detail9_Map_baseIiSt4pairIKiiESaIS3_ENS_10_Select1stESt8equal_toIiESt4hashIiENS_18_Mod_range_hashingENS_20_Default_ranged_hashENS_20_Prime_rehash_policyENS_17_Hashtable_traitsILb0ELb0ELb1EEELb1EE2atERS2_>
  4052c0:	b9400018 	ldr	w24, [x0]
  4052c4:	aa1603e1 	mov	x1, x22
  4052c8:	aa1503e0 	mov	x0, x21
  4052cc:	940013b9 	bl	40a1b0 <_ZNSt8__detail9_Map_baseINSt7__cxx1112basic_stringIcSt11char_traitsIcESaIcEEESt4pairIKS6_iESaIS9_ENS_10_Select1stESt8equal_toIS6_ESt4hashIS6_ENS_18_Mod_range_hashingENS_20_Default_ranged_hashENS_20_Prime_rehash_policyENS_17_Hashtable_traitsILb1ELb0ELb1EEELb1EEixERS8_>
  4052d0:	aa0003e1 	mov	x1, x0
  4052d4:	aa1403e0 	mov	x0, x20
  4052d8:	94001352 	bl	40a020 <_ZNSt8__detail9_Map_baseIiSt4pairIKiiESaIS3_ENS_10_Select1stESt8equal_toIiESt4hashIiENS_18_Mod_range_hashingENS_20_Default_ranged_hashENS_20_Prime_rehash_policyENS_17_Hashtable_traitsILb0ELb0ELb1EEELb1EE2atERS2_>
  4052dc:	b9400000 	ldr	w0, [x0]
  4052e0:	6b00031f 	cmp	w24, w0
  4052e4:	54ffec0d 	b.le	405064 <_ZSt16__introsort_loopIN9__gnu_cxx17__normal_iteratorIPNSt7__cxx1112basic_stringIcSt11char_traitsIcESaIcEEESt6vectorIS7_SaIS7_EEEElNS0_5__ops15_Iter_comp_iterIZN7segment5orderEvEUlRKS7_SH_E_EEEvT_SK_T0_T1_+0x2e8>
  4052e8:	aa1303e1 	mov	x1, x19
  4052ec:	aa1703e0 	mov	x0, x23
  4052f0:	97fff35c 	bl	402060 <_ZNSt7__cxx1112basic_stringIcSt11char_traitsIcESaIcEE4swapERS4_@plt>
  4052f4:	f94033f9 	ldr	x25, [sp, #96]
  4052f8:	aa1b03f8 	mov	x24, x27
  4052fc:	17ffffa0 	b	40517c <_ZSt16__introsort_loopIN9__gnu_cxx17__normal_iteratorIPNSt7__cxx1112basic_stringIcSt11char_traitsIcESaIcEEESt6vectorIS7_SaIS7_EEEElNS0_5__ops15_Iter_comp_iterIZN7segment5orderEvEUlRKS7_SH_E_EEEvT_SK_T0_T1_+0x400>
  405300:	a94153f3 	ldp	x19, x20, [sp, #16]
  405304:	a9425bf5 	ldp	x21, x22, [sp, #32]
  405308:	a9446bf9 	ldp	x25, x26, [sp, #64]
  40530c:	a94573fb 	ldp	x27, x28, [sp, #80]
  405310:	17ffff4b 	b	40503c <_ZSt16__introsort_loopIN9__gnu_cxx17__normal_iteratorIPNSt7__cxx1112basic_stringIcSt11char_traitsIcESaIcEEESt6vectorIS7_SaIS7_EEEElNS0_5__ops15_Iter_comp_iterIZN7segment5orderEvEUlRKS7_SH_E_EEEvT_SK_T0_T1_+0x2c0>
  405314:	aa0103fa 	mov	x26, x1
  405318:	cb170358 	sub	x24, x26, x23
  40531c:	9345ff18 	asr	x24, x24, #5
  405320:	d1000b00 	sub	x0, x24, #0x2
  405324:	8b40fc00 	add	x0, x0, x0, lsr #63
  405328:	9341fc14 	asr	x20, x0, #1
  40532c:	8b1416f3 	add	x19, x23, x20, lsl #5
  405330:	91004273 	add	x19, x19, #0x10
  405334:	910203f5 	add	x21, sp, #0x80
  405338:	910283f6 	add	x22, sp, #0xa0
  40533c:	17fffeb9 	b	404e20 <_ZSt16__introsort_loopIN9__gnu_cxx17__normal_iteratorIPNSt7__cxx1112basic_stringIcSt11char_traitsIcESaIcEEESt6vectorIS7_SaIS7_EEEElNS0_5__ops15_Iter_comp_iterIZN7segment5orderEvEUlRKS7_SH_E_EEEvT_SK_T0_T1_+0xa4>

0000000000405340 <_ZN7segment5orderEv>:
  405340:	a9b87bfd 	stp	x29, x30, [sp, #-128]!
  405344:	910003fd 	mov	x29, sp
  405348:	a90153f3 	stp	x19, x20, [sp, #16]
  40534c:	a9025bf5 	stp	x21, x22, [sp, #32]
  405350:	a90363f7 	stp	x23, x24, [sp, #48]
  405354:	f90023f9 	str	x25, [sp, #64]
  405358:	aa0003f3 	mov	x19, x0
  40535c:	f9402814 	ldr	x20, [x0, #80]
  405360:	b4000534 	cbz	x20, 405404 <_ZN7segment5orderEv+0xc4>
  405364:	9101a3f6 	add	x22, sp, #0x68
  405368:	1400000c 	b	405398 <_ZN7segment5orderEv+0x58>
  40536c:	f9400a60 	ldr	x0, [x19, #16]
  405370:	91008000 	add	x0, x0, #0x20
  405374:	f9000a60 	str	x0, [x19, #16]
  405378:	f9402fe0 	ldr	x0, [sp, #88]
  40537c:	eb16001f 	cmp	x0, x22
  405380:	54000080 	b.eq	405390 <_ZN7segment5orderEv+0x50>  // b.none
  405384:	f94037e1 	ldr	x1, [sp, #104]
  405388:	91000421 	add	x1, x1, #0x1
  40538c:	97fff34d 	bl	4020c0 <_ZdlPvm@plt>
  405390:	f9400294 	ldr	x20, [x20]
  405394:	b4000394 	cbz	x20, 405404 <_ZN7segment5orderEv+0xc4>
  405398:	f9002ff6 	str	x22, [sp, #88]
  40539c:	91002295 	add	x21, x20, #0x8
  4053a0:	f9400681 	ldr	x1, [x20, #8]
  4053a4:	f94006a2 	ldr	x2, [x21, #8]
  4053a8:	52800003 	mov	w3, #0x0                   	// #0
  4053ac:	8b020022 	add	x2, x1, x2
  4053b0:	910163e0 	add	x0, sp, #0x58
  4053b4:	94001228 	bl	409c54 <_ZNSt7__cxx1112basic_stringIcSt11char_traitsIcESaIcEE12_M_constructIPcEEvT_S7_St20forward_iterator_tag>
  4053b8:	b94022a0 	ldr	w0, [x21, #32]
  4053bc:	b9007be0 	str	w0, [sp, #120]
  4053c0:	f9400a60 	ldr	x0, [x19, #16]
  4053c4:	f9400e61 	ldr	x1, [x19, #24]
  4053c8:	eb01001f 	cmp	x0, x1
  4053cc:	54000120 	b.eq	4053f0 <_ZN7segment5orderEv+0xb0>  // b.none
  4053d0:	91004001 	add	x1, x0, #0x10
  4053d4:	f9000001 	str	x1, [x0]
  4053d8:	f9402fe1 	ldr	x1, [sp, #88]
  4053dc:	52800003 	mov	w3, #0x0                   	// #0
  4053e0:	f94033e2 	ldr	x2, [sp, #96]
  4053e4:	8b020022 	add	x2, x1, x2
  4053e8:	9400121b 	bl	409c54 <_ZNSt7__cxx1112basic_stringIcSt11char_traitsIcESaIcEE12_M_constructIPcEEvT_S7_St20forward_iterator_tag>
  4053ec:	17ffffe0 	b	40536c <_ZN7segment5orderEv+0x2c>
  4053f0:	910163e2 	add	x2, sp, #0x58
  4053f4:	aa0003e1 	mov	x1, x0
  4053f8:	91002260 	add	x0, x19, #0x8
  4053fc:	9400123f 	bl	409cf8 <_ZNSt6vectorINSt7__cxx1112basic_stringIcSt11char_traitsIcESaIcEEESaIS5_EE17_M_realloc_insertIJRS5_EEEvN9__gnu_cxx17__normal_iteratorIPS5_S7_EEDpOT_>
  405400:	17ffffde 	b	405378 <_ZN7segment5orderEv+0x38>
  405404:	f9400676 	ldr	x22, [x19, #8]
  405408:	f9400a75 	ldr	x21, [x19, #16]
  40540c:	eb1602bf 	cmp	x21, x22
  405410:	54000e00 	b.eq	4055d0 <_ZN7segment5orderEv+0x290>  // b.none
  405414:	cb1602b4 	sub	x20, x21, x22
  405418:	9345fe80 	asr	x0, x20, #5
  40541c:	dac01000 	clz	x0, x0
  405420:	528007e2 	mov	w2, #0x3f                  	// #63
  405424:	4b000042 	sub	w2, w2, w0
  405428:	aa1303e3 	mov	x3, x19
  40542c:	937f7c42 	sbfiz	x2, x2, #1, #32
  405430:	aa1503e1 	mov	x1, x21
  405434:	aa1603e0 	mov	x0, x22
  405438:	97fffe51 	bl	404d7c <_ZSt16__introsort_loopIN9__gnu_cxx17__normal_iteratorIPNSt7__cxx1112basic_stringIcSt11char_traitsIcESaIcEEESt6vectorIS7_SaIS7_EEEElNS0_5__ops15_Iter_comp_iterIZN7segment5orderEvEUlRKS7_SH_E_EEEvT_SK_T0_T1_>
  40543c:	f108029f 	cmp	x20, #0x200
  405440:	540001ed 	b.le	40547c <_ZN7segment5orderEv+0x13c>
  405444:	910802d4 	add	x20, x22, #0x200
  405448:	aa1303e2 	mov	x2, x19
  40544c:	aa1403e1 	mov	x1, x20
  405450:	aa1603e0 	mov	x0, x22
  405454:	97fffda0 	bl	404ad4 <_ZSt16__insertion_sortIN9__gnu_cxx17__normal_iteratorIPNSt7__cxx1112basic_stringIcSt11char_traitsIcESaIcEEESt6vectorIS7_SaIS7_EEEENS0_5__ops15_Iter_comp_iterIZN7segment5orderEvEUlRKS7_SH_E_EEEvT_SK_T0_>
  405458:	eb1402bf 	cmp	x21, x20
  40545c:	54000180 	b.eq	40548c <_ZN7segment5orderEv+0x14c>  // b.none
  405460:	aa1303e1 	mov	x1, x19
  405464:	aa1403e0 	mov	x0, x20
  405468:	97fffbd4 	bl	4043b8 <_ZSt25__unguarded_linear_insertIN9__gnu_cxx17__normal_iteratorIPNSt7__cxx1112basic_stringIcSt11char_traitsIcESaIcEEESt6vectorIS7_SaIS7_EEEENS0_5__ops14_Val_comp_iterIZN7segment5orderEvEUlRKS7_SH_E_EEEvT_T0_>
  40546c:	91008294 	add	x20, x20, #0x20
  405470:	eb1402bf 	cmp	x21, x20
  405474:	54ffff61 	b.ne	405460 <_ZN7segment5orderEv+0x120>  // b.any
  405478:	14000005 	b	40548c <_ZN7segment5orderEv+0x14c>
  40547c:	aa1303e2 	mov	x2, x19
  405480:	aa1503e1 	mov	x1, x21
  405484:	aa1603e0 	mov	x0, x22
  405488:	97fffd93 	bl	404ad4 <_ZSt16__insertion_sortIN9__gnu_cxx17__normal_iteratorIPNSt7__cxx1112basic_stringIcSt11char_traitsIcESaIcEEESt6vectorIS7_SaIS7_EEEENS0_5__ops15_Iter_comp_iterIZN7segment5orderEvEUlRKS7_SH_E_EEEvT_SK_T0_>
  40548c:	f9400674 	ldr	x20, [x19, #8]
  405490:	f9400a78 	ldr	x24, [x19, #16]
  405494:	eb14031f 	cmp	x24, x20
  405498:	540009c0 	b.eq	4055d0 <_ZN7segment5orderEv+0x290>  // b.none
  40549c:	91008277 	add	x23, x19, #0x20
  4054a0:	91010275 	add	x21, x19, #0x40
  4054a4:	9101e276 	add	x22, x19, #0x78
  4054a8:	aa1403e1 	mov	x1, x20
  4054ac:	aa1503e0 	mov	x0, x21
  4054b0:	94001340 	bl	40a1b0 <_ZNSt8__detail9_Map_baseINSt7__cxx1112basic_stringIcSt11char_traitsIcESaIcEEESt4pairIKS6_iESaIS9_ENS_10_Select1stESt8equal_toIS6_ESt4hashIS6_ENS_18_Mod_range_hashingENS_20_Default_ranged_hashENS_20_Prime_rehash_policyENS_17_Hashtable_traitsILb1ELb0ELb1EEELb1EEixERS8_>
  4054b4:	aa0003e1 	mov	x1, x0
  4054b8:	aa1603e0 	mov	x0, x22
  4054bc:	940012d9 	bl	40a020 <_ZNSt8__detail9_Map_baseIiSt4pairIKiiESaIS3_ENS_10_Select1stESt8equal_toIiESt4hashIiENS_18_Mod_range_hashingENS_20_Default_ranged_hashENS_20_Prime_rehash_policyENS_17_Hashtable_traitsILb0ELb0ELb1EEELb1EE2atERS2_>
  4054c0:	aa0003e1 	mov	x1, x0
  4054c4:	aa1703e0 	mov	x0, x23
  4054c8:	940010c5 	bl	4097dc <_ZNSt6vectorIiSaIiEE12emplace_backIJRiEEEvDpOT_>
  4054cc:	aa1403e1 	mov	x1, x20
  4054d0:	aa1503e0 	mov	x0, x21
  4054d4:	94001337 	bl	40a1b0 <_ZNSt8__detail9_Map_baseINSt7__cxx1112basic_stringIcSt11char_traitsIcESaIcEEESt4pairIKS6_iESaIS9_ENS_10_Select1stESt8equal_toIS6_ESt4hashIS6_ENS_18_Mod_range_hashingENS_20_Default_ranged_hashENS_20_Prime_rehash_policyENS_17_Hashtable_traitsILb1ELb0ELb1EEELb1EEixERS8_>
  4054d8:	aa0003e1 	mov	x1, x0
  4054dc:	aa1603e0 	mov	x0, x22
  4054e0:	940012d0 	bl	40a020 <_ZNSt8__detail9_Map_baseIiSt4pairIKiiESaIS3_ENS_10_Select1stESt8equal_toIiESt4hashIiENS_18_Mod_range_hashingENS_20_Default_ranged_hashENS_20_Prime_rehash_policyENS_17_Hashtable_traitsILb0ELb0ELb1EEELb1EE2atERS2_>
  4054e4:	b9403a61 	ldr	w1, [x19, #56]
  4054e8:	b9400000 	ldr	w0, [x0]
  4054ec:	0b000021 	add	w1, w1, w0
  4054f0:	b9003a61 	str	w1, [x19, #56]
  4054f4:	91008294 	add	x20, x20, #0x20
  4054f8:	eb14031f 	cmp	x24, x20
  4054fc:	54fffd61 	b.ne	4054a8 <_ZN7segment5orderEv+0x168>  // b.any
  405500:	f9400674 	ldr	x20, [x19, #8]
  405504:	f9400a79 	ldr	x25, [x19, #16]
  405508:	eb14033f 	cmp	x25, x20
  40550c:	54000620 	b.eq	4055d0 <_ZN7segment5orderEv+0x290>  // b.none
  405510:	9101a3f8 	add	x24, sp, #0x68
  405514:	1400001a 	b	40557c <_ZN7segment5orderEv+0x23c>
  405518:	aa0003e1 	mov	x1, x0
  40551c:	aa1603e0 	mov	x0, x22
  405520:	940012c0 	bl	40a020 <_ZNSt8__detail9_Map_baseIiSt4pairIKiiESaIS3_ENS_10_Select1stESt8equal_toIiESt4hashIiENS_18_Mod_range_hashingENS_20_Default_ranged_hashENS_20_Prime_rehash_policyENS_17_Hashtable_traitsILb0ELb0ELb1EEELb1EE2atERS2_>
  405524:	aa0003e1 	mov	x1, x0
  405528:	aa1703e0 	mov	x0, x23
  40552c:	940010ac 	bl	4097dc <_ZNSt6vectorIiSaIiEE12emplace_backIJRiEEEvDpOT_>
  405530:	910163e1 	add	x1, sp, #0x58
  405534:	aa1503e0 	mov	x0, x21
  405538:	9400131e 	bl	40a1b0 <_ZNSt8__detail9_Map_baseINSt7__cxx1112basic_stringIcSt11char_traitsIcESaIcEEESt4pairIKS6_iESaIS9_ENS_10_Select1stESt8equal_toIS6_ESt4hashIS6_ENS_18_Mod_range_hashingENS_20_Default_ranged_hashENS_20_Prime_rehash_policyENS_17_Hashtable_traitsILb1ELb0ELb1EEELb1EEixERS8_>
  40553c:	aa0003e1 	mov	x1, x0
  405540:	aa1603e0 	mov	x0, x22
  405544:	940012b7 	bl	40a020 <_ZNSt8__detail9_Map_baseIiSt4pairIKiiESaIS3_ENS_10_Select1stESt8equal_toIiESt4hashIiENS_18_Mod_range_hashingENS_20_Default_ranged_hashENS_20_Prime_rehash_policyENS_17_Hashtable_traitsILb0ELb0ELb1EEELb1EE2atERS2_>
  405548:	b9403a61 	ldr	w1, [x19, #56]
  40554c:	b9400000 	ldr	w0, [x0]
  405550:	0b000021 	add	w1, w1, w0
  405554:	b9003a61 	str	w1, [x19, #56]
  405558:	f9402fe0 	ldr	x0, [sp, #88]
  40555c:	eb18001f 	cmp	x0, x24
  405560:	54000080 	b.eq	405570 <_ZN7segment5orderEv+0x230>  // b.none
  405564:	f94037e1 	ldr	x1, [sp, #104]
  405568:	91000421 	add	x1, x1, #0x1
  40556c:	97fff2d5 	bl	4020c0 <_ZdlPvm@plt>
  405570:	91008294 	add	x20, x20, #0x20
  405574:	eb14033f 	cmp	x25, x20
  405578:	540002c0 	b.eq	4055d0 <_ZN7segment5orderEv+0x290>  // b.none
  40557c:	f9002ff8 	str	x24, [sp, #88]
  405580:	f9400281 	ldr	x1, [x20]
  405584:	f9400682 	ldr	x2, [x20, #8]
  405588:	52800003 	mov	w3, #0x0                   	// #0
  40558c:	8b020022 	add	x2, x1, x2
  405590:	910163e0 	add	x0, sp, #0x58
  405594:	940011b0 	bl	409c54 <_ZNSt7__cxx1112basic_stringIcSt11char_traitsIcESaIcEE12_M_constructIPcEEvT_S7_St20forward_iterator_tag>
  405598:	910163e1 	add	x1, sp, #0x58
  40559c:	aa1503e0 	mov	x0, x21
  4055a0:	94001304 	bl	40a1b0 <_ZNSt8__detail9_Map_baseINSt7__cxx1112basic_stringIcSt11char_traitsIcESaIcEEESt4pairIKS6_iESaIS9_ENS_10_Select1stESt8equal_toIS6_ESt4hashIS6_ENS_18_Mod_range_hashingENS_20_Default_ranged_hashENS_20_Prime_rehash_policyENS_17_Hashtable_traitsILb1ELb0ELb1EEELb1EEixERS8_>
  4055a4:	17ffffdd 	b	405518 <_ZN7segment5orderEv+0x1d8>
  4055a8:	aa0003f3 	mov	x19, x0
  4055ac:	910163e0 	add	x0, sp, #0x58
  4055b0:	97fff2d8 	bl	402110 <_ZNSt7__cxx1112basic_stringIcSt11char_traitsIcESaIcEE10_M_disposeEv@plt>
  4055b4:	aa1303e0 	mov	x0, x19
  4055b8:	97fff32a 	bl	402260 <_Unwind_Resume@plt>
  4055bc:	aa0003f3 	mov	x19, x0
  4055c0:	910163e0 	add	x0, sp, #0x58
  4055c4:	97fff2d3 	bl	402110 <_ZNSt7__cxx1112basic_stringIcSt11char_traitsIcESaIcEE10_M_disposeEv@plt>
  4055c8:	aa1303e0 	mov	x0, x19
  4055cc:	97fff325 	bl	402260 <_Unwind_Resume@plt>
  4055d0:	a94153f3 	ldp	x19, x20, [sp, #16]
  4055d4:	a9425bf5 	ldp	x21, x22, [sp, #32]
  4055d8:	a94363f7 	ldp	x23, x24, [sp, #48]
  4055dc:	f94023f9 	ldr	x25, [sp, #64]
  4055e0:	a8c87bfd 	ldp	x29, x30, [sp], #128
  4055e4:	d65f03c0 	ret

00000000004055e8 <_ZN2PT7PrintPTEv>:
  4055e8:	a9b17bfd 	stp	x29, x30, [sp, #-240]!
  4055ec:	910003fd 	mov	x29, sp
  4055f0:	a9025bf5 	stp	x21, x22, [sp, #32]
  4055f4:	f9400015 	ldr	x21, [x0]
  4055f8:	f9400416 	ldr	x22, [x0, #8]
  4055fc:	eb1602bf 	cmp	x21, x22
  405600:	540005e0 	b.eq	4056bc <_ZN2PT7PrintPTEv+0xd4>  // b.none
  405604:	a90153f3 	stp	x19, x20, [sp, #16]
  405608:	a90363f7 	stp	x23, x24, [sp, #48]
  40560c:	910103e0 	add	x0, sp, #0x40
  405610:	9102e3f8 	add	x24, sp, #0xb8
  405614:	91010017 	add	x23, x0, #0x40
  405618:	14000016 	b	405670 <_ZN2PT7PrintPTEv+0x88>
  40561c:	aa1803e0 	mov	x0, x24
  405620:	97fff897 	bl	40387c <_ZNSt10_HashtableIiSt4pairIKiiESaIS2_ENSt8__detail10_Select1stESt8equal_toIiESt4hashIiENS4_18_Mod_range_hashingENS4_20_Default_ranged_hashENS4_20_Prime_rehash_policyENS4_17_Hashtable_traitsILb0ELb0ELb1EEEED1Ev>
  405624:	aa1703e0 	mov	x0, x23
  405628:	97fff86c 	bl	4037d8 <_ZNSt10_HashtableINSt7__cxx1112basic_stringIcSt11char_traitsIcESaIcEEESt4pairIKS5_iESaIS8_ENSt8__detail10_Select1stESt8equal_toIS5_ESt4hashIS5_ENSA_18_Mod_range_hashingENSA_20_Default_ranged_hashENSA_20_Prime_rehash_policyENSA_17_Hashtable_traitsILb1ELb0ELb1EEEED1Ev>
  40562c:	f94033e0 	ldr	x0, [sp, #96]
  405630:	b4000080 	cbz	x0, 405640 <_ZN2PT7PrintPTEv+0x58>
  405634:	f9403be1 	ldr	x1, [sp, #112]
  405638:	cb000021 	sub	x1, x1, x0
  40563c:	97fff2a1 	bl	4020c0 <_ZdlPvm@plt>
  405640:	f94027f3 	ldr	x19, [sp, #72]
  405644:	f9402bf4 	ldr	x20, [sp, #80]
  405648:	eb14027f 	cmp	x19, x20
  40564c:	54000241 	b.ne	405694 <_ZN2PT7PrintPTEv+0xac>  // b.any
  405650:	f94027e0 	ldr	x0, [sp, #72]
  405654:	b4000080 	cbz	x0, 405664 <_ZN2PT7PrintPTEv+0x7c>
  405658:	f9402fe1 	ldr	x1, [sp, #88]
  40565c:	cb000021 	sub	x1, x1, x0
  405660:	97fff298 	bl	4020c0 <_ZdlPvm@plt>
  405664:	9102c2b5 	add	x21, x21, #0xb0
  405668:	eb1502df 	cmp	x22, x21
  40566c:	54000240 	b.eq	4056b4 <_ZN2PT7PrintPTEv+0xcc>  // b.none
  405670:	aa1503e1 	mov	x1, x21
  405674:	910103e0 	add	x0, sp, #0x40
  405678:	94001403 	bl	40a684 <_ZN7segmentC1ERKS_>
  40567c:	910103e0 	add	x0, sp, #0x40
  405680:	97fffb1d 	bl	4042f4 <_ZN7segment8PrintSegEv>
  405684:	17ffffe6 	b	40561c <_ZN2PT7PrintPTEv+0x34>
  405688:	91008273 	add	x19, x19, #0x20
  40568c:	eb13029f 	cmp	x20, x19
  405690:	54fffe00 	b.eq	405650 <_ZN2PT7PrintPTEv+0x68>  // b.none
  405694:	aa1303e1 	mov	x1, x19
  405698:	f8410420 	ldr	x0, [x1], #16
  40569c:	eb01001f 	cmp	x0, x1
  4056a0:	54ffff40 	b.eq	405688 <_ZN2PT7PrintPTEv+0xa0>  // b.none
  4056a4:	f9400a61 	ldr	x1, [x19, #16]
  4056a8:	91000421 	add	x1, x1, #0x1
  4056ac:	97fff285 	bl	4020c0 <_ZdlPvm@plt>
  4056b0:	17fffff6 	b	405688 <_ZN2PT7PrintPTEv+0xa0>
  4056b4:	a94153f3 	ldp	x19, x20, [sp, #16]
  4056b8:	a94363f7 	ldp	x23, x24, [sp, #48]
  4056bc:	a9425bf5 	ldp	x21, x22, [sp, #32]
  4056c0:	a8cf7bfd 	ldp	x29, x30, [sp], #240
  4056c4:	d65f03c0 	ret
  4056c8:	aa0003f3 	mov	x19, x0
  4056cc:	910103e0 	add	x0, sp, #0x40
  4056d0:	940010c7 	bl	4099ec <_ZN7segmentD1Ev>
  4056d4:	aa1303e0 	mov	x0, x19
  4056d8:	97fff2e2 	bl	402260 <_Unwind_Resume@plt>

00000000004056dc <_ZN7segment6insertENSt7__cxx1112basic_stringIcSt11char_traitsIcESaIcEEE>:
  4056dc:	a9bd7bfd 	stp	x29, x30, [sp, #-48]!
  4056e0:	910003fd 	mov	x29, sp
  4056e4:	a90153f3 	stp	x19, x20, [sp, #16]
  4056e8:	a9025bf5 	stp	x21, x22, [sp, #32]
  4056ec:	aa0003f5 	mov	x21, x0
  4056f0:	aa0103f3 	mov	x19, x1
  4056f4:	91010014 	add	x20, x0, #0x40
  4056f8:	d28d20e2 	mov	x2, #0x6907                	// #26887
  4056fc:	f2b8e1e2 	movk	x2, #0xc70f, lsl #16
  405700:	f9400421 	ldr	x1, [x1, #8]
  405704:	f9400260 	ldr	x0, [x19]
  405708:	97fff20a 	bl	401f30 <_ZSt11_Hash_bytesPKvmm@plt>
  40570c:	aa0003e3 	mov	x3, x0
  405710:	f9400681 	ldr	x1, [x20, #8]
  405714:	9ac10804 	udiv	x4, x0, x1
  405718:	aa1303e2 	mov	x2, x19
  40571c:	9b018081 	msub	x1, x4, x1, x0
  405720:	aa1403e0 	mov	x0, x20
  405724:	940011f5 	bl	409ef8 <_ZNKSt10_HashtableINSt7__cxx1112basic_stringIcSt11char_traitsIcESaIcEEESt4pairIKS5_iESaIS8_ENSt8__detail10_Select1stESt8equal_toIS5_ESt4hashIS5_ENSA_18_Mod_range_hashingENSA_20_Default_ranged_hashENSA_20_Prime_rehash_policyENSA_17_Hashtable_traitsILb1ELb0ELb1EEEE19_M_find_before_nodeEmRS7_m>
  405728:	b4000200 	cbz	x0, 405768 <_ZN7segment6insertENSt7__cxx1112basic_stringIcSt11char_traitsIcESaIcEEE+0x8c>
  40572c:	f9400000 	ldr	x0, [x0]
  405730:	b40001c0 	cbz	x0, 405768 <_ZN7segment6insertENSt7__cxx1112basic_stringIcSt11char_traitsIcESaIcEEE+0x8c>
  405734:	aa1303e1 	mov	x1, x19
  405738:	aa1403e0 	mov	x0, x20
  40573c:	9400129d 	bl	40a1b0 <_ZNSt8__detail9_Map_baseINSt7__cxx1112basic_stringIcSt11char_traitsIcESaIcEEESt4pairIKS6_iESaIS9_ENS_10_Select1stESt8equal_toIS6_ESt4hashIS6_ENS_18_Mod_range_hashingENS_20_Default_ranged_hashENS_20_Prime_rehash_policyENS_17_Hashtable_traitsILb1ELb0ELb1EEELb1EEixERS8_>
  405740:	aa0003e1 	mov	x1, x0
  405744:	9101e2a0 	add	x0, x21, #0x78
  405748:	94001683 	bl	40b154 <_ZNSt8__detail9_Map_baseIiSt4pairIKiiESaIS3_ENS_10_Select1stESt8equal_toIiESt4hashIiENS_18_Mod_range_hashingENS_20_Default_ranged_hashENS_20_Prime_rehash_policyENS_17_Hashtable_traitsILb0ELb0ELb1EEELb1EEixERS2_>
  40574c:	b9400001 	ldr	w1, [x0]
  405750:	11000421 	add	w1, w1, #0x1
  405754:	b9000001 	str	w1, [x0]
  405758:	a94153f3 	ldp	x19, x20, [sp, #16]
  40575c:	a9425bf5 	ldp	x21, x22, [sp, #32]
  405760:	a8c37bfd 	ldp	x29, x30, [sp], #48
  405764:	d65f03c0 	ret
  405768:	f9402eb6 	ldr	x22, [x21, #88]
  40576c:	aa1303e1 	mov	x1, x19
  405770:	aa1403e0 	mov	x0, x20
  405774:	9400128f 	bl	40a1b0 <_ZNSt8__detail9_Map_baseINSt7__cxx1112basic_stringIcSt11char_traitsIcESaIcEEESt4pairIKS6_iESaIS9_ENS_10_Select1stESt8equal_toIS6_ESt4hashIS6_ENS_18_Mod_range_hashingENS_20_Default_ranged_hashENS_20_Prime_rehash_policyENS_17_Hashtable_traitsILb1ELb0ELb1EEELb1EEixERS8_>
  405778:	b9000016 	str	w22, [x0]
  40577c:	aa1303e1 	mov	x1, x19
  405780:	aa1403e0 	mov	x0, x20
  405784:	9400128b 	bl	40a1b0 <_ZNSt8__detail9_Map_baseINSt7__cxx1112basic_stringIcSt11char_traitsIcESaIcEEESt4pairIKS6_iESaIS9_ENS_10_Select1stESt8equal_toIS6_ESt4hashIS6_ENS_18_Mod_range_hashingENS_20_Default_ranged_hashENS_20_Prime_rehash_policyENS_17_Hashtable_traitsILb1ELb0ELb1EEELb1EEixERS8_>
  405788:	aa0003e1 	mov	x1, x0
  40578c:	9101e2a0 	add	x0, x21, #0x78
  405790:	94001671 	bl	40b154 <_ZNSt8__detail9_Map_baseIiSt4pairIKiiESaIS3_ENS_10_Select1stESt8equal_toIiESt4hashIiENS_18_Mod_range_hashingENS_20_Default_ranged_hashENS_20_Prime_rehash_policyENS_17_Hashtable_traitsILb0ELb0ELb1EEELb1EEixERS2_>
  405794:	52800021 	mov	w1, #0x1                   	// #1
  405798:	b9000001 	str	w1, [x0]
  40579c:	17ffffef 	b	405758 <_ZN7segment6insertENSt7__cxx1112basic_stringIcSt11char_traitsIcESaIcEEE+0x7c>

00000000004057a0 <_ZN7segment11PrintValuesEv>:
  4057a0:	a9b97bfd 	stp	x29, x30, [sp, #-112]!
  4057a4:	910003fd 	mov	x29, sp
  4057a8:	a90153f3 	stp	x19, x20, [sp, #16]
  4057ac:	a9046bf9 	stp	x25, x26, [sp, #64]
  4057b0:	f9400414 	ldr	x20, [x0, #8]
  4057b4:	f940081a 	ldr	x26, [x0, #16]
  4057b8:	eb1a029f 	cmp	x20, x26
  4057bc:	54000940 	b.eq	4058e4 <_ZN7segment11PrintValuesEv+0x144>  // b.none
  4057c0:	a9025bf5 	stp	x21, x22, [sp, #32]
  4057c4:	a90363f7 	stp	x23, x24, [sp, #48]
  4057c8:	aa0003f6 	mov	x22, x0
  4057cc:	910183f7 	add	x23, sp, #0x60
  4057d0:	f0000158 	adrp	x24, 430000 <_Znam@GLIBCXX_3.4>
  4057d4:	91084318 	add	x24, x24, #0x210
  4057d8:	b0000079 	adrp	x25, 412000 <_Z19MD5Hash_simdversionPKNSt7__cxx1112basic_stringIcSt11char_traitsIcESaIcEEEP12__Uint32x4_t+0x1480>
  4057dc:	91294339 	add	x25, x25, #0xa50
  4057e0:	14000033 	b	4058ac <_ZN7segment11PrintValuesEv+0x10c>
  4057e4:	aa0003f3 	mov	x19, x0
  4057e8:	d28000c2 	mov	x2, #0x6                   	// #6
  4057ec:	aa1903e1 	mov	x1, x25
  4057f0:	97fff240 	bl	4020f0 <_ZSt16__ostream_insertIcSt11char_traitsIcEERSt13basic_ostreamIT_T0_ES6_PKS3_l@plt>
  4057f4:	910143e1 	add	x1, sp, #0x50
  4057f8:	910102c0 	add	x0, x22, #0x40
  4057fc:	9400126d 	bl	40a1b0 <_ZNSt8__detail9_Map_baseINSt7__cxx1112basic_stringIcSt11char_traitsIcESaIcEEESt4pairIKS6_iESaIS9_ENS_10_Select1stESt8equal_toIS6_ESt4hashIS6_ENS_18_Mod_range_hashingENS_20_Default_ranged_hashENS_20_Prime_rehash_policyENS_17_Hashtable_traitsILb1ELb0ELb1EEELb1EEixERS8_>
  405800:	aa0003e1 	mov	x1, x0
  405804:	9101e2c0 	add	x0, x22, #0x78
  405808:	94001653 	bl	40b154 <_ZNSt8__detail9_Map_baseIiSt4pairIKiiESaIS3_ENS_10_Select1stESt8equal_toIiESt4hashIiENS_18_Mod_range_hashingENS_20_Default_ranged_hashENS_20_Prime_rehash_policyENS_17_Hashtable_traitsILb0ELb0ELb1EEELb1EEixERS2_>
  40580c:	b9400001 	ldr	w1, [x0]
  405810:	aa1303e0 	mov	x0, x19
  405814:	97fff28f 	bl	402250 <_ZNSolsEi@plt>
  405818:	aa0003f3 	mov	x19, x0
  40581c:	f9400000 	ldr	x0, [x0]
  405820:	f85e8001 	ldur	x1, [x0, #-24]
  405824:	8b010261 	add	x1, x19, x1
  405828:	f9407835 	ldr	x21, [x1, #240]
  40582c:	b40000f5 	cbz	x21, 405848 <_ZN7segment11PrintValuesEv+0xa8>
  405830:	3940e2a0 	ldrb	w0, [x21, #56]
  405834:	34000160 	cbz	w0, 405860 <_ZN7segment11PrintValuesEv+0xc0>
  405838:	39410ea1 	ldrb	w1, [x21, #67]
  40583c:	aa1303e0 	mov	x0, x19
  405840:	97fff1b0 	bl	401f00 <_ZNSo3putEc@plt>
  405844:	14000010 	b	405884 <_ZN7segment11PrintValuesEv+0xe4>
  405848:	97fff23a 	bl	402130 <_ZSt16__throw_bad_castv@plt>
  40584c:	aa0003f3 	mov	x19, x0
  405850:	910143e0 	add	x0, sp, #0x50
  405854:	97fff22f 	bl	402110 <_ZNSt7__cxx1112basic_stringIcSt11char_traitsIcESaIcEE10_M_disposeEv@plt>
  405858:	aa1303e0 	mov	x0, x19
  40585c:	97fff281 	bl	402260 <_Unwind_Resume@plt>
  405860:	aa1503e0 	mov	x0, x21
  405864:	97fff227 	bl	402100 <_ZNKSt5ctypeIcE13_M_widen_initEv@plt>
  405868:	f94002a0 	ldr	x0, [x21]
  40586c:	f9401802 	ldr	x2, [x0, #48]
  405870:	52800141 	mov	w1, #0xa                   	// #10
  405874:	aa1503e0 	mov	x0, x21
  405878:	d63f0040 	blr	x2
  40587c:	12001c01 	and	w1, w0, #0xff
  405880:	17ffffef 	b	40583c <_ZN7segment11PrintValuesEv+0x9c>
  405884:	97fff1ef 	bl	402040 <_ZNSo5flushEv@plt>
  405888:	f9402be0 	ldr	x0, [sp, #80]
  40588c:	eb17001f 	cmp	x0, x23
  405890:	54000080 	b.eq	4058a0 <_ZN7segment11PrintValuesEv+0x100>  // b.none
  405894:	f94033e1 	ldr	x1, [sp, #96]
  405898:	91000421 	add	x1, x1, #0x1
  40589c:	97fff209 	bl	4020c0 <_ZdlPvm@plt>
  4058a0:	91008294 	add	x20, x20, #0x20
  4058a4:	eb14035f 	cmp	x26, x20
  4058a8:	540001a0 	b.eq	4058dc <_ZN7segment11PrintValuesEv+0x13c>  // b.none
  4058ac:	f9002bf7 	str	x23, [sp, #80]
  4058b0:	f9400281 	ldr	x1, [x20]
  4058b4:	f9400682 	ldr	x2, [x20, #8]
  4058b8:	52800003 	mov	w3, #0x0                   	// #0
  4058bc:	8b020022 	add	x2, x1, x2
  4058c0:	910143e0 	add	x0, sp, #0x50
  4058c4:	940010e4 	bl	409c54 <_ZNSt7__cxx1112basic_stringIcSt11char_traitsIcESaIcEE12_M_constructIPcEEvT_S7_St20forward_iterator_tag>
  4058c8:	f9402fe2 	ldr	x2, [sp, #88]
  4058cc:	f9402be1 	ldr	x1, [sp, #80]
  4058d0:	aa1803e0 	mov	x0, x24
  4058d4:	97fff207 	bl	4020f0 <_ZSt16__ostream_insertIcSt11char_traitsIcEERSt13basic_ostreamIT_T0_ES6_PKS3_l@plt>
  4058d8:	17ffffc3 	b	4057e4 <_ZN7segment11PrintValuesEv+0x44>
  4058dc:	a9425bf5 	ldp	x21, x22, [sp, #32]
  4058e0:	a94363f7 	ldp	x23, x24, [sp, #48]
  4058e4:	a94153f3 	ldp	x19, x20, [sp, #16]
  4058e8:	a9446bf9 	ldp	x25, x26, [sp, #64]
  4058ec:	a8c77bfd 	ldp	x29, x30, [sp], #112
  4058f0:	d65f03c0 	ret

00000000004058f4 <_ZN5model5printEv>:
  4058f4:	a9ae7bfd 	stp	x29, x30, [sp, #-288]!
  4058f8:	910003fd 	mov	x29, sp
  4058fc:	a90153f3 	stp	x19, x20, [sp, #16]
  405900:	a9025bf5 	stp	x21, x22, [sp, #32]
  405904:	aa0003f5 	mov	x21, x0
  405908:	f0000154 	adrp	x20, 430000 <_Znam@GLIBCXX_3.4>
  40590c:	91084293 	add	x19, x20, #0x210
  405910:	d28001a2 	mov	x2, #0xd                   	// #13
  405914:	b0000061 	adrp	x1, 412000 <_Z19MD5Hash_simdversionPKNSt7__cxx1112basic_stringIcSt11char_traitsIcESaIcEEEP12__Uint32x4_t+0x1480>
  405918:	91296021 	add	x1, x1, #0xa58
  40591c:	aa1303e0 	mov	x0, x19
  405920:	97fff1f4 	bl	4020f0 <_ZSt16__ostream_insertIcSt11char_traitsIcEERSt13basic_ostreamIT_T0_ES6_PKS3_l@plt>
  405924:	f9410a80 	ldr	x0, [x20, #528]
  405928:	f85e8000 	ldur	x0, [x0, #-24]
  40592c:	8b130000 	add	x0, x0, x19
  405930:	f9407813 	ldr	x19, [x0, #240]
  405934:	b4000333 	cbz	x19, 405998 <_ZN5model5printEv+0xa4>
  405938:	a90363f7 	stp	x23, x24, [sp, #48]
  40593c:	3940e260 	ldrb	w0, [x19, #56]
  405940:	34000340 	cbz	w0, 4059a8 <_ZN5model5printEv+0xb4>
  405944:	39410e61 	ldrb	w1, [x19, #67]
  405948:	f0000140 	adrp	x0, 430000 <_Znam@GLIBCXX_3.4>
  40594c:	91084000 	add	x0, x0, #0x210
  405950:	97fff16c 	bl	401f00 <_ZNSo3putEc@plt>
  405954:	97fff1bb 	bl	402040 <_ZNSo5flushEv@plt>
  405958:	b900c3ff 	str	wzr, [sp, #192]
  40595c:	f9400ea3 	ldr	x3, [x21, #24]
  405960:	f94012a0 	ldr	x0, [x21, #32]
  405964:	eb03001f 	cmp	x0, x3
  405968:	54000940 	b.eq	405a90 <_ZN5model5printEv+0x19c>  // b.none
  40596c:	d2800001 	mov	x1, #0x0                   	// #0
  405970:	b0000074 	adrp	x20, 412000 <_Z19MD5Hash_simdversionPKNSt7__cxx1112basic_stringIcSt11char_traitsIcESaIcEEEP12__Uint32x4_t+0x1480>
  405974:	91294294 	add	x20, x20, #0xa50
  405978:	f0000153 	adrp	x19, 430000 <_Znam@GLIBCXX_3.4>
  40597c:	91084273 	add	x19, x19, #0x210
  405980:	d28000d7 	mov	x23, #0x6                   	// #6
  405984:	d2917476 	mov	x22, #0x8ba3                	// #35747
  405988:	f2b745d6 	movk	x22, #0xba2e, lsl #16
  40598c:	f2d45d16 	movk	x22, #0xa2e8, lsl #32
  405990:	f2e5d176 	movk	x22, #0x2e8b, lsl #48
  405994:	14000027 	b	405a30 <_ZN5model5printEv+0x13c>
  405998:	a90363f7 	stp	x23, x24, [sp, #48]
  40599c:	a9046bf9 	stp	x25, x26, [sp, #64]
  4059a0:	f9002bfb 	str	x27, [sp, #80]
  4059a4:	97fff1e3 	bl	402130 <_ZSt16__throw_bad_castv@plt>
  4059a8:	aa1303e0 	mov	x0, x19
  4059ac:	97fff1d5 	bl	402100 <_ZNKSt5ctypeIcE13_M_widen_initEv@plt>
  4059b0:	f9400260 	ldr	x0, [x19]
  4059b4:	f9401802 	ldr	x2, [x0, #48]
  4059b8:	52800141 	mov	w1, #0xa                   	// #10
  4059bc:	aa1303e0 	mov	x0, x19
  4059c0:	d63f0040 	blr	x2
  4059c4:	12001c01 	and	w1, w0, #0xff
  4059c8:	17ffffe0 	b	405948 <_ZN5model5printEv+0x54>
  4059cc:	a9046bf9 	stp	x25, x26, [sp, #64]
  4059d0:	f9002bfb 	str	x27, [sp, #80]
  4059d4:	97fff1d7 	bl	402130 <_ZSt16__throw_bad_castv@plt>
  4059d8:	aa1803e0 	mov	x0, x24
  4059dc:	97fff1c9 	bl	402100 <_ZNKSt5ctypeIcE13_M_widen_initEv@plt>
  4059e0:	f9400300 	ldr	x0, [x24]
  4059e4:	f9401802 	ldr	x2, [x0, #48]
  4059e8:	52800141 	mov	w1, #0xa                   	// #10
  4059ec:	aa1803e0 	mov	x0, x24
  4059f0:	d63f0040 	blr	x2
  4059f4:	12001c01 	and	w1, w0, #0xff
  4059f8:	aa1303e0 	mov	x0, x19
  4059fc:	97fff141 	bl	401f00 <_ZNSo3putEc@plt>
  405a00:	97fff190 	bl	402040 <_ZNSo5flushEv@plt>
  405a04:	b940c3e1 	ldr	w1, [sp, #192]
  405a08:	11000421 	add	w1, w1, #0x1
  405a0c:	b900c3e1 	str	w1, [sp, #192]
  405a10:	93407c21 	sxtw	x1, w1
  405a14:	f9400ea3 	ldr	x3, [x21, #24]
  405a18:	f94012a2 	ldr	x2, [x21, #32]
  405a1c:	cb030042 	sub	x2, x2, x3
  405a20:	9343fc42 	asr	x2, x2, #3
  405a24:	9b167c42 	mul	x2, x2, x22
  405a28:	eb02003f 	cmp	x1, x2
  405a2c:	54000322 	b.cs	405a90 <_ZN5model5printEv+0x19c>  // b.hs, b.nlast
  405a30:	8b010420 	add	x0, x1, x1, lsl #1
  405a34:	d37ef400 	lsl	x0, x0, #2
  405a38:	cb010000 	sub	x0, x0, x1
  405a3c:	8b000c60 	add	x0, x3, x0, lsl #3
  405a40:	97fffeea 	bl	4055e8 <_ZN2PT7PrintPTEv>
  405a44:	aa1703e2 	mov	x2, x23
  405a48:	aa1403e1 	mov	x1, x20
  405a4c:	aa1303e0 	mov	x0, x19
  405a50:	97fff1a8 	bl	4020f0 <_ZSt16__ostream_insertIcSt11char_traitsIcEERSt13basic_ostreamIT_T0_ES6_PKS3_l@plt>
  405a54:	910303e1 	add	x1, sp, #0xc0
  405a58:	9101e2a0 	add	x0, x21, #0x78
  405a5c:	940015be 	bl	40b154 <_ZNSt8__detail9_Map_baseIiSt4pairIKiiESaIS3_ENS_10_Select1stESt8equal_toIiESt4hashIiENS_18_Mod_range_hashingENS_20_Default_ranged_hashENS_20_Prime_rehash_policyENS_17_Hashtable_traitsILb0ELb0ELb1EEELb1EEixERS2_>
  405a60:	b9400001 	ldr	w1, [x0]
  405a64:	aa1303e0 	mov	x0, x19
  405a68:	97fff1fa 	bl	402250 <_ZNSolsEi@plt>
  405a6c:	f9400260 	ldr	x0, [x19]
  405a70:	f85e8000 	ldur	x0, [x0, #-24]
  405a74:	8b130000 	add	x0, x0, x19
  405a78:	f9407818 	ldr	x24, [x0, #240]
  405a7c:	b4fffa98 	cbz	x24, 4059cc <_ZN5model5printEv+0xd8>
  405a80:	3940e300 	ldrb	w0, [x24, #56]
  405a84:	34fffaa0 	cbz	w0, 4059d8 <_ZN5model5printEv+0xe4>
  405a88:	39410f01 	ldrb	w1, [x24, #67]
  405a8c:	17ffffdb 	b	4059f8 <_ZN5model5printEv+0x104>
  405a90:	a9046bf9 	stp	x25, x26, [sp, #64]
  405a94:	f940aeb7 	ldr	x23, [x21, #344]
  405a98:	f940b2b9 	ldr	x25, [x21, #352]
  405a9c:	eb17033f 	cmp	x25, x23
  405aa0:	54001440 	b.eq	405d28 <_ZN5model5printEv+0x434>  // b.none
  405aa4:	f9002bfb 	str	x27, [sp, #80]
  405aa8:	b0000078 	adrp	x24, 412000 <_Z19MD5Hash_simdversionPKNSt7__cxx1112basic_stringIcSt11char_traitsIcESaIcEEEP12__Uint32x4_t+0x1480>
  405aac:	91294318 	add	x24, x24, #0xa50
  405ab0:	f0000156 	adrp	x22, 430000 <_Znam@GLIBCXX_3.4>
  405ab4:	910842d6 	add	x22, x22, #0x210
  405ab8:	14000074 	b	405c88 <_ZN5model5printEv+0x394>
  405abc:	d28000c2 	mov	x2, #0x6                   	// #6
  405ac0:	aa1803e1 	mov	x1, x24
  405ac4:	aa1603e0 	mov	x0, x22
  405ac8:	97fff18a 	bl	4020f0 <_ZSt16__ostream_insertIcSt11char_traitsIcEERSt13basic_ostreamIT_T0_ES6_PKS3_l@plt>
  405acc:	9101a3e1 	add	x1, sp, #0x68
  405ad0:	910303e0 	add	x0, sp, #0xc0
  405ad4:	94001392 	bl	40a91c <_ZN2PTC1ERKS_>
  405ad8:	910303e1 	add	x1, sp, #0xc0
  405adc:	aa1503e0 	mov	x0, x21
  405ae0:	97fff988 	bl	404100 <_ZN5model6FindPTE2PT>
  405ae4:	b9011fe0 	str	w0, [sp, #284]
  405ae8:	910473e1 	add	x1, sp, #0x11c
  405aec:	9101e2a0 	add	x0, x21, #0x78
  405af0:	940015c7 	bl	40b20c <_ZNSt8__detail9_Map_baseIiSt4pairIKiiESaIS3_ENS_10_Select1stESt8equal_toIiESt4hashIiENS_18_Mod_range_hashingENS_20_Default_ranged_hashENS_20_Prime_rehash_policyENS_17_Hashtable_traitsILb0ELb0ELb1EEELb1EEixEOi>
  405af4:	b9400001 	ldr	w1, [x0]
  405af8:	aa1603e0 	mov	x0, x22
  405afc:	97fff1d5 	bl	402250 <_ZNSolsEi@plt>
  405b00:	f9407fe0 	ldr	x0, [sp, #248]
  405b04:	b4000080 	cbz	x0, 405b14 <_ZN5model5printEv+0x220>
  405b08:	f94087e1 	ldr	x1, [sp, #264]
  405b0c:	cb000021 	sub	x1, x1, x0
  405b10:	97fff16c 	bl	4020c0 <_ZdlPvm@plt>
  405b14:	f94073e0 	ldr	x0, [sp, #224]
  405b18:	b4000080 	cbz	x0, 405b28 <_ZN5model5printEv+0x234>
  405b1c:	f9407be1 	ldr	x1, [sp, #240]
  405b20:	cb000021 	sub	x1, x1, x0
  405b24:	97fff167 	bl	4020c0 <_ZdlPvm@plt>
  405b28:	f94063f4 	ldr	x20, [sp, #192]
  405b2c:	f94067fb 	ldr	x27, [sp, #200]
  405b30:	eb1b029f 	cmp	x20, x27
  405b34:	54000481 	b.ne	405bc4 <_ZN5model5printEv+0x2d0>  // b.any
  405b38:	f94063e0 	ldr	x0, [sp, #192]
  405b3c:	b4000080 	cbz	x0, 405b4c <_ZN5model5printEv+0x258>
  405b40:	f9406be1 	ldr	x1, [sp, #208]
  405b44:	cb000021 	sub	x1, x1, x0
  405b48:	97fff15e 	bl	4020c0 <_ZdlPvm@plt>
  405b4c:	f94002c0 	ldr	x0, [x22]
  405b50:	f85e8000 	ldur	x0, [x0, #-24]
  405b54:	8b160000 	add	x0, x0, x22
  405b58:	f9407813 	ldr	x19, [x0, #240]
  405b5c:	b4000513 	cbz	x19, 405bfc <_ZN5model5printEv+0x308>
  405b60:	3940e260 	ldrb	w0, [x19, #56]
  405b64:	34000520 	cbz	w0, 405c08 <_ZN5model5printEv+0x314>
  405b68:	39410e61 	ldrb	w1, [x19, #67]
  405b6c:	aa1603e0 	mov	x0, x22
  405b70:	97fff0e4 	bl	401f00 <_ZNSo3putEc@plt>
  405b74:	1400002e 	b	405c2c <_ZN5model5printEv+0x338>
  405b78:	f9400a61 	ldr	x1, [x19, #16]
  405b7c:	91000421 	add	x1, x1, #0x1
  405b80:	97fff150 	bl	4020c0 <_ZdlPvm@plt>
  405b84:	91008273 	add	x19, x19, #0x20
  405b88:	eb13035f 	cmp	x26, x19
  405b8c:	540000c0 	b.eq	405ba4 <_ZN5model5printEv+0x2b0>  // b.none
  405b90:	aa1303e1 	mov	x1, x19
  405b94:	f8410420 	ldr	x0, [x1], #16
  405b98:	eb01001f 	cmp	x0, x1
  405b9c:	54fffee1 	b.ne	405b78 <_ZN5model5printEv+0x284>  // b.any
  405ba0:	17fffff9 	b	405b84 <_ZN5model5printEv+0x290>
  405ba4:	f9400680 	ldr	x0, [x20, #8]
  405ba8:	b4000080 	cbz	x0, 405bb8 <_ZN5model5printEv+0x2c4>
  405bac:	f9400e81 	ldr	x1, [x20, #24]
  405bb0:	cb000021 	sub	x1, x1, x0
  405bb4:	97fff143 	bl	4020c0 <_ZdlPvm@plt>
  405bb8:	9102c294 	add	x20, x20, #0xb0
  405bbc:	eb14037f 	cmp	x27, x20
  405bc0:	54fffbc0 	b.eq	405b38 <_ZN5model5printEv+0x244>  // b.none
  405bc4:	9101e280 	add	x0, x20, #0x78
  405bc8:	97fff72d 	bl	40387c <_ZNSt10_HashtableIiSt4pairIKiiESaIS2_ENSt8__detail10_Select1stESt8equal_toIiESt4hashIiENS4_18_Mod_range_hashingENS4_20_Default_ranged_hashENS4_20_Prime_rehash_policyENS4_17_Hashtable_traitsILb0ELb0ELb1EEEED1Ev>
  405bcc:	91010280 	add	x0, x20, #0x40
  405bd0:	97fff702 	bl	4037d8 <_ZNSt10_HashtableINSt7__cxx1112basic_stringIcSt11char_traitsIcESaIcEEESt4pairIKS5_iESaIS8_ENSt8__detail10_Select1stESt8equal_toIS5_ESt4hashIS5_ENSA_18_Mod_range_hashingENSA_20_Default_ranged_hashENSA_20_Prime_rehash_policyENSA_17_Hashtable_traitsILb1ELb0ELb1EEEED1Ev>
  405bd4:	f9401280 	ldr	x0, [x20, #32]
  405bd8:	b4000080 	cbz	x0, 405be8 <_ZN5model5printEv+0x2f4>
  405bdc:	f9401a81 	ldr	x1, [x20, #48]
  405be0:	cb000021 	sub	x1, x1, x0
  405be4:	97fff137 	bl	4020c0 <_ZdlPvm@plt>
  405be8:	f9400693 	ldr	x19, [x20, #8]
  405bec:	f9400a9a 	ldr	x26, [x20, #16]
  405bf0:	eb1a027f 	cmp	x19, x26
  405bf4:	54fffce1 	b.ne	405b90 <_ZN5model5printEv+0x29c>  // b.any
  405bf8:	17ffffeb 	b	405ba4 <_ZN5model5printEv+0x2b0>
  405bfc:	97fff14d 	bl	402130 <_ZSt16__throw_bad_castv@plt>
  405c00:	aa0003f3 	mov	x19, x0
  405c04:	1400012a 	b	4060ac <_ZN5model5printEv+0x7b8>
  405c08:	aa1303e0 	mov	x0, x19
  405c0c:	97fff13d 	bl	402100 <_ZNKSt5ctypeIcE13_M_widen_initEv@plt>
  405c10:	f9400260 	ldr	x0, [x19]
  405c14:	f9401802 	ldr	x2, [x0, #48]
  405c18:	52800141 	mov	w1, #0xa                   	// #10
  405c1c:	aa1303e0 	mov	x0, x19
  405c20:	d63f0040 	blr	x2
  405c24:	12001c01 	and	w1, w0, #0xff
  405c28:	17ffffd1 	b	405b6c <_ZN5model5printEv+0x278>
  405c2c:	97fff105 	bl	402040 <_ZNSo5flushEv@plt>
  405c30:	f94053e0 	ldr	x0, [sp, #160]
  405c34:	b4000080 	cbz	x0, 405c44 <_ZN5model5printEv+0x350>
  405c38:	f9405be1 	ldr	x1, [sp, #176]
  405c3c:	cb000021 	sub	x1, x1, x0
  405c40:	97fff120 	bl	4020c0 <_ZdlPvm@plt>
  405c44:	f94047e0 	ldr	x0, [sp, #136]
  405c48:	b4000080 	cbz	x0, 405c58 <_ZN5model5printEv+0x364>
  405c4c:	f9404fe1 	ldr	x1, [sp, #152]
  405c50:	cb000021 	sub	x1, x1, x0
  405c54:	97fff11b 	bl	4020c0 <_ZdlPvm@plt>
  405c58:	f94037f4 	ldr	x20, [sp, #104]
  405c5c:	f9403bfb 	ldr	x27, [sp, #112]
  405c60:	eb1b029f 	cmp	x20, x27
  405c64:	54000441 	b.ne	405cec <_ZN5model5printEv+0x3f8>  // b.any
  405c68:	f94037e0 	ldr	x0, [sp, #104]
  405c6c:	b4000080 	cbz	x0, 405c7c <_ZN5model5printEv+0x388>
  405c70:	f9403fe1 	ldr	x1, [sp, #120]
  405c74:	cb000021 	sub	x1, x1, x0
  405c78:	97fff112 	bl	4020c0 <_ZdlPvm@plt>
  405c7c:	910162f7 	add	x23, x23, #0x58
  405c80:	eb17033f 	cmp	x25, x23
  405c84:	54000500 	b.eq	405d24 <_ZN5model5printEv+0x430>  // b.none
  405c88:	aa1703e1 	mov	x1, x23
  405c8c:	9101a3e0 	add	x0, sp, #0x68
  405c90:	94001323 	bl	40a91c <_ZN2PTC1ERKS_>
  405c94:	9101a3e0 	add	x0, sp, #0x68
  405c98:	97fffe54 	bl	4055e8 <_ZN2PT7PrintPTEv>
  405c9c:	17ffff88 	b	405abc <_ZN5model5printEv+0x1c8>
  405ca0:	91008273 	add	x19, x19, #0x20
  405ca4:	eb13035f 	cmp	x26, x19
  405ca8:	54000120 	b.eq	405ccc <_ZN5model5printEv+0x3d8>  // b.none
  405cac:	aa1303e1 	mov	x1, x19
  405cb0:	f8410420 	ldr	x0, [x1], #16
  405cb4:	eb01001f 	cmp	x0, x1
  405cb8:	54ffff40 	b.eq	405ca0 <_ZN5model5printEv+0x3ac>  // b.none
  405cbc:	f9400a61 	ldr	x1, [x19, #16]
  405cc0:	91000421 	add	x1, x1, #0x1
  405cc4:	97fff0ff 	bl	4020c0 <_ZdlPvm@plt>
  405cc8:	17fffff6 	b	405ca0 <_ZN5model5printEv+0x3ac>
  405ccc:	f9400680 	ldr	x0, [x20, #8]
  405cd0:	b4000080 	cbz	x0, 405ce0 <_ZN5model5printEv+0x3ec>
  405cd4:	f9400e81 	ldr	x1, [x20, #24]
  405cd8:	cb000021 	sub	x1, x1, x0
  405cdc:	97fff0f9 	bl	4020c0 <_ZdlPvm@plt>
  405ce0:	9102c294 	add	x20, x20, #0xb0
  405ce4:	eb14037f 	cmp	x27, x20
  405ce8:	54fffc00 	b.eq	405c68 <_ZN5model5printEv+0x374>  // b.none
  405cec:	9101e280 	add	x0, x20, #0x78
  405cf0:	97fff6e3 	bl	40387c <_ZNSt10_HashtableIiSt4pairIKiiESaIS2_ENSt8__detail10_Select1stESt8equal_toIiESt4hashIiENS4_18_Mod_range_hashingENS4_20_Default_ranged_hashENS4_20_Prime_rehash_policyENS4_17_Hashtable_traitsILb0ELb0ELb1EEEED1Ev>
  405cf4:	91010280 	add	x0, x20, #0x40
  405cf8:	97fff6b8 	bl	4037d8 <_ZNSt10_HashtableINSt7__cxx1112basic_stringIcSt11char_traitsIcESaIcEEESt4pairIKS5_iESaIS8_ENSt8__detail10_Select1stESt8equal_toIS5_ESt4hashIS5_ENSA_18_Mod_range_hashingENSA_20_Default_ranged_hashENSA_20_Prime_rehash_policyENSA_17_Hashtable_traitsILb1ELb0ELb1EEEED1Ev>
  405cfc:	f9401280 	ldr	x0, [x20, #32]
  405d00:	b4000080 	cbz	x0, 405d10 <_ZN5model5printEv+0x41c>
  405d04:	f9401a81 	ldr	x1, [x20, #48]
  405d08:	cb000021 	sub	x1, x1, x0
  405d0c:	97fff0ed 	bl	4020c0 <_ZdlPvm@plt>
  405d10:	f9400693 	ldr	x19, [x20, #8]
  405d14:	f9400a9a 	ldr	x26, [x20, #16]
  405d18:	eb1a027f 	cmp	x19, x26
  405d1c:	54fffc81 	b.ne	405cac <_ZN5model5printEv+0x3b8>  // b.any
  405d20:	17ffffeb 	b	405ccc <_ZN5model5printEv+0x3d8>
  405d24:	f9402bfb 	ldr	x27, [sp, #80]
  405d28:	f0000154 	adrp	x20, 430000 <_Znam@GLIBCXX_3.4>
  405d2c:	91084293 	add	x19, x20, #0x210
  405d30:	d2800122 	mov	x2, #0x9                   	// #9
  405d34:	b0000061 	adrp	x1, 412000 <_Z19MD5Hash_simdversionPKNSt7__cxx1112basic_stringIcSt11char_traitsIcESaIcEEEP12__Uint32x4_t+0x1480>
  405d38:	9129a021 	add	x1, x1, #0xa68
  405d3c:	aa1303e0 	mov	x0, x19
  405d40:	97fff0ec 	bl	4020f0 <_ZSt16__ostream_insertIcSt11char_traitsIcEERSt13basic_ostreamIT_T0_ES6_PKS3_l@plt>
  405d44:	f9410a80 	ldr	x0, [x20, #528]
  405d48:	f85e8000 	ldur	x0, [x0, #-24]
  405d4c:	8b130000 	add	x0, x0, x19
  405d50:	f9407813 	ldr	x19, [x0, #240]
  405d54:	b4000313 	cbz	x19, 405db4 <_ZN5model5printEv+0x4c0>
  405d58:	3940e260 	ldrb	w0, [x19, #56]
  405d5c:	34000300 	cbz	w0, 405dbc <_ZN5model5printEv+0x4c8>
  405d60:	39410e61 	ldrb	w1, [x19, #67]
  405d64:	f0000140 	adrp	x0, 430000 <_Znam@GLIBCXX_3.4>
  405d68:	91084000 	add	x0, x0, #0x210
  405d6c:	97fff065 	bl	401f00 <_ZNSo3putEc@plt>
  405d70:	97fff0b4 	bl	402040 <_ZNSo5flushEv@plt>
  405d74:	b900c3ff 	str	wzr, [sp, #192]
  405d78:	f9401aa3 	ldr	x3, [x21, #48]
  405d7c:	f9401ea0 	ldr	x0, [x21, #56]
  405d80:	eb03001f 	cmp	x0, x3
  405d84:	540008e0 	b.eq	405ea0 <_ZN5model5printEv+0x5ac>  // b.none
  405d88:	d2800001 	mov	x1, #0x0                   	// #0
  405d8c:	b0000074 	adrp	x20, 412000 <_Z19MD5Hash_simdversionPKNSt7__cxx1112basic_stringIcSt11char_traitsIcESaIcEEEP12__Uint32x4_t+0x1480>
  405d90:	91294294 	add	x20, x20, #0xa50
  405d94:	f0000153 	adrp	x19, 430000 <_Znam@GLIBCXX_3.4>
  405d98:	91084273 	add	x19, x19, #0x210
  405d9c:	d28000d7 	mov	x23, #0x6                   	// #6
  405da0:	d2917476 	mov	x22, #0x8ba3                	// #35747
  405da4:	f2b745d6 	movk	x22, #0xba2e, lsl #16
  405da8:	f2d45d16 	movk	x22, #0xa2e8, lsl #32
  405dac:	f2e5d176 	movk	x22, #0x2e8b, lsl #48
  405db0:	1400001d 	b	405e24 <_ZN5model5printEv+0x530>
  405db4:	f9002bfb 	str	x27, [sp, #80]
  405db8:	97fff0de 	bl	402130 <_ZSt16__throw_bad_castv@plt>
  405dbc:	aa1303e0 	mov	x0, x19
  405dc0:	97fff0d0 	bl	402100 <_ZNKSt5ctypeIcE13_M_widen_initEv@plt>
  405dc4:	f9400260 	ldr	x0, [x19]
  405dc8:	f9401802 	ldr	x2, [x0, #48]
  405dcc:	52800141 	mov	w1, #0xa                   	// #10
  405dd0:	aa1303e0 	mov	x0, x19
  405dd4:	d63f0040 	blr	x2
  405dd8:	12001c01 	and	w1, w0, #0xff
  405ddc:	17ffffe2 	b	405d64 <_ZN5model5printEv+0x470>
  405de0:	f9002bfb 	str	x27, [sp, #80]
  405de4:	97fff0d3 	bl	402130 <_ZSt16__throw_bad_castv@plt>
  405de8:	39410f01 	ldrb	w1, [x24, #67]
  405dec:	aa1303e0 	mov	x0, x19
  405df0:	97fff044 	bl	401f00 <_ZNSo3putEc@plt>
  405df4:	97fff093 	bl	402040 <_ZNSo5flushEv@plt>
  405df8:	b940c3e1 	ldr	w1, [sp, #192]
  405dfc:	11000421 	add	w1, w1, #0x1
  405e00:	b900c3e1 	str	w1, [sp, #192]
  405e04:	93407c21 	sxtw	x1, w1
  405e08:	f9401aa3 	ldr	x3, [x21, #48]
  405e0c:	f9401ea2 	ldr	x2, [x21, #56]
  405e10:	cb030042 	sub	x2, x2, x3
  405e14:	9344fc42 	asr	x2, x2, #4
  405e18:	9b167c42 	mul	x2, x2, x22
  405e1c:	eb02003f 	cmp	x1, x2
  405e20:	54000402 	b.cs	405ea0 <_ZN5model5printEv+0x5ac>  // b.hs, b.nlast
  405e24:	8b010420 	add	x0, x1, x1, lsl #1
  405e28:	d37ef400 	lsl	x0, x0, #2
  405e2c:	cb010000 	sub	x0, x0, x1
  405e30:	8b001060 	add	x0, x3, x0, lsl #4
  405e34:	97fff930 	bl	4042f4 <_ZN7segment8PrintSegEv>
  405e38:	aa1703e2 	mov	x2, x23
  405e3c:	aa1403e1 	mov	x1, x20
  405e40:	aa1303e0 	mov	x0, x19
  405e44:	97fff0ab 	bl	4020f0 <_ZSt16__ostream_insertIcSt11char_traitsIcEERSt13basic_ostreamIT_T0_ES6_PKS3_l@plt>
  405e48:	910303e1 	add	x1, sp, #0xc0
  405e4c:	9102c2a0 	add	x0, x21, #0xb0
  405e50:	940014c1 	bl	40b154 <_ZNSt8__detail9_Map_baseIiSt4pairIKiiESaIS3_ENS_10_Select1stESt8equal_toIiESt4hashIiENS_18_Mod_range_hashingENS_20_Default_ranged_hashENS_20_Prime_rehash_policyENS_17_Hashtable_traitsILb0ELb0ELb1EEELb1EEixERS2_>
  405e54:	b9400001 	ldr	w1, [x0]
  405e58:	aa1303e0 	mov	x0, x19
  405e5c:	97fff0fd 	bl	402250 <_ZNSolsEi@plt>
  405e60:	f9400260 	ldr	x0, [x19]
  405e64:	f85e8000 	ldur	x0, [x0, #-24]
  405e68:	8b130000 	add	x0, x0, x19
  405e6c:	f9407818 	ldr	x24, [x0, #240]
  405e70:	b4fffb98 	cbz	x24, 405de0 <_ZN5model5printEv+0x4ec>
  405e74:	3940e300 	ldrb	w0, [x24, #56]
  405e78:	35fffb80 	cbnz	w0, 405de8 <_ZN5model5printEv+0x4f4>
  405e7c:	aa1803e0 	mov	x0, x24
  405e80:	97fff0a0 	bl	402100 <_ZNKSt5ctypeIcE13_M_widen_initEv@plt>
  405e84:	f9400300 	ldr	x0, [x24]
  405e88:	f9401802 	ldr	x2, [x0, #48]
  405e8c:	52800141 	mov	w1, #0xa                   	// #10
  405e90:	aa1803e0 	mov	x0, x24
  405e94:	d63f0040 	blr	x2
  405e98:	12001c01 	and	w1, w0, #0xff
  405e9c:	17ffffd4 	b	405dec <_ZN5model5printEv+0x4f8>
  405ea0:	b900c3ff 	str	wzr, [sp, #192]
  405ea4:	f94026a3 	ldr	x3, [x21, #72]
  405ea8:	f9402aa0 	ldr	x0, [x21, #80]
  405eac:	eb03001f 	cmp	x0, x3
  405eb0:	54000780 	b.eq	405fa0 <_ZN5model5printEv+0x6ac>  // b.none
  405eb4:	d2800001 	mov	x1, #0x0                   	// #0
  405eb8:	b0000074 	adrp	x20, 412000 <_Z19MD5Hash_simdversionPKNSt7__cxx1112basic_stringIcSt11char_traitsIcESaIcEEEP12__Uint32x4_t+0x1480>
  405ebc:	91294294 	add	x20, x20, #0xa50
  405ec0:	f0000153 	adrp	x19, 430000 <_Znam@GLIBCXX_3.4>
  405ec4:	91084273 	add	x19, x19, #0x210
  405ec8:	d28000d7 	mov	x23, #0x6                   	// #6
  405ecc:	d2917476 	mov	x22, #0x8ba3                	// #35747
  405ed0:	f2b745d6 	movk	x22, #0xba2e, lsl #16
  405ed4:	f2d45d16 	movk	x22, #0xa2e8, lsl #32
  405ed8:	f2e5d176 	movk	x22, #0x2e8b, lsl #48
  405edc:	14000019 	b	405f40 <_ZN5model5printEv+0x64c>
  405ee0:	f9002bfb 	str	x27, [sp, #80]
  405ee4:	97fff093 	bl	402130 <_ZSt16__throw_bad_castv@plt>
  405ee8:	aa1803e0 	mov	x0, x24
  405eec:	97fff085 	bl	402100 <_ZNKSt5ctypeIcE13_M_widen_initEv@plt>
  405ef0:	f9400300 	ldr	x0, [x24]
  405ef4:	f9401802 	ldr	x2, [x0, #48]
  405ef8:	52800141 	mov	w1, #0xa                   	// #10
  405efc:	aa1803e0 	mov	x0, x24
  405f00:	d63f0040 	blr	x2
  405f04:	12001c01 	and	w1, w0, #0xff
  405f08:	aa1303e0 	mov	x0, x19
  405f0c:	97ffeffd 	bl	401f00 <_ZNSo3putEc@plt>
  405f10:	97fff04c 	bl	402040 <_ZNSo5flushEv@plt>
  405f14:	b940c3e1 	ldr	w1, [sp, #192]
  405f18:	11000421 	add	w1, w1, #0x1
  405f1c:	b900c3e1 	str	w1, [sp, #192]
  405f20:	93407c21 	sxtw	x1, w1
  405f24:	f94026a3 	ldr	x3, [x21, #72]
  405f28:	f9402aa2 	ldr	x2, [x21, #80]
  405f2c:	cb030042 	sub	x2, x2, x3
  405f30:	9344fc42 	asr	x2, x2, #4
  405f34:	9b167c42 	mul	x2, x2, x22
  405f38:	eb02003f 	cmp	x1, x2
  405f3c:	54000322 	b.cs	405fa0 <_ZN5model5printEv+0x6ac>  // b.hs, b.nlast
  405f40:	8b010420 	add	x0, x1, x1, lsl #1
  405f44:	d37ef400 	lsl	x0, x0, #2
  405f48:	cb010000 	sub	x0, x0, x1
  405f4c:	8b001060 	add	x0, x3, x0, lsl #4
  405f50:	97fff8e9 	bl	4042f4 <_ZN7segment8PrintSegEv>
  405f54:	aa1703e2 	mov	x2, x23
  405f58:	aa1403e1 	mov	x1, x20
  405f5c:	aa1303e0 	mov	x0, x19
  405f60:	97fff064 	bl	4020f0 <_ZSt16__ostream_insertIcSt11char_traitsIcEERSt13basic_ostreamIT_T0_ES6_PKS3_l@plt>
  405f64:	910303e1 	add	x1, sp, #0xc0
  405f68:	9103a2a0 	add	x0, x21, #0xe8
  405f6c:	9400147a 	bl	40b154 <_ZNSt8__detail9_Map_baseIiSt4pairIKiiESaIS3_ENS_10_Select1stESt8equal_toIiESt4hashIiENS_18_Mod_range_hashingENS_20_Default_ranged_hashENS_20_Prime_rehash_policyENS_17_Hashtable_traitsILb0ELb0ELb1EEELb1EEixERS2_>
  405f70:	b9400001 	ldr	w1, [x0]
  405f74:	aa1303e0 	mov	x0, x19
  405f78:	97fff0b6 	bl	402250 <_ZNSolsEi@plt>
  405f7c:	f9400260 	ldr	x0, [x19]
  405f80:	f85e8000 	ldur	x0, [x0, #-24]
  405f84:	8b130000 	add	x0, x0, x19
  405f88:	f9407818 	ldr	x24, [x0, #240]
  405f8c:	b4fffab8 	cbz	x24, 405ee0 <_ZN5model5printEv+0x5ec>
  405f90:	3940e300 	ldrb	w0, [x24, #56]
  405f94:	34fffaa0 	cbz	w0, 405ee8 <_ZN5model5printEv+0x5f4>
  405f98:	39410f01 	ldrb	w1, [x24, #67]
  405f9c:	17ffffdb 	b	405f08 <_ZN5model5printEv+0x614>
  405fa0:	b900c3ff 	str	wzr, [sp, #192]
  405fa4:	f94032a3 	ldr	x3, [x21, #96]
  405fa8:	f94036a0 	ldr	x0, [x21, #104]
  405fac:	eb03001f 	cmp	x0, x3
  405fb0:	54000860 	b.eq	4060bc <_ZN5model5printEv+0x7c8>  // b.none
  405fb4:	d2800001 	mov	x1, #0x0                   	// #0
  405fb8:	b0000074 	adrp	x20, 412000 <_Z19MD5Hash_simdversionPKNSt7__cxx1112basic_stringIcSt11char_traitsIcESaIcEEEP12__Uint32x4_t+0x1480>
  405fbc:	91294294 	add	x20, x20, #0xa50
  405fc0:	f0000153 	adrp	x19, 430000 <_Znam@GLIBCXX_3.4>
  405fc4:	91084273 	add	x19, x19, #0x210
  405fc8:	d28000d7 	mov	x23, #0x6                   	// #6
  405fcc:	d2917476 	mov	x22, #0x8ba3                	// #35747
  405fd0:	f2b745d6 	movk	x22, #0xba2e, lsl #16
  405fd4:	f2d45d16 	movk	x22, #0xa2e8, lsl #32
  405fd8:	f2e5d176 	movk	x22, #0x2e8b, lsl #48
  405fdc:	14000019 	b	406040 <_ZN5model5printEv+0x74c>
  405fe0:	f9002bfb 	str	x27, [sp, #80]
  405fe4:	97fff053 	bl	402130 <_ZSt16__throw_bad_castv@plt>
  405fe8:	aa1803e0 	mov	x0, x24
  405fec:	97fff045 	bl	402100 <_ZNKSt5ctypeIcE13_M_widen_initEv@plt>
  405ff0:	f9400300 	ldr	x0, [x24]
  405ff4:	f9401802 	ldr	x2, [x0, #48]
  405ff8:	52800141 	mov	w1, #0xa                   	// #10
  405ffc:	aa1803e0 	mov	x0, x24
  406000:	d63f0040 	blr	x2
  406004:	12001c01 	and	w1, w0, #0xff
  406008:	aa1303e0 	mov	x0, x19
  40600c:	97ffefbd 	bl	401f00 <_ZNSo3putEc@plt>
  406010:	97fff00c 	bl	402040 <_ZNSo5flushEv@plt>
  406014:	b940c3e1 	ldr	w1, [sp, #192]
  406018:	11000421 	add	w1, w1, #0x1
  40601c:	b900c3e1 	str	w1, [sp, #192]
  406020:	93407c21 	sxtw	x1, w1
  406024:	f94032a3 	ldr	x3, [x21, #96]
  406028:	f94036a2 	ldr	x2, [x21, #104]
  40602c:	cb030042 	sub	x2, x2, x3
  406030:	9344fc42 	asr	x2, x2, #4
  406034:	9b167c42 	mul	x2, x2, x22
  406038:	eb02003f 	cmp	x1, x2
  40603c:	54000402 	b.cs	4060bc <_ZN5model5printEv+0x7c8>  // b.hs, b.nlast
  406040:	8b010420 	add	x0, x1, x1, lsl #1
  406044:	d37ef400 	lsl	x0, x0, #2
  406048:	cb010000 	sub	x0, x0, x1
  40604c:	8b001060 	add	x0, x3, x0, lsl #4
  406050:	97fff8a9 	bl	4042f4 <_ZN7segment8PrintSegEv>
  406054:	aa1703e2 	mov	x2, x23
  406058:	aa1403e1 	mov	x1, x20
  40605c:	aa1303e0 	mov	x0, x19
  406060:	97fff024 	bl	4020f0 <_ZSt16__ostream_insertIcSt11char_traitsIcEERSt13basic_ostreamIT_T0_ES6_PKS3_l@plt>
  406064:	910303e1 	add	x1, sp, #0xc0
  406068:	910482a0 	add	x0, x21, #0x120
  40606c:	9400143a 	bl	40b154 <_ZNSt8__detail9_Map_baseIiSt4pairIKiiESaIS3_ENS_10_Select1stESt8equal_toIiESt4hashIiENS_18_Mod_range_hashingENS_20_Default_ranged_hashENS_20_Prime_rehash_policyENS_17_Hashtable_traitsILb0ELb0ELb1EEELb1EEixERS2_>
  406070:	b9400001 	ldr	w1, [x0]
  406074:	aa1303e0 	mov	x0, x19
  406078:	97fff076 	bl	402250 <_ZNSolsEi@plt>
  40607c:	f9400260 	ldr	x0, [x19]
  406080:	f85e8000 	ldur	x0, [x0, #-24]
  406084:	8b130000 	add	x0, x0, x19
  406088:	f9407818 	ldr	x24, [x0, #240]
  40608c:	b4fffab8 	cbz	x24, 405fe0 <_ZN5model5printEv+0x6ec>
  406090:	3940e300 	ldrb	w0, [x24, #56]
  406094:	34fffaa0 	cbz	w0, 405fe8 <_ZN5model5printEv+0x6f4>
  406098:	39410f01 	ldrb	w1, [x24, #67]
  40609c:	17ffffdb 	b	406008 <_ZN5model5printEv+0x714>
  4060a0:	aa0003f3 	mov	x19, x0
  4060a4:	910303e0 	add	x0, sp, #0xc0
  4060a8:	94000eac 	bl	409b58 <_ZN2PTD1Ev>
  4060ac:	9101a3e0 	add	x0, sp, #0x68
  4060b0:	94000eaa 	bl	409b58 <_ZN2PTD1Ev>
  4060b4:	aa1303e0 	mov	x0, x19
  4060b8:	97fff06a 	bl	402260 <_Unwind_Resume@plt>
  4060bc:	a94363f7 	ldp	x23, x24, [sp, #48]
  4060c0:	a9446bf9 	ldp	x25, x26, [sp, #64]
  4060c4:	a94153f3 	ldp	x19, x20, [sp, #16]
  4060c8:	a9425bf5 	ldp	x21, x22, [sp, #32]
  4060cc:	a8d27bfd 	ldp	x29, x30, [sp], #288
  4060d0:	d65f03c0 	ret

00000000004060d4 <_ZN2PT6insertE7segment>:
  4060d4:	a9bf7bfd 	stp	x29, x30, [sp, #-16]!
  4060d8:	910003fd 	mov	x29, sp
  4060dc:	940018dc 	bl	40c44c <_ZNSt6vectorI7segmentSaIS0_EE12emplace_backIJRS0_EEEvDpOT_>
  4060e0:	a8c17bfd 	ldp	x29, x30, [sp], #16
  4060e4:	d65f03c0 	ret

00000000004060e8 <_ZN5model5parseENSt7__cxx1112basic_stringIcSt11char_traitsIcESaIcEEE>:
  4060e8:	d137c3ff 	sub	sp, sp, #0xdf0
  4060ec:	a9007bfd 	stp	x29, x30, [sp]
  4060f0:	910003fd 	mov	x29, sp
  4060f4:	a90153f3 	stp	x19, x20, [sp, #16]
  4060f8:	a9025bf5 	stp	x21, x22, [sp, #32]
  4060fc:	a90363f7 	stp	x23, x24, [sp, #48]
  406100:	a9046bf9 	stp	x25, x26, [sp, #64]
  406104:	f9002bfb 	str	x27, [sp, #80]
  406108:	aa0003f6 	mov	x22, x0
  40610c:	f906cbff 	str	xzr, [sp, #3472]
  406110:	f906cfff 	str	xzr, [sp, #3480]
  406114:	f906d3ff 	str	xzr, [sp, #3488]
  406118:	b90dabff 	str	wzr, [sp, #3496]
  40611c:	f906dbff 	str	xzr, [sp, #3504]
  406120:	f906dfff 	str	xzr, [sp, #3512]
  406124:	f906e3ff 	str	xzr, [sp, #3520]
  406128:	f906e7ff 	str	xzr, [sp, #3528]
  40612c:	f906ebff 	str	xzr, [sp, #3536]
  406130:	f906efff 	str	xzr, [sp, #3544]
  406134:	913603e0 	add	x0, sp, #0xd80
  406138:	f906bbe0 	str	x0, [sp, #3440]
  40613c:	f906bfff 	str	xzr, [sp, #3448]
  406140:	393603ff 	strb	wzr, [sp, #3456]
  406144:	f9400033 	ldr	x19, [x1]
  406148:	f9400437 	ldr	x23, [x1, #8]
  40614c:	8b170277 	add	x23, x19, x23
  406150:	eb17027f 	cmp	x19, x23
  406154:	54011700 	b.eq	408434 <_ZN5model5parseENSt7__cxx1112basic_stringIcSt11char_traitsIcESaIcEEE+0x234c>  // b.none
  406158:	52800014 	mov	w20, #0x0                   	// #0
  40615c:	913603f8 	add	x24, sp, #0xd80
  406160:	913203f9 	add	x25, sp, #0xc80
  406164:	140000eb 	b	406510 <_ZN5model5parseENSt7__cxx1112basic_stringIcSt11char_traitsIcESaIcEEE+0x428>
  406168:	f9060fff 	str	xzr, [sp, #3096]
  40616c:	f90613ff 	str	xzr, [sp, #3104]
  406170:	f90617ff 	str	xzr, [sp, #3112]
  406174:	f9061bff 	str	xzr, [sp, #3120]
  406178:	f9061fff 	str	xzr, [sp, #3128]
  40617c:	f90623ff 	str	xzr, [sp, #3136]
  406180:	b90c4bff 	str	wzr, [sp, #3144]
  406184:	f9062bf9 	str	x25, [sp, #3152]
  406188:	d2800020 	mov	x0, #0x1                   	// #1
  40618c:	f9062fe0 	str	x0, [sp, #3160]
  406190:	f90633ff 	str	xzr, [sp, #3168]
  406194:	f90637ff 	str	xzr, [sp, #3176]
  406198:	1e2e1000 	fmov	s0, #1.000000000000000000e+00
  40619c:	bd0c73e0 	str	s0, [sp, #3184]
  4061a0:	f9063fff 	str	xzr, [sp, #3192]
  4061a4:	f90643ff 	str	xzr, [sp, #3200]
  4061a8:	9132e3e1 	add	x1, sp, #0xcb8
  4061ac:	f90647e1 	str	x1, [sp, #3208]
  4061b0:	f9064be0 	str	x0, [sp, #3216]
  4061b4:	f9064fff 	str	xzr, [sp, #3224]
  4061b8:	f90653ff 	str	xzr, [sp, #3232]
  4061bc:	bd0cabe0 	str	s0, [sp, #3240]
  4061c0:	f9065bff 	str	xzr, [sp, #3248]
  4061c4:	f9065fff 	str	xzr, [sp, #3256]
  4061c8:	52800040 	mov	w0, #0x2                   	// #2
  4061cc:	b90c13e0 	str	w0, [sp, #3088]
  4061d0:	f946bfe0 	ldr	x0, [sp, #3448]
  4061d4:	b90c17e0 	str	w0, [sp, #3092]
  4061d8:	913043e1 	add	x1, sp, #0xc10
  4061dc:	910443e0 	add	x0, sp, #0x110
  4061e0:	94001129 	bl	40a684 <_ZN7segmentC1ERKS_>
  4061e4:	910443e1 	add	x1, sp, #0x110
  4061e8:	aa1603e0 	mov	x0, x22
  4061ec:	97fff810 	bl	40422c <_ZN5model9FindDigitE7segment>
  4061f0:	2a0003fb 	mov	w27, w0
  4061f4:	910623e0 	add	x0, sp, #0x188
  4061f8:	97fff5a1 	bl	40387c <_ZNSt10_HashtableIiSt4pairIKiiESaIS2_ENSt8__detail10_Select1stESt8equal_toIiESt4hashIiENS4_18_Mod_range_hashingENS4_20_Default_ranged_hashENS4_20_Prime_rehash_policyENS4_17_Hashtable_traitsILb0ELb0ELb1EEEED1Ev>
  4061fc:	910543e0 	add	x0, sp, #0x150
  406200:	97fff576 	bl	4037d8 <_ZNSt10_HashtableINSt7__cxx1112basic_stringIcSt11char_traitsIcESaIcEEESt4pairIKS5_iESaIS8_ENSt8__detail10_Select1stESt8equal_toIS5_ESt4hashIS5_ENSA_18_Mod_range_hashingENSA_20_Default_ranged_hashENSA_20_Prime_rehash_policyENSA_17_Hashtable_traitsILb1ELb0ELb1EEEED1Ev>
  406204:	f9409be0 	ldr	x0, [sp, #304]
  406208:	b4000080 	cbz	x0, 406218 <_ZN5model5parseENSt7__cxx1112basic_stringIcSt11char_traitsIcESaIcEEE+0x130>
  40620c:	f940a3e1 	ldr	x1, [sp, #320]
  406210:	cb000021 	sub	x1, x1, x0
  406214:	97ffefab 	bl	4020c0 <_ZdlPvm@plt>
  406218:	f9408ff4 	ldr	x20, [sp, #280]
  40621c:	f94093fa 	ldr	x26, [sp, #288]
  406220:	eb1a029f 	cmp	x20, x26
  406224:	54000241 	b.ne	40626c <_ZN5model5parseENSt7__cxx1112basic_stringIcSt11char_traitsIcESaIcEEE+0x184>  // b.any
  406228:	f9408fe0 	ldr	x0, [sp, #280]
  40622c:	b4000080 	cbz	x0, 40623c <_ZN5model5parseENSt7__cxx1112basic_stringIcSt11char_traitsIcESaIcEEE+0x154>
  406230:	f94097e1 	ldr	x1, [sp, #296]
  406234:	cb000021 	sub	x1, x1, x0
  406238:	97ffefa2 	bl	4020c0 <_ZdlPvm@plt>
  40623c:	3100077f 	cmn	w27, #0x1
  406240:	54000200 	b.eq	406280 <_ZN5model5parseENSt7__cxx1112basic_stringIcSt11char_traitsIcESaIcEEE+0x198>  // b.none
  406244:	913043e1 	add	x1, sp, #0xc10
  406248:	910703e0 	add	x0, sp, #0x1c0
  40624c:	9400110e 	bl	40a684 <_ZN7segmentC1ERKS_>
  406250:	14000031 	b	406314 <_ZN5model5parseENSt7__cxx1112basic_stringIcSt11char_traitsIcESaIcEEE+0x22c>
  406254:	f9400a81 	ldr	x1, [x20, #16]
  406258:	91000421 	add	x1, x1, #0x1
  40625c:	97ffef99 	bl	4020c0 <_ZdlPvm@plt>
  406260:	91008294 	add	x20, x20, #0x20
  406264:	eb14035f 	cmp	x26, x20
  406268:	54fffe00 	b.eq	406228 <_ZN5model5parseENSt7__cxx1112basic_stringIcSt11char_traitsIcESaIcEEE+0x140>  // b.none
  40626c:	aa1403e1 	mov	x1, x20
  406270:	f8410420 	ldr	x0, [x1], #16
  406274:	eb01001f 	cmp	x0, x1
  406278:	54fffee1 	b.ne	406254 <_ZN5model5parseENSt7__cxx1112basic_stringIcSt11char_traitsIcESaIcEEE+0x16c>  // b.any
  40627c:	17fffff9 	b	406260 <_ZN5model5parseENSt7__cxx1112basic_stringIcSt11char_traitsIcESaIcEEE+0x178>
  406280:	b9400ac0 	ldr	w0, [x22, #8]
  406284:	11000400 	add	w0, w0, #0x1
  406288:	b9000ac0 	str	w0, [x22, #8]
  40628c:	b90b63e0 	str	w0, [sp, #2912]
  406290:	913043e1 	add	x1, sp, #0xc10
  406294:	910122c0 	add	x0, x22, #0x48
  406298:	9400186d 	bl	40c44c <_ZNSt6vectorI7segmentSaIS0_EE12emplace_backIJRS0_EEEvDpOT_>
  40629c:	b98b63e0 	ldrsw	x0, [sp, #2912]
  4062a0:	8b000414 	add	x20, x0, x0, lsl #1
  4062a4:	d37ef694 	lsl	x20, x20, #2
  4062a8:	cb000294 	sub	x20, x20, x0
  4062ac:	f94026c0 	ldr	x0, [x22, #72]
  4062b0:	8b141014 	add	x20, x0, x20, lsl #4
  4062b4:	913343e0 	add	x0, sp, #0xcd0
  4062b8:	f90663e0 	str	x0, [sp, #3264]
  4062bc:	f946bbe1 	ldr	x1, [sp, #3440]
  4062c0:	52800003 	mov	w3, #0x0                   	// #0
  4062c4:	f946bfe2 	ldr	x2, [sp, #3448]
  4062c8:	8b020022 	add	x2, x1, x2
  4062cc:	913303e0 	add	x0, sp, #0xcc0
  4062d0:	94000e61 	bl	409c54 <_ZNSt7__cxx1112basic_stringIcSt11char_traitsIcESaIcEE12_M_constructIPcEEvT_S7_St20forward_iterator_tag>
  4062d4:	913303e1 	add	x1, sp, #0xcc0
  4062d8:	aa1403e0 	mov	x0, x20
  4062dc:	97fffd00 	bl	4056dc <_ZN7segment6insertENSt7__cxx1112basic_stringIcSt11char_traitsIcESaIcEEE>
  4062e0:	f94663e0 	ldr	x0, [sp, #3264]
  4062e4:	913343e1 	add	x1, sp, #0xcd0
  4062e8:	eb01001f 	cmp	x0, x1
  4062ec:	54000080 	b.eq	4062fc <_ZN5model5parseENSt7__cxx1112basic_stringIcSt11char_traitsIcESaIcEEE+0x214>  // b.none
  4062f0:	f9466be1 	ldr	x1, [sp, #3280]
  4062f4:	91000421 	add	x1, x1, #0x1
  4062f8:	97ffef72 	bl	4020c0 <_ZdlPvm@plt>
  4062fc:	912d83e1 	add	x1, sp, #0xb60
  406300:	9103a2c0 	add	x0, x22, #0xe8
  406304:	94001394 	bl	40b154 <_ZNSt8__detail9_Map_baseIiSt4pairIKiiESaIS3_ENS_10_Select1stESt8equal_toIiESt4hashIiENS_18_Mod_range_hashingENS_20_Default_ranged_hashENS_20_Prime_rehash_policyENS_17_Hashtable_traitsILb0ELb0ELb1EEELb1EEixERS2_>
  406308:	52800021 	mov	w1, #0x1                   	// #1
  40630c:	b9000001 	str	w1, [x0]
  406310:	14000041 	b	406414 <_ZN5model5parseENSt7__cxx1112basic_stringIcSt11char_traitsIcESaIcEEE+0x32c>
  406314:	910703e1 	add	x1, sp, #0x1c0
  406318:	aa1603e0 	mov	x0, x22
  40631c:	97fff7c4 	bl	40422c <_ZN5model9FindDigitE7segment>
  406320:	b90b63e0 	str	w0, [sp, #2912]
  406324:	9108e3e0 	add	x0, sp, #0x238
  406328:	97fff555 	bl	40387c <_ZNSt10_HashtableIiSt4pairIKiiESaIS2_ENSt8__detail10_Select1stESt8equal_toIiESt4hashIiENS4_18_Mod_range_hashingENS4_20_Default_ranged_hashENS4_20_Prime_rehash_policyENS4_17_Hashtable_traitsILb0ELb0ELb1EEEED1Ev>
  40632c:	910803e0 	add	x0, sp, #0x200
  406330:	97fff52a 	bl	4037d8 <_ZNSt10_HashtableINSt7__cxx1112basic_stringIcSt11char_traitsIcESaIcEEESt4pairIKS5_iESaIS8_ENSt8__detail10_Select1stESt8equal_toIS5_ESt4hashIS5_ENSA_18_Mod_range_hashingENSA_20_Default_ranged_hashENSA_20_Prime_rehash_policyENSA_17_Hashtable_traitsILb1ELb0ELb1EEEED1Ev>
  406334:	f940f3e0 	ldr	x0, [sp, #480]
  406338:	b4000080 	cbz	x0, 406348 <_ZN5model5parseENSt7__cxx1112basic_stringIcSt11char_traitsIcESaIcEEE+0x260>
  40633c:	f940fbe1 	ldr	x1, [sp, #496]
  406340:	cb000021 	sub	x1, x1, x0
  406344:	97ffef5f 	bl	4020c0 <_ZdlPvm@plt>
  406348:	f940e7f4 	ldr	x20, [sp, #456]
  40634c:	f940ebfa 	ldr	x26, [sp, #464]
  406350:	eb1a029f 	cmp	x20, x26
  406354:	540001a1 	b.ne	406388 <_ZN5model5parseENSt7__cxx1112basic_stringIcSt11char_traitsIcESaIcEEE+0x2a0>  // b.any
  406358:	f940e7e0 	ldr	x0, [sp, #456]
  40635c:	b4000080 	cbz	x0, 40636c <_ZN5model5parseENSt7__cxx1112basic_stringIcSt11char_traitsIcESaIcEEE+0x284>
  406360:	f940efe1 	ldr	x1, [sp, #472]
  406364:	cb000021 	sub	x1, x1, x0
  406368:	97ffef56 	bl	4020c0 <_ZdlPvm@plt>
  40636c:	912d83e1 	add	x1, sp, #0xb60
  406370:	9103a2c0 	add	x0, x22, #0xe8
  406374:	94001378 	bl	40b154 <_ZNSt8__detail9_Map_baseIiSt4pairIKiiESaIS3_ENS_10_Select1stESt8equal_toIiESt4hashIiENS_18_Mod_range_hashingENS_20_Default_ranged_hashENS_20_Prime_rehash_policyENS_17_Hashtable_traitsILb0ELb0ELb1EEELb1EEixERS2_>
  406378:	1400000c 	b	4063a8 <_ZN5model5parseENSt7__cxx1112basic_stringIcSt11char_traitsIcESaIcEEE+0x2c0>
  40637c:	91008294 	add	x20, x20, #0x20
  406380:	eb14035f 	cmp	x26, x20
  406384:	54fffea0 	b.eq	406358 <_ZN5model5parseENSt7__cxx1112basic_stringIcSt11char_traitsIcESaIcEEE+0x270>  // b.none
  406388:	aa1403e1 	mov	x1, x20
  40638c:	f8410420 	ldr	x0, [x1], #16
  406390:	eb01001f 	cmp	x0, x1
  406394:	54ffff40 	b.eq	40637c <_ZN5model5parseENSt7__cxx1112basic_stringIcSt11char_traitsIcESaIcEEE+0x294>  // b.none
  406398:	f9400a81 	ldr	x1, [x20, #16]
  40639c:	91000421 	add	x1, x1, #0x1
  4063a0:	97ffef48 	bl	4020c0 <_ZdlPvm@plt>
  4063a4:	17fffff6 	b	40637c <_ZN5model5parseENSt7__cxx1112basic_stringIcSt11char_traitsIcESaIcEEE+0x294>
  4063a8:	b9400001 	ldr	w1, [x0]
  4063ac:	11000421 	add	w1, w1, #0x1
  4063b0:	b9000001 	str	w1, [x0]
  4063b4:	b98b63e0 	ldrsw	x0, [sp, #2912]
  4063b8:	8b000414 	add	x20, x0, x0, lsl #1
  4063bc:	d37ef694 	lsl	x20, x20, #2
  4063c0:	cb000294 	sub	x20, x20, x0
  4063c4:	f94026c0 	ldr	x0, [x22, #72]
  4063c8:	8b141014 	add	x20, x0, x20, lsl #4
  4063cc:	913343e0 	add	x0, sp, #0xcd0
  4063d0:	f90663e0 	str	x0, [sp, #3264]
  4063d4:	f946bbe1 	ldr	x1, [sp, #3440]
  4063d8:	52800003 	mov	w3, #0x0                   	// #0
  4063dc:	f946bfe2 	ldr	x2, [sp, #3448]
  4063e0:	8b020022 	add	x2, x1, x2
  4063e4:	913303e0 	add	x0, sp, #0xcc0
  4063e8:	94000e1b 	bl	409c54 <_ZNSt7__cxx1112basic_stringIcSt11char_traitsIcESaIcEE12_M_constructIPcEEvT_S7_St20forward_iterator_tag>
  4063ec:	913303e1 	add	x1, sp, #0xcc0
  4063f0:	aa1403e0 	mov	x0, x20
  4063f4:	97fffcba 	bl	4056dc <_ZN7segment6insertENSt7__cxx1112basic_stringIcSt11char_traitsIcESaIcEEE>
  4063f8:	f94663e0 	ldr	x0, [sp, #3264]
  4063fc:	913343e1 	add	x1, sp, #0xcd0
  406400:	eb01001f 	cmp	x0, x1
  406404:	54000080 	b.eq	406414 <_ZN5model5parseENSt7__cxx1112basic_stringIcSt11char_traitsIcESaIcEEE+0x32c>  // b.none
  406408:	f9466be1 	ldr	x1, [sp, #3280]
  40640c:	91000421 	add	x1, x1, #0x1
  406410:	97ffef2c 	bl	4020c0 <_ZdlPvm@plt>
  406414:	f906bfff 	str	xzr, [sp, #3448]
  406418:	f946bbe0 	ldr	x0, [sp, #3440]
  40641c:	3900001f 	strb	wzr, [x0]
  406420:	913043e1 	add	x1, sp, #0xc10
  406424:	913303e0 	add	x0, sp, #0xcc0
  406428:	94001097 	bl	40a684 <_ZN7segmentC1ERKS_>
  40642c:	913303e1 	add	x1, sp, #0xcc0
  406430:	913643e0 	add	x0, sp, #0xd90
  406434:	94001806 	bl	40c44c <_ZNSt6vectorI7segmentSaIS0_EE12emplace_backIJRS0_EEEvDpOT_>
  406438:	9134e3e0 	add	x0, sp, #0xd38
  40643c:	97fff510 	bl	40387c <_ZNSt10_HashtableIiSt4pairIKiiESaIS2_ENSt8__detail10_Select1stESt8equal_toIiESt4hashIiENS4_18_Mod_range_hashingENS4_20_Default_ranged_hashENS4_20_Prime_rehash_policyENS4_17_Hashtable_traitsILb0ELb0ELb1EEEED1Ev>
  406440:	913403e0 	add	x0, sp, #0xd00
  406444:	97fff4e5 	bl	4037d8 <_ZNSt10_HashtableINSt7__cxx1112basic_stringIcSt11char_traitsIcESaIcEEESt4pairIKS5_iESaIS8_ENSt8__detail10_Select1stESt8equal_toIS5_ESt4hashIS5_ENSA_18_Mod_range_hashingENSA_20_Default_ranged_hashENSA_20_Prime_rehash_policyENSA_17_Hashtable_traitsILb1ELb0ELb1EEEED1Ev>
  406448:	f94673e0 	ldr	x0, [sp, #3296]
  40644c:	b4000080 	cbz	x0, 40645c <_ZN5model5parseENSt7__cxx1112basic_stringIcSt11char_traitsIcESaIcEEE+0x374>
  406450:	f9467be1 	ldr	x1, [sp, #3312]
  406454:	cb000021 	sub	x1, x1, x0
  406458:	97ffef1a 	bl	4020c0 <_ZdlPvm@plt>
  40645c:	f94667f4 	ldr	x20, [sp, #3272]
  406460:	f9466bfa 	ldr	x26, [sp, #3280]
  406464:	eb1a029f 	cmp	x20, x26
  406468:	54000b41 	b.ne	4065d0 <_ZN5model5parseENSt7__cxx1112basic_stringIcSt11char_traitsIcESaIcEEE+0x4e8>  // b.any
  40646c:	f94667e0 	ldr	x0, [sp, #3272]
  406470:	b4000080 	cbz	x0, 406480 <_ZN5model5parseENSt7__cxx1112basic_stringIcSt11char_traitsIcESaIcEEE+0x398>
  406474:	f9466fe1 	ldr	x1, [sp, #3288]
  406478:	cb000021 	sub	x1, x1, x0
  40647c:	97ffef11 	bl	4020c0 <_ZdlPvm@plt>
  406480:	913223e0 	add	x0, sp, #0xc88
  406484:	97fff4fe 	bl	40387c <_ZNSt10_HashtableIiSt4pairIKiiESaIS2_ENSt8__detail10_Select1stESt8equal_toIiESt4hashIiENS4_18_Mod_range_hashingENS4_20_Default_ranged_hashENS4_20_Prime_rehash_policyENS4_17_Hashtable_traitsILb0ELb0ELb1EEEED1Ev>
  406488:	913143e0 	add	x0, sp, #0xc50
  40648c:	97fff4d3 	bl	4037d8 <_ZNSt10_HashtableINSt7__cxx1112basic_stringIcSt11char_traitsIcESaIcEEESt4pairIKS5_iESaIS8_ENSt8__detail10_Select1stESt8equal_toIS5_ESt4hashIS5_ENSA_18_Mod_range_hashingENSA_20_Default_ranged_hashENSA_20_Prime_rehash_policyENSA_17_Hashtable_traitsILb1ELb0ELb1EEEED1Ev>
  406490:	f9461be0 	ldr	x0, [sp, #3120]
  406494:	b4000080 	cbz	x0, 4064a4 <_ZN5model5parseENSt7__cxx1112basic_stringIcSt11char_traitsIcESaIcEEE+0x3bc>
  406498:	f94623e1 	ldr	x1, [sp, #3136]
  40649c:	cb000021 	sub	x1, x1, x0
  4064a0:	97ffef08 	bl	4020c0 <_ZdlPvm@plt>
  4064a4:	f9460ff4 	ldr	x20, [sp, #3096]
  4064a8:	f94613fa 	ldr	x26, [sp, #3104]
  4064ac:	eb1a029f 	cmp	x20, x26
  4064b0:	54000a61 	b.ne	4065fc <_ZN5model5parseENSt7__cxx1112basic_stringIcSt11char_traitsIcESaIcEEE+0x514>  // b.any
  4064b4:	f9460fe0 	ldr	x0, [sp, #3096]
  4064b8:	b4000080 	cbz	x0, 4064c8 <_ZN5model5parseENSt7__cxx1112basic_stringIcSt11char_traitsIcESaIcEEE+0x3e0>
  4064bc:	f94617e1 	ldr	x1, [sp, #3112]
  4064c0:	cb000021 	sub	x1, x1, x0
  4064c4:	97ffeeff 	bl	4020c0 <_ZdlPvm@plt>
  4064c8:	f946bffa 	ldr	x26, [sp, #3448]
  4064cc:	91000754 	add	x20, x26, #0x1
  4064d0:	f946bbe0 	ldr	x0, [sp, #3440]
  4064d4:	eb18001f 	cmp	x0, x24
  4064d8:	f946c3e0 	ldr	x0, [sp, #3456]
  4064dc:	d28001e1 	mov	x1, #0xf                   	// #15
  4064e0:	9a811000 	csel	x0, x0, x1, ne  // ne = any
  4064e4:	eb00029f 	cmp	x20, x0
  4064e8:	54002348 	b.hi	406950 <_ZN5model5parseENSt7__cxx1112basic_stringIcSt11char_traitsIcESaIcEEE+0x868>  // b.pmore
  4064ec:	f946bbe0 	ldr	x0, [sp, #3440]
  4064f0:	383a6815 	strb	w21, [x0, x26]
  4064f4:	f906bff4 	str	x20, [sp, #3448]
  4064f8:	f946bbe0 	ldr	x0, [sp, #3440]
  4064fc:	3834681f 	strb	wzr, [x0, x20]
  406500:	52800034 	mov	w20, #0x1                   	// #1
  406504:	91000673 	add	x19, x19, #0x1
  406508:	eb1302ff 	cmp	x23, x19
  40650c:	5400a1e0 	b.eq	407948 <_ZN5model5parseENSt7__cxx1112basic_stringIcSt11char_traitsIcESaIcEEE+0x1860>  // b.none
  406510:	39400275 	ldrb	w21, [x19]
  406514:	2a1503e0 	mov	w0, w21
  406518:	97ffef0a 	bl	402140 <isalpha@plt>
  40651c:	34002280 	cbz	w0, 40696c <_ZN5model5parseENSt7__cxx1112basic_stringIcSt11char_traitsIcESaIcEEE+0x884>
  406520:	7100069f 	cmp	w20, #0x1
  406524:	54fffd20 	b.eq	4064c8 <_ZN5model5parseENSt7__cxx1112basic_stringIcSt11char_traitsIcESaIcEEE+0x3e0>  // b.none
  406528:	71000a9f 	cmp	w20, #0x2
  40652c:	54ffe1e0 	b.eq	406168 <_ZN5model5parseENSt7__cxx1112basic_stringIcSt11char_traitsIcESaIcEEE+0x80>  // b.none
  406530:	71000e9f 	cmp	w20, #0x3
  406534:	54fffca1 	b.ne	4064c8 <_ZN5model5parseENSt7__cxx1112basic_stringIcSt11char_traitsIcESaIcEEE+0x3e0>  // b.any
  406538:	f9060fff 	str	xzr, [sp, #3096]
  40653c:	f90613ff 	str	xzr, [sp, #3104]
  406540:	f90617ff 	str	xzr, [sp, #3112]
  406544:	f9061bff 	str	xzr, [sp, #3120]
  406548:	f9061fff 	str	xzr, [sp, #3128]
  40654c:	f90623ff 	str	xzr, [sp, #3136]
  406550:	b90c4bff 	str	wzr, [sp, #3144]
  406554:	f9062bf9 	str	x25, [sp, #3152]
  406558:	d2800020 	mov	x0, #0x1                   	// #1
  40655c:	f9062fe0 	str	x0, [sp, #3160]
  406560:	f90633ff 	str	xzr, [sp, #3168]
  406564:	f90637ff 	str	xzr, [sp, #3176]
  406568:	1e2e1000 	fmov	s0, #1.000000000000000000e+00
  40656c:	bd0c73e0 	str	s0, [sp, #3184]
  406570:	f9063fff 	str	xzr, [sp, #3192]
  406574:	f90643ff 	str	xzr, [sp, #3200]
  406578:	9132e3e1 	add	x1, sp, #0xcb8
  40657c:	f90647e1 	str	x1, [sp, #3208]
  406580:	f9064be0 	str	x0, [sp, #3216]
  406584:	f9064fff 	str	xzr, [sp, #3224]
  406588:	f90653ff 	str	xzr, [sp, #3232]
  40658c:	bd0cabe0 	str	s0, [sp, #3240]
  406590:	f9065bff 	str	xzr, [sp, #3248]
  406594:	f9065fff 	str	xzr, [sp, #3256]
  406598:	52800060 	mov	w0, #0x3                   	// #3
  40659c:	b90c13e0 	str	w0, [sp, #3088]
  4065a0:	f946bfe0 	ldr	x0, [sp, #3448]
  4065a4:	b90c17e0 	str	w0, [sp, #3092]
  4065a8:	913043e1 	add	x1, sp, #0xc10
  4065ac:	9109c3e0 	add	x0, sp, #0x270
  4065b0:	94001035 	bl	40a684 <_ZN7segmentC1ERKS_>
  4065b4:	14000017 	b	406610 <_ZN5model5parseENSt7__cxx1112basic_stringIcSt11char_traitsIcESaIcEEE+0x528>
  4065b8:	f9400a81 	ldr	x1, [x20, #16]
  4065bc:	91000421 	add	x1, x1, #0x1
  4065c0:	97ffeec0 	bl	4020c0 <_ZdlPvm@plt>
  4065c4:	91008294 	add	x20, x20, #0x20
  4065c8:	eb14035f 	cmp	x26, x20
  4065cc:	54fff500 	b.eq	40646c <_ZN5model5parseENSt7__cxx1112basic_stringIcSt11char_traitsIcESaIcEEE+0x384>  // b.none
  4065d0:	aa1403e1 	mov	x1, x20
  4065d4:	f8410420 	ldr	x0, [x1], #16
  4065d8:	eb01001f 	cmp	x0, x1
  4065dc:	54fffee1 	b.ne	4065b8 <_ZN5model5parseENSt7__cxx1112basic_stringIcSt11char_traitsIcESaIcEEE+0x4d0>  // b.any
  4065e0:	17fffff9 	b	4065c4 <_ZN5model5parseENSt7__cxx1112basic_stringIcSt11char_traitsIcESaIcEEE+0x4dc>
  4065e4:	f9400a81 	ldr	x1, [x20, #16]
  4065e8:	91000421 	add	x1, x1, #0x1
  4065ec:	97ffeeb5 	bl	4020c0 <_ZdlPvm@plt>
  4065f0:	91008294 	add	x20, x20, #0x20
  4065f4:	eb14035f 	cmp	x26, x20
  4065f8:	54fff5e0 	b.eq	4064b4 <_ZN5model5parseENSt7__cxx1112basic_stringIcSt11char_traitsIcESaIcEEE+0x3cc>  // b.none
  4065fc:	aa1403e1 	mov	x1, x20
  406600:	f8410420 	ldr	x0, [x1], #16
  406604:	eb01001f 	cmp	x0, x1
  406608:	54fffee1 	b.ne	4065e4 <_ZN5model5parseENSt7__cxx1112basic_stringIcSt11char_traitsIcESaIcEEE+0x4fc>  // b.any
  40660c:	17fffff9 	b	4065f0 <_ZN5model5parseENSt7__cxx1112basic_stringIcSt11char_traitsIcESaIcEEE+0x508>
  406610:	9109c3e1 	add	x1, sp, #0x270
  406614:	aa1603e0 	mov	x0, x22
  406618:	97fff71e 	bl	404290 <_ZN5model10FindSymbolE7segment>
  40661c:	2a0003fb 	mov	w27, w0
  406620:	910ba3e0 	add	x0, sp, #0x2e8
  406624:	97fff496 	bl	40387c <_ZNSt10_HashtableIiSt4pairIKiiESaIS2_ENSt8__detail10_Select1stESt8equal_toIiESt4hashIiENS4_18_Mod_range_hashingENS4_20_Default_ranged_hashENS4_20_Prime_rehash_policyENS4_17_Hashtable_traitsILb0ELb0ELb1EEEED1Ev>
  406628:	910ac3e0 	add	x0, sp, #0x2b0
  40662c:	97fff46b 	bl	4037d8 <_ZNSt10_HashtableINSt7__cxx1112basic_stringIcSt11char_traitsIcESaIcEEESt4pairIKS5_iESaIS8_ENSt8__detail10_Select1stESt8equal_toIS5_ESt4hashIS5_ENSA_18_Mod_range_hashingENSA_20_Default_ranged_hashENSA_20_Prime_rehash_policyENSA_17_Hashtable_traitsILb1ELb0ELb1EEEED1Ev>
  406630:	f9414be0 	ldr	x0, [sp, #656]
  406634:	b4000080 	cbz	x0, 406644 <_ZN5model5parseENSt7__cxx1112basic_stringIcSt11char_traitsIcESaIcEEE+0x55c>
  406638:	f94153e1 	ldr	x1, [sp, #672]
  40663c:	cb000021 	sub	x1, x1, x0
  406640:	97ffeea0 	bl	4020c0 <_ZdlPvm@plt>
  406644:	f9413ff4 	ldr	x20, [sp, #632]
  406648:	f94143fa 	ldr	x26, [sp, #640]
  40664c:	eb1a029f 	cmp	x20, x26
  406650:	540001e1 	b.ne	40668c <_ZN5model5parseENSt7__cxx1112basic_stringIcSt11char_traitsIcESaIcEEE+0x5a4>  // b.any
  406654:	f9413fe0 	ldr	x0, [sp, #632]
  406658:	b4000080 	cbz	x0, 406668 <_ZN5model5parseENSt7__cxx1112basic_stringIcSt11char_traitsIcESaIcEEE+0x580>
  40665c:	f94147e1 	ldr	x1, [sp, #648]
  406660:	cb000021 	sub	x1, x1, x0
  406664:	97ffee97 	bl	4020c0 <_ZdlPvm@plt>
  406668:	3100077f 	cmn	w27, #0x1
  40666c:	54000200 	b.eq	4066ac <_ZN5model5parseENSt7__cxx1112basic_stringIcSt11char_traitsIcESaIcEEE+0x5c4>  // b.none
  406670:	913043e1 	add	x1, sp, #0xc10
  406674:	910c83e0 	add	x0, sp, #0x320
  406678:	94001003 	bl	40a684 <_ZN7segmentC1ERKS_>
  40667c:	14000031 	b	406740 <_ZN5model5parseENSt7__cxx1112basic_stringIcSt11char_traitsIcESaIcEEE+0x658>
  406680:	91008294 	add	x20, x20, #0x20
  406684:	eb14035f 	cmp	x26, x20
  406688:	54fffe60 	b.eq	406654 <_ZN5model5parseENSt7__cxx1112basic_stringIcSt11char_traitsIcESaIcEEE+0x56c>  // b.none
  40668c:	aa1403e1 	mov	x1, x20
  406690:	f8410420 	ldr	x0, [x1], #16
  406694:	eb01001f 	cmp	x0, x1
  406698:	54ffff40 	b.eq	406680 <_ZN5model5parseENSt7__cxx1112basic_stringIcSt11char_traitsIcESaIcEEE+0x598>  // b.none
  40669c:	f9400a81 	ldr	x1, [x20, #16]
  4066a0:	91000421 	add	x1, x1, #0x1
  4066a4:	97ffee87 	bl	4020c0 <_ZdlPvm@plt>
  4066a8:	17fffff6 	b	406680 <_ZN5model5parseENSt7__cxx1112basic_stringIcSt11char_traitsIcESaIcEEE+0x598>
  4066ac:	b9400ec0 	ldr	w0, [x22, #12]
  4066b0:	11000400 	add	w0, w0, #0x1
  4066b4:	b9000ec0 	str	w0, [x22, #12]
  4066b8:	b90b63e0 	str	w0, [sp, #2912]
  4066bc:	913043e1 	add	x1, sp, #0xc10
  4066c0:	910182c0 	add	x0, x22, #0x60
  4066c4:	94001762 	bl	40c44c <_ZNSt6vectorI7segmentSaIS0_EE12emplace_backIJRS0_EEEvDpOT_>
  4066c8:	912d83e1 	add	x1, sp, #0xb60
  4066cc:	910482c0 	add	x0, x22, #0x120
  4066d0:	940012a1 	bl	40b154 <_ZNSt8__detail9_Map_baseIiSt4pairIKiiESaIS3_ENS_10_Select1stESt8equal_toIiESt4hashIiENS_18_Mod_range_hashingENS_20_Default_ranged_hashENS_20_Prime_rehash_policyENS_17_Hashtable_traitsILb0ELb0ELb1EEELb1EEixERS2_>
  4066d4:	52800021 	mov	w1, #0x1                   	// #1
  4066d8:	b9000001 	str	w1, [x0]
  4066dc:	b98b63e0 	ldrsw	x0, [sp, #2912]
  4066e0:	8b000414 	add	x20, x0, x0, lsl #1
  4066e4:	d37ef694 	lsl	x20, x20, #2
  4066e8:	cb000294 	sub	x20, x20, x0
  4066ec:	f94032c0 	ldr	x0, [x22, #96]
  4066f0:	8b141014 	add	x20, x0, x20, lsl #4
  4066f4:	913343e0 	add	x0, sp, #0xcd0
  4066f8:	f90663e0 	str	x0, [sp, #3264]
  4066fc:	f946bbe1 	ldr	x1, [sp, #3440]
  406700:	52800003 	mov	w3, #0x0                   	// #0
  406704:	f946bfe2 	ldr	x2, [sp, #3448]
  406708:	8b020022 	add	x2, x1, x2
  40670c:	913303e0 	add	x0, sp, #0xcc0
  406710:	94000d51 	bl	409c54 <_ZNSt7__cxx1112basic_stringIcSt11char_traitsIcESaIcEE12_M_constructIPcEEvT_S7_St20forward_iterator_tag>
  406714:	913303e1 	add	x1, sp, #0xcc0
  406718:	aa1403e0 	mov	x0, x20
  40671c:	97fffbf0 	bl	4056dc <_ZN7segment6insertENSt7__cxx1112basic_stringIcSt11char_traitsIcESaIcEEE>
  406720:	f94663e0 	ldr	x0, [sp, #3264]
  406724:	913343e1 	add	x1, sp, #0xcd0
  406728:	eb01001f 	cmp	x0, x1
  40672c:	540008a0 	b.eq	406840 <_ZN5model5parseENSt7__cxx1112basic_stringIcSt11char_traitsIcESaIcEEE+0x758>  // b.none
  406730:	f9466be1 	ldr	x1, [sp, #3280]
  406734:	91000421 	add	x1, x1, #0x1
  406738:	97ffee62 	bl	4020c0 <_ZdlPvm@plt>
  40673c:	14000041 	b	406840 <_ZN5model5parseENSt7__cxx1112basic_stringIcSt11char_traitsIcESaIcEEE+0x758>
  406740:	910c83e1 	add	x1, sp, #0x320
  406744:	aa1603e0 	mov	x0, x22
  406748:	97fff6d2 	bl	404290 <_ZN5model10FindSymbolE7segment>
  40674c:	b90b63e0 	str	w0, [sp, #2912]
  406750:	910e63e0 	add	x0, sp, #0x398
  406754:	97fff44a 	bl	40387c <_ZNSt10_HashtableIiSt4pairIKiiESaIS2_ENSt8__detail10_Select1stESt8equal_toIiESt4hashIiENS4_18_Mod_range_hashingENS4_20_Default_ranged_hashENS4_20_Prime_rehash_policyENS4_17_Hashtable_traitsILb0ELb0ELb1EEEED1Ev>
  406758:	910d83e0 	add	x0, sp, #0x360
  40675c:	97fff41f 	bl	4037d8 <_ZNSt10_HashtableINSt7__cxx1112basic_stringIcSt11char_traitsIcESaIcEEESt4pairIKS5_iESaIS8_ENSt8__detail10_Select1stESt8equal_toIS5_ESt4hashIS5_ENSA_18_Mod_range_hashingENSA_20_Default_ranged_hashENSA_20_Prime_rehash_policyENSA_17_Hashtable_traitsILb1ELb0ELb1EEEED1Ev>
  406760:	f941a3e0 	ldr	x0, [sp, #832]
  406764:	b4000080 	cbz	x0, 406774 <_ZN5model5parseENSt7__cxx1112basic_stringIcSt11char_traitsIcESaIcEEE+0x68c>
  406768:	f941abe1 	ldr	x1, [sp, #848]
  40676c:	cb000021 	sub	x1, x1, x0
  406770:	97ffee54 	bl	4020c0 <_ZdlPvm@plt>
  406774:	f94197f4 	ldr	x20, [sp, #808]
  406778:	f9419bfa 	ldr	x26, [sp, #816]
  40677c:	eb1a029f 	cmp	x20, x26
  406780:	540001a1 	b.ne	4067b4 <_ZN5model5parseENSt7__cxx1112basic_stringIcSt11char_traitsIcESaIcEEE+0x6cc>  // b.any
  406784:	f94197e0 	ldr	x0, [sp, #808]
  406788:	b4000080 	cbz	x0, 406798 <_ZN5model5parseENSt7__cxx1112basic_stringIcSt11char_traitsIcESaIcEEE+0x6b0>
  40678c:	f9419fe1 	ldr	x1, [sp, #824]
  406790:	cb000021 	sub	x1, x1, x0
  406794:	97ffee4b 	bl	4020c0 <_ZdlPvm@plt>
  406798:	912d83e1 	add	x1, sp, #0xb60
  40679c:	910482c0 	add	x0, x22, #0x120
  4067a0:	9400126d 	bl	40b154 <_ZNSt8__detail9_Map_baseIiSt4pairIKiiESaIS3_ENS_10_Select1stESt8equal_toIiESt4hashIiENS_18_Mod_range_hashingENS_20_Default_ranged_hashENS_20_Prime_rehash_policyENS_17_Hashtable_traitsILb0ELb0ELb1EEELb1EEixERS2_>
  4067a4:	1400000c 	b	4067d4 <_ZN5model5parseENSt7__cxx1112basic_stringIcSt11char_traitsIcESaIcEEE+0x6ec>
  4067a8:	91008294 	add	x20, x20, #0x20
  4067ac:	eb14035f 	cmp	x26, x20
  4067b0:	54fffea0 	b.eq	406784 <_ZN5model5parseENSt7__cxx1112basic_stringIcSt11char_traitsIcESaIcEEE+0x69c>  // b.none
  4067b4:	aa1403e1 	mov	x1, x20
  4067b8:	f8410420 	ldr	x0, [x1], #16
  4067bc:	eb01001f 	cmp	x0, x1
  4067c0:	54ffff40 	b.eq	4067a8 <_ZN5model5parseENSt7__cxx1112basic_stringIcSt11char_traitsIcESaIcEEE+0x6c0>  // b.none
  4067c4:	f9400a81 	ldr	x1, [x20, #16]
  4067c8:	91000421 	add	x1, x1, #0x1
  4067cc:	97ffee3d 	bl	4020c0 <_ZdlPvm@plt>
  4067d0:	17fffff6 	b	4067a8 <_ZN5model5parseENSt7__cxx1112basic_stringIcSt11char_traitsIcESaIcEEE+0x6c0>
  4067d4:	b9400001 	ldr	w1, [x0]
  4067d8:	11000421 	add	w1, w1, #0x1
  4067dc:	b9000001 	str	w1, [x0]
  4067e0:	b98b63e0 	ldrsw	x0, [sp, #2912]
  4067e4:	8b000414 	add	x20, x0, x0, lsl #1
  4067e8:	d37ef694 	lsl	x20, x20, #2
  4067ec:	cb000294 	sub	x20, x20, x0
  4067f0:	f94032c0 	ldr	x0, [x22, #96]
  4067f4:	8b141014 	add	x20, x0, x20, lsl #4
  4067f8:	913343e0 	add	x0, sp, #0xcd0
  4067fc:	f90663e0 	str	x0, [sp, #3264]
  406800:	f946bbe1 	ldr	x1, [sp, #3440]
  406804:	52800003 	mov	w3, #0x0                   	// #0
  406808:	f946bfe2 	ldr	x2, [sp, #3448]
  40680c:	8b020022 	add	x2, x1, x2
  406810:	913303e0 	add	x0, sp, #0xcc0
  406814:	94000d10 	bl	409c54 <_ZNSt7__cxx1112basic_stringIcSt11char_traitsIcESaIcEE12_M_constructIPcEEvT_S7_St20forward_iterator_tag>
  406818:	913303e1 	add	x1, sp, #0xcc0
  40681c:	aa1403e0 	mov	x0, x20
  406820:	97fffbaf 	bl	4056dc <_ZN7segment6insertENSt7__cxx1112basic_stringIcSt11char_traitsIcESaIcEEE>
  406824:	f94663e0 	ldr	x0, [sp, #3264]
  406828:	913343e1 	add	x1, sp, #0xcd0
  40682c:	eb01001f 	cmp	x0, x1
  406830:	54000080 	b.eq	406840 <_ZN5model5parseENSt7__cxx1112basic_stringIcSt11char_traitsIcESaIcEEE+0x758>  // b.none
  406834:	f9466be1 	ldr	x1, [sp, #3280]
  406838:	91000421 	add	x1, x1, #0x1
  40683c:	97ffee21 	bl	4020c0 <_ZdlPvm@plt>
  406840:	f906bfff 	str	xzr, [sp, #3448]
  406844:	f946bbe0 	ldr	x0, [sp, #3440]
  406848:	3900001f 	strb	wzr, [x0]
  40684c:	913043e1 	add	x1, sp, #0xc10
  406850:	913303e0 	add	x0, sp, #0xcc0
  406854:	94000f8c 	bl	40a684 <_ZN7segmentC1ERKS_>
  406858:	913303e1 	add	x1, sp, #0xcc0
  40685c:	913643e0 	add	x0, sp, #0xd90
  406860:	940016fb 	bl	40c44c <_ZNSt6vectorI7segmentSaIS0_EE12emplace_backIJRS0_EEEvDpOT_>
  406864:	9134e3e0 	add	x0, sp, #0xd38
  406868:	97fff405 	bl	40387c <_ZNSt10_HashtableIiSt4pairIKiiESaIS2_ENSt8__detail10_Select1stESt8equal_toIiESt4hashIiENS4_18_Mod_range_hashingENS4_20_Default_ranged_hashENS4_20_Prime_rehash_policyENS4_17_Hashtable_traitsILb0ELb0ELb1EEEED1Ev>
  40686c:	913403e0 	add	x0, sp, #0xd00
  406870:	97fff3da 	bl	4037d8 <_ZNSt10_HashtableINSt7__cxx1112basic_stringIcSt11char_traitsIcESaIcEEESt4pairIKS5_iESaIS8_ENSt8__detail10_Select1stESt8equal_toIS5_ESt4hashIS5_ENSA_18_Mod_range_hashingENSA_20_Default_ranged_hashENSA_20_Prime_rehash_policyENSA_17_Hashtable_traitsILb1ELb0ELb1EEEED1Ev>
  406874:	f94673e0 	ldr	x0, [sp, #3296]
  406878:	b4000080 	cbz	x0, 406888 <_ZN5model5parseENSt7__cxx1112basic_stringIcSt11char_traitsIcESaIcEEE+0x7a0>
  40687c:	f9467be1 	ldr	x1, [sp, #3312]
  406880:	cb000021 	sub	x1, x1, x0
  406884:	97ffee0f 	bl	4020c0 <_ZdlPvm@plt>
  406888:	f94667f4 	ldr	x20, [sp, #3272]
  40688c:	f9466bfa 	ldr	x26, [sp, #3280]
  406890:	eb1a029f 	cmp	x20, x26
  406894:	54000381 	b.ne	406904 <_ZN5model5parseENSt7__cxx1112basic_stringIcSt11char_traitsIcESaIcEEE+0x81c>  // b.any
  406898:	f94667e0 	ldr	x0, [sp, #3272]
  40689c:	b4000080 	cbz	x0, 4068ac <_ZN5model5parseENSt7__cxx1112basic_stringIcSt11char_traitsIcESaIcEEE+0x7c4>
  4068a0:	f9466fe1 	ldr	x1, [sp, #3288]
  4068a4:	cb000021 	sub	x1, x1, x0
  4068a8:	97ffee06 	bl	4020c0 <_ZdlPvm@plt>
  4068ac:	913223e0 	add	x0, sp, #0xc88
  4068b0:	97fff3f3 	bl	40387c <_ZNSt10_HashtableIiSt4pairIKiiESaIS2_ENSt8__detail10_Select1stESt8equal_toIiESt4hashIiENS4_18_Mod_range_hashingENS4_20_Default_ranged_hashENS4_20_Prime_rehash_policyENS4_17_Hashtable_traitsILb0ELb0ELb1EEEED1Ev>
  4068b4:	913143e0 	add	x0, sp, #0xc50
  4068b8:	97fff3c8 	bl	4037d8 <_ZNSt10_HashtableINSt7__cxx1112basic_stringIcSt11char_traitsIcESaIcEEESt4pairIKS5_iESaIS8_ENSt8__detail10_Select1stESt8equal_toIS5_ESt4hashIS5_ENSA_18_Mod_range_hashingENSA_20_Default_ranged_hashENSA_20_Prime_rehash_policyENSA_17_Hashtable_traitsILb1ELb0ELb1EEEED1Ev>
  4068bc:	f9461be0 	ldr	x0, [sp, #3120]
  4068c0:	b4000080 	cbz	x0, 4068d0 <_ZN5model5parseENSt7__cxx1112basic_stringIcSt11char_traitsIcESaIcEEE+0x7e8>
  4068c4:	f94623e1 	ldr	x1, [sp, #3136]
  4068c8:	cb000021 	sub	x1, x1, x0
  4068cc:	97ffedfd 	bl	4020c0 <_ZdlPvm@plt>
  4068d0:	f9460ff4 	ldr	x20, [sp, #3096]
  4068d4:	f94613fa 	ldr	x26, [sp, #3104]
  4068d8:	eb1a029f 	cmp	x20, x26
  4068dc:	540002a1 	b.ne	406930 <_ZN5model5parseENSt7__cxx1112basic_stringIcSt11char_traitsIcESaIcEEE+0x848>  // b.any
  4068e0:	f9460fe0 	ldr	x0, [sp, #3096]
  4068e4:	b4ffdf20 	cbz	x0, 4064c8 <_ZN5model5parseENSt7__cxx1112basic_stringIcSt11char_traitsIcESaIcEEE+0x3e0>
  4068e8:	f94617e1 	ldr	x1, [sp, #3112]
  4068ec:	cb000021 	sub	x1, x1, x0
  4068f0:	97ffedf4 	bl	4020c0 <_ZdlPvm@plt>
  4068f4:	17fffef5 	b	4064c8 <_ZN5model5parseENSt7__cxx1112basic_stringIcSt11char_traitsIcESaIcEEE+0x3e0>
  4068f8:	91008294 	add	x20, x20, #0x20
  4068fc:	eb14035f 	cmp	x26, x20
  406900:	54fffcc0 	b.eq	406898 <_ZN5model5parseENSt7__cxx1112basic_stringIcSt11char_traitsIcESaIcEEE+0x7b0>  // b.none
  406904:	aa1403e1 	mov	x1, x20
  406908:	f8410420 	ldr	x0, [x1], #16
  40690c:	eb01001f 	cmp	x0, x1
  406910:	54ffff40 	b.eq	4068f8 <_ZN5model5parseENSt7__cxx1112basic_stringIcSt11char_traitsIcESaIcEEE+0x810>  // b.none
  406914:	f9400a81 	ldr	x1, [x20, #16]
  406918:	91000421 	add	x1, x1, #0x1
  40691c:	97ffede9 	bl	4020c0 <_ZdlPvm@plt>
  406920:	17fffff6 	b	4068f8 <_ZN5model5parseENSt7__cxx1112basic_stringIcSt11char_traitsIcESaIcEEE+0x810>
  406924:	91008294 	add	x20, x20, #0x20
  406928:	eb14035f 	cmp	x26, x20
  40692c:	54fffda0 	b.eq	4068e0 <_ZN5model5parseENSt7__cxx1112basic_stringIcSt11char_traitsIcESaIcEEE+0x7f8>  // b.none
  406930:	aa1403e1 	mov	x1, x20
  406934:	f8410420 	ldr	x0, [x1], #16
  406938:	eb01001f 	cmp	x0, x1
  40693c:	54ffff40 	b.eq	406924 <_ZN5model5parseENSt7__cxx1112basic_stringIcSt11char_traitsIcESaIcEEE+0x83c>  // b.none
  406940:	f9400a81 	ldr	x1, [x20, #16]
  406944:	91000421 	add	x1, x1, #0x1
  406948:	97ffedde 	bl	4020c0 <_ZdlPvm@plt>
  40694c:	17fffff6 	b	406924 <_ZN5model5parseENSt7__cxx1112basic_stringIcSt11char_traitsIcESaIcEEE+0x83c>
  406950:	d2800024 	mov	x4, #0x1                   	// #1
  406954:	d2800003 	mov	x3, #0x0                   	// #0
  406958:	d2800002 	mov	x2, #0x0                   	// #0
  40695c:	aa1a03e1 	mov	x1, x26
  406960:	9135c3e0 	add	x0, sp, #0xd70
  406964:	97ffee47 	bl	402280 <_ZNSt7__cxx1112basic_stringIcSt11char_traitsIcESaIcEE9_M_mutateEmmPKcm@plt>
  406968:	17fffee1 	b	4064ec <_ZN5model5parseENSt7__cxx1112basic_stringIcSt11char_traitsIcESaIcEEE+0x404>
  40696c:	5100c2a0 	sub	w0, w21, #0x30
  406970:	7100241f 	cmp	w0, #0x9
  406974:	54003f68 	b.hi	407160 <_ZN5model5parseENSt7__cxx1112basic_stringIcSt11char_traitsIcESaIcEEE+0x1078>  // b.pmore
  406978:	71000a9f 	cmp	w20, #0x2
  40697c:	540000a0 	b.eq	406990 <_ZN5model5parseENSt7__cxx1112basic_stringIcSt11char_traitsIcESaIcEEE+0x8a8>  // b.none
  406980:	7100069f 	cmp	w20, #0x1
  406984:	54000260 	b.eq	4069d0 <_ZN5model5parseENSt7__cxx1112basic_stringIcSt11char_traitsIcESaIcEEE+0x8e8>  // b.none
  406988:	71000e9f 	cmp	w20, #0x3
  40698c:	54001fe0 	b.eq	406d88 <_ZN5model5parseENSt7__cxx1112basic_stringIcSt11char_traitsIcESaIcEEE+0xca0>  // b.none
  406990:	f946bffa 	ldr	x26, [sp, #3448]
  406994:	91000754 	add	x20, x26, #0x1
  406998:	f946bbe0 	ldr	x0, [sp, #3440]
  40699c:	eb18001f 	cmp	x0, x24
  4069a0:	f946c3e0 	ldr	x0, [sp, #3456]
  4069a4:	d28001e1 	mov	x1, #0xf                   	// #15
  4069a8:	9a811000 	csel	x0, x0, x1, ne  // ne = any
  4069ac:	eb00029f 	cmp	x20, x0
  4069b0:	54003ca8 	b.hi	407144 <_ZN5model5parseENSt7__cxx1112basic_stringIcSt11char_traitsIcESaIcEEE+0x105c>  // b.pmore
  4069b4:	f946bbe0 	ldr	x0, [sp, #3440]
  4069b8:	383a6815 	strb	w21, [x0, x26]
  4069bc:	f906bff4 	str	x20, [sp, #3448]
  4069c0:	f946bbe0 	ldr	x0, [sp, #3440]
  4069c4:	3834681f 	strb	wzr, [x0, x20]
  4069c8:	52800054 	mov	w20, #0x2                   	// #2
  4069cc:	17fffece 	b	406504 <_ZN5model5parseENSt7__cxx1112basic_stringIcSt11char_traitsIcESaIcEEE+0x41c>
  4069d0:	f9060fff 	str	xzr, [sp, #3096]
  4069d4:	f90613ff 	str	xzr, [sp, #3104]
  4069d8:	f90617ff 	str	xzr, [sp, #3112]
  4069dc:	f9061bff 	str	xzr, [sp, #3120]
  4069e0:	f9061fff 	str	xzr, [sp, #3128]
  4069e4:	f90623ff 	str	xzr, [sp, #3136]
  4069e8:	b90c4bff 	str	wzr, [sp, #3144]
  4069ec:	f9062bf9 	str	x25, [sp, #3152]
  4069f0:	d2800020 	mov	x0, #0x1                   	// #1
  4069f4:	f9062fe0 	str	x0, [sp, #3160]
  4069f8:	f90633ff 	str	xzr, [sp, #3168]
  4069fc:	f90637ff 	str	xzr, [sp, #3176]
  406a00:	1e2e1000 	fmov	s0, #1.000000000000000000e+00
  406a04:	bd0c73e0 	str	s0, [sp, #3184]
  406a08:	f9063fff 	str	xzr, [sp, #3192]
  406a0c:	f90643ff 	str	xzr, [sp, #3200]
  406a10:	9132e3e1 	add	x1, sp, #0xcb8
  406a14:	f90647e1 	str	x1, [sp, #3208]
  406a18:	f9064be0 	str	x0, [sp, #3216]
  406a1c:	f9064fff 	str	xzr, [sp, #3224]
  406a20:	f90653ff 	str	xzr, [sp, #3232]
  406a24:	bd0cabe0 	str	s0, [sp, #3240]
  406a28:	f9065bff 	str	xzr, [sp, #3248]
  406a2c:	f9065fff 	str	xzr, [sp, #3256]
  406a30:	b90c13e0 	str	w0, [sp, #3088]
  406a34:	f946bfe0 	ldr	x0, [sp, #3448]
  406a38:	b90c17e0 	str	w0, [sp, #3092]
  406a3c:	913043e1 	add	x1, sp, #0xc10
  406a40:	910f43e0 	add	x0, sp, #0x3d0
  406a44:	94000f10 	bl	40a684 <_ZN7segmentC1ERKS_>
  406a48:	910f43e1 	add	x1, sp, #0x3d0
  406a4c:	aa1603e0 	mov	x0, x22
  406a50:	97fff5de 	bl	4041c8 <_ZN5model10FindLetterE7segment>
  406a54:	2a0003fb 	mov	w27, w0
  406a58:	911123e0 	add	x0, sp, #0x448
  406a5c:	97fff388 	bl	40387c <_ZNSt10_HashtableIiSt4pairIKiiESaIS2_ENSt8__detail10_Select1stESt8equal_toIiESt4hashIiENS4_18_Mod_range_hashingENS4_20_Default_ranged_hashENS4_20_Prime_rehash_policyENS4_17_Hashtable_traitsILb0ELb0ELb1EEEED1Ev>
  406a60:	911043e0 	add	x0, sp, #0x410
  406a64:	97fff35d 	bl	4037d8 <_ZNSt10_HashtableINSt7__cxx1112basic_stringIcSt11char_traitsIcESaIcEEESt4pairIKS5_iESaIS8_ENSt8__detail10_Select1stESt8equal_toIS5_ESt4hashIS5_ENSA_18_Mod_range_hashingENSA_20_Default_ranged_hashENSA_20_Prime_rehash_policyENSA_17_Hashtable_traitsILb1ELb0ELb1EEEED1Ev>
  406a68:	f941fbe0 	ldr	x0, [sp, #1008]
  406a6c:	b4000080 	cbz	x0, 406a7c <_ZN5model5parseENSt7__cxx1112basic_stringIcSt11char_traitsIcESaIcEEE+0x994>
  406a70:	f94203e1 	ldr	x1, [sp, #1024]
  406a74:	cb000021 	sub	x1, x1, x0
  406a78:	97ffed92 	bl	4020c0 <_ZdlPvm@plt>
  406a7c:	f941eff4 	ldr	x20, [sp, #984]
  406a80:	f941f3fa 	ldr	x26, [sp, #992]
  406a84:	eb1a029f 	cmp	x20, x26
  406a88:	540001e1 	b.ne	406ac4 <_ZN5model5parseENSt7__cxx1112basic_stringIcSt11char_traitsIcESaIcEEE+0x9dc>  // b.any
  406a8c:	f941efe0 	ldr	x0, [sp, #984]
  406a90:	b4000080 	cbz	x0, 406aa0 <_ZN5model5parseENSt7__cxx1112basic_stringIcSt11char_traitsIcESaIcEEE+0x9b8>
  406a94:	f941f7e1 	ldr	x1, [sp, #1000]
  406a98:	cb000021 	sub	x1, x1, x0
  406a9c:	97ffed89 	bl	4020c0 <_ZdlPvm@plt>
  406aa0:	3100077f 	cmn	w27, #0x1
  406aa4:	54000200 	b.eq	406ae4 <_ZN5model5parseENSt7__cxx1112basic_stringIcSt11char_traitsIcESaIcEEE+0x9fc>  // b.none
  406aa8:	913043e1 	add	x1, sp, #0xc10
  406aac:	911203e0 	add	x0, sp, #0x480
  406ab0:	94000ef5 	bl	40a684 <_ZN7segmentC1ERKS_>
  406ab4:	14000031 	b	406b78 <_ZN5model5parseENSt7__cxx1112basic_stringIcSt11char_traitsIcESaIcEEE+0xa90>
  406ab8:	91008294 	add	x20, x20, #0x20
  406abc:	eb14035f 	cmp	x26, x20
  406ac0:	54fffe60 	b.eq	406a8c <_ZN5model5parseENSt7__cxx1112basic_stringIcSt11char_traitsIcESaIcEEE+0x9a4>  // b.none
  406ac4:	aa1403e1 	mov	x1, x20
  406ac8:	f8410420 	ldr	x0, [x1], #16
  406acc:	eb01001f 	cmp	x0, x1
  406ad0:	54ffff40 	b.eq	406ab8 <_ZN5model5parseENSt7__cxx1112basic_stringIcSt11char_traitsIcESaIcEEE+0x9d0>  // b.none
  406ad4:	f9400a81 	ldr	x1, [x20, #16]
  406ad8:	91000421 	add	x1, x1, #0x1
  406adc:	97ffed79 	bl	4020c0 <_ZdlPvm@plt>
  406ae0:	17fffff6 	b	406ab8 <_ZN5model5parseENSt7__cxx1112basic_stringIcSt11char_traitsIcESaIcEEE+0x9d0>
  406ae4:	b94006c0 	ldr	w0, [x22, #4]
  406ae8:	11000400 	add	w0, w0, #0x1
  406aec:	b90006c0 	str	w0, [x22, #4]
  406af0:	b90b63e0 	str	w0, [sp, #2912]
  406af4:	913043e1 	add	x1, sp, #0xc10
  406af8:	9100c2c0 	add	x0, x22, #0x30
  406afc:	94001654 	bl	40c44c <_ZNSt6vectorI7segmentSaIS0_EE12emplace_backIJRS0_EEEvDpOT_>
  406b00:	912d83e1 	add	x1, sp, #0xb60
  406b04:	9102c2c0 	add	x0, x22, #0xb0
  406b08:	94001193 	bl	40b154 <_ZNSt8__detail9_Map_baseIiSt4pairIKiiESaIS3_ENS_10_Select1stESt8equal_toIiESt4hashIiENS_18_Mod_range_hashingENS_20_Default_ranged_hashENS_20_Prime_rehash_policyENS_17_Hashtable_traitsILb0ELb0ELb1EEELb1EEixERS2_>
  406b0c:	52800021 	mov	w1, #0x1                   	// #1
  406b10:	b9000001 	str	w1, [x0]
  406b14:	b98b63e0 	ldrsw	x0, [sp, #2912]
  406b18:	8b000414 	add	x20, x0, x0, lsl #1
  406b1c:	d37ef694 	lsl	x20, x20, #2
  406b20:	cb000294 	sub	x20, x20, x0
  406b24:	f9401ac0 	ldr	x0, [x22, #48]
  406b28:	8b141014 	add	x20, x0, x20, lsl #4
  406b2c:	913343e0 	add	x0, sp, #0xcd0
  406b30:	f90663e0 	str	x0, [sp, #3264]
  406b34:	f946bbe1 	ldr	x1, [sp, #3440]
  406b38:	52800003 	mov	w3, #0x0                   	// #0
  406b3c:	f946bfe2 	ldr	x2, [sp, #3448]
  406b40:	8b020022 	add	x2, x1, x2
  406b44:	913303e0 	add	x0, sp, #0xcc0
  406b48:	94000c43 	bl	409c54 <_ZNSt7__cxx1112basic_stringIcSt11char_traitsIcESaIcEE12_M_constructIPcEEvT_S7_St20forward_iterator_tag>
  406b4c:	913303e1 	add	x1, sp, #0xcc0
  406b50:	aa1403e0 	mov	x0, x20
  406b54:	97fffae2 	bl	4056dc <_ZN7segment6insertENSt7__cxx1112basic_stringIcSt11char_traitsIcESaIcEEE>
  406b58:	f94663e0 	ldr	x0, [sp, #3264]
  406b5c:	913343e1 	add	x1, sp, #0xcd0
  406b60:	eb01001f 	cmp	x0, x1
  406b64:	540008a0 	b.eq	406c78 <_ZN5model5parseENSt7__cxx1112basic_stringIcSt11char_traitsIcESaIcEEE+0xb90>  // b.none
  406b68:	f9466be1 	ldr	x1, [sp, #3280]
  406b6c:	91000421 	add	x1, x1, #0x1
  406b70:	97ffed54 	bl	4020c0 <_ZdlPvm@plt>
  406b74:	14000041 	b	406c78 <_ZN5model5parseENSt7__cxx1112basic_stringIcSt11char_traitsIcESaIcEEE+0xb90>
  406b78:	911203e1 	add	x1, sp, #0x480
  406b7c:	aa1603e0 	mov	x0, x22
  406b80:	97fff592 	bl	4041c8 <_ZN5model10FindLetterE7segment>
  406b84:	b90b63e0 	str	w0, [sp, #2912]
  406b88:	9113e3e0 	add	x0, sp, #0x4f8
  406b8c:	97fff33c 	bl	40387c <_ZNSt10_HashtableIiSt4pairIKiiESaIS2_ENSt8__detail10_Select1stESt8equal_toIiESt4hashIiENS4_18_Mod_range_hashingENS4_20_Default_ranged_hashENS4_20_Prime_rehash_policyENS4_17_Hashtable_traitsILb0ELb0ELb1EEEED1Ev>
  406b90:	911303e0 	add	x0, sp, #0x4c0
  406b94:	97fff311 	bl	4037d8 <_ZNSt10_HashtableINSt7__cxx1112basic_stringIcSt11char_traitsIcESaIcEEESt4pairIKS5_iESaIS8_ENSt8__detail10_Select1stESt8equal_toIS5_ESt4hashIS5_ENSA_18_Mod_range_hashingENSA_20_Default_ranged_hashENSA_20_Prime_rehash_policyENSA_17_Hashtable_traitsILb1ELb0ELb1EEEED1Ev>
  406b98:	f94253e0 	ldr	x0, [sp, #1184]
  406b9c:	b4000080 	cbz	x0, 406bac <_ZN5model5parseENSt7__cxx1112basic_stringIcSt11char_traitsIcESaIcEEE+0xac4>
  406ba0:	f9425be1 	ldr	x1, [sp, #1200]
  406ba4:	cb000021 	sub	x1, x1, x0
  406ba8:	97ffed46 	bl	4020c0 <_ZdlPvm@plt>
  406bac:	f94247f4 	ldr	x20, [sp, #1160]
  406bb0:	f9424bfa 	ldr	x26, [sp, #1168]
  406bb4:	eb1a029f 	cmp	x20, x26
  406bb8:	54000201 	b.ne	406bf8 <_ZN5model5parseENSt7__cxx1112basic_stringIcSt11char_traitsIcESaIcEEE+0xb10>  // b.any
  406bbc:	f94247e0 	ldr	x0, [sp, #1160]
  406bc0:	b4000080 	cbz	x0, 406bd0 <_ZN5model5parseENSt7__cxx1112basic_stringIcSt11char_traitsIcESaIcEEE+0xae8>
  406bc4:	f9424fe1 	ldr	x1, [sp, #1176]
  406bc8:	cb000021 	sub	x1, x1, x0
  406bcc:	97ffed3d 	bl	4020c0 <_ZdlPvm@plt>
  406bd0:	912d83e1 	add	x1, sp, #0xb60
  406bd4:	9102c2c0 	add	x0, x22, #0xb0
  406bd8:	9400115f 	bl	40b154 <_ZNSt8__detail9_Map_baseIiSt4pairIKiiESaIS3_ENS_10_Select1stESt8equal_toIiESt4hashIiENS_18_Mod_range_hashingENS_20_Default_ranged_hashENS_20_Prime_rehash_policyENS_17_Hashtable_traitsILb0ELb0ELb1EEELb1EEixERS2_>
  406bdc:	1400000c 	b	406c0c <_ZN5model5parseENSt7__cxx1112basic_stringIcSt11char_traitsIcESaIcEEE+0xb24>
  406be0:	f9400a81 	ldr	x1, [x20, #16]
  406be4:	91000421 	add	x1, x1, #0x1
  406be8:	97ffed36 	bl	4020c0 <_ZdlPvm@plt>
  406bec:	91008294 	add	x20, x20, #0x20
  406bf0:	eb14035f 	cmp	x26, x20
  406bf4:	54fffe40 	b.eq	406bbc <_ZN5model5parseENSt7__cxx1112basic_stringIcSt11char_traitsIcESaIcEEE+0xad4>  // b.none
  406bf8:	aa1403e1 	mov	x1, x20
  406bfc:	f8410420 	ldr	x0, [x1], #16
  406c00:	eb01001f 	cmp	x0, x1
  406c04:	54fffee1 	b.ne	406be0 <_ZN5model5parseENSt7__cxx1112basic_stringIcSt11char_traitsIcESaIcEEE+0xaf8>  // b.any
  406c08:	17fffff9 	b	406bec <_ZN5model5parseENSt7__cxx1112basic_stringIcSt11char_traitsIcESaIcEEE+0xb04>
  406c0c:	b9400001 	ldr	w1, [x0]
  406c10:	11000421 	add	w1, w1, #0x1
  406c14:	b9000001 	str	w1, [x0]
  406c18:	b98b63e0 	ldrsw	x0, [sp, #2912]
  406c1c:	8b000414 	add	x20, x0, x0, lsl #1
  406c20:	d37ef694 	lsl	x20, x20, #2
  406c24:	cb000294 	sub	x20, x20, x0
  406c28:	f9401ac0 	ldr	x0, [x22, #48]
  406c2c:	8b141014 	add	x20, x0, x20, lsl #4
  406c30:	913343e0 	add	x0, sp, #0xcd0
  406c34:	f90663e0 	str	x0, [sp, #3264]
  406c38:	f946bbe1 	ldr	x1, [sp, #3440]
  406c3c:	52800003 	mov	w3, #0x0                   	// #0
  406c40:	f946bfe2 	ldr	x2, [sp, #3448]
  406c44:	8b020022 	add	x2, x1, x2
  406c48:	913303e0 	add	x0, sp, #0xcc0
  406c4c:	94000c02 	bl	409c54 <_ZNSt7__cxx1112basic_stringIcSt11char_traitsIcESaIcEE12_M_constructIPcEEvT_S7_St20forward_iterator_tag>
  406c50:	913303e1 	add	x1, sp, #0xcc0
  406c54:	aa1403e0 	mov	x0, x20
  406c58:	97fffaa1 	bl	4056dc <_ZN7segment6insertENSt7__cxx1112basic_stringIcSt11char_traitsIcESaIcEEE>
  406c5c:	f94663e0 	ldr	x0, [sp, #3264]
  406c60:	913343e1 	add	x1, sp, #0xcd0
  406c64:	eb01001f 	cmp	x0, x1
  406c68:	54000080 	b.eq	406c78 <_ZN5model5parseENSt7__cxx1112basic_stringIcSt11char_traitsIcESaIcEEE+0xb90>  // b.none
  406c6c:	f9466be1 	ldr	x1, [sp, #3280]
  406c70:	91000421 	add	x1, x1, #0x1
  406c74:	97ffed13 	bl	4020c0 <_ZdlPvm@plt>
  406c78:	f906bfff 	str	xzr, [sp, #3448]
  406c7c:	f946bbe0 	ldr	x0, [sp, #3440]
  406c80:	3900001f 	strb	wzr, [x0]
  406c84:	913043e1 	add	x1, sp, #0xc10
  406c88:	913303e0 	add	x0, sp, #0xcc0
  406c8c:	94000e7e 	bl	40a684 <_ZN7segmentC1ERKS_>
  406c90:	913303e1 	add	x1, sp, #0xcc0
  406c94:	913643e0 	add	x0, sp, #0xd90
  406c98:	940015ed 	bl	40c44c <_ZNSt6vectorI7segmentSaIS0_EE12emplace_backIJRS0_EEEvDpOT_>
  406c9c:	9134e3e0 	add	x0, sp, #0xd38
  406ca0:	97fff2f7 	bl	40387c <_ZNSt10_HashtableIiSt4pairIKiiESaIS2_ENSt8__detail10_Select1stESt8equal_toIiESt4hashIiENS4_18_Mod_range_hashingENS4_20_Default_ranged_hashENS4_20_Prime_rehash_policyENS4_17_Hashtable_traitsILb0ELb0ELb1EEEED1Ev>
  406ca4:	913403e0 	add	x0, sp, #0xd00
  406ca8:	97fff2cc 	bl	4037d8 <_ZNSt10_HashtableINSt7__cxx1112basic_stringIcSt11char_traitsIcESaIcEEESt4pairIKS5_iESaIS8_ENSt8__detail10_Select1stESt8equal_toIS5_ESt4hashIS5_ENSA_18_Mod_range_hashingENSA_20_Default_ranged_hashENSA_20_Prime_rehash_policyENSA_17_Hashtable_traitsILb1ELb0ELb1EEEED1Ev>
  406cac:	f94673e0 	ldr	x0, [sp, #3296]
  406cb0:	b4000080 	cbz	x0, 406cc0 <_ZN5model5parseENSt7__cxx1112basic_stringIcSt11char_traitsIcESaIcEEE+0xbd8>
  406cb4:	f9467be1 	ldr	x1, [sp, #3312]
  406cb8:	cb000021 	sub	x1, x1, x0
  406cbc:	97ffed01 	bl	4020c0 <_ZdlPvm@plt>
  406cc0:	f94667f4 	ldr	x20, [sp, #3272]
  406cc4:	f9466bfa 	ldr	x26, [sp, #3280]
  406cc8:	eb1a029f 	cmp	x20, x26
  406ccc:	54000381 	b.ne	406d3c <_ZN5model5parseENSt7__cxx1112basic_stringIcSt11char_traitsIcESaIcEEE+0xc54>  // b.any
  406cd0:	f94667e0 	ldr	x0, [sp, #3272]
  406cd4:	b4000080 	cbz	x0, 406ce4 <_ZN5model5parseENSt7__cxx1112basic_stringIcSt11char_traitsIcESaIcEEE+0xbfc>
  406cd8:	f9466fe1 	ldr	x1, [sp, #3288]
  406cdc:	cb000021 	sub	x1, x1, x0
  406ce0:	97ffecf8 	bl	4020c0 <_ZdlPvm@plt>
  406ce4:	913223e0 	add	x0, sp, #0xc88
  406ce8:	97fff2e5 	bl	40387c <_ZNSt10_HashtableIiSt4pairIKiiESaIS2_ENSt8__detail10_Select1stESt8equal_toIiESt4hashIiENS4_18_Mod_range_hashingENS4_20_Default_ranged_hashENS4_20_Prime_rehash_policyENS4_17_Hashtable_traitsILb0ELb0ELb1EEEED1Ev>
  406cec:	913143e0 	add	x0, sp, #0xc50
  406cf0:	97fff2ba 	bl	4037d8 <_ZNSt10_HashtableINSt7__cxx1112basic_stringIcSt11char_traitsIcESaIcEEESt4pairIKS5_iESaIS8_ENSt8__detail10_Select1stESt8equal_toIS5_ESt4hashIS5_ENSA_18_Mod_range_hashingENSA_20_Default_ranged_hashENSA_20_Prime_rehash_policyENSA_17_Hashtable_traitsILb1ELb0ELb1EEEED1Ev>
  406cf4:	f9461be0 	ldr	x0, [sp, #3120]
  406cf8:	b4000080 	cbz	x0, 406d08 <_ZN5model5parseENSt7__cxx1112basic_stringIcSt11char_traitsIcESaIcEEE+0xc20>
  406cfc:	f94623e1 	ldr	x1, [sp, #3136]
  406d00:	cb000021 	sub	x1, x1, x0
  406d04:	97ffecef 	bl	4020c0 <_ZdlPvm@plt>
  406d08:	f9460ff4 	ldr	x20, [sp, #3096]
  406d0c:	f94613fa 	ldr	x26, [sp, #3104]
  406d10:	eb1a029f 	cmp	x20, x26
  406d14:	540002a1 	b.ne	406d68 <_ZN5model5parseENSt7__cxx1112basic_stringIcSt11char_traitsIcESaIcEEE+0xc80>  // b.any
  406d18:	f9460fe0 	ldr	x0, [sp, #3096]
  406d1c:	b4ffe3a0 	cbz	x0, 406990 <_ZN5model5parseENSt7__cxx1112basic_stringIcSt11char_traitsIcESaIcEEE+0x8a8>
  406d20:	f94617e1 	ldr	x1, [sp, #3112]
  406d24:	cb000021 	sub	x1, x1, x0
  406d28:	97ffece6 	bl	4020c0 <_ZdlPvm@plt>
  406d2c:	17ffff19 	b	406990 <_ZN5model5parseENSt7__cxx1112basic_stringIcSt11char_traitsIcESaIcEEE+0x8a8>
  406d30:	91008294 	add	x20, x20, #0x20
  406d34:	eb14035f 	cmp	x26, x20
  406d38:	54fffcc0 	b.eq	406cd0 <_ZN5model5parseENSt7__cxx1112basic_stringIcSt11char_traitsIcESaIcEEE+0xbe8>  // b.none
  406d3c:	aa1403e1 	mov	x1, x20
  406d40:	f8410420 	ldr	x0, [x1], #16
  406d44:	eb01001f 	cmp	x0, x1
  406d48:	54ffff40 	b.eq	406d30 <_ZN5model5parseENSt7__cxx1112basic_stringIcSt11char_traitsIcESaIcEEE+0xc48>  // b.none
  406d4c:	f9400a81 	ldr	x1, [x20, #16]
  406d50:	91000421 	add	x1, x1, #0x1
  406d54:	97ffecdb 	bl	4020c0 <_ZdlPvm@plt>
  406d58:	17fffff6 	b	406d30 <_ZN5model5parseENSt7__cxx1112basic_stringIcSt11char_traitsIcESaIcEEE+0xc48>
  406d5c:	91008294 	add	x20, x20, #0x20
  406d60:	eb14035f 	cmp	x26, x20
  406d64:	54fffda0 	b.eq	406d18 <_ZN5model5parseENSt7__cxx1112basic_stringIcSt11char_traitsIcESaIcEEE+0xc30>  // b.none
  406d68:	aa1403e1 	mov	x1, x20
  406d6c:	f8410420 	ldr	x0, [x1], #16
  406d70:	eb01001f 	cmp	x0, x1
  406d74:	54ffff40 	b.eq	406d5c <_ZN5model5parseENSt7__cxx1112basic_stringIcSt11char_traitsIcESaIcEEE+0xc74>  // b.none
  406d78:	f9400a81 	ldr	x1, [x20, #16]
  406d7c:	91000421 	add	x1, x1, #0x1
  406d80:	97ffecd0 	bl	4020c0 <_ZdlPvm@plt>
  406d84:	17fffff6 	b	406d5c <_ZN5model5parseENSt7__cxx1112basic_stringIcSt11char_traitsIcESaIcEEE+0xc74>
  406d88:	f9060fff 	str	xzr, [sp, #3096]
  406d8c:	f90613ff 	str	xzr, [sp, #3104]
  406d90:	f90617ff 	str	xzr, [sp, #3112]
  406d94:	f9061bff 	str	xzr, [sp, #3120]
  406d98:	f9061fff 	str	xzr, [sp, #3128]
  406d9c:	f90623ff 	str	xzr, [sp, #3136]
  406da0:	b90c4bff 	str	wzr, [sp, #3144]
  406da4:	f9062bf9 	str	x25, [sp, #3152]
  406da8:	d2800020 	mov	x0, #0x1                   	// #1
  406dac:	f9062fe0 	str	x0, [sp, #3160]
  406db0:	f90633ff 	str	xzr, [sp, #3168]
  406db4:	f90637ff 	str	xzr, [sp, #3176]
  406db8:	1e2e1000 	fmov	s0, #1.000000000000000000e+00
  406dbc:	bd0c73e0 	str	s0, [sp, #3184]
  406dc0:	f9063fff 	str	xzr, [sp, #3192]
  406dc4:	f90643ff 	str	xzr, [sp, #3200]
  406dc8:	9132e3e1 	add	x1, sp, #0xcb8
  406dcc:	f90647e1 	str	x1, [sp, #3208]
  406dd0:	f9064be0 	str	x0, [sp, #3216]
  406dd4:	f9064fff 	str	xzr, [sp, #3224]
  406dd8:	f90653ff 	str	xzr, [sp, #3232]
  406ddc:	bd0cabe0 	str	s0, [sp, #3240]
  406de0:	f9065bff 	str	xzr, [sp, #3248]
  406de4:	f9065fff 	str	xzr, [sp, #3256]
  406de8:	52800060 	mov	w0, #0x3                   	// #3
  406dec:	b90c13e0 	str	w0, [sp, #3088]
  406df0:	f946bfe0 	ldr	x0, [sp, #3448]
  406df4:	b90c17e0 	str	w0, [sp, #3092]
  406df8:	913043e1 	add	x1, sp, #0xc10
  406dfc:	9114c3e0 	add	x0, sp, #0x530
  406e00:	94000e21 	bl	40a684 <_ZN7segmentC1ERKS_>
  406e04:	9114c3e1 	add	x1, sp, #0x530
  406e08:	aa1603e0 	mov	x0, x22
  406e0c:	97fff521 	bl	404290 <_ZN5model10FindSymbolE7segment>
  406e10:	2a0003fb 	mov	w27, w0
  406e14:	9116a3e0 	add	x0, sp, #0x5a8
  406e18:	97fff299 	bl	40387c <_ZNSt10_HashtableIiSt4pairIKiiESaIS2_ENSt8__detail10_Select1stESt8equal_toIiESt4hashIiENS4_18_Mod_range_hashingENS4_20_Default_ranged_hashENS4_20_Prime_rehash_policyENS4_17_Hashtable_traitsILb0ELb0ELb1EEEED1Ev>
  406e1c:	9115c3e0 	add	x0, sp, #0x570
  406e20:	97fff26e 	bl	4037d8 <_ZNSt10_HashtableINSt7__cxx1112basic_stringIcSt11char_traitsIcESaIcEEESt4pairIKS5_iESaIS8_ENSt8__detail10_Select1stESt8equal_toIS5_ESt4hashIS5_ENSA_18_Mod_range_hashingENSA_20_Default_ranged_hashENSA_20_Prime_rehash_policyENSA_17_Hashtable_traitsILb1ELb0ELb1EEEED1Ev>
  406e24:	f942abe0 	ldr	x0, [sp, #1360]
  406e28:	b4000080 	cbz	x0, 406e38 <_ZN5model5parseENSt7__cxx1112basic_stringIcSt11char_traitsIcESaIcEEE+0xd50>
  406e2c:	f942b3e1 	ldr	x1, [sp, #1376]
  406e30:	cb000021 	sub	x1, x1, x0
  406e34:	97ffeca3 	bl	4020c0 <_ZdlPvm@plt>
  406e38:	f9429ff4 	ldr	x20, [sp, #1336]
  406e3c:	f942a3fa 	ldr	x26, [sp, #1344]
  406e40:	eb1a029f 	cmp	x20, x26
  406e44:	540001e1 	b.ne	406e80 <_ZN5model5parseENSt7__cxx1112basic_stringIcSt11char_traitsIcESaIcEEE+0xd98>  // b.any
  406e48:	f9429fe0 	ldr	x0, [sp, #1336]
  406e4c:	b4000080 	cbz	x0, 406e5c <_ZN5model5parseENSt7__cxx1112basic_stringIcSt11char_traitsIcESaIcEEE+0xd74>
  406e50:	f942a7e1 	ldr	x1, [sp, #1352]
  406e54:	cb000021 	sub	x1, x1, x0
  406e58:	97ffec9a 	bl	4020c0 <_ZdlPvm@plt>
  406e5c:	3100077f 	cmn	w27, #0x1
  406e60:	54000200 	b.eq	406ea0 <_ZN5model5parseENSt7__cxx1112basic_stringIcSt11char_traitsIcESaIcEEE+0xdb8>  // b.none
  406e64:	913043e1 	add	x1, sp, #0xc10
  406e68:	911783e0 	add	x0, sp, #0x5e0
  406e6c:	94000e06 	bl	40a684 <_ZN7segmentC1ERKS_>
  406e70:	14000031 	b	406f34 <_ZN5model5parseENSt7__cxx1112basic_stringIcSt11char_traitsIcESaIcEEE+0xe4c>
  406e74:	91008294 	add	x20, x20, #0x20
  406e78:	eb14035f 	cmp	x26, x20
  406e7c:	54fffe60 	b.eq	406e48 <_ZN5model5parseENSt7__cxx1112basic_stringIcSt11char_traitsIcESaIcEEE+0xd60>  // b.none
  406e80:	aa1403e1 	mov	x1, x20
  406e84:	f8410420 	ldr	x0, [x1], #16
  406e88:	eb01001f 	cmp	x0, x1
  406e8c:	54ffff40 	b.eq	406e74 <_ZN5model5parseENSt7__cxx1112basic_stringIcSt11char_traitsIcESaIcEEE+0xd8c>  // b.none
  406e90:	f9400a81 	ldr	x1, [x20, #16]
  406e94:	91000421 	add	x1, x1, #0x1
  406e98:	97ffec8a 	bl	4020c0 <_ZdlPvm@plt>
  406e9c:	17fffff6 	b	406e74 <_ZN5model5parseENSt7__cxx1112basic_stringIcSt11char_traitsIcESaIcEEE+0xd8c>
  406ea0:	b9400ec0 	ldr	w0, [x22, #12]
  406ea4:	11000400 	add	w0, w0, #0x1
  406ea8:	b9000ec0 	str	w0, [x22, #12]
  406eac:	b90b63e0 	str	w0, [sp, #2912]
  406eb0:	913043e1 	add	x1, sp, #0xc10
  406eb4:	910182c0 	add	x0, x22, #0x60
  406eb8:	94001565 	bl	40c44c <_ZNSt6vectorI7segmentSaIS0_EE12emplace_backIJRS0_EEEvDpOT_>
  406ebc:	912d83e1 	add	x1, sp, #0xb60
  406ec0:	910482c0 	add	x0, x22, #0x120
  406ec4:	940010a4 	bl	40b154 <_ZNSt8__detail9_Map_baseIiSt4pairIKiiESaIS3_ENS_10_Select1stESt8equal_toIiESt4hashIiENS_18_Mod_range_hashingENS_20_Default_ranged_hashENS_20_Prime_rehash_policyENS_17_Hashtable_traitsILb0ELb0ELb1EEELb1EEixERS2_>
  406ec8:	52800021 	mov	w1, #0x1                   	// #1
  406ecc:	b9000001 	str	w1, [x0]
  406ed0:	b98b63e0 	ldrsw	x0, [sp, #2912]
  406ed4:	8b000414 	add	x20, x0, x0, lsl #1
  406ed8:	d37ef694 	lsl	x20, x20, #2
  406edc:	cb000294 	sub	x20, x20, x0
  406ee0:	f94032c0 	ldr	x0, [x22, #96]
  406ee4:	8b141014 	add	x20, x0, x20, lsl #4
  406ee8:	913343e0 	add	x0, sp, #0xcd0
  406eec:	f90663e0 	str	x0, [sp, #3264]
  406ef0:	f946bbe1 	ldr	x1, [sp, #3440]
  406ef4:	52800003 	mov	w3, #0x0                   	// #0
  406ef8:	f946bfe2 	ldr	x2, [sp, #3448]
  406efc:	8b020022 	add	x2, x1, x2
  406f00:	913303e0 	add	x0, sp, #0xcc0
  406f04:	94000b54 	bl	409c54 <_ZNSt7__cxx1112basic_stringIcSt11char_traitsIcESaIcEE12_M_constructIPcEEvT_S7_St20forward_iterator_tag>
  406f08:	913303e1 	add	x1, sp, #0xcc0
  406f0c:	aa1403e0 	mov	x0, x20
  406f10:	97fff9f3 	bl	4056dc <_ZN7segment6insertENSt7__cxx1112basic_stringIcSt11char_traitsIcESaIcEEE>
  406f14:	f94663e0 	ldr	x0, [sp, #3264]
  406f18:	913343e1 	add	x1, sp, #0xcd0
  406f1c:	eb01001f 	cmp	x0, x1
  406f20:	540008a0 	b.eq	407034 <_ZN5model5parseENSt7__cxx1112basic_stringIcSt11char_traitsIcESaIcEEE+0xf4c>  // b.none
  406f24:	f9466be1 	ldr	x1, [sp, #3280]
  406f28:	91000421 	add	x1, x1, #0x1
  406f2c:	97ffec65 	bl	4020c0 <_ZdlPvm@plt>
  406f30:	14000041 	b	407034 <_ZN5model5parseENSt7__cxx1112basic_stringIcSt11char_traitsIcESaIcEEE+0xf4c>
  406f34:	911783e1 	add	x1, sp, #0x5e0
  406f38:	aa1603e0 	mov	x0, x22
  406f3c:	97fff4d5 	bl	404290 <_ZN5model10FindSymbolE7segment>
  406f40:	b90b63e0 	str	w0, [sp, #2912]
  406f44:	911963e0 	add	x0, sp, #0x658
  406f48:	97fff24d 	bl	40387c <_ZNSt10_HashtableIiSt4pairIKiiESaIS2_ENSt8__detail10_Select1stESt8equal_toIiESt4hashIiENS4_18_Mod_range_hashingENS4_20_Default_ranged_hashENS4_20_Prime_rehash_policyENS4_17_Hashtable_traitsILb0ELb0ELb1EEEED1Ev>
  406f4c:	911883e0 	add	x0, sp, #0x620
  406f50:	97fff222 	bl	4037d8 <_ZNSt10_HashtableINSt7__cxx1112basic_stringIcSt11char_traitsIcESaIcEEESt4pairIKS5_iESaIS8_ENSt8__detail10_Select1stESt8equal_toIS5_ESt4hashIS5_ENSA_18_Mod_range_hashingENSA_20_Default_ranged_hashENSA_20_Prime_rehash_policyENSA_17_Hashtable_traitsILb1ELb0ELb1EEEED1Ev>
  406f54:	f94303e0 	ldr	x0, [sp, #1536]
  406f58:	b4000080 	cbz	x0, 406f68 <_ZN5model5parseENSt7__cxx1112basic_stringIcSt11char_traitsIcESaIcEEE+0xe80>
  406f5c:	f9430be1 	ldr	x1, [sp, #1552]
  406f60:	cb000021 	sub	x1, x1, x0
  406f64:	97ffec57 	bl	4020c0 <_ZdlPvm@plt>
  406f68:	f942f7f4 	ldr	x20, [sp, #1512]
  406f6c:	f942fbfa 	ldr	x26, [sp, #1520]
  406f70:	eb1a029f 	cmp	x20, x26
  406f74:	540001a1 	b.ne	406fa8 <_ZN5model5parseENSt7__cxx1112basic_stringIcSt11char_traitsIcESaIcEEE+0xec0>  // b.any
  406f78:	f942f7e0 	ldr	x0, [sp, #1512]
  406f7c:	b4000080 	cbz	x0, 406f8c <_ZN5model5parseENSt7__cxx1112basic_stringIcSt11char_traitsIcESaIcEEE+0xea4>
  406f80:	f942ffe1 	ldr	x1, [sp, #1528]
  406f84:	cb000021 	sub	x1, x1, x0
  406f88:	97ffec4e 	bl	4020c0 <_ZdlPvm@plt>
  406f8c:	912d83e1 	add	x1, sp, #0xb60
  406f90:	910482c0 	add	x0, x22, #0x120
  406f94:	94001070 	bl	40b154 <_ZNSt8__detail9_Map_baseIiSt4pairIKiiESaIS3_ENS_10_Select1stESt8equal_toIiESt4hashIiENS_18_Mod_range_hashingENS_20_Default_ranged_hashENS_20_Prime_rehash_policyENS_17_Hashtable_traitsILb0ELb0ELb1EEELb1EEixERS2_>
  406f98:	1400000c 	b	406fc8 <_ZN5model5parseENSt7__cxx1112basic_stringIcSt11char_traitsIcESaIcEEE+0xee0>
  406f9c:	91008294 	add	x20, x20, #0x20
  406fa0:	eb14035f 	cmp	x26, x20
  406fa4:	54fffea0 	b.eq	406f78 <_ZN5model5parseENSt7__cxx1112basic_stringIcSt11char_traitsIcESaIcEEE+0xe90>  // b.none
  406fa8:	aa1403e1 	mov	x1, x20
  406fac:	f8410420 	ldr	x0, [x1], #16
  406fb0:	eb01001f 	cmp	x0, x1
  406fb4:	54ffff40 	b.eq	406f9c <_ZN5model5parseENSt7__cxx1112basic_stringIcSt11char_traitsIcESaIcEEE+0xeb4>  // b.none
  406fb8:	f9400a81 	ldr	x1, [x20, #16]
  406fbc:	91000421 	add	x1, x1, #0x1
  406fc0:	97ffec40 	bl	4020c0 <_ZdlPvm@plt>
  406fc4:	17fffff6 	b	406f9c <_ZN5model5parseENSt7__cxx1112basic_stringIcSt11char_traitsIcESaIcEEE+0xeb4>
  406fc8:	b9400001 	ldr	w1, [x0]
  406fcc:	11000421 	add	w1, w1, #0x1
  406fd0:	b9000001 	str	w1, [x0]
  406fd4:	b98b63e0 	ldrsw	x0, [sp, #2912]
  406fd8:	8b000414 	add	x20, x0, x0, lsl #1
  406fdc:	d37ef694 	lsl	x20, x20, #2
  406fe0:	cb000294 	sub	x20, x20, x0
  406fe4:	f94032c0 	ldr	x0, [x22, #96]
  406fe8:	8b141014 	add	x20, x0, x20, lsl #4
  406fec:	913343e0 	add	x0, sp, #0xcd0
  406ff0:	f90663e0 	str	x0, [sp, #3264]
  406ff4:	f946bbe1 	ldr	x1, [sp, #3440]
  406ff8:	52800003 	mov	w3, #0x0                   	// #0
  406ffc:	f946bfe2 	ldr	x2, [sp, #3448]
  407000:	8b020022 	add	x2, x1, x2
  407004:	913303e0 	add	x0, sp, #0xcc0
  407008:	94000b13 	bl	409c54 <_ZNSt7__cxx1112basic_stringIcSt11char_traitsIcESaIcEE12_M_constructIPcEEvT_S7_St20forward_iterator_tag>
  40700c:	913303e1 	add	x1, sp, #0xcc0
  407010:	aa1403e0 	mov	x0, x20
  407014:	97fff9b2 	bl	4056dc <_ZN7segment6insertENSt7__cxx1112basic_stringIcSt11char_traitsIcESaIcEEE>
  407018:	f94663e0 	ldr	x0, [sp, #3264]
  40701c:	913343e1 	add	x1, sp, #0xcd0
  407020:	eb01001f 	cmp	x0, x1
  407024:	54000080 	b.eq	407034 <_ZN5model5parseENSt7__cxx1112basic_stringIcSt11char_traitsIcESaIcEEE+0xf4c>  // b.none
  407028:	f9466be1 	ldr	x1, [sp, #3280]
  40702c:	91000421 	add	x1, x1, #0x1
  407030:	97ffec24 	bl	4020c0 <_ZdlPvm@plt>
  407034:	f906bfff 	str	xzr, [sp, #3448]
  407038:	f946bbe0 	ldr	x0, [sp, #3440]
  40703c:	3900001f 	strb	wzr, [x0]
  407040:	913043e1 	add	x1, sp, #0xc10
  407044:	913303e0 	add	x0, sp, #0xcc0
  407048:	94000d8f 	bl	40a684 <_ZN7segmentC1ERKS_>
  40704c:	913303e1 	add	x1, sp, #0xcc0
  407050:	913643e0 	add	x0, sp, #0xd90
  407054:	940014fe 	bl	40c44c <_ZNSt6vectorI7segmentSaIS0_EE12emplace_backIJRS0_EEEvDpOT_>
  407058:	9134e3e0 	add	x0, sp, #0xd38
  40705c:	97fff208 	bl	40387c <_ZNSt10_HashtableIiSt4pairIKiiESaIS2_ENSt8__detail10_Select1stESt8equal_toIiESt4hashIiENS4_18_Mod_range_hashingENS4_20_Default_ranged_hashENS4_20_Prime_rehash_policyENS4_17_Hashtable_traitsILb0ELb0ELb1EEEED1Ev>
  407060:	913403e0 	add	x0, sp, #0xd00
  407064:	97fff1dd 	bl	4037d8 <_ZNSt10_HashtableINSt7__cxx1112basic_stringIcSt11char_traitsIcESaIcEEESt4pairIKS5_iESaIS8_ENSt8__detail10_Select1stESt8equal_toIS5_ESt4hashIS5_ENSA_18_Mod_range_hashingENSA_20_Default_ranged_hashENSA_20_Prime_rehash_policyENSA_17_Hashtable_traitsILb1ELb0ELb1EEEED1Ev>
  407068:	f94673e0 	ldr	x0, [sp, #3296]
  40706c:	b4000080 	cbz	x0, 40707c <_ZN5model5parseENSt7__cxx1112basic_stringIcSt11char_traitsIcESaIcEEE+0xf94>
  407070:	f9467be1 	ldr	x1, [sp, #3312]
  407074:	cb000021 	sub	x1, x1, x0
  407078:	97ffec12 	bl	4020c0 <_ZdlPvm@plt>
  40707c:	f94667f4 	ldr	x20, [sp, #3272]
  407080:	f9466bfa 	ldr	x26, [sp, #3280]
  407084:	eb1a029f 	cmp	x20, x26
  407088:	54000381 	b.ne	4070f8 <_ZN5model5parseENSt7__cxx1112basic_stringIcSt11char_traitsIcESaIcEEE+0x1010>  // b.any
  40708c:	f94667e0 	ldr	x0, [sp, #3272]
  407090:	b4000080 	cbz	x0, 4070a0 <_ZN5model5parseENSt7__cxx1112basic_stringIcSt11char_traitsIcESaIcEEE+0xfb8>
  407094:	f9466fe1 	ldr	x1, [sp, #3288]
  407098:	cb000021 	sub	x1, x1, x0
  40709c:	97ffec09 	bl	4020c0 <_ZdlPvm@plt>
  4070a0:	913223e0 	add	x0, sp, #0xc88
  4070a4:	97fff1f6 	bl	40387c <_ZNSt10_HashtableIiSt4pairIKiiESaIS2_ENSt8__detail10_Select1stESt8equal_toIiESt4hashIiENS4_18_Mod_range_hashingENS4_20_Default_ranged_hashENS4_20_Prime_rehash_policyENS4_17_Hashtable_traitsILb0ELb0ELb1EEEED1Ev>
  4070a8:	913143e0 	add	x0, sp, #0xc50
  4070ac:	97fff1cb 	bl	4037d8 <_ZNSt10_HashtableINSt7__cxx1112basic_stringIcSt11char_traitsIcESaIcEEESt4pairIKS5_iESaIS8_ENSt8__detail10_Select1stESt8equal_toIS5_ESt4hashIS5_ENSA_18_Mod_range_hashingENSA_20_Default_ranged_hashENSA_20_Prime_rehash_policyENSA_17_Hashtable_traitsILb1ELb0ELb1EEEED1Ev>
  4070b0:	f9461be0 	ldr	x0, [sp, #3120]
  4070b4:	b4000080 	cbz	x0, 4070c4 <_ZN5model5parseENSt7__cxx1112basic_stringIcSt11char_traitsIcESaIcEEE+0xfdc>
  4070b8:	f94623e1 	ldr	x1, [sp, #3136]
  4070bc:	cb000021 	sub	x1, x1, x0
  4070c0:	97ffec00 	bl	4020c0 <_ZdlPvm@plt>
  4070c4:	f9460ff4 	ldr	x20, [sp, #3096]
  4070c8:	f94613fa 	ldr	x26, [sp, #3104]
  4070cc:	eb1a029f 	cmp	x20, x26
  4070d0:	540002a1 	b.ne	407124 <_ZN5model5parseENSt7__cxx1112basic_stringIcSt11char_traitsIcESaIcEEE+0x103c>  // b.any
  4070d4:	f9460fe0 	ldr	x0, [sp, #3096]
  4070d8:	b4ffc5c0 	cbz	x0, 406990 <_ZN5model5parseENSt7__cxx1112basic_stringIcSt11char_traitsIcESaIcEEE+0x8a8>
  4070dc:	f94617e1 	ldr	x1, [sp, #3112]
  4070e0:	cb000021 	sub	x1, x1, x0
  4070e4:	97ffebf7 	bl	4020c0 <_ZdlPvm@plt>
  4070e8:	17fffe2a 	b	406990 <_ZN5model5parseENSt7__cxx1112basic_stringIcSt11char_traitsIcESaIcEEE+0x8a8>
  4070ec:	91008294 	add	x20, x20, #0x20
  4070f0:	eb14035f 	cmp	x26, x20
  4070f4:	54fffcc0 	b.eq	40708c <_ZN5model5parseENSt7__cxx1112basic_stringIcSt11char_traitsIcESaIcEEE+0xfa4>  // b.none
  4070f8:	aa1403e1 	mov	x1, x20
  4070fc:	f8410420 	ldr	x0, [x1], #16
  407100:	eb01001f 	cmp	x0, x1
  407104:	54ffff40 	b.eq	4070ec <_ZN5model5parseENSt7__cxx1112basic_stringIcSt11char_traitsIcESaIcEEE+0x1004>  // b.none
  407108:	f9400a81 	ldr	x1, [x20, #16]
  40710c:	91000421 	add	x1, x1, #0x1
  407110:	97ffebec 	bl	4020c0 <_ZdlPvm@plt>
  407114:	17fffff6 	b	4070ec <_ZN5model5parseENSt7__cxx1112basic_stringIcSt11char_traitsIcESaIcEEE+0x1004>
  407118:	91008294 	add	x20, x20, #0x20
  40711c:	eb14035f 	cmp	x26, x20
  407120:	54fffda0 	b.eq	4070d4 <_ZN5model5parseENSt7__cxx1112basic_stringIcSt11char_traitsIcESaIcEEE+0xfec>  // b.none
  407124:	aa1403e1 	mov	x1, x20
  407128:	f8410420 	ldr	x0, [x1], #16
  40712c:	eb01001f 	cmp	x0, x1
  407130:	54ffff40 	b.eq	407118 <_ZN5model5parseENSt7__cxx1112basic_stringIcSt11char_traitsIcESaIcEEE+0x1030>  // b.none
  407134:	f9400a81 	ldr	x1, [x20, #16]
  407138:	91000421 	add	x1, x1, #0x1
  40713c:	97ffebe1 	bl	4020c0 <_ZdlPvm@plt>
  407140:	17fffff6 	b	407118 <_ZN5model5parseENSt7__cxx1112basic_stringIcSt11char_traitsIcESaIcEEE+0x1030>
  407144:	d2800024 	mov	x4, #0x1                   	// #1
  407148:	d2800003 	mov	x3, #0x0                   	// #0
  40714c:	d2800002 	mov	x2, #0x0                   	// #0
  407150:	aa1a03e1 	mov	x1, x26
  407154:	9135c3e0 	add	x0, sp, #0xd70
  407158:	97ffec4a 	bl	402280 <_ZNSt7__cxx1112basic_stringIcSt11char_traitsIcESaIcEE9_M_mutateEmmPKcm@plt>
  40715c:	17fffe16 	b	4069b4 <_ZN5model5parseENSt7__cxx1112basic_stringIcSt11char_traitsIcESaIcEEE+0x8cc>
  407160:	71000e9f 	cmp	w20, #0x3
  407164:	540000a0 	b.eq	407178 <_ZN5model5parseENSt7__cxx1112basic_stringIcSt11char_traitsIcESaIcEEE+0x1090>  // b.none
  407168:	7100069f 	cmp	w20, #0x1
  40716c:	54000260 	b.eq	4071b8 <_ZN5model5parseENSt7__cxx1112basic_stringIcSt11char_traitsIcESaIcEEE+0x10d0>  // b.none
  407170:	71000a9f 	cmp	w20, #0x2
  407174:	54001fe0 	b.eq	407570 <_ZN5model5parseENSt7__cxx1112basic_stringIcSt11char_traitsIcESaIcEEE+0x1488>  // b.none
  407178:	f946bffa 	ldr	x26, [sp, #3448]
  40717c:	91000754 	add	x20, x26, #0x1
  407180:	f946bbe0 	ldr	x0, [sp, #3440]
  407184:	eb18001f 	cmp	x0, x24
  407188:	f946c3e0 	ldr	x0, [sp, #3456]
  40718c:	d28001e1 	mov	x1, #0xf                   	// #15
  407190:	9a811000 	csel	x0, x0, x1, ne  // ne = any
  407194:	eb00029f 	cmp	x20, x0
  407198:	54003ca8 	b.hi	40792c <_ZN5model5parseENSt7__cxx1112basic_stringIcSt11char_traitsIcESaIcEEE+0x1844>  // b.pmore
  40719c:	f946bbe0 	ldr	x0, [sp, #3440]
  4071a0:	383a6815 	strb	w21, [x0, x26]
  4071a4:	f906bff4 	str	x20, [sp, #3448]
  4071a8:	f946bbe0 	ldr	x0, [sp, #3440]
  4071ac:	3834681f 	strb	wzr, [x0, x20]
  4071b0:	52800074 	mov	w20, #0x3                   	// #3
  4071b4:	17fffcd4 	b	406504 <_ZN5model5parseENSt7__cxx1112basic_stringIcSt11char_traitsIcESaIcEEE+0x41c>
  4071b8:	f9060fff 	str	xzr, [sp, #3096]
  4071bc:	f90613ff 	str	xzr, [sp, #3104]
  4071c0:	f90617ff 	str	xzr, [sp, #3112]
  4071c4:	f9061bff 	str	xzr, [sp, #3120]
  4071c8:	f9061fff 	str	xzr, [sp, #3128]
  4071cc:	f90623ff 	str	xzr, [sp, #3136]
  4071d0:	b90c4bff 	str	wzr, [sp, #3144]
  4071d4:	f9062bf9 	str	x25, [sp, #3152]
  4071d8:	d2800020 	mov	x0, #0x1                   	// #1
  4071dc:	f9062fe0 	str	x0, [sp, #3160]
  4071e0:	f90633ff 	str	xzr, [sp, #3168]
  4071e4:	f90637ff 	str	xzr, [sp, #3176]
  4071e8:	1e2e1000 	fmov	s0, #1.000000000000000000e+00
  4071ec:	bd0c73e0 	str	s0, [sp, #3184]
  4071f0:	f9063fff 	str	xzr, [sp, #3192]
  4071f4:	f90643ff 	str	xzr, [sp, #3200]
  4071f8:	9132e3e1 	add	x1, sp, #0xcb8
  4071fc:	f90647e1 	str	x1, [sp, #3208]
  407200:	f9064be0 	str	x0, [sp, #3216]
  407204:	f9064fff 	str	xzr, [sp, #3224]
  407208:	f90653ff 	str	xzr, [sp, #3232]
  40720c:	bd0cabe0 	str	s0, [sp, #3240]
  407210:	f9065bff 	str	xzr, [sp, #3248]
  407214:	f9065fff 	str	xzr, [sp, #3256]
  407218:	b90c13e0 	str	w0, [sp, #3088]
  40721c:	f946bfe0 	ldr	x0, [sp, #3448]
  407220:	b90c17e0 	str	w0, [sp, #3092]
  407224:	913043e1 	add	x1, sp, #0xc10
  407228:	911a43e0 	add	x0, sp, #0x690
  40722c:	94000d16 	bl	40a684 <_ZN7segmentC1ERKS_>
  407230:	911a43e1 	add	x1, sp, #0x690
  407234:	aa1603e0 	mov	x0, x22
  407238:	97fff3e4 	bl	4041c8 <_ZN5model10FindLetterE7segment>
  40723c:	2a0003fb 	mov	w27, w0
  407240:	911c23e0 	add	x0, sp, #0x708
  407244:	97fff18e 	bl	40387c <_ZNSt10_HashtableIiSt4pairIKiiESaIS2_ENSt8__detail10_Select1stESt8equal_toIiESt4hashIiENS4_18_Mod_range_hashingENS4_20_Default_ranged_hashENS4_20_Prime_rehash_policyENS4_17_Hashtable_traitsILb0ELb0ELb1EEEED1Ev>
  407248:	911b43e0 	add	x0, sp, #0x6d0
  40724c:	97fff163 	bl	4037d8 <_ZNSt10_HashtableINSt7__cxx1112basic_stringIcSt11char_traitsIcESaIcEEESt4pairIKS5_iESaIS8_ENSt8__detail10_Select1stESt8equal_toIS5_ESt4hashIS5_ENSA_18_Mod_range_hashingENSA_20_Default_ranged_hashENSA_20_Prime_rehash_policyENSA_17_Hashtable_traitsILb1ELb0ELb1EEEED1Ev>
  407250:	f9435be0 	ldr	x0, [sp, #1712]
  407254:	b4000080 	cbz	x0, 407264 <_ZN5model5parseENSt7__cxx1112basic_stringIcSt11char_traitsIcESaIcEEE+0x117c>
  407258:	f94363e1 	ldr	x1, [sp, #1728]
  40725c:	cb000021 	sub	x1, x1, x0
  407260:	97ffeb98 	bl	4020c0 <_ZdlPvm@plt>
  407264:	f9434ff4 	ldr	x20, [sp, #1688]
  407268:	f94353fa 	ldr	x26, [sp, #1696]
  40726c:	eb1a029f 	cmp	x20, x26
  407270:	540001e1 	b.ne	4072ac <_ZN5model5parseENSt7__cxx1112basic_stringIcSt11char_traitsIcESaIcEEE+0x11c4>  // b.any
  407274:	f9434fe0 	ldr	x0, [sp, #1688]
  407278:	b4000080 	cbz	x0, 407288 <_ZN5model5parseENSt7__cxx1112basic_stringIcSt11char_traitsIcESaIcEEE+0x11a0>
  40727c:	f94357e1 	ldr	x1, [sp, #1704]
  407280:	cb000021 	sub	x1, x1, x0
  407284:	97ffeb8f 	bl	4020c0 <_ZdlPvm@plt>
  407288:	3100077f 	cmn	w27, #0x1
  40728c:	54000200 	b.eq	4072cc <_ZN5model5parseENSt7__cxx1112basic_stringIcSt11char_traitsIcESaIcEEE+0x11e4>  // b.none
  407290:	913043e1 	add	x1, sp, #0xc10
  407294:	911d03e0 	add	x0, sp, #0x740
  407298:	94000cfb 	bl	40a684 <_ZN7segmentC1ERKS_>
  40729c:	14000031 	b	407360 <_ZN5model5parseENSt7__cxx1112basic_stringIcSt11char_traitsIcESaIcEEE+0x1278>
  4072a0:	91008294 	add	x20, x20, #0x20
  4072a4:	eb14035f 	cmp	x26, x20
  4072a8:	54fffe60 	b.eq	407274 <_ZN5model5parseENSt7__cxx1112basic_stringIcSt11char_traitsIcESaIcEEE+0x118c>  // b.none
  4072ac:	aa1403e1 	mov	x1, x20
  4072b0:	f8410420 	ldr	x0, [x1], #16
  4072b4:	eb01001f 	cmp	x0, x1
  4072b8:	54ffff40 	b.eq	4072a0 <_ZN5model5parseENSt7__cxx1112basic_stringIcSt11char_traitsIcESaIcEEE+0x11b8>  // b.none
  4072bc:	f9400a81 	ldr	x1, [x20, #16]
  4072c0:	91000421 	add	x1, x1, #0x1
  4072c4:	97ffeb7f 	bl	4020c0 <_ZdlPvm@plt>
  4072c8:	17fffff6 	b	4072a0 <_ZN5model5parseENSt7__cxx1112basic_stringIcSt11char_traitsIcESaIcEEE+0x11b8>
  4072cc:	b94006c0 	ldr	w0, [x22, #4]
  4072d0:	11000400 	add	w0, w0, #0x1
  4072d4:	b90006c0 	str	w0, [x22, #4]
  4072d8:	b90b63e0 	str	w0, [sp, #2912]
  4072dc:	913043e1 	add	x1, sp, #0xc10
  4072e0:	9100c2c0 	add	x0, x22, #0x30
  4072e4:	9400145a 	bl	40c44c <_ZNSt6vectorI7segmentSaIS0_EE12emplace_backIJRS0_EEEvDpOT_>
  4072e8:	912d83e1 	add	x1, sp, #0xb60
  4072ec:	9102c2c0 	add	x0, x22, #0xb0
  4072f0:	94000f99 	bl	40b154 <_ZNSt8__detail9_Map_baseIiSt4pairIKiiESaIS3_ENS_10_Select1stESt8equal_toIiESt4hashIiENS_18_Mod_range_hashingENS_20_Default_ranged_hashENS_20_Prime_rehash_policyENS_17_Hashtable_traitsILb0ELb0ELb1EEELb1EEixERS2_>
  4072f4:	52800021 	mov	w1, #0x1                   	// #1
  4072f8:	b9000001 	str	w1, [x0]
  4072fc:	b98b63e0 	ldrsw	x0, [sp, #2912]
  407300:	8b000414 	add	x20, x0, x0, lsl #1
  407304:	d37ef694 	lsl	x20, x20, #2
  407308:	cb000294 	sub	x20, x20, x0
  40730c:	f9401ac0 	ldr	x0, [x22, #48]
  407310:	8b141014 	add	x20, x0, x20, lsl #4
  407314:	913343e0 	add	x0, sp, #0xcd0
  407318:	f90663e0 	str	x0, [sp, #3264]
  40731c:	f946bbe1 	ldr	x1, [sp, #3440]
  407320:	52800003 	mov	w3, #0x0                   	// #0
  407324:	f946bfe2 	ldr	x2, [sp, #3448]
  407328:	8b020022 	add	x2, x1, x2
  40732c:	913303e0 	add	x0, sp, #0xcc0
  407330:	94000a49 	bl	409c54 <_ZNSt7__cxx1112basic_stringIcSt11char_traitsIcESaIcEE12_M_constructIPcEEvT_S7_St20forward_iterator_tag>
  407334:	913303e1 	add	x1, sp, #0xcc0
  407338:	aa1403e0 	mov	x0, x20
  40733c:	97fff8e8 	bl	4056dc <_ZN7segment6insertENSt7__cxx1112basic_stringIcSt11char_traitsIcESaIcEEE>
  407340:	f94663e0 	ldr	x0, [sp, #3264]
  407344:	913343e1 	add	x1, sp, #0xcd0
  407348:	eb01001f 	cmp	x0, x1
  40734c:	540008a0 	b.eq	407460 <_ZN5model5parseENSt7__cxx1112basic_stringIcSt11char_traitsIcESaIcEEE+0x1378>  // b.none
  407350:	f9466be1 	ldr	x1, [sp, #3280]
  407354:	91000421 	add	x1, x1, #0x1
  407358:	97ffeb5a 	bl	4020c0 <_ZdlPvm@plt>
  40735c:	14000041 	b	407460 <_ZN5model5parseENSt7__cxx1112basic_stringIcSt11char_traitsIcESaIcEEE+0x1378>
  407360:	911d03e1 	add	x1, sp, #0x740
  407364:	aa1603e0 	mov	x0, x22
  407368:	97fff398 	bl	4041c8 <_ZN5model10FindLetterE7segment>
  40736c:	b90b63e0 	str	w0, [sp, #2912]
  407370:	911ee3e0 	add	x0, sp, #0x7b8
  407374:	97fff142 	bl	40387c <_ZNSt10_HashtableIiSt4pairIKiiESaIS2_ENSt8__detail10_Select1stESt8equal_toIiESt4hashIiENS4_18_Mod_range_hashingENS4_20_Default_ranged_hashENS4_20_Prime_rehash_policyENS4_17_Hashtable_traitsILb0ELb0ELb1EEEED1Ev>
  407378:	911e03e0 	add	x0, sp, #0x780
  40737c:	97fff117 	bl	4037d8 <_ZNSt10_HashtableINSt7__cxx1112basic_stringIcSt11char_traitsIcESaIcEEESt4pairIKS5_iESaIS8_ENSt8__detail10_Select1stESt8equal_toIS5_ESt4hashIS5_ENSA_18_Mod_range_hashingENSA_20_Default_ranged_hashENSA_20_Prime_rehash_policyENSA_17_Hashtable_traitsILb1ELb0ELb1EEEED1Ev>
  407380:	f943b3e0 	ldr	x0, [sp, #1888]
  407384:	b4000080 	cbz	x0, 407394 <_ZN5model5parseENSt7__cxx1112basic_stringIcSt11char_traitsIcESaIcEEE+0x12ac>
  407388:	f943bbe1 	ldr	x1, [sp, #1904]
  40738c:	cb000021 	sub	x1, x1, x0
  407390:	97ffeb4c 	bl	4020c0 <_ZdlPvm@plt>
  407394:	f943a7f4 	ldr	x20, [sp, #1864]
  407398:	f943abfa 	ldr	x26, [sp, #1872]
  40739c:	eb1a029f 	cmp	x20, x26
  4073a0:	54000201 	b.ne	4073e0 <_ZN5model5parseENSt7__cxx1112basic_stringIcSt11char_traitsIcESaIcEEE+0x12f8>  // b.any
  4073a4:	f943a7e0 	ldr	x0, [sp, #1864]
  4073a8:	b4000080 	cbz	x0, 4073b8 <_ZN5model5parseENSt7__cxx1112basic_stringIcSt11char_traitsIcESaIcEEE+0x12d0>
  4073ac:	f943afe1 	ldr	x1, [sp, #1880]
  4073b0:	cb000021 	sub	x1, x1, x0
  4073b4:	97ffeb43 	bl	4020c0 <_ZdlPvm@plt>
  4073b8:	912d83e1 	add	x1, sp, #0xb60
  4073bc:	9102c2c0 	add	x0, x22, #0xb0
  4073c0:	94000f65 	bl	40b154 <_ZNSt8__detail9_Map_baseIiSt4pairIKiiESaIS3_ENS_10_Select1stESt8equal_toIiESt4hashIiENS_18_Mod_range_hashingENS_20_Default_ranged_hashENS_20_Prime_rehash_policyENS_17_Hashtable_traitsILb0ELb0ELb1EEELb1EEixERS2_>
  4073c4:	1400000c 	b	4073f4 <_ZN5model5parseENSt7__cxx1112basic_stringIcSt11char_traitsIcESaIcEEE+0x130c>
  4073c8:	f9400a81 	ldr	x1, [x20, #16]
  4073cc:	91000421 	add	x1, x1, #0x1
  4073d0:	97ffeb3c 	bl	4020c0 <_ZdlPvm@plt>
  4073d4:	91008294 	add	x20, x20, #0x20
  4073d8:	eb14035f 	cmp	x26, x20
  4073dc:	54fffe40 	b.eq	4073a4 <_ZN5model5parseENSt7__cxx1112basic_stringIcSt11char_traitsIcESaIcEEE+0x12bc>  // b.none
  4073e0:	aa1403e1 	mov	x1, x20
  4073e4:	f8410420 	ldr	x0, [x1], #16
  4073e8:	eb01001f 	cmp	x0, x1
  4073ec:	54fffee1 	b.ne	4073c8 <_ZN5model5parseENSt7__cxx1112basic_stringIcSt11char_traitsIcESaIcEEE+0x12e0>  // b.any
  4073f0:	17fffff9 	b	4073d4 <_ZN5model5parseENSt7__cxx1112basic_stringIcSt11char_traitsIcESaIcEEE+0x12ec>
  4073f4:	b9400001 	ldr	w1, [x0]
  4073f8:	11000421 	add	w1, w1, #0x1
  4073fc:	b9000001 	str	w1, [x0]
  407400:	b98b63e0 	ldrsw	x0, [sp, #2912]
  407404:	8b000414 	add	x20, x0, x0, lsl #1
  407408:	d37ef694 	lsl	x20, x20, #2
  40740c:	cb000294 	sub	x20, x20, x0
  407410:	f9401ac0 	ldr	x0, [x22, #48]
  407414:	8b141014 	add	x20, x0, x20, lsl #4
  407418:	913343e0 	add	x0, sp, #0xcd0
  40741c:	f90663e0 	str	x0, [sp, #3264]
  407420:	f946bbe1 	ldr	x1, [sp, #3440]
  407424:	52800003 	mov	w3, #0x0                   	// #0
  407428:	f946bfe2 	ldr	x2, [sp, #3448]
  40742c:	8b020022 	add	x2, x1, x2
  407430:	913303e0 	add	x0, sp, #0xcc0
  407434:	94000a08 	bl	409c54 <_ZNSt7__cxx1112basic_stringIcSt11char_traitsIcESaIcEE12_M_constructIPcEEvT_S7_St20forward_iterator_tag>
  407438:	913303e1 	add	x1, sp, #0xcc0
  40743c:	aa1403e0 	mov	x0, x20
  407440:	97fff8a7 	bl	4056dc <_ZN7segment6insertENSt7__cxx1112basic_stringIcSt11char_traitsIcESaIcEEE>
  407444:	f94663e0 	ldr	x0, [sp, #3264]
  407448:	913343e1 	add	x1, sp, #0xcd0
  40744c:	eb01001f 	cmp	x0, x1
  407450:	54000080 	b.eq	407460 <_ZN5model5parseENSt7__cxx1112basic_stringIcSt11char_traitsIcESaIcEEE+0x1378>  // b.none
  407454:	f9466be1 	ldr	x1, [sp, #3280]
  407458:	91000421 	add	x1, x1, #0x1
  40745c:	97ffeb19 	bl	4020c0 <_ZdlPvm@plt>
  407460:	f906bfff 	str	xzr, [sp, #3448]
  407464:	f946bbe0 	ldr	x0, [sp, #3440]
  407468:	3900001f 	strb	wzr, [x0]
  40746c:	913043e1 	add	x1, sp, #0xc10
  407470:	913303e0 	add	x0, sp, #0xcc0
  407474:	94000c84 	bl	40a684 <_ZN7segmentC1ERKS_>
  407478:	913303e1 	add	x1, sp, #0xcc0
  40747c:	913643e0 	add	x0, sp, #0xd90
  407480:	940013f3 	bl	40c44c <_ZNSt6vectorI7segmentSaIS0_EE12emplace_backIJRS0_EEEvDpOT_>
  407484:	9134e3e0 	add	x0, sp, #0xd38
  407488:	97fff0fd 	bl	40387c <_ZNSt10_HashtableIiSt4pairIKiiESaIS2_ENSt8__detail10_Select1stESt8equal_toIiESt4hashIiENS4_18_Mod_range_hashingENS4_20_Default_ranged_hashENS4_20_Prime_rehash_policyENS4_17_Hashtable_traitsILb0ELb0ELb1EEEED1Ev>
  40748c:	913403e0 	add	x0, sp, #0xd00
  407490:	97fff0d2 	bl	4037d8 <_ZNSt10_HashtableINSt7__cxx1112basic_stringIcSt11char_traitsIcESaIcEEESt4pairIKS5_iESaIS8_ENSt8__detail10_Select1stESt8equal_toIS5_ESt4hashIS5_ENSA_18_Mod_range_hashingENSA_20_Default_ranged_hashENSA_20_Prime_rehash_policyENSA_17_Hashtable_traitsILb1ELb0ELb1EEEED1Ev>
  407494:	f94673e0 	ldr	x0, [sp, #3296]
  407498:	b4000080 	cbz	x0, 4074a8 <_ZN5model5parseENSt7__cxx1112basic_stringIcSt11char_traitsIcESaIcEEE+0x13c0>
  40749c:	f9467be1 	ldr	x1, [sp, #3312]
  4074a0:	cb000021 	sub	x1, x1, x0
  4074a4:	97ffeb07 	bl	4020c0 <_ZdlPvm@plt>
  4074a8:	f94667f4 	ldr	x20, [sp, #3272]
  4074ac:	f9466bfa 	ldr	x26, [sp, #3280]
  4074b0:	eb1a029f 	cmp	x20, x26
  4074b4:	54000381 	b.ne	407524 <_ZN5model5parseENSt7__cxx1112basic_stringIcSt11char_traitsIcESaIcEEE+0x143c>  // b.any
  4074b8:	f94667e0 	ldr	x0, [sp, #3272]
  4074bc:	b4000080 	cbz	x0, 4074cc <_ZN5model5parseENSt7__cxx1112basic_stringIcSt11char_traitsIcESaIcEEE+0x13e4>
  4074c0:	f9466fe1 	ldr	x1, [sp, #3288]
  4074c4:	cb000021 	sub	x1, x1, x0
  4074c8:	97ffeafe 	bl	4020c0 <_ZdlPvm@plt>
  4074cc:	913223e0 	add	x0, sp, #0xc88
  4074d0:	97fff0eb 	bl	40387c <_ZNSt10_HashtableIiSt4pairIKiiESaIS2_ENSt8__detail10_Select1stESt8equal_toIiESt4hashIiENS4_18_Mod_range_hashingENS4_20_Default_ranged_hashENS4_20_Prime_rehash_policyENS4_17_Hashtable_traitsILb0ELb0ELb1EEEED1Ev>
  4074d4:	913143e0 	add	x0, sp, #0xc50
  4074d8:	97fff0c0 	bl	4037d8 <_ZNSt10_HashtableINSt7__cxx1112basic_stringIcSt11char_traitsIcESaIcEEESt4pairIKS5_iESaIS8_ENSt8__detail10_Select1stESt8equal_toIS5_ESt4hashIS5_ENSA_18_Mod_range_hashingENSA_20_Default_ranged_hashENSA_20_Prime_rehash_policyENSA_17_Hashtable_traitsILb1ELb0ELb1EEEED1Ev>
  4074dc:	f9461be0 	ldr	x0, [sp, #3120]
  4074e0:	b4000080 	cbz	x0, 4074f0 <_ZN5model5parseENSt7__cxx1112basic_stringIcSt11char_traitsIcESaIcEEE+0x1408>
  4074e4:	f94623e1 	ldr	x1, [sp, #3136]
  4074e8:	cb000021 	sub	x1, x1, x0
  4074ec:	97ffeaf5 	bl	4020c0 <_ZdlPvm@plt>
  4074f0:	f9460ff4 	ldr	x20, [sp, #3096]
  4074f4:	f94613fa 	ldr	x26, [sp, #3104]
  4074f8:	eb1a029f 	cmp	x20, x26
  4074fc:	540002a1 	b.ne	407550 <_ZN5model5parseENSt7__cxx1112basic_stringIcSt11char_traitsIcESaIcEEE+0x1468>  // b.any
  407500:	f9460fe0 	ldr	x0, [sp, #3096]
  407504:	b4ffe3a0 	cbz	x0, 407178 <_ZN5model5parseENSt7__cxx1112basic_stringIcSt11char_traitsIcESaIcEEE+0x1090>
  407508:	f94617e1 	ldr	x1, [sp, #3112]
  40750c:	cb000021 	sub	x1, x1, x0
  407510:	97ffeaec 	bl	4020c0 <_ZdlPvm@plt>
  407514:	17ffff19 	b	407178 <_ZN5model5parseENSt7__cxx1112basic_stringIcSt11char_traitsIcESaIcEEE+0x1090>
  407518:	91008294 	add	x20, x20, #0x20
  40751c:	eb14035f 	cmp	x26, x20
  407520:	54fffcc0 	b.eq	4074b8 <_ZN5model5parseENSt7__cxx1112basic_stringIcSt11char_traitsIcESaIcEEE+0x13d0>  // b.none
  407524:	aa1403e1 	mov	x1, x20
  407528:	f8410420 	ldr	x0, [x1], #16
  40752c:	eb01001f 	cmp	x0, x1
  407530:	54ffff40 	b.eq	407518 <_ZN5model5parseENSt7__cxx1112basic_stringIcSt11char_traitsIcESaIcEEE+0x1430>  // b.none
  407534:	f9400a81 	ldr	x1, [x20, #16]
  407538:	91000421 	add	x1, x1, #0x1
  40753c:	97ffeae1 	bl	4020c0 <_ZdlPvm@plt>
  407540:	17fffff6 	b	407518 <_ZN5model5parseENSt7__cxx1112basic_stringIcSt11char_traitsIcESaIcEEE+0x1430>
  407544:	91008294 	add	x20, x20, #0x20
  407548:	eb14035f 	cmp	x26, x20
  40754c:	54fffda0 	b.eq	407500 <_ZN5model5parseENSt7__cxx1112basic_stringIcSt11char_traitsIcESaIcEEE+0x1418>  // b.none
  407550:	aa1403e1 	mov	x1, x20
  407554:	f8410420 	ldr	x0, [x1], #16
  407558:	eb01001f 	cmp	x0, x1
  40755c:	54ffff40 	b.eq	407544 <_ZN5model5parseENSt7__cxx1112basic_stringIcSt11char_traitsIcESaIcEEE+0x145c>  // b.none
  407560:	f9400a81 	ldr	x1, [x20, #16]
  407564:	91000421 	add	x1, x1, #0x1
  407568:	97ffead6 	bl	4020c0 <_ZdlPvm@plt>
  40756c:	17fffff6 	b	407544 <_ZN5model5parseENSt7__cxx1112basic_stringIcSt11char_traitsIcESaIcEEE+0x145c>
  407570:	f9060fff 	str	xzr, [sp, #3096]
  407574:	f90613ff 	str	xzr, [sp, #3104]
  407578:	f90617ff 	str	xzr, [sp, #3112]
  40757c:	f9061bff 	str	xzr, [sp, #3120]
  407580:	f9061fff 	str	xzr, [sp, #3128]
  407584:	f90623ff 	str	xzr, [sp, #3136]
  407588:	b90c4bff 	str	wzr, [sp, #3144]
  40758c:	f9062bf9 	str	x25, [sp, #3152]
  407590:	d2800020 	mov	x0, #0x1                   	// #1
  407594:	f9062fe0 	str	x0, [sp, #3160]
  407598:	f90633ff 	str	xzr, [sp, #3168]
  40759c:	f90637ff 	str	xzr, [sp, #3176]
  4075a0:	1e2e1000 	fmov	s0, #1.000000000000000000e+00
  4075a4:	bd0c73e0 	str	s0, [sp, #3184]
  4075a8:	f9063fff 	str	xzr, [sp, #3192]
  4075ac:	f90643ff 	str	xzr, [sp, #3200]
  4075b0:	9132e3e1 	add	x1, sp, #0xcb8
  4075b4:	f90647e1 	str	x1, [sp, #3208]
  4075b8:	f9064be0 	str	x0, [sp, #3216]
  4075bc:	f9064fff 	str	xzr, [sp, #3224]
  4075c0:	f90653ff 	str	xzr, [sp, #3232]
  4075c4:	bd0cabe0 	str	s0, [sp, #3240]
  4075c8:	f9065bff 	str	xzr, [sp, #3248]
  4075cc:	f9065fff 	str	xzr, [sp, #3256]
  4075d0:	52800040 	mov	w0, #0x2                   	// #2
  4075d4:	b90c13e0 	str	w0, [sp, #3088]
  4075d8:	f946bfe0 	ldr	x0, [sp, #3448]
  4075dc:	b90c17e0 	str	w0, [sp, #3092]
  4075e0:	913043e1 	add	x1, sp, #0xc10
  4075e4:	911fc3e0 	add	x0, sp, #0x7f0
  4075e8:	94000c27 	bl	40a684 <_ZN7segmentC1ERKS_>
  4075ec:	911fc3e1 	add	x1, sp, #0x7f0
  4075f0:	aa1603e0 	mov	x0, x22
  4075f4:	97fff30e 	bl	40422c <_ZN5model9FindDigitE7segment>
  4075f8:	2a0003fb 	mov	w27, w0
  4075fc:	9121a3e0 	add	x0, sp, #0x868
  407600:	97fff09f 	bl	40387c <_ZNSt10_HashtableIiSt4pairIKiiESaIS2_ENSt8__detail10_Select1stESt8equal_toIiESt4hashIiENS4_18_Mod_range_hashingENS4_20_Default_ranged_hashENS4_20_Prime_rehash_policyENS4_17_Hashtable_traitsILb0ELb0ELb1EEEED1Ev>
  407604:	9120c3e0 	add	x0, sp, #0x830
  407608:	97fff074 	bl	4037d8 <_ZNSt10_HashtableINSt7__cxx1112basic_stringIcSt11char_traitsIcESaIcEEESt4pairIKS5_iESaIS8_ENSt8__detail10_Select1stESt8equal_toIS5_ESt4hashIS5_ENSA_18_Mod_range_hashingENSA_20_Default_ranged_hashENSA_20_Prime_rehash_policyENSA_17_Hashtable_traitsILb1ELb0ELb1EEEED1Ev>
  40760c:	f9440be0 	ldr	x0, [sp, #2064]
  407610:	b4000080 	cbz	x0, 407620 <_ZN5model5parseENSt7__cxx1112basic_stringIcSt11char_traitsIcESaIcEEE+0x1538>
  407614:	f94413e1 	ldr	x1, [sp, #2080]
  407618:	cb000021 	sub	x1, x1, x0
  40761c:	97ffeaa9 	bl	4020c0 <_ZdlPvm@plt>
  407620:	f943fff4 	ldr	x20, [sp, #2040]
  407624:	f94403fa 	ldr	x26, [sp, #2048]
  407628:	eb1a029f 	cmp	x20, x26
  40762c:	540001e1 	b.ne	407668 <_ZN5model5parseENSt7__cxx1112basic_stringIcSt11char_traitsIcESaIcEEE+0x1580>  // b.any
  407630:	f943ffe0 	ldr	x0, [sp, #2040]
  407634:	b4000080 	cbz	x0, 407644 <_ZN5model5parseENSt7__cxx1112basic_stringIcSt11char_traitsIcESaIcEEE+0x155c>
  407638:	f94407e1 	ldr	x1, [sp, #2056]
  40763c:	cb000021 	sub	x1, x1, x0
  407640:	97ffeaa0 	bl	4020c0 <_ZdlPvm@plt>
  407644:	3100077f 	cmn	w27, #0x1
  407648:	54000200 	b.eq	407688 <_ZN5model5parseENSt7__cxx1112basic_stringIcSt11char_traitsIcESaIcEEE+0x15a0>  // b.none
  40764c:	913043e1 	add	x1, sp, #0xc10
  407650:	912283e0 	add	x0, sp, #0x8a0
  407654:	94000c0c 	bl	40a684 <_ZN7segmentC1ERKS_>
  407658:	14000031 	b	40771c <_ZN5model5parseENSt7__cxx1112basic_stringIcSt11char_traitsIcESaIcEEE+0x1634>
  40765c:	91008294 	add	x20, x20, #0x20
  407660:	eb14035f 	cmp	x26, x20
  407664:	54fffe60 	b.eq	407630 <_ZN5model5parseENSt7__cxx1112basic_stringIcSt11char_traitsIcESaIcEEE+0x1548>  // b.none
  407668:	aa1403e1 	mov	x1, x20
  40766c:	f8410420 	ldr	x0, [x1], #16
  407670:	eb01001f 	cmp	x0, x1
  407674:	54ffff40 	b.eq	40765c <_ZN5model5parseENSt7__cxx1112basic_stringIcSt11char_traitsIcESaIcEEE+0x1574>  // b.none
  407678:	f9400a81 	ldr	x1, [x20, #16]
  40767c:	91000421 	add	x1, x1, #0x1
  407680:	97ffea90 	bl	4020c0 <_ZdlPvm@plt>
  407684:	17fffff6 	b	40765c <_ZN5model5parseENSt7__cxx1112basic_stringIcSt11char_traitsIcESaIcEEE+0x1574>
  407688:	b9400ac0 	ldr	w0, [x22, #8]
  40768c:	11000400 	add	w0, w0, #0x1
  407690:	b9000ac0 	str	w0, [x22, #8]
  407694:	b90b63e0 	str	w0, [sp, #2912]
  407698:	913043e1 	add	x1, sp, #0xc10
  40769c:	910122c0 	add	x0, x22, #0x48
  4076a0:	9400136b 	bl	40c44c <_ZNSt6vectorI7segmentSaIS0_EE12emplace_backIJRS0_EEEvDpOT_>
  4076a4:	912d83e1 	add	x1, sp, #0xb60
  4076a8:	9103a2c0 	add	x0, x22, #0xe8
  4076ac:	94000eaa 	bl	40b154 <_ZNSt8__detail9_Map_baseIiSt4pairIKiiESaIS3_ENS_10_Select1stESt8equal_toIiESt4hashIiENS_18_Mod_range_hashingENS_20_Default_ranged_hashENS_20_Prime_rehash_policyENS_17_Hashtable_traitsILb0ELb0ELb1EEELb1EEixERS2_>
  4076b0:	52800021 	mov	w1, #0x1                   	// #1
  4076b4:	b9000001 	str	w1, [x0]
  4076b8:	b98b63e0 	ldrsw	x0, [sp, #2912]
  4076bc:	8b000414 	add	x20, x0, x0, lsl #1
  4076c0:	d37ef694 	lsl	x20, x20, #2
  4076c4:	cb000294 	sub	x20, x20, x0
  4076c8:	f94026c0 	ldr	x0, [x22, #72]
  4076cc:	8b141014 	add	x20, x0, x20, lsl #4
  4076d0:	913343e0 	add	x0, sp, #0xcd0
  4076d4:	f90663e0 	str	x0, [sp, #3264]
  4076d8:	f946bbe1 	ldr	x1, [sp, #3440]
  4076dc:	52800003 	mov	w3, #0x0                   	// #0
  4076e0:	f946bfe2 	ldr	x2, [sp, #3448]
  4076e4:	8b020022 	add	x2, x1, x2
  4076e8:	913303e0 	add	x0, sp, #0xcc0
  4076ec:	9400095a 	bl	409c54 <_ZNSt7__cxx1112basic_stringIcSt11char_traitsIcESaIcEE12_M_constructIPcEEvT_S7_St20forward_iterator_tag>
  4076f0:	913303e1 	add	x1, sp, #0xcc0
  4076f4:	aa1403e0 	mov	x0, x20
  4076f8:	97fff7f9 	bl	4056dc <_ZN7segment6insertENSt7__cxx1112basic_stringIcSt11char_traitsIcESaIcEEE>
  4076fc:	f94663e0 	ldr	x0, [sp, #3264]
  407700:	913343e1 	add	x1, sp, #0xcd0
  407704:	eb01001f 	cmp	x0, x1
  407708:	540008a0 	b.eq	40781c <_ZN5model5parseENSt7__cxx1112basic_stringIcSt11char_traitsIcESaIcEEE+0x1734>  // b.none
  40770c:	f9466be1 	ldr	x1, [sp, #3280]
  407710:	91000421 	add	x1, x1, #0x1
  407714:	97ffea6b 	bl	4020c0 <_ZdlPvm@plt>
  407718:	14000041 	b	40781c <_ZN5model5parseENSt7__cxx1112basic_stringIcSt11char_traitsIcESaIcEEE+0x1734>
  40771c:	912283e1 	add	x1, sp, #0x8a0
  407720:	aa1603e0 	mov	x0, x22
  407724:	97fff2c2 	bl	40422c <_ZN5model9FindDigitE7segment>
  407728:	b90b63e0 	str	w0, [sp, #2912]
  40772c:	912463e0 	add	x0, sp, #0x918
  407730:	97fff053 	bl	40387c <_ZNSt10_HashtableIiSt4pairIKiiESaIS2_ENSt8__detail10_Select1stESt8equal_toIiESt4hashIiENS4_18_Mod_range_hashingENS4_20_Default_ranged_hashENS4_20_Prime_rehash_policyENS4_17_Hashtable_traitsILb0ELb0ELb1EEEED1Ev>
  407734:	912383e0 	add	x0, sp, #0x8e0
  407738:	97fff028 	bl	4037d8 <_ZNSt10_HashtableINSt7__cxx1112basic_stringIcSt11char_traitsIcESaIcEEESt4pairIKS5_iESaIS8_ENSt8__detail10_Select1stESt8equal_toIS5_ESt4hashIS5_ENSA_18_Mod_range_hashingENSA_20_Default_ranged_hashENSA_20_Prime_rehash_policyENSA_17_Hashtable_traitsILb1ELb0ELb1EEEED1Ev>
  40773c:	f94463e0 	ldr	x0, [sp, #2240]
  407740:	b4000080 	cbz	x0, 407750 <_ZN5model5parseENSt7__cxx1112basic_stringIcSt11char_traitsIcESaIcEEE+0x1668>
  407744:	f9446be1 	ldr	x1, [sp, #2256]
  407748:	cb000021 	sub	x1, x1, x0
  40774c:	97ffea5d 	bl	4020c0 <_ZdlPvm@plt>
  407750:	f94457f4 	ldr	x20, [sp, #2216]
  407754:	f9445bfa 	ldr	x26, [sp, #2224]
  407758:	eb1a029f 	cmp	x20, x26
  40775c:	540001a1 	b.ne	407790 <_ZN5model5parseENSt7__cxx1112basic_stringIcSt11char_traitsIcESaIcEEE+0x16a8>  // b.any
  407760:	f94457e0 	ldr	x0, [sp, #2216]
  407764:	b4000080 	cbz	x0, 407774 <_ZN5model5parseENSt7__cxx1112basic_stringIcSt11char_traitsIcESaIcEEE+0x168c>
  407768:	f9445fe1 	ldr	x1, [sp, #2232]
  40776c:	cb000021 	sub	x1, x1, x0
  407770:	97ffea54 	bl	4020c0 <_ZdlPvm@plt>
  407774:	912d83e1 	add	x1, sp, #0xb60
  407778:	9103a2c0 	add	x0, x22, #0xe8
  40777c:	94000e76 	bl	40b154 <_ZNSt8__detail9_Map_baseIiSt4pairIKiiESaIS3_ENS_10_Select1stESt8equal_toIiESt4hashIiENS_18_Mod_range_hashingENS_20_Default_ranged_hashENS_20_Prime_rehash_policyENS_17_Hashtable_traitsILb0ELb0ELb1EEELb1EEixERS2_>
  407780:	1400000c 	b	4077b0 <_ZN5model5parseENSt7__cxx1112basic_stringIcSt11char_traitsIcESaIcEEE+0x16c8>
  407784:	91008294 	add	x20, x20, #0x20
  407788:	eb14035f 	cmp	x26, x20
  40778c:	54fffea0 	b.eq	407760 <_ZN5model5parseENSt7__cxx1112basic_stringIcSt11char_traitsIcESaIcEEE+0x1678>  // b.none
  407790:	aa1403e1 	mov	x1, x20
  407794:	f8410420 	ldr	x0, [x1], #16
  407798:	eb01001f 	cmp	x0, x1
  40779c:	54ffff40 	b.eq	407784 <_ZN5model5parseENSt7__cxx1112basic_stringIcSt11char_traitsIcESaIcEEE+0x169c>  // b.none
  4077a0:	f9400a81 	ldr	x1, [x20, #16]
  4077a4:	91000421 	add	x1, x1, #0x1
  4077a8:	97ffea46 	bl	4020c0 <_ZdlPvm@plt>
  4077ac:	17fffff6 	b	407784 <_ZN5model5parseENSt7__cxx1112basic_stringIcSt11char_traitsIcESaIcEEE+0x169c>
  4077b0:	b9400001 	ldr	w1, [x0]
  4077b4:	11000421 	add	w1, w1, #0x1
  4077b8:	b9000001 	str	w1, [x0]
  4077bc:	b98b63e0 	ldrsw	x0, [sp, #2912]
  4077c0:	8b000414 	add	x20, x0, x0, lsl #1
  4077c4:	d37ef694 	lsl	x20, x20, #2
  4077c8:	cb000294 	sub	x20, x20, x0
  4077cc:	f94026c0 	ldr	x0, [x22, #72]
  4077d0:	8b141014 	add	x20, x0, x20, lsl #4
  4077d4:	913343e0 	add	x0, sp, #0xcd0
  4077d8:	f90663e0 	str	x0, [sp, #3264]
  4077dc:	f946bbe1 	ldr	x1, [sp, #3440]
  4077e0:	52800003 	mov	w3, #0x0                   	// #0
  4077e4:	f946bfe2 	ldr	x2, [sp, #3448]
  4077e8:	8b020022 	add	x2, x1, x2
  4077ec:	913303e0 	add	x0, sp, #0xcc0
  4077f0:	94000919 	bl	409c54 <_ZNSt7__cxx1112basic_stringIcSt11char_traitsIcESaIcEE12_M_constructIPcEEvT_S7_St20forward_iterator_tag>
  4077f4:	913303e1 	add	x1, sp, #0xcc0
  4077f8:	aa1403e0 	mov	x0, x20
  4077fc:	97fff7b8 	bl	4056dc <_ZN7segment6insertENSt7__cxx1112basic_stringIcSt11char_traitsIcESaIcEEE>
  407800:	f94663e0 	ldr	x0, [sp, #3264]
  407804:	913343e1 	add	x1, sp, #0xcd0
  407808:	eb01001f 	cmp	x0, x1
  40780c:	54000080 	b.eq	40781c <_ZN5model5parseENSt7__cxx1112basic_stringIcSt11char_traitsIcESaIcEEE+0x1734>  // b.none
  407810:	f9466be1 	ldr	x1, [sp, #3280]
  407814:	91000421 	add	x1, x1, #0x1
  407818:	97ffea2a 	bl	4020c0 <_ZdlPvm@plt>
  40781c:	f906bfff 	str	xzr, [sp, #3448]
  407820:	f946bbe0 	ldr	x0, [sp, #3440]
  407824:	3900001f 	strb	wzr, [x0]
  407828:	913043e1 	add	x1, sp, #0xc10
  40782c:	913303e0 	add	x0, sp, #0xcc0
  407830:	94000b95 	bl	40a684 <_ZN7segmentC1ERKS_>
  407834:	913303e1 	add	x1, sp, #0xcc0
  407838:	913643e0 	add	x0, sp, #0xd90
  40783c:	94001304 	bl	40c44c <_ZNSt6vectorI7segmentSaIS0_EE12emplace_backIJRS0_EEEvDpOT_>
  407840:	9134e3e0 	add	x0, sp, #0xd38
  407844:	97fff00e 	bl	40387c <_ZNSt10_HashtableIiSt4pairIKiiESaIS2_ENSt8__detail10_Select1stESt8equal_toIiESt4hashIiENS4_18_Mod_range_hashingENS4_20_Default_ranged_hashENS4_20_Prime_rehash_policyENS4_17_Hashtable_traitsILb0ELb0ELb1EEEED1Ev>
  407848:	913403e0 	add	x0, sp, #0xd00
  40784c:	97ffefe3 	bl	4037d8 <_ZNSt10_HashtableINSt7__cxx1112basic_stringIcSt11char_traitsIcESaIcEEESt4pairIKS5_iESaIS8_ENSt8__detail10_Select1stESt8equal_toIS5_ESt4hashIS5_ENSA_18_Mod_range_hashingENSA_20_Default_ranged_hashENSA_20_Prime_rehash_policyENSA_17_Hashtable_traitsILb1ELb0ELb1EEEED1Ev>
  407850:	f94673e0 	ldr	x0, [sp, #3296]
  407854:	b4000080 	cbz	x0, 407864 <_ZN5model5parseENSt7__cxx1112basic_stringIcSt11char_traitsIcESaIcEEE+0x177c>
  407858:	f9467be1 	ldr	x1, [sp, #3312]
  40785c:	cb000021 	sub	x1, x1, x0
  407860:	97ffea18 	bl	4020c0 <_ZdlPvm@plt>
  407864:	f94667f4 	ldr	x20, [sp, #3272]
  407868:	f9466bfa 	ldr	x26, [sp, #3280]
  40786c:	eb1a029f 	cmp	x20, x26
  407870:	54000381 	b.ne	4078e0 <_ZN5model5parseENSt7__cxx1112basic_stringIcSt11char_traitsIcESaIcEEE+0x17f8>  // b.any
  407874:	f94667e0 	ldr	x0, [sp, #3272]
  407878:	b4000080 	cbz	x0, 407888 <_ZN5model5parseENSt7__cxx1112basic_stringIcSt11char_traitsIcESaIcEEE+0x17a0>
  40787c:	f9466fe1 	ldr	x1, [sp, #3288]
  407880:	cb000021 	sub	x1, x1, x0
  407884:	97ffea0f 	bl	4020c0 <_ZdlPvm@plt>
  407888:	913223e0 	add	x0, sp, #0xc88
  40788c:	97ffeffc 	bl	40387c <_ZNSt10_HashtableIiSt4pairIKiiESaIS2_ENSt8__detail10_Select1stESt8equal_toIiESt4hashIiENS4_18_Mod_range_hashingENS4_20_Default_ranged_hashENS4_20_Prime_rehash_policyENS4_17_Hashtable_traitsILb0ELb0ELb1EEEED1Ev>
  407890:	913143e0 	add	x0, sp, #0xc50
  407894:	97ffefd1 	bl	4037d8 <_ZNSt10_HashtableINSt7__cxx1112basic_stringIcSt11char_traitsIcESaIcEEESt4pairIKS5_iESaIS8_ENSt8__detail10_Select1stESt8equal_toIS5_ESt4hashIS5_ENSA_18_Mod_range_hashingENSA_20_Default_ranged_hashENSA_20_Prime_rehash_policyENSA_17_Hashtable_traitsILb1ELb0ELb1EEEED1Ev>
  407898:	f9461be0 	ldr	x0, [sp, #3120]
  40789c:	b4000080 	cbz	x0, 4078ac <_ZN5model5parseENSt7__cxx1112basic_stringIcSt11char_traitsIcESaIcEEE+0x17c4>
  4078a0:	f94623e1 	ldr	x1, [sp, #3136]
  4078a4:	cb000021 	sub	x1, x1, x0
  4078a8:	97ffea06 	bl	4020c0 <_ZdlPvm@plt>
  4078ac:	f9460ff4 	ldr	x20, [sp, #3096]
  4078b0:	f94613fa 	ldr	x26, [sp, #3104]
  4078b4:	eb1a029f 	cmp	x20, x26
  4078b8:	540002a1 	b.ne	40790c <_ZN5model5parseENSt7__cxx1112basic_stringIcSt11char_traitsIcESaIcEEE+0x1824>  // b.any
  4078bc:	f9460fe0 	ldr	x0, [sp, #3096]
  4078c0:	b4ffc5c0 	cbz	x0, 407178 <_ZN5model5parseENSt7__cxx1112basic_stringIcSt11char_traitsIcESaIcEEE+0x1090>
  4078c4:	f94617e1 	ldr	x1, [sp, #3112]
  4078c8:	cb000021 	sub	x1, x1, x0
  4078cc:	97ffe9fd 	bl	4020c0 <_ZdlPvm@plt>
  4078d0:	17fffe2a 	b	407178 <_ZN5model5parseENSt7__cxx1112basic_stringIcSt11char_traitsIcESaIcEEE+0x1090>
  4078d4:	91008294 	add	x20, x20, #0x20
  4078d8:	eb14035f 	cmp	x26, x20
  4078dc:	54fffcc0 	b.eq	407874 <_ZN5model5parseENSt7__cxx1112basic_stringIcSt11char_traitsIcESaIcEEE+0x178c>  // b.none
  4078e0:	aa1403e1 	mov	x1, x20
  4078e4:	f8410420 	ldr	x0, [x1], #16
  4078e8:	eb01001f 	cmp	x0, x1
  4078ec:	54ffff40 	b.eq	4078d4 <_ZN5model5parseENSt7__cxx1112basic_stringIcSt11char_traitsIcESaIcEEE+0x17ec>  // b.none
  4078f0:	f9400a81 	ldr	x1, [x20, #16]
  4078f4:	91000421 	add	x1, x1, #0x1
  4078f8:	97ffe9f2 	bl	4020c0 <_ZdlPvm@plt>
  4078fc:	17fffff6 	b	4078d4 <_ZN5model5parseENSt7__cxx1112basic_stringIcSt11char_traitsIcESaIcEEE+0x17ec>
  407900:	91008294 	add	x20, x20, #0x20
  407904:	eb14035f 	cmp	x26, x20
  407908:	54fffda0 	b.eq	4078bc <_ZN5model5parseENSt7__cxx1112basic_stringIcSt11char_traitsIcESaIcEEE+0x17d4>  // b.none
  40790c:	aa1403e1 	mov	x1, x20
  407910:	f8410420 	ldr	x0, [x1], #16
  407914:	eb01001f 	cmp	x0, x1
  407918:	54ffff40 	b.eq	407900 <_ZN5model5parseENSt7__cxx1112basic_stringIcSt11char_traitsIcESaIcEEE+0x1818>  // b.none
  40791c:	f9400a81 	ldr	x1, [x20, #16]
  407920:	91000421 	add	x1, x1, #0x1
  407924:	97ffe9e7 	bl	4020c0 <_ZdlPvm@plt>
  407928:	17fffff6 	b	407900 <_ZN5model5parseENSt7__cxx1112basic_stringIcSt11char_traitsIcESaIcEEE+0x1818>
  40792c:	d2800024 	mov	x4, #0x1                   	// #1
  407930:	d2800003 	mov	x3, #0x0                   	// #0
  407934:	d2800002 	mov	x2, #0x0                   	// #0
  407938:	aa1a03e1 	mov	x1, x26
  40793c:	9135c3e0 	add	x0, sp, #0xd70
  407940:	97ffea50 	bl	402280 <_ZNSt7__cxx1112basic_stringIcSt11char_traitsIcESaIcEE9_M_mutateEmmPKcm@plt>
  407944:	17fffe16 	b	40719c <_ZN5model5parseENSt7__cxx1112basic_stringIcSt11char_traitsIcESaIcEEE+0x10b4>
  407948:	f946bfe0 	ldr	x0, [sp, #3448]
  40794c:	b4005740 	cbz	x0, 408434 <_ZN5model5parseENSt7__cxx1112basic_stringIcSt11char_traitsIcESaIcEEE+0x234c>
  407950:	7100069f 	cmp	w20, #0x1
  407954:	54000440 	b.eq	4079dc <_ZN5model5parseENSt7__cxx1112basic_stringIcSt11char_traitsIcESaIcEEE+0x18f4>  // b.none
  407958:	71000a9f 	cmp	w20, #0x2
  40795c:	540021c0 	b.eq	407d94 <_ZN5model5parseENSt7__cxx1112basic_stringIcSt11char_traitsIcESaIcEEE+0x1cac>  // b.none
  407960:	f905b7ff 	str	xzr, [sp, #2920]
  407964:	f905bbff 	str	xzr, [sp, #2928]
  407968:	f905bfff 	str	xzr, [sp, #2936]
  40796c:	f905c3ff 	str	xzr, [sp, #2944]
  407970:	f905c7ff 	str	xzr, [sp, #2952]
  407974:	f905cbff 	str	xzr, [sp, #2960]
  407978:	b90b9bff 	str	wzr, [sp, #2968]
  40797c:	912f43e1 	add	x1, sp, #0xbd0
  407980:	f905d3e1 	str	x1, [sp, #2976]
  407984:	d2800021 	mov	x1, #0x1                   	// #1
  407988:	f905d7e1 	str	x1, [sp, #2984]
  40798c:	f905dbff 	str	xzr, [sp, #2992]
  407990:	f905dfff 	str	xzr, [sp, #3000]
  407994:	1e2e1000 	fmov	s0, #1.000000000000000000e+00
  407998:	bd0bc3e0 	str	s0, [sp, #3008]
  40799c:	f905e7ff 	str	xzr, [sp, #3016]
  4079a0:	f905ebff 	str	xzr, [sp, #3024]
  4079a4:	913023e2 	add	x2, sp, #0xc08
  4079a8:	f905efe2 	str	x2, [sp, #3032]
  4079ac:	f905f3e1 	str	x1, [sp, #3040]
  4079b0:	f905f7ff 	str	xzr, [sp, #3048]
  4079b4:	f905fbff 	str	xzr, [sp, #3056]
  4079b8:	bd0bfbe0 	str	s0, [sp, #3064]
  4079bc:	f90603ff 	str	xzr, [sp, #3072]
  4079c0:	f90607ff 	str	xzr, [sp, #3080]
  4079c4:	b90b63f4 	str	w20, [sp, #2912]
  4079c8:	b90b67e0 	str	w0, [sp, #2916]
  4079cc:	912d83e1 	add	x1, sp, #0xb60
  4079d0:	913043e0 	add	x0, sp, #0xc10
  4079d4:	94000b2c 	bl	40a684 <_ZN7segmentC1ERKS_>
  4079d8:	140001de 	b	408150 <_ZN5model5parseENSt7__cxx1112basic_stringIcSt11char_traitsIcESaIcEEE+0x2068>
  4079dc:	f9060fff 	str	xzr, [sp, #3096]
  4079e0:	f90613ff 	str	xzr, [sp, #3104]
  4079e4:	f90617ff 	str	xzr, [sp, #3112]
  4079e8:	f9061bff 	str	xzr, [sp, #3120]
  4079ec:	f9061fff 	str	xzr, [sp, #3128]
  4079f0:	f90623ff 	str	xzr, [sp, #3136]
  4079f4:	b90c4bff 	str	wzr, [sp, #3144]
  4079f8:	913203e1 	add	x1, sp, #0xc80
  4079fc:	f9062be1 	str	x1, [sp, #3152]
  407a00:	d2800021 	mov	x1, #0x1                   	// #1
  407a04:	f9062fe1 	str	x1, [sp, #3160]
  407a08:	f90633ff 	str	xzr, [sp, #3168]
  407a0c:	f90637ff 	str	xzr, [sp, #3176]
  407a10:	1e2e1000 	fmov	s0, #1.000000000000000000e+00
  407a14:	bd0c73e0 	str	s0, [sp, #3184]
  407a18:	f9063fff 	str	xzr, [sp, #3192]
  407a1c:	f90643ff 	str	xzr, [sp, #3200]
  407a20:	9132e3e2 	add	x2, sp, #0xcb8
  407a24:	f90647e2 	str	x2, [sp, #3208]
  407a28:	f9064be1 	str	x1, [sp, #3216]
  407a2c:	f9064fff 	str	xzr, [sp, #3224]
  407a30:	f90653ff 	str	xzr, [sp, #3232]
  407a34:	bd0cabe0 	str	s0, [sp, #3240]
  407a38:	f9065bff 	str	xzr, [sp, #3248]
  407a3c:	f9065fff 	str	xzr, [sp, #3256]
  407a40:	b90c13e1 	str	w1, [sp, #3088]
  407a44:	b90c17e0 	str	w0, [sp, #3092]
  407a48:	913043e1 	add	x1, sp, #0xc10
  407a4c:	912543e0 	add	x0, sp, #0x950
  407a50:	94000b0d 	bl	40a684 <_ZN7segmentC1ERKS_>
  407a54:	912543e1 	add	x1, sp, #0x950
  407a58:	aa1603e0 	mov	x0, x22
  407a5c:	97fff1db 	bl	4041c8 <_ZN5model10FindLetterE7segment>
  407a60:	2a0003f5 	mov	w21, w0
  407a64:	912723e0 	add	x0, sp, #0x9c8
  407a68:	97ffef85 	bl	40387c <_ZNSt10_HashtableIiSt4pairIKiiESaIS2_ENSt8__detail10_Select1stESt8equal_toIiESt4hashIiENS4_18_Mod_range_hashingENS4_20_Default_ranged_hashENS4_20_Prime_rehash_policyENS4_17_Hashtable_traitsILb0ELb0ELb1EEEED1Ev>
  407a6c:	912643e0 	add	x0, sp, #0x990
  407a70:	97ffef5a 	bl	4037d8 <_ZNSt10_HashtableINSt7__cxx1112basic_stringIcSt11char_traitsIcESaIcEEESt4pairIKS5_iESaIS8_ENSt8__detail10_Select1stESt8equal_toIS5_ESt4hashIS5_ENSA_18_Mod_range_hashingENSA_20_Default_ranged_hashENSA_20_Prime_rehash_policyENSA_17_Hashtable_traitsILb1ELb0ELb1EEEED1Ev>
  407a74:	f944bbe0 	ldr	x0, [sp, #2416]
  407a78:	b4000080 	cbz	x0, 407a88 <_ZN5model5parseENSt7__cxx1112basic_stringIcSt11char_traitsIcESaIcEEE+0x19a0>
  407a7c:	f944c3e1 	ldr	x1, [sp, #2432]
  407a80:	cb000021 	sub	x1, x1, x0
  407a84:	97ffe98f 	bl	4020c0 <_ZdlPvm@plt>
  407a88:	f944aff3 	ldr	x19, [sp, #2392]
  407a8c:	f944b3f4 	ldr	x20, [sp, #2400]
  407a90:	eb14027f 	cmp	x19, x20
  407a94:	54000241 	b.ne	407adc <_ZN5model5parseENSt7__cxx1112basic_stringIcSt11char_traitsIcESaIcEEE+0x19f4>  // b.any
  407a98:	f944afe0 	ldr	x0, [sp, #2392]
  407a9c:	b4000080 	cbz	x0, 407aac <_ZN5model5parseENSt7__cxx1112basic_stringIcSt11char_traitsIcESaIcEEE+0x19c4>
  407aa0:	f944b7e1 	ldr	x1, [sp, #2408]
  407aa4:	cb000021 	sub	x1, x1, x0
  407aa8:	97ffe986 	bl	4020c0 <_ZdlPvm@plt>
  407aac:	310006bf 	cmn	w21, #0x1
  407ab0:	54000200 	b.eq	407af0 <_ZN5model5parseENSt7__cxx1112basic_stringIcSt11char_traitsIcESaIcEEE+0x1a08>  // b.none
  407ab4:	913043e1 	add	x1, sp, #0xc10
  407ab8:	912803e0 	add	x0, sp, #0xa00
  407abc:	94000af2 	bl	40a684 <_ZN7segmentC1ERKS_>
  407ac0:	14000031 	b	407b84 <_ZN5model5parseENSt7__cxx1112basic_stringIcSt11char_traitsIcESaIcEEE+0x1a9c>
  407ac4:	f9400a61 	ldr	x1, [x19, #16]
  407ac8:	91000421 	add	x1, x1, #0x1
  407acc:	97ffe97d 	bl	4020c0 <_ZdlPvm@plt>
  407ad0:	91008273 	add	x19, x19, #0x20
  407ad4:	eb13029f 	cmp	x20, x19
  407ad8:	54fffe00 	b.eq	407a98 <_ZN5model5parseENSt7__cxx1112basic_stringIcSt11char_traitsIcESaIcEEE+0x19b0>  // b.none
  407adc:	aa1303e1 	mov	x1, x19
  407ae0:	f8410420 	ldr	x0, [x1], #16
  407ae4:	eb01001f 	cmp	x0, x1
  407ae8:	54fffee1 	b.ne	407ac4 <_ZN5model5parseENSt7__cxx1112basic_stringIcSt11char_traitsIcESaIcEEE+0x19dc>  // b.any
  407aec:	17fffff9 	b	407ad0 <_ZN5model5parseENSt7__cxx1112basic_stringIcSt11char_traitsIcESaIcEEE+0x19e8>
  407af0:	b94006c0 	ldr	w0, [x22, #4]
  407af4:	11000400 	add	w0, w0, #0x1
  407af8:	b90006c0 	str	w0, [x22, #4]
  407afc:	b90b63e0 	str	w0, [sp, #2912]
  407b00:	913043e1 	add	x1, sp, #0xc10
  407b04:	9100c2c0 	add	x0, x22, #0x30
  407b08:	94001251 	bl	40c44c <_ZNSt6vectorI7segmentSaIS0_EE12emplace_backIJRS0_EEEvDpOT_>
  407b0c:	912d83e1 	add	x1, sp, #0xb60
  407b10:	9102c2c0 	add	x0, x22, #0xb0
  407b14:	94000d90 	bl	40b154 <_ZNSt8__detail9_Map_baseIiSt4pairIKiiESaIS3_ENS_10_Select1stESt8equal_toIiESt4hashIiENS_18_Mod_range_hashingENS_20_Default_ranged_hashENS_20_Prime_rehash_policyENS_17_Hashtable_traitsILb0ELb0ELb1EEELb1EEixERS2_>
  407b18:	52800021 	mov	w1, #0x1                   	// #1
  407b1c:	b9000001 	str	w1, [x0]
  407b20:	b98b63e0 	ldrsw	x0, [sp, #2912]
  407b24:	8b000413 	add	x19, x0, x0, lsl #1
  407b28:	d37ef673 	lsl	x19, x19, #2
  407b2c:	cb000273 	sub	x19, x19, x0
  407b30:	f9401ac0 	ldr	x0, [x22, #48]
  407b34:	8b131013 	add	x19, x0, x19, lsl #4
  407b38:	913343e0 	add	x0, sp, #0xcd0
  407b3c:	f90663e0 	str	x0, [sp, #3264]
  407b40:	f946bbe1 	ldr	x1, [sp, #3440]
  407b44:	52800003 	mov	w3, #0x0                   	// #0
  407b48:	f946bfe2 	ldr	x2, [sp, #3448]
  407b4c:	8b020022 	add	x2, x1, x2
  407b50:	913303e0 	add	x0, sp, #0xcc0
  407b54:	94000840 	bl	409c54 <_ZNSt7__cxx1112basic_stringIcSt11char_traitsIcESaIcEE12_M_constructIPcEEvT_S7_St20forward_iterator_tag>
  407b58:	913303e1 	add	x1, sp, #0xcc0
  407b5c:	aa1303e0 	mov	x0, x19
  407b60:	97fff6df 	bl	4056dc <_ZN7segment6insertENSt7__cxx1112basic_stringIcSt11char_traitsIcESaIcEEE>
  407b64:	f94663e0 	ldr	x0, [sp, #3264]
  407b68:	913343e1 	add	x1, sp, #0xcd0
  407b6c:	eb01001f 	cmp	x0, x1
  407b70:	540008a0 	b.eq	407c84 <_ZN5model5parseENSt7__cxx1112basic_stringIcSt11char_traitsIcESaIcEEE+0x1b9c>  // b.none
  407b74:	f9466be1 	ldr	x1, [sp, #3280]
  407b78:	91000421 	add	x1, x1, #0x1
  407b7c:	97ffe951 	bl	4020c0 <_ZdlPvm@plt>
  407b80:	14000041 	b	407c84 <_ZN5model5parseENSt7__cxx1112basic_stringIcSt11char_traitsIcESaIcEEE+0x1b9c>
  407b84:	912803e1 	add	x1, sp, #0xa00
  407b88:	aa1603e0 	mov	x0, x22
  407b8c:	97fff18f 	bl	4041c8 <_ZN5model10FindLetterE7segment>
  407b90:	b90b63e0 	str	w0, [sp, #2912]
  407b94:	9129e3e0 	add	x0, sp, #0xa78
  407b98:	97ffef39 	bl	40387c <_ZNSt10_HashtableIiSt4pairIKiiESaIS2_ENSt8__detail10_Select1stESt8equal_toIiESt4hashIiENS4_18_Mod_range_hashingENS4_20_Default_ranged_hashENS4_20_Prime_rehash_policyENS4_17_Hashtable_traitsILb0ELb0ELb1EEEED1Ev>
  407b9c:	912903e0 	add	x0, sp, #0xa40
  407ba0:	97ffef0e 	bl	4037d8 <_ZNSt10_HashtableINSt7__cxx1112basic_stringIcSt11char_traitsIcESaIcEEESt4pairIKS5_iESaIS8_ENSt8__detail10_Select1stESt8equal_toIS5_ESt4hashIS5_ENSA_18_Mod_range_hashingENSA_20_Default_ranged_hashENSA_20_Prime_rehash_policyENSA_17_Hashtable_traitsILb1ELb0ELb1EEEED1Ev>
  407ba4:	f94513e0 	ldr	x0, [sp, #2592]
  407ba8:	b4000080 	cbz	x0, 407bb8 <_ZN5model5parseENSt7__cxx1112basic_stringIcSt11char_traitsIcESaIcEEE+0x1ad0>
  407bac:	f9451be1 	ldr	x1, [sp, #2608]
  407bb0:	cb000021 	sub	x1, x1, x0
  407bb4:	97ffe943 	bl	4020c0 <_ZdlPvm@plt>
  407bb8:	f94507f3 	ldr	x19, [sp, #2568]
  407bbc:	f9450bf4 	ldr	x20, [sp, #2576]
  407bc0:	eb14027f 	cmp	x19, x20
  407bc4:	540001a1 	b.ne	407bf8 <_ZN5model5parseENSt7__cxx1112basic_stringIcSt11char_traitsIcESaIcEEE+0x1b10>  // b.any
  407bc8:	f94507e0 	ldr	x0, [sp, #2568]
  407bcc:	b4000080 	cbz	x0, 407bdc <_ZN5model5parseENSt7__cxx1112basic_stringIcSt11char_traitsIcESaIcEEE+0x1af4>
  407bd0:	f9450fe1 	ldr	x1, [sp, #2584]
  407bd4:	cb000021 	sub	x1, x1, x0
  407bd8:	97ffe93a 	bl	4020c0 <_ZdlPvm@plt>
  407bdc:	912d83e1 	add	x1, sp, #0xb60
  407be0:	9102c2c0 	add	x0, x22, #0xb0
  407be4:	94000d5c 	bl	40b154 <_ZNSt8__detail9_Map_baseIiSt4pairIKiiESaIS3_ENS_10_Select1stESt8equal_toIiESt4hashIiENS_18_Mod_range_hashingENS_20_Default_ranged_hashENS_20_Prime_rehash_policyENS_17_Hashtable_traitsILb0ELb0ELb1EEELb1EEixERS2_>
  407be8:	1400000c 	b	407c18 <_ZN5model5parseENSt7__cxx1112basic_stringIcSt11char_traitsIcESaIcEEE+0x1b30>
  407bec:	91008273 	add	x19, x19, #0x20
  407bf0:	eb13029f 	cmp	x20, x19
  407bf4:	54fffea0 	b.eq	407bc8 <_ZN5model5parseENSt7__cxx1112basic_stringIcSt11char_traitsIcESaIcEEE+0x1ae0>  // b.none
  407bf8:	aa1303e1 	mov	x1, x19
  407bfc:	f8410420 	ldr	x0, [x1], #16
  407c00:	eb01001f 	cmp	x0, x1
  407c04:	54ffff40 	b.eq	407bec <_ZN5model5parseENSt7__cxx1112basic_stringIcSt11char_traitsIcESaIcEEE+0x1b04>  // b.none
  407c08:	f9400a61 	ldr	x1, [x19, #16]
  407c0c:	91000421 	add	x1, x1, #0x1
  407c10:	97ffe92c 	bl	4020c0 <_ZdlPvm@plt>
  407c14:	17fffff6 	b	407bec <_ZN5model5parseENSt7__cxx1112basic_stringIcSt11char_traitsIcESaIcEEE+0x1b04>
  407c18:	b9400001 	ldr	w1, [x0]
  407c1c:	11000421 	add	w1, w1, #0x1
  407c20:	b9000001 	str	w1, [x0]
  407c24:	b98b63e0 	ldrsw	x0, [sp, #2912]
  407c28:	8b000413 	add	x19, x0, x0, lsl #1
  407c2c:	d37ef673 	lsl	x19, x19, #2
  407c30:	cb000273 	sub	x19, x19, x0
  407c34:	f9401ac0 	ldr	x0, [x22, #48]
  407c38:	8b131013 	add	x19, x0, x19, lsl #4
  407c3c:	913343e0 	add	x0, sp, #0xcd0
  407c40:	f90663e0 	str	x0, [sp, #3264]
  407c44:	f946bbe1 	ldr	x1, [sp, #3440]
  407c48:	52800003 	mov	w3, #0x0                   	// #0
  407c4c:	f946bfe2 	ldr	x2, [sp, #3448]
  407c50:	8b020022 	add	x2, x1, x2
  407c54:	913303e0 	add	x0, sp, #0xcc0
  407c58:	940007ff 	bl	409c54 <_ZNSt7__cxx1112basic_stringIcSt11char_traitsIcESaIcEE12_M_constructIPcEEvT_S7_St20forward_iterator_tag>
  407c5c:	913303e1 	add	x1, sp, #0xcc0
  407c60:	aa1303e0 	mov	x0, x19
  407c64:	97fff69e 	bl	4056dc <_ZN7segment6insertENSt7__cxx1112basic_stringIcSt11char_traitsIcESaIcEEE>
  407c68:	f94663e0 	ldr	x0, [sp, #3264]
  407c6c:	913343e1 	add	x1, sp, #0xcd0
  407c70:	eb01001f 	cmp	x0, x1
  407c74:	54000080 	b.eq	407c84 <_ZN5model5parseENSt7__cxx1112basic_stringIcSt11char_traitsIcESaIcEEE+0x1b9c>  // b.none
  407c78:	f9466be1 	ldr	x1, [sp, #3280]
  407c7c:	91000421 	add	x1, x1, #0x1
  407c80:	97ffe910 	bl	4020c0 <_ZdlPvm@plt>
  407c84:	f906bfff 	str	xzr, [sp, #3448]
  407c88:	f946bbe0 	ldr	x0, [sp, #3440]
  407c8c:	3900001f 	strb	wzr, [x0]
  407c90:	913043e1 	add	x1, sp, #0xc10
  407c94:	913303e0 	add	x0, sp, #0xcc0
  407c98:	94000a7b 	bl	40a684 <_ZN7segmentC1ERKS_>
  407c9c:	913303e1 	add	x1, sp, #0xcc0
  407ca0:	913643e0 	add	x0, sp, #0xd90
  407ca4:	940011ea 	bl	40c44c <_ZNSt6vectorI7segmentSaIS0_EE12emplace_backIJRS0_EEEvDpOT_>
  407ca8:	9134e3e0 	add	x0, sp, #0xd38
  407cac:	97ffeef4 	bl	40387c <_ZNSt10_HashtableIiSt4pairIKiiESaIS2_ENSt8__detail10_Select1stESt8equal_toIiESt4hashIiENS4_18_Mod_range_hashingENS4_20_Default_ranged_hashENS4_20_Prime_rehash_policyENS4_17_Hashtable_traitsILb0ELb0ELb1EEEED1Ev>
  407cb0:	913403e0 	add	x0, sp, #0xd00
  407cb4:	97ffeec9 	bl	4037d8 <_ZNSt10_HashtableINSt7__cxx1112basic_stringIcSt11char_traitsIcESaIcEEESt4pairIKS5_iESaIS8_ENSt8__detail10_Select1stESt8equal_toIS5_ESt4hashIS5_ENSA_18_Mod_range_hashingENSA_20_Default_ranged_hashENSA_20_Prime_rehash_policyENSA_17_Hashtable_traitsILb1ELb0ELb1EEEED1Ev>
  407cb8:	f94673e0 	ldr	x0, [sp, #3296]
  407cbc:	b4000080 	cbz	x0, 407ccc <_ZN5model5parseENSt7__cxx1112basic_stringIcSt11char_traitsIcESaIcEEE+0x1be4>
  407cc0:	f9467be1 	ldr	x1, [sp, #3312]
  407cc4:	cb000021 	sub	x1, x1, x0
  407cc8:	97ffe8fe 	bl	4020c0 <_ZdlPvm@plt>
  407ccc:	f94667f3 	ldr	x19, [sp, #3272]
  407cd0:	f9466bf4 	ldr	x20, [sp, #3280]
  407cd4:	eb14027f 	cmp	x19, x20
  407cd8:	540003e1 	b.ne	407d54 <_ZN5model5parseENSt7__cxx1112basic_stringIcSt11char_traitsIcESaIcEEE+0x1c6c>  // b.any
  407cdc:	f94667e0 	ldr	x0, [sp, #3272]
  407ce0:	b4000080 	cbz	x0, 407cf0 <_ZN5model5parseENSt7__cxx1112basic_stringIcSt11char_traitsIcESaIcEEE+0x1c08>
  407ce4:	f9466fe1 	ldr	x1, [sp, #3288]
  407ce8:	cb000021 	sub	x1, x1, x0
  407cec:	97ffe8f5 	bl	4020c0 <_ZdlPvm@plt>
  407cf0:	913223e0 	add	x0, sp, #0xc88
  407cf4:	97ffeee2 	bl	40387c <_ZNSt10_HashtableIiSt4pairIKiiESaIS2_ENSt8__detail10_Select1stESt8equal_toIiESt4hashIiENS4_18_Mod_range_hashingENS4_20_Default_ranged_hashENS4_20_Prime_rehash_policyENS4_17_Hashtable_traitsILb0ELb0ELb1EEEED1Ev>
  407cf8:	913143e0 	add	x0, sp, #0xc50
  407cfc:	97ffeeb7 	bl	4037d8 <_ZNSt10_HashtableINSt7__cxx1112basic_stringIcSt11char_traitsIcESaIcEEESt4pairIKS5_iESaIS8_ENSt8__detail10_Select1stESt8equal_toIS5_ESt4hashIS5_ENSA_18_Mod_range_hashingENSA_20_Default_ranged_hashENSA_20_Prime_rehash_policyENSA_17_Hashtable_traitsILb1ELb0ELb1EEEED1Ev>
  407d00:	f9461be0 	ldr	x0, [sp, #3120]
  407d04:	b4000080 	cbz	x0, 407d14 <_ZN5model5parseENSt7__cxx1112basic_stringIcSt11char_traitsIcESaIcEEE+0x1c2c>
  407d08:	f94623e1 	ldr	x1, [sp, #3136]
  407d0c:	cb000021 	sub	x1, x1, x0
  407d10:	97ffe8ec 	bl	4020c0 <_ZdlPvm@plt>
  407d14:	f9460ff3 	ldr	x19, [sp, #3096]
  407d18:	f94613f4 	ldr	x20, [sp, #3104]
  407d1c:	eb14027f 	cmp	x19, x20
  407d20:	54000301 	b.ne	407d80 <_ZN5model5parseENSt7__cxx1112basic_stringIcSt11char_traitsIcESaIcEEE+0x1c98>  // b.any
  407d24:	f9460fe0 	ldr	x0, [sp, #3096]
  407d28:	b4003860 	cbz	x0, 408434 <_ZN5model5parseENSt7__cxx1112basic_stringIcSt11char_traitsIcESaIcEEE+0x234c>
  407d2c:	f94617e1 	ldr	x1, [sp, #3112]
  407d30:	cb000021 	sub	x1, x1, x0
  407d34:	97ffe8e3 	bl	4020c0 <_ZdlPvm@plt>
  407d38:	140001bf 	b	408434 <_ZN5model5parseENSt7__cxx1112basic_stringIcSt11char_traitsIcESaIcEEE+0x234c>
  407d3c:	f9400a61 	ldr	x1, [x19, #16]
  407d40:	91000421 	add	x1, x1, #0x1
  407d44:	97ffe8df 	bl	4020c0 <_ZdlPvm@plt>
  407d48:	91008273 	add	x19, x19, #0x20
  407d4c:	eb13029f 	cmp	x20, x19
  407d50:	54fffc60 	b.eq	407cdc <_ZN5model5parseENSt7__cxx1112basic_stringIcSt11char_traitsIcESaIcEEE+0x1bf4>  // b.none
  407d54:	aa1303e1 	mov	x1, x19
  407d58:	f8410420 	ldr	x0, [x1], #16
  407d5c:	eb01001f 	cmp	x0, x1
  407d60:	54fffee1 	b.ne	407d3c <_ZN5model5parseENSt7__cxx1112basic_stringIcSt11char_traitsIcESaIcEEE+0x1c54>  // b.any
  407d64:	17fffff9 	b	407d48 <_ZN5model5parseENSt7__cxx1112basic_stringIcSt11char_traitsIcESaIcEEE+0x1c60>
  407d68:	f9400a61 	ldr	x1, [x19, #16]
  407d6c:	91000421 	add	x1, x1, #0x1
  407d70:	97ffe8d4 	bl	4020c0 <_ZdlPvm@plt>
  407d74:	91008273 	add	x19, x19, #0x20
  407d78:	eb13029f 	cmp	x20, x19
  407d7c:	54fffd40 	b.eq	407d24 <_ZN5model5parseENSt7__cxx1112basic_stringIcSt11char_traitsIcESaIcEEE+0x1c3c>  // b.none
  407d80:	aa1303e1 	mov	x1, x19
  407d84:	f8410420 	ldr	x0, [x1], #16
  407d88:	eb01001f 	cmp	x0, x1
  407d8c:	54fffee1 	b.ne	407d68 <_ZN5model5parseENSt7__cxx1112basic_stringIcSt11char_traitsIcESaIcEEE+0x1c80>  // b.any
  407d90:	17fffff9 	b	407d74 <_ZN5model5parseENSt7__cxx1112basic_stringIcSt11char_traitsIcESaIcEEE+0x1c8c>
  407d94:	f9060fff 	str	xzr, [sp, #3096]
  407d98:	f90613ff 	str	xzr, [sp, #3104]
  407d9c:	f90617ff 	str	xzr, [sp, #3112]
  407da0:	f9061bff 	str	xzr, [sp, #3120]
  407da4:	f9061fff 	str	xzr, [sp, #3128]
  407da8:	f90623ff 	str	xzr, [sp, #3136]
  407dac:	b90c4bff 	str	wzr, [sp, #3144]
  407db0:	913203e1 	add	x1, sp, #0xc80
  407db4:	f9062be1 	str	x1, [sp, #3152]
  407db8:	d2800021 	mov	x1, #0x1                   	// #1
  407dbc:	f9062fe1 	str	x1, [sp, #3160]
  407dc0:	f90633ff 	str	xzr, [sp, #3168]
  407dc4:	f90637ff 	str	xzr, [sp, #3176]
  407dc8:	1e2e1000 	fmov	s0, #1.000000000000000000e+00
  407dcc:	bd0c73e0 	str	s0, [sp, #3184]
  407dd0:	f9063fff 	str	xzr, [sp, #3192]
  407dd4:	f90643ff 	str	xzr, [sp, #3200]
  407dd8:	9132e3e2 	add	x2, sp, #0xcb8
  407ddc:	f90647e2 	str	x2, [sp, #3208]
  407de0:	f9064be1 	str	x1, [sp, #3216]
  407de4:	f9064fff 	str	xzr, [sp, #3224]
  407de8:	f90653ff 	str	xzr, [sp, #3232]
  407dec:	bd0cabe0 	str	s0, [sp, #3240]
  407df0:	f9065bff 	str	xzr, [sp, #3248]
  407df4:	f9065fff 	str	xzr, [sp, #3256]
  407df8:	52800041 	mov	w1, #0x2                   	// #2
  407dfc:	b90c13e1 	str	w1, [sp, #3088]
  407e00:	b90c17e0 	str	w0, [sp, #3092]
  407e04:	913043e1 	add	x1, sp, #0xc10
  407e08:	912ac3e0 	add	x0, sp, #0xab0
  407e0c:	94000a1e 	bl	40a684 <_ZN7segmentC1ERKS_>
  407e10:	912ac3e1 	add	x1, sp, #0xab0
  407e14:	aa1603e0 	mov	x0, x22
  407e18:	97fff105 	bl	40422c <_ZN5model9FindDigitE7segment>
  407e1c:	2a0003f5 	mov	w21, w0
  407e20:	912ca3e0 	add	x0, sp, #0xb28
  407e24:	97ffee96 	bl	40387c <_ZNSt10_HashtableIiSt4pairIKiiESaIS2_ENSt8__detail10_Select1stESt8equal_toIiESt4hashIiENS4_18_Mod_range_hashingENS4_20_Default_ranged_hashENS4_20_Prime_rehash_policyENS4_17_Hashtable_traitsILb0ELb0ELb1EEEED1Ev>
  407e28:	912bc3e0 	add	x0, sp, #0xaf0
  407e2c:	97ffee6b 	bl	4037d8 <_ZNSt10_HashtableINSt7__cxx1112basic_stringIcSt11char_traitsIcESaIcEEESt4pairIKS5_iESaIS8_ENSt8__detail10_Select1stESt8equal_toIS5_ESt4hashIS5_ENSA_18_Mod_range_hashingENSA_20_Default_ranged_hashENSA_20_Prime_rehash_policyENSA_17_Hashtable_traitsILb1ELb0ELb1EEEED1Ev>
  407e30:	f9456be0 	ldr	x0, [sp, #2768]
  407e34:	b4000080 	cbz	x0, 407e44 <_ZN5model5parseENSt7__cxx1112basic_stringIcSt11char_traitsIcESaIcEEE+0x1d5c>
  407e38:	f94573e1 	ldr	x1, [sp, #2784]
  407e3c:	cb000021 	sub	x1, x1, x0
  407e40:	97ffe8a0 	bl	4020c0 <_ZdlPvm@plt>
  407e44:	f9455ff3 	ldr	x19, [sp, #2744]
  407e48:	f94563f4 	ldr	x20, [sp, #2752]
  407e4c:	eb14027f 	cmp	x19, x20
  407e50:	54000241 	b.ne	407e98 <_ZN5model5parseENSt7__cxx1112basic_stringIcSt11char_traitsIcESaIcEEE+0x1db0>  // b.any
  407e54:	f9455fe0 	ldr	x0, [sp, #2744]
  407e58:	b4000080 	cbz	x0, 407e68 <_ZN5model5parseENSt7__cxx1112basic_stringIcSt11char_traitsIcESaIcEEE+0x1d80>
  407e5c:	f94567e1 	ldr	x1, [sp, #2760]
  407e60:	cb000021 	sub	x1, x1, x0
  407e64:	97ffe897 	bl	4020c0 <_ZdlPvm@plt>
  407e68:	310006bf 	cmn	w21, #0x1
  407e6c:	54000200 	b.eq	407eac <_ZN5model5parseENSt7__cxx1112basic_stringIcSt11char_traitsIcESaIcEEE+0x1dc4>  // b.none
  407e70:	913043e1 	add	x1, sp, #0xc10
  407e74:	912d83e0 	add	x0, sp, #0xb60
  407e78:	94000a03 	bl	40a684 <_ZN7segmentC1ERKS_>
  407e7c:	14000031 	b	407f40 <_ZN5model5parseENSt7__cxx1112basic_stringIcSt11char_traitsIcESaIcEEE+0x1e58>
  407e80:	f9400a61 	ldr	x1, [x19, #16]
  407e84:	91000421 	add	x1, x1, #0x1
  407e88:	97ffe88e 	bl	4020c0 <_ZdlPvm@plt>
  407e8c:	91008273 	add	x19, x19, #0x20
  407e90:	eb13029f 	cmp	x20, x19
  407e94:	54fffe00 	b.eq	407e54 <_ZN5model5parseENSt7__cxx1112basic_stringIcSt11char_traitsIcESaIcEEE+0x1d6c>  // b.none
  407e98:	aa1303e1 	mov	x1, x19
  407e9c:	f8410420 	ldr	x0, [x1], #16
  407ea0:	eb01001f 	cmp	x0, x1
  407ea4:	54fffee1 	b.ne	407e80 <_ZN5model5parseENSt7__cxx1112basic_stringIcSt11char_traitsIcESaIcEEE+0x1d98>  // b.any
  407ea8:	17fffff9 	b	407e8c <_ZN5model5parseENSt7__cxx1112basic_stringIcSt11char_traitsIcESaIcEEE+0x1da4>
  407eac:	b9400ac0 	ldr	w0, [x22, #8]
  407eb0:	11000400 	add	w0, w0, #0x1
  407eb4:	b9000ac0 	str	w0, [x22, #8]
  407eb8:	b90b63e0 	str	w0, [sp, #2912]
  407ebc:	913043e1 	add	x1, sp, #0xc10
  407ec0:	910122c0 	add	x0, x22, #0x48
  407ec4:	94001162 	bl	40c44c <_ZNSt6vectorI7segmentSaIS0_EE12emplace_backIJRS0_EEEvDpOT_>
  407ec8:	912d83e1 	add	x1, sp, #0xb60
  407ecc:	9103a2c0 	add	x0, x22, #0xe8
  407ed0:	94000ca1 	bl	40b154 <_ZNSt8__detail9_Map_baseIiSt4pairIKiiESaIS3_ENS_10_Select1stESt8equal_toIiESt4hashIiENS_18_Mod_range_hashingENS_20_Default_ranged_hashENS_20_Prime_rehash_policyENS_17_Hashtable_traitsILb0ELb0ELb1EEELb1EEixERS2_>
  407ed4:	52800021 	mov	w1, #0x1                   	// #1
  407ed8:	b9000001 	str	w1, [x0]
  407edc:	b98b63e0 	ldrsw	x0, [sp, #2912]
  407ee0:	8b000413 	add	x19, x0, x0, lsl #1
  407ee4:	d37ef673 	lsl	x19, x19, #2
  407ee8:	cb000273 	sub	x19, x19, x0
  407eec:	f94026c0 	ldr	x0, [x22, #72]
  407ef0:	8b131013 	add	x19, x0, x19, lsl #4
  407ef4:	913343e0 	add	x0, sp, #0xcd0
  407ef8:	f90663e0 	str	x0, [sp, #3264]
  407efc:	f946bbe1 	ldr	x1, [sp, #3440]
  407f00:	52800003 	mov	w3, #0x0                   	// #0
  407f04:	f946bfe2 	ldr	x2, [sp, #3448]
  407f08:	8b020022 	add	x2, x1, x2
  407f0c:	913303e0 	add	x0, sp, #0xcc0
  407f10:	94000751 	bl	409c54 <_ZNSt7__cxx1112basic_stringIcSt11char_traitsIcESaIcEE12_M_constructIPcEEvT_S7_St20forward_iterator_tag>
  407f14:	913303e1 	add	x1, sp, #0xcc0
  407f18:	aa1303e0 	mov	x0, x19
  407f1c:	97fff5f0 	bl	4056dc <_ZN7segment6insertENSt7__cxx1112basic_stringIcSt11char_traitsIcESaIcEEE>
  407f20:	f94663e0 	ldr	x0, [sp, #3264]
  407f24:	913343e1 	add	x1, sp, #0xcd0
  407f28:	eb01001f 	cmp	x0, x1
  407f2c:	540008a0 	b.eq	408040 <_ZN5model5parseENSt7__cxx1112basic_stringIcSt11char_traitsIcESaIcEEE+0x1f58>  // b.none
  407f30:	f9466be1 	ldr	x1, [sp, #3280]
  407f34:	91000421 	add	x1, x1, #0x1
  407f38:	97ffe862 	bl	4020c0 <_ZdlPvm@plt>
  407f3c:	14000041 	b	408040 <_ZN5model5parseENSt7__cxx1112basic_stringIcSt11char_traitsIcESaIcEEE+0x1f58>
  407f40:	912d83e1 	add	x1, sp, #0xb60
  407f44:	aa1603e0 	mov	x0, x22
  407f48:	97fff0b9 	bl	40422c <_ZN5model9FindDigitE7segment>
  407f4c:	b90ab3e0 	str	w0, [sp, #2736]
  407f50:	912f63e0 	add	x0, sp, #0xbd8
  407f54:	97ffee4a 	bl	40387c <_ZNSt10_HashtableIiSt4pairIKiiESaIS2_ENSt8__detail10_Select1stESt8equal_toIiESt4hashIiENS4_18_Mod_range_hashingENS4_20_Default_ranged_hashENS4_20_Prime_rehash_policyENS4_17_Hashtable_traitsILb0ELb0ELb1EEEED1Ev>
  407f58:	912e83e0 	add	x0, sp, #0xba0
  407f5c:	97ffee1f 	bl	4037d8 <_ZNSt10_HashtableINSt7__cxx1112basic_stringIcSt11char_traitsIcESaIcEEESt4pairIKS5_iESaIS8_ENSt8__detail10_Select1stESt8equal_toIS5_ESt4hashIS5_ENSA_18_Mod_range_hashingENSA_20_Default_ranged_hashENSA_20_Prime_rehash_policyENSA_17_Hashtable_traitsILb1ELb0ELb1EEEED1Ev>
  407f60:	f945c3e0 	ldr	x0, [sp, #2944]
  407f64:	b4000080 	cbz	x0, 407f74 <_ZN5model5parseENSt7__cxx1112basic_stringIcSt11char_traitsIcESaIcEEE+0x1e8c>
  407f68:	f945cbe1 	ldr	x1, [sp, #2960]
  407f6c:	cb000021 	sub	x1, x1, x0
  407f70:	97ffe854 	bl	4020c0 <_ZdlPvm@plt>
  407f74:	f945b7f3 	ldr	x19, [sp, #2920]
  407f78:	f945bbf4 	ldr	x20, [sp, #2928]
  407f7c:	eb14027f 	cmp	x19, x20
  407f80:	54000201 	b.ne	407fc0 <_ZN5model5parseENSt7__cxx1112basic_stringIcSt11char_traitsIcESaIcEEE+0x1ed8>  // b.any
  407f84:	f945b7e0 	ldr	x0, [sp, #2920]
  407f88:	b4000080 	cbz	x0, 407f98 <_ZN5model5parseENSt7__cxx1112basic_stringIcSt11char_traitsIcESaIcEEE+0x1eb0>
  407f8c:	f945bfe1 	ldr	x1, [sp, #2936]
  407f90:	cb000021 	sub	x1, x1, x0
  407f94:	97ffe84b 	bl	4020c0 <_ZdlPvm@plt>
  407f98:	912ac3e1 	add	x1, sp, #0xab0
  407f9c:	9103a2c0 	add	x0, x22, #0xe8
  407fa0:	94000c6d 	bl	40b154 <_ZNSt8__detail9_Map_baseIiSt4pairIKiiESaIS3_ENS_10_Select1stESt8equal_toIiESt4hashIiENS_18_Mod_range_hashingENS_20_Default_ranged_hashENS_20_Prime_rehash_policyENS_17_Hashtable_traitsILb0ELb0ELb1EEELb1EEixERS2_>
  407fa4:	1400000c 	b	407fd4 <_ZN5model5parseENSt7__cxx1112basic_stringIcSt11char_traitsIcESaIcEEE+0x1eec>
  407fa8:	f9400a61 	ldr	x1, [x19, #16]
  407fac:	91000421 	add	x1, x1, #0x1
  407fb0:	97ffe844 	bl	4020c0 <_ZdlPvm@plt>
  407fb4:	91008273 	add	x19, x19, #0x20
  407fb8:	eb13029f 	cmp	x20, x19
  407fbc:	54fffe40 	b.eq	407f84 <_ZN5model5parseENSt7__cxx1112basic_stringIcSt11char_traitsIcESaIcEEE+0x1e9c>  // b.none
  407fc0:	aa1303e1 	mov	x1, x19
  407fc4:	f8410420 	ldr	x0, [x1], #16
  407fc8:	eb01001f 	cmp	x0, x1
  407fcc:	54fffee1 	b.ne	407fa8 <_ZN5model5parseENSt7__cxx1112basic_stringIcSt11char_traitsIcESaIcEEE+0x1ec0>  // b.any
  407fd0:	17fffff9 	b	407fb4 <_ZN5model5parseENSt7__cxx1112basic_stringIcSt11char_traitsIcESaIcEEE+0x1ecc>
  407fd4:	b9400001 	ldr	w1, [x0]
  407fd8:	11000421 	add	w1, w1, #0x1
  407fdc:	b9000001 	str	w1, [x0]
  407fe0:	b98ab3e0 	ldrsw	x0, [sp, #2736]
  407fe4:	8b000413 	add	x19, x0, x0, lsl #1
  407fe8:	d37ef673 	lsl	x19, x19, #2
  407fec:	cb000273 	sub	x19, x19, x0
  407ff0:	f94026c0 	ldr	x0, [x22, #72]
  407ff4:	8b131013 	add	x19, x0, x19, lsl #4
  407ff8:	913343e0 	add	x0, sp, #0xcd0
  407ffc:	f90663e0 	str	x0, [sp, #3264]
  408000:	f946bbe1 	ldr	x1, [sp, #3440]
  408004:	52800003 	mov	w3, #0x0                   	// #0
  408008:	f946bfe2 	ldr	x2, [sp, #3448]
  40800c:	8b020022 	add	x2, x1, x2
  408010:	913303e0 	add	x0, sp, #0xcc0
  408014:	94000710 	bl	409c54 <_ZNSt7__cxx1112basic_stringIcSt11char_traitsIcESaIcEE12_M_constructIPcEEvT_S7_St20forward_iterator_tag>
  408018:	913303e1 	add	x1, sp, #0xcc0
  40801c:	aa1303e0 	mov	x0, x19
  408020:	97fff5af 	bl	4056dc <_ZN7segment6insertENSt7__cxx1112basic_stringIcSt11char_traitsIcESaIcEEE>
  408024:	f94663e0 	ldr	x0, [sp, #3264]
  408028:	913343e1 	add	x1, sp, #0xcd0
  40802c:	eb01001f 	cmp	x0, x1
  408030:	54000080 	b.eq	408040 <_ZN5model5parseENSt7__cxx1112basic_stringIcSt11char_traitsIcESaIcEEE+0x1f58>  // b.none
  408034:	f9466be1 	ldr	x1, [sp, #3280]
  408038:	91000421 	add	x1, x1, #0x1
  40803c:	97ffe821 	bl	4020c0 <_ZdlPvm@plt>
  408040:	f906bfff 	str	xzr, [sp, #3448]
  408044:	f946bbe0 	ldr	x0, [sp, #3440]
  408048:	3900001f 	strb	wzr, [x0]
  40804c:	913043e1 	add	x1, sp, #0xc10
  408050:	913303e0 	add	x0, sp, #0xcc0
  408054:	9400098c 	bl	40a684 <_ZN7segmentC1ERKS_>
  408058:	913303e1 	add	x1, sp, #0xcc0
  40805c:	913643e0 	add	x0, sp, #0xd90
  408060:	940010fb 	bl	40c44c <_ZNSt6vectorI7segmentSaIS0_EE12emplace_backIJRS0_EEEvDpOT_>
  408064:	9134e3e0 	add	x0, sp, #0xd38
  408068:	97ffee05 	bl	40387c <_ZNSt10_HashtableIiSt4pairIKiiESaIS2_ENSt8__detail10_Select1stESt8equal_toIiESt4hashIiENS4_18_Mod_range_hashingENS4_20_Default_ranged_hashENS4_20_Prime_rehash_policyENS4_17_Hashtable_traitsILb0ELb0ELb1EEEED1Ev>
  40806c:	913403e0 	add	x0, sp, #0xd00
  408070:	97ffedda 	bl	4037d8 <_ZNSt10_HashtableINSt7__cxx1112basic_stringIcSt11char_traitsIcESaIcEEESt4pairIKS5_iESaIS8_ENSt8__detail10_Select1stESt8equal_toIS5_ESt4hashIS5_ENSA_18_Mod_range_hashingENSA_20_Default_ranged_hashENSA_20_Prime_rehash_policyENSA_17_Hashtable_traitsILb1ELb0ELb1EEEED1Ev>
  408074:	f94673e0 	ldr	x0, [sp, #3296]
  408078:	b4000080 	cbz	x0, 408088 <_ZN5model5parseENSt7__cxx1112basic_stringIcSt11char_traitsIcESaIcEEE+0x1fa0>
  40807c:	f9467be1 	ldr	x1, [sp, #3312]
  408080:	cb000021 	sub	x1, x1, x0
  408084:	97ffe80f 	bl	4020c0 <_ZdlPvm@plt>
  408088:	f94667f3 	ldr	x19, [sp, #3272]
  40808c:	f9466bf4 	ldr	x20, [sp, #3280]
  408090:	eb14027f 	cmp	x19, x20
  408094:	540003e1 	b.ne	408110 <_ZN5model5parseENSt7__cxx1112basic_stringIcSt11char_traitsIcESaIcEEE+0x2028>  // b.any
  408098:	f94667e0 	ldr	x0, [sp, #3272]
  40809c:	b4000080 	cbz	x0, 4080ac <_ZN5model5parseENSt7__cxx1112basic_stringIcSt11char_traitsIcESaIcEEE+0x1fc4>
  4080a0:	f9466fe1 	ldr	x1, [sp, #3288]
  4080a4:	cb000021 	sub	x1, x1, x0
  4080a8:	97ffe806 	bl	4020c0 <_ZdlPvm@plt>
  4080ac:	913223e0 	add	x0, sp, #0xc88
  4080b0:	97ffedf3 	bl	40387c <_ZNSt10_HashtableIiSt4pairIKiiESaIS2_ENSt8__detail10_Select1stESt8equal_toIiESt4hashIiENS4_18_Mod_range_hashingENS4_20_Default_ranged_hashENS4_20_Prime_rehash_policyENS4_17_Hashtable_traitsILb0ELb0ELb1EEEED1Ev>
  4080b4:	913143e0 	add	x0, sp, #0xc50
  4080b8:	97ffedc8 	bl	4037d8 <_ZNSt10_HashtableINSt7__cxx1112basic_stringIcSt11char_traitsIcESaIcEEESt4pairIKS5_iESaIS8_ENSt8__detail10_Select1stESt8equal_toIS5_ESt4hashIS5_ENSA_18_Mod_range_hashingENSA_20_Default_ranged_hashENSA_20_Prime_rehash_policyENSA_17_Hashtable_traitsILb1ELb0ELb1EEEED1Ev>
  4080bc:	f9461be0 	ldr	x0, [sp, #3120]
  4080c0:	b4000080 	cbz	x0, 4080d0 <_ZN5model5parseENSt7__cxx1112basic_stringIcSt11char_traitsIcESaIcEEE+0x1fe8>
  4080c4:	f94623e1 	ldr	x1, [sp, #3136]
  4080c8:	cb000021 	sub	x1, x1, x0
  4080cc:	97ffe7fd 	bl	4020c0 <_ZdlPvm@plt>
  4080d0:	f9460ff3 	ldr	x19, [sp, #3096]
  4080d4:	f94613f4 	ldr	x20, [sp, #3104]
  4080d8:	eb14027f 	cmp	x19, x20
  4080dc:	54000301 	b.ne	40813c <_ZN5model5parseENSt7__cxx1112basic_stringIcSt11char_traitsIcESaIcEEE+0x2054>  // b.any
  4080e0:	f9460fe0 	ldr	x0, [sp, #3096]
  4080e4:	b4001a80 	cbz	x0, 408434 <_ZN5model5parseENSt7__cxx1112basic_stringIcSt11char_traitsIcESaIcEEE+0x234c>
  4080e8:	f94617e1 	ldr	x1, [sp, #3112]
  4080ec:	cb000021 	sub	x1, x1, x0
  4080f0:	97ffe7f4 	bl	4020c0 <_ZdlPvm@plt>
  4080f4:	140000d0 	b	408434 <_ZN5model5parseENSt7__cxx1112basic_stringIcSt11char_traitsIcESaIcEEE+0x234c>
  4080f8:	f9400a61 	ldr	x1, [x19, #16]
  4080fc:	91000421 	add	x1, x1, #0x1
  408100:	97ffe7f0 	bl	4020c0 <_ZdlPvm@plt>
  408104:	91008273 	add	x19, x19, #0x20
  408108:	eb13029f 	cmp	x20, x19
  40810c:	54fffc60 	b.eq	408098 <_ZN5model5parseENSt7__cxx1112basic_stringIcSt11char_traitsIcESaIcEEE+0x1fb0>  // b.none
  408110:	aa1303e1 	mov	x1, x19
  408114:	f8410420 	ldr	x0, [x1], #16
  408118:	eb01001f 	cmp	x0, x1
  40811c:	54fffee1 	b.ne	4080f8 <_ZN5model5parseENSt7__cxx1112basic_stringIcSt11char_traitsIcESaIcEEE+0x2010>  // b.any
  408120:	17fffff9 	b	408104 <_ZN5model5parseENSt7__cxx1112basic_stringIcSt11char_traitsIcESaIcEEE+0x201c>
  408124:	f9400a61 	ldr	x1, [x19, #16]
  408128:	91000421 	add	x1, x1, #0x1
  40812c:	97ffe7e5 	bl	4020c0 <_ZdlPvm@plt>
  408130:	91008273 	add	x19, x19, #0x20
  408134:	eb13029f 	cmp	x20, x19
  408138:	54fffd40 	b.eq	4080e0 <_ZN5model5parseENSt7__cxx1112basic_stringIcSt11char_traitsIcESaIcEEE+0x1ff8>  // b.none
  40813c:	aa1303e1 	mov	x1, x19
  408140:	f8410420 	ldr	x0, [x1], #16
  408144:	eb01001f 	cmp	x0, x1
  408148:	54fffee1 	b.ne	408124 <_ZN5model5parseENSt7__cxx1112basic_stringIcSt11char_traitsIcESaIcEEE+0x203c>  // b.any
  40814c:	17fffff9 	b	408130 <_ZN5model5parseENSt7__cxx1112basic_stringIcSt11char_traitsIcESaIcEEE+0x2048>
  408150:	913043e1 	add	x1, sp, #0xc10
  408154:	aa1603e0 	mov	x0, x22
  408158:	97fff04e 	bl	404290 <_ZN5model10FindSymbolE7segment>
  40815c:	2a0003f5 	mov	w21, w0
  408160:	913223e0 	add	x0, sp, #0xc88
  408164:	97ffedc6 	bl	40387c <_ZNSt10_HashtableIiSt4pairIKiiESaIS2_ENSt8__detail10_Select1stESt8equal_toIiESt4hashIiENS4_18_Mod_range_hashingENS4_20_Default_ranged_hashENS4_20_Prime_rehash_policyENS4_17_Hashtable_traitsILb0ELb0ELb1EEEED1Ev>
  408168:	913143e0 	add	x0, sp, #0xc50
  40816c:	97ffed9b 	bl	4037d8 <_ZNSt10_HashtableINSt7__cxx1112basic_stringIcSt11char_traitsIcESaIcEEESt4pairIKS5_iESaIS8_ENSt8__detail10_Select1stESt8equal_toIS5_ESt4hashIS5_ENSA_18_Mod_range_hashingENSA_20_Default_ranged_hashENSA_20_Prime_rehash_policyENSA_17_Hashtable_traitsILb1ELb0ELb1EEEED1Ev>
  408170:	f9461be0 	ldr	x0, [sp, #3120]
  408174:	b4000080 	cbz	x0, 408184 <_ZN5model5parseENSt7__cxx1112basic_stringIcSt11char_traitsIcESaIcEEE+0x209c>
  408178:	f94623e1 	ldr	x1, [sp, #3136]
  40817c:	cb000021 	sub	x1, x1, x0
  408180:	97ffe7d0 	bl	4020c0 <_ZdlPvm@plt>
  408184:	f9460ff3 	ldr	x19, [sp, #3096]
  408188:	f94613f4 	ldr	x20, [sp, #3104]
  40818c:	eb14027f 	cmp	x19, x20
  408190:	54000241 	b.ne	4081d8 <_ZN5model5parseENSt7__cxx1112basic_stringIcSt11char_traitsIcESaIcEEE+0x20f0>  // b.any
  408194:	f9460fe0 	ldr	x0, [sp, #3096]
  408198:	b4000080 	cbz	x0, 4081a8 <_ZN5model5parseENSt7__cxx1112basic_stringIcSt11char_traitsIcESaIcEEE+0x20c0>
  40819c:	f94617e1 	ldr	x1, [sp, #3112]
  4081a0:	cb000021 	sub	x1, x1, x0
  4081a4:	97ffe7c7 	bl	4020c0 <_ZdlPvm@plt>
  4081a8:	310006bf 	cmn	w21, #0x1
  4081ac:	54000200 	b.eq	4081ec <_ZN5model5parseENSt7__cxx1112basic_stringIcSt11char_traitsIcESaIcEEE+0x2104>  // b.none
  4081b0:	912d83e1 	add	x1, sp, #0xb60
  4081b4:	913303e0 	add	x0, sp, #0xcc0
  4081b8:	94000933 	bl	40a684 <_ZN7segmentC1ERKS_>
  4081bc:	14000031 	b	408280 <_ZN5model5parseENSt7__cxx1112basic_stringIcSt11char_traitsIcESaIcEEE+0x2198>
  4081c0:	f9400a61 	ldr	x1, [x19, #16]
  4081c4:	91000421 	add	x1, x1, #0x1
  4081c8:	97ffe7be 	bl	4020c0 <_ZdlPvm@plt>
  4081cc:	91008273 	add	x19, x19, #0x20
  4081d0:	eb13029f 	cmp	x20, x19
  4081d4:	54fffe00 	b.eq	408194 <_ZN5model5parseENSt7__cxx1112basic_stringIcSt11char_traitsIcESaIcEEE+0x20ac>  // b.none
  4081d8:	aa1303e1 	mov	x1, x19
  4081dc:	f8410420 	ldr	x0, [x1], #16
  4081e0:	eb01001f 	cmp	x0, x1
  4081e4:	54fffee1 	b.ne	4081c0 <_ZN5model5parseENSt7__cxx1112basic_stringIcSt11char_traitsIcESaIcEEE+0x20d8>  // b.any
  4081e8:	17fffff9 	b	4081cc <_ZN5model5parseENSt7__cxx1112basic_stringIcSt11char_traitsIcESaIcEEE+0x20e4>
  4081ec:	b9400ec0 	ldr	w0, [x22, #12]
  4081f0:	11000400 	add	w0, w0, #0x1
  4081f4:	b9000ec0 	str	w0, [x22, #12]
  4081f8:	b90c13e0 	str	w0, [sp, #3088]
  4081fc:	912d83e1 	add	x1, sp, #0xb60
  408200:	910182c0 	add	x0, x22, #0x60
  408204:	94001092 	bl	40c44c <_ZNSt6vectorI7segmentSaIS0_EE12emplace_backIJRS0_EEEvDpOT_>
  408208:	913043e1 	add	x1, sp, #0xc10
  40820c:	910482c0 	add	x0, x22, #0x120
  408210:	94000bd1 	bl	40b154 <_ZNSt8__detail9_Map_baseIiSt4pairIKiiESaIS3_ENS_10_Select1stESt8equal_toIiESt4hashIiENS_18_Mod_range_hashingENS_20_Default_ranged_hashENS_20_Prime_rehash_policyENS_17_Hashtable_traitsILb0ELb0ELb1EEELb1EEixERS2_>
  408214:	52800021 	mov	w1, #0x1                   	// #1
  408218:	b9000001 	str	w1, [x0]
  40821c:	b98c13e0 	ldrsw	x0, [sp, #3088]
  408220:	8b000413 	add	x19, x0, x0, lsl #1
  408224:	d37ef673 	lsl	x19, x19, #2
  408228:	cb000273 	sub	x19, x19, x0
  40822c:	f94032c0 	ldr	x0, [x22, #96]
  408230:	8b131013 	add	x19, x0, x19, lsl #4
  408234:	913343e0 	add	x0, sp, #0xcd0
  408238:	f90663e0 	str	x0, [sp, #3264]
  40823c:	f946bbe1 	ldr	x1, [sp, #3440]
  408240:	52800003 	mov	w3, #0x0                   	// #0
  408244:	f946bfe2 	ldr	x2, [sp, #3448]
  408248:	8b020022 	add	x2, x1, x2
  40824c:	913303e0 	add	x0, sp, #0xcc0
  408250:	94000681 	bl	409c54 <_ZNSt7__cxx1112basic_stringIcSt11char_traitsIcESaIcEE12_M_constructIPcEEvT_S7_St20forward_iterator_tag>
  408254:	913303e1 	add	x1, sp, #0xcc0
  408258:	aa1303e0 	mov	x0, x19
  40825c:	97fff520 	bl	4056dc <_ZN7segment6insertENSt7__cxx1112basic_stringIcSt11char_traitsIcESaIcEEE>
  408260:	f94663e0 	ldr	x0, [sp, #3264]
  408264:	913343e1 	add	x1, sp, #0xcd0
  408268:	eb01001f 	cmp	x0, x1
  40826c:	540008a0 	b.eq	408380 <_ZN5model5parseENSt7__cxx1112basic_stringIcSt11char_traitsIcESaIcEEE+0x2298>  // b.none
  408270:	f9466be1 	ldr	x1, [sp, #3280]
  408274:	91000421 	add	x1, x1, #0x1
  408278:	97ffe792 	bl	4020c0 <_ZdlPvm@plt>
  40827c:	14000041 	b	408380 <_ZN5model5parseENSt7__cxx1112basic_stringIcSt11char_traitsIcESaIcEEE+0x2298>
  408280:	913303e1 	add	x1, sp, #0xcc0
  408284:	aa1603e0 	mov	x0, x22
  408288:	97fff002 	bl	404290 <_ZN5model10FindSymbolE7segment>
  40828c:	b90c13e0 	str	w0, [sp, #3088]
  408290:	9134e3e0 	add	x0, sp, #0xd38
  408294:	97ffed7a 	bl	40387c <_ZNSt10_HashtableIiSt4pairIKiiESaIS2_ENSt8__detail10_Select1stESt8equal_toIiESt4hashIiENS4_18_Mod_range_hashingENS4_20_Default_ranged_hashENS4_20_Prime_rehash_policyENS4_17_Hashtable_traitsILb0ELb0ELb1EEEED1Ev>
  408298:	913403e0 	add	x0, sp, #0xd00
  40829c:	97ffed4f 	bl	4037d8 <_ZNSt10_HashtableINSt7__cxx1112basic_stringIcSt11char_traitsIcESaIcEEESt4pairIKS5_iESaIS8_ENSt8__detail10_Select1stESt8equal_toIS5_ESt4hashIS5_ENSA_18_Mod_range_hashingENSA_20_Default_ranged_hashENSA_20_Prime_rehash_policyENSA_17_Hashtable_traitsILb1ELb0ELb1EEEED1Ev>
  4082a0:	f94673e0 	ldr	x0, [sp, #3296]
  4082a4:	b4000080 	cbz	x0, 4082b4 <_ZN5model5parseENSt7__cxx1112basic_stringIcSt11char_traitsIcESaIcEEE+0x21cc>
  4082a8:	f9467be1 	ldr	x1, [sp, #3312]
  4082ac:	cb000021 	sub	x1, x1, x0
  4082b0:	97ffe784 	bl	4020c0 <_ZdlPvm@plt>
  4082b4:	f94667f3 	ldr	x19, [sp, #3272]
  4082b8:	f9466bf4 	ldr	x20, [sp, #3280]
  4082bc:	eb14027f 	cmp	x19, x20
  4082c0:	540001a1 	b.ne	4082f4 <_ZN5model5parseENSt7__cxx1112basic_stringIcSt11char_traitsIcESaIcEEE+0x220c>  // b.any
  4082c4:	f94667e0 	ldr	x0, [sp, #3272]
  4082c8:	b4000080 	cbz	x0, 4082d8 <_ZN5model5parseENSt7__cxx1112basic_stringIcSt11char_traitsIcESaIcEEE+0x21f0>
  4082cc:	f9466fe1 	ldr	x1, [sp, #3288]
  4082d0:	cb000021 	sub	x1, x1, x0
  4082d4:	97ffe77b 	bl	4020c0 <_ZdlPvm@plt>
  4082d8:	913043e1 	add	x1, sp, #0xc10
  4082dc:	910482c0 	add	x0, x22, #0x120
  4082e0:	94000b9d 	bl	40b154 <_ZNSt8__detail9_Map_baseIiSt4pairIKiiESaIS3_ENS_10_Select1stESt8equal_toIiESt4hashIiENS_18_Mod_range_hashingENS_20_Default_ranged_hashENS_20_Prime_rehash_policyENS_17_Hashtable_traitsILb0ELb0ELb1EEELb1EEixERS2_>
  4082e4:	1400000c 	b	408314 <_ZN5model5parseENSt7__cxx1112basic_stringIcSt11char_traitsIcESaIcEEE+0x222c>
  4082e8:	91008273 	add	x19, x19, #0x20
  4082ec:	eb13029f 	cmp	x20, x19
  4082f0:	54fffea0 	b.eq	4082c4 <_ZN5model5parseENSt7__cxx1112basic_stringIcSt11char_traitsIcESaIcEEE+0x21dc>  // b.none
  4082f4:	aa1303e1 	mov	x1, x19
  4082f8:	f8410420 	ldr	x0, [x1], #16
  4082fc:	eb01001f 	cmp	x0, x1
  408300:	54ffff40 	b.eq	4082e8 <_ZN5model5parseENSt7__cxx1112basic_stringIcSt11char_traitsIcESaIcEEE+0x2200>  // b.none
  408304:	f9400a61 	ldr	x1, [x19, #16]
  408308:	91000421 	add	x1, x1, #0x1
  40830c:	97ffe76d 	bl	4020c0 <_ZdlPvm@plt>
  408310:	17fffff6 	b	4082e8 <_ZN5model5parseENSt7__cxx1112basic_stringIcSt11char_traitsIcESaIcEEE+0x2200>
  408314:	b9400001 	ldr	w1, [x0]
  408318:	11000421 	add	w1, w1, #0x1
  40831c:	b9000001 	str	w1, [x0]
  408320:	b98c13e0 	ldrsw	x0, [sp, #3088]
  408324:	8b000413 	add	x19, x0, x0, lsl #1
  408328:	d37ef673 	lsl	x19, x19, #2
  40832c:	cb000273 	sub	x19, x19, x0
  408330:	f94032c0 	ldr	x0, [x22, #96]
  408334:	8b131013 	add	x19, x0, x19, lsl #4
  408338:	913343e0 	add	x0, sp, #0xcd0
  40833c:	f90663e0 	str	x0, [sp, #3264]
  408340:	f946bbe1 	ldr	x1, [sp, #3440]
  408344:	52800003 	mov	w3, #0x0                   	// #0
  408348:	f946bfe2 	ldr	x2, [sp, #3448]
  40834c:	8b020022 	add	x2, x1, x2
  408350:	913303e0 	add	x0, sp, #0xcc0
  408354:	94000640 	bl	409c54 <_ZNSt7__cxx1112basic_stringIcSt11char_traitsIcESaIcEE12_M_constructIPcEEvT_S7_St20forward_iterator_tag>
  408358:	913303e1 	add	x1, sp, #0xcc0
  40835c:	aa1303e0 	mov	x0, x19
  408360:	97fff4df 	bl	4056dc <_ZN7segment6insertENSt7__cxx1112basic_stringIcSt11char_traitsIcESaIcEEE>
  408364:	f94663e0 	ldr	x0, [sp, #3264]
  408368:	913343e1 	add	x1, sp, #0xcd0
  40836c:	eb01001f 	cmp	x0, x1
  408370:	54000080 	b.eq	408380 <_ZN5model5parseENSt7__cxx1112basic_stringIcSt11char_traitsIcESaIcEEE+0x2298>  // b.none
  408374:	f9466be1 	ldr	x1, [sp, #3280]
  408378:	91000421 	add	x1, x1, #0x1
  40837c:	97ffe751 	bl	4020c0 <_ZdlPvm@plt>
  408380:	f906bfff 	str	xzr, [sp, #3448]
  408384:	f946bbe0 	ldr	x0, [sp, #3440]
  408388:	3900001f 	strb	wzr, [x0]
  40838c:	912d83e1 	add	x1, sp, #0xb60
  408390:	913303e0 	add	x0, sp, #0xcc0
  408394:	940008bc 	bl	40a684 <_ZN7segmentC1ERKS_>
  408398:	913303e1 	add	x1, sp, #0xcc0
  40839c:	913643e0 	add	x0, sp, #0xd90
  4083a0:	9400102b 	bl	40c44c <_ZNSt6vectorI7segmentSaIS0_EE12emplace_backIJRS0_EEEvDpOT_>
  4083a4:	9134e3e0 	add	x0, sp, #0xd38
  4083a8:	97ffed35 	bl	40387c <_ZNSt10_HashtableIiSt4pairIKiiESaIS2_ENSt8__detail10_Select1stESt8equal_toIiESt4hashIiENS4_18_Mod_range_hashingENS4_20_Default_ranged_hashENS4_20_Prime_rehash_policyENS4_17_Hashtable_traitsILb0ELb0ELb1EEEED1Ev>
  4083ac:	913403e0 	add	x0, sp, #0xd00
  4083b0:	97ffed0a 	bl	4037d8 <_ZNSt10_HashtableINSt7__cxx1112basic_stringIcSt11char_traitsIcESaIcEEESt4pairIKS5_iESaIS8_ENSt8__detail10_Select1stESt8equal_toIS5_ESt4hashIS5_ENSA_18_Mod_range_hashingENSA_20_Default_ranged_hashENSA_20_Prime_rehash_policyENSA_17_Hashtable_traitsILb1ELb0ELb1EEEED1Ev>
  4083b4:	f94673e0 	ldr	x0, [sp, #3296]
  4083b8:	b4000080 	cbz	x0, 4083c8 <_ZN5model5parseENSt7__cxx1112basic_stringIcSt11char_traitsIcESaIcEEE+0x22e0>
  4083bc:	f9467be1 	ldr	x1, [sp, #3312]
  4083c0:	cb000021 	sub	x1, x1, x0
  4083c4:	97ffe73f 	bl	4020c0 <_ZdlPvm@plt>
  4083c8:	f94667f3 	ldr	x19, [sp, #3272]
  4083cc:	f9466bf4 	ldr	x20, [sp, #3280]
  4083d0:	eb14027f 	cmp	x19, x20
  4083d4:	540004a1 	b.ne	408468 <_ZN5model5parseENSt7__cxx1112basic_stringIcSt11char_traitsIcESaIcEEE+0x2380>  // b.any
  4083d8:	f94667e0 	ldr	x0, [sp, #3272]
  4083dc:	b4000080 	cbz	x0, 4083ec <_ZN5model5parseENSt7__cxx1112basic_stringIcSt11char_traitsIcESaIcEEE+0x2304>
  4083e0:	f9466fe1 	ldr	x1, [sp, #3288]
  4083e4:	cb000021 	sub	x1, x1, x0
  4083e8:	97ffe736 	bl	4020c0 <_ZdlPvm@plt>
  4083ec:	912f63e0 	add	x0, sp, #0xbd8
  4083f0:	97ffed23 	bl	40387c <_ZNSt10_HashtableIiSt4pairIKiiESaIS2_ENSt8__detail10_Select1stESt8equal_toIiESt4hashIiENS4_18_Mod_range_hashingENS4_20_Default_ranged_hashENS4_20_Prime_rehash_policyENS4_17_Hashtable_traitsILb0ELb0ELb1EEEED1Ev>
  4083f4:	912e83e0 	add	x0, sp, #0xba0
  4083f8:	97ffecf8 	bl	4037d8 <_ZNSt10_HashtableINSt7__cxx1112basic_stringIcSt11char_traitsIcESaIcEEESt4pairIKS5_iESaIS8_ENSt8__detail10_Select1stESt8equal_toIS5_ESt4hashIS5_ENSA_18_Mod_range_hashingENSA_20_Default_ranged_hashENSA_20_Prime_rehash_policyENSA_17_Hashtable_traitsILb1ELb0ELb1EEEED1Ev>
  4083fc:	f945c3e0 	ldr	x0, [sp, #2944]
  408400:	b4000080 	cbz	x0, 408410 <_ZN5model5parseENSt7__cxx1112basic_stringIcSt11char_traitsIcESaIcEEE+0x2328>
  408404:	f945cbe1 	ldr	x1, [sp, #2960]
  408408:	cb000021 	sub	x1, x1, x0
  40840c:	97ffe72d 	bl	4020c0 <_ZdlPvm@plt>
  408410:	f945b7f3 	ldr	x19, [sp, #2920]
  408414:	f945bbf4 	ldr	x20, [sp, #2928]
  408418:	eb14027f 	cmp	x19, x20
  40841c:	540003c1 	b.ne	408494 <_ZN5model5parseENSt7__cxx1112basic_stringIcSt11char_traitsIcESaIcEEE+0x23ac>  // b.any
  408420:	f945b7e0 	ldr	x0, [sp, #2920]
  408424:	b4000080 	cbz	x0, 408434 <_ZN5model5parseENSt7__cxx1112basic_stringIcSt11char_traitsIcESaIcEEE+0x234c>
  408428:	f945bfe1 	ldr	x1, [sp, #2936]
  40842c:	cb000021 	sub	x1, x1, x0
  408430:	97ffe724 	bl	4020c0 <_ZdlPvm@plt>
  408434:	b94012c0 	ldr	w0, [x22, #16]
  408438:	11000400 	add	w0, w0, #0x1
  40843c:	b90012c0 	str	w0, [x22, #16]
  408440:	913643e1 	add	x1, sp, #0xd90
  408444:	910183e0 	add	x0, sp, #0x60
  408448:	94000935 	bl	40a91c <_ZN2PTC1ERKS_>
  40844c:	14000017 	b	4084a8 <_ZN5model5parseENSt7__cxx1112basic_stringIcSt11char_traitsIcESaIcEEE+0x23c0>
  408450:	f9400a61 	ldr	x1, [x19, #16]
  408454:	91000421 	add	x1, x1, #0x1
  408458:	97ffe71a 	bl	4020c0 <_ZdlPvm@plt>
  40845c:	91008273 	add	x19, x19, #0x20
  408460:	eb13029f 	cmp	x20, x19
  408464:	54fffba0 	b.eq	4083d8 <_ZN5model5parseENSt7__cxx1112basic_stringIcSt11char_traitsIcESaIcEEE+0x22f0>  // b.none
  408468:	aa1303e1 	mov	x1, x19
  40846c:	f8410420 	ldr	x0, [x1], #16
  408470:	eb01001f 	cmp	x0, x1
  408474:	54fffee1 	b.ne	408450 <_ZN5model5parseENSt7__cxx1112basic_stringIcSt11char_traitsIcESaIcEEE+0x2368>  // b.any
  408478:	17fffff9 	b	40845c <_ZN5model5parseENSt7__cxx1112basic_stringIcSt11char_traitsIcESaIcEEE+0x2374>
  40847c:	f9400a61 	ldr	x1, [x19, #16]
  408480:	91000421 	add	x1, x1, #0x1
  408484:	97ffe70f 	bl	4020c0 <_ZdlPvm@plt>
  408488:	91008273 	add	x19, x19, #0x20
  40848c:	eb13029f 	cmp	x20, x19
  408490:	54fffc80 	b.eq	408420 <_ZN5model5parseENSt7__cxx1112basic_stringIcSt11char_traitsIcESaIcEEE+0x2338>  // b.none
  408494:	aa1303e1 	mov	x1, x19
  408498:	f8410420 	ldr	x0, [x1], #16
  40849c:	eb01001f 	cmp	x0, x1
  4084a0:	54fffee1 	b.ne	40847c <_ZN5model5parseENSt7__cxx1112basic_stringIcSt11char_traitsIcESaIcEEE+0x2394>  // b.any
  4084a4:	17fffff9 	b	408488 <_ZN5model5parseENSt7__cxx1112basic_stringIcSt11char_traitsIcESaIcEEE+0x23a0>
  4084a8:	910183e1 	add	x1, sp, #0x60
  4084ac:	aa1603e0 	mov	x0, x22
  4084b0:	97ffef14 	bl	404100 <_ZN5model6FindPTE2PT>
  4084b4:	2a0003f8 	mov	w24, w0
  4084b8:	f9404fe0 	ldr	x0, [sp, #152]
  4084bc:	b4000080 	cbz	x0, 4084cc <_ZN5model5parseENSt7__cxx1112basic_stringIcSt11char_traitsIcESaIcEEE+0x23e4>
  4084c0:	f94057e1 	ldr	x1, [sp, #168]
  4084c4:	cb000021 	sub	x1, x1, x0
  4084c8:	97ffe6fe 	bl	4020c0 <_ZdlPvm@plt>
  4084cc:	f94043e0 	ldr	x0, [sp, #128]
  4084d0:	b4000080 	cbz	x0, 4084e0 <_ZN5model5parseENSt7__cxx1112basic_stringIcSt11char_traitsIcESaIcEEE+0x23f8>
  4084d4:	f9404be1 	ldr	x1, [sp, #144]
  4084d8:	cb000021 	sub	x1, x1, x0
  4084dc:	97ffe6f9 	bl	4020c0 <_ZdlPvm@plt>
  4084e0:	f94033f4 	ldr	x20, [sp, #96]
  4084e4:	f94037f7 	ldr	x23, [sp, #104]
  4084e8:	eb17029f 	cmp	x20, x23
  4084ec:	540004a1 	b.ne	408580 <_ZN5model5parseENSt7__cxx1112basic_stringIcSt11char_traitsIcESaIcEEE+0x2498>  // b.any
  4084f0:	f94033e0 	ldr	x0, [sp, #96]
  4084f4:	b4000080 	cbz	x0, 408504 <_ZN5model5parseENSt7__cxx1112basic_stringIcSt11char_traitsIcESaIcEEE+0x241c>
  4084f8:	f9403be1 	ldr	x1, [sp, #112]
  4084fc:	cb000021 	sub	x1, x1, x0
  408500:	97ffe6f0 	bl	4020c0 <_ZdlPvm@plt>
  408504:	3100071f 	cmn	w24, #0x1
  408508:	54000de1 	b.ne	4086c4 <_ZN5model5parseENSt7__cxx1112basic_stringIcSt11char_traitsIcESaIcEEE+0x25dc>  // b.any
  40850c:	f946cbe1 	ldr	x1, [sp, #3472]
  408510:	f946cfe0 	ldr	x0, [sp, #3480]
  408514:	eb00003f 	cmp	x1, x0
  408518:	540007a0 	b.eq	40860c <_ZN5model5parseENSt7__cxx1112basic_stringIcSt11char_traitsIcESaIcEEE+0x2524>  // b.none
  40851c:	d2800013 	mov	x19, #0x0                   	// #0
  408520:	d2917474 	mov	x20, #0x8ba3                	// #35747
  408524:	f2b745d4 	movk	x20, #0xba2e, lsl #16
  408528:	f2d45d14 	movk	x20, #0xa2e8, lsl #32
  40852c:	f2e5d174 	movk	x20, #0x2e8b, lsl #48
  408530:	1400002d 	b	4085e4 <_ZN5model5parseENSt7__cxx1112basic_stringIcSt11char_traitsIcESaIcEEE+0x24fc>
  408534:	91008273 	add	x19, x19, #0x20
  408538:	eb1302bf 	cmp	x21, x19
  40853c:	54000120 	b.eq	408560 <_ZN5model5parseENSt7__cxx1112basic_stringIcSt11char_traitsIcESaIcEEE+0x2478>  // b.none
  408540:	aa1303e1 	mov	x1, x19
  408544:	f8410420 	ldr	x0, [x1], #16
  408548:	eb01001f 	cmp	x0, x1
  40854c:	54ffff40 	b.eq	408534 <_ZN5model5parseENSt7__cxx1112basic_stringIcSt11char_traitsIcESaIcEEE+0x244c>  // b.none
  408550:	f9400a61 	ldr	x1, [x19, #16]
  408554:	91000421 	add	x1, x1, #0x1
  408558:	97ffe6da 	bl	4020c0 <_ZdlPvm@plt>
  40855c:	17fffff6 	b	408534 <_ZN5model5parseENSt7__cxx1112basic_stringIcSt11char_traitsIcESaIcEEE+0x244c>
  408560:	f9400680 	ldr	x0, [x20, #8]
  408564:	b4000080 	cbz	x0, 408574 <_ZN5model5parseENSt7__cxx1112basic_stringIcSt11char_traitsIcESaIcEEE+0x248c>
  408568:	f9400e81 	ldr	x1, [x20, #24]
  40856c:	cb000021 	sub	x1, x1, x0
  408570:	97ffe6d4 	bl	4020c0 <_ZdlPvm@plt>
  408574:	9102c294 	add	x20, x20, #0xb0
  408578:	eb1402ff 	cmp	x23, x20
  40857c:	54fffba0 	b.eq	4084f0 <_ZN5model5parseENSt7__cxx1112basic_stringIcSt11char_traitsIcESaIcEEE+0x2408>  // b.none
  408580:	9101e280 	add	x0, x20, #0x78
  408584:	97ffecbe 	bl	40387c <_ZNSt10_HashtableIiSt4pairIKiiESaIS2_ENSt8__detail10_Select1stESt8equal_toIiESt4hashIiENS4_18_Mod_range_hashingENS4_20_Default_ranged_hashENS4_20_Prime_rehash_policyENS4_17_Hashtable_traitsILb0ELb0ELb1EEEED1Ev>
  408588:	91010280 	add	x0, x20, #0x40
  40858c:	97ffec93 	bl	4037d8 <_ZNSt10_HashtableINSt7__cxx1112basic_stringIcSt11char_traitsIcESaIcEEESt4pairIKS5_iESaIS8_ENSt8__detail10_Select1stESt8equal_toIS5_ESt4hashIS5_ENSA_18_Mod_range_hashingENSA_20_Default_ranged_hashENSA_20_Prime_rehash_policyENSA_17_Hashtable_traitsILb1ELb0ELb1EEEED1Ev>
  408590:	f9401280 	ldr	x0, [x20, #32]
  408594:	b4000080 	cbz	x0, 4085a4 <_ZN5model5parseENSt7__cxx1112basic_stringIcSt11char_traitsIcESaIcEEE+0x24bc>
  408598:	f9401a81 	ldr	x1, [x20, #48]
  40859c:	cb000021 	sub	x1, x1, x0
  4085a0:	97ffe6c8 	bl	4020c0 <_ZdlPvm@plt>
  4085a4:	f9400693 	ldr	x19, [x20, #8]
  4085a8:	f9400a95 	ldr	x21, [x20, #16]
  4085ac:	eb15027f 	cmp	x19, x21
  4085b0:	54fffc81 	b.ne	408540 <_ZN5model5parseENSt7__cxx1112basic_stringIcSt11char_traitsIcESaIcEEE+0x2458>  // b.any
  4085b4:	17ffffeb 	b	408560 <_ZN5model5parseENSt7__cxx1112basic_stringIcSt11char_traitsIcESaIcEEE+0x2478>
  4085b8:	9137b3e2 	add	x2, sp, #0xdec
  4085bc:	9136c3e0 	add	x0, sp, #0xdb0
  4085c0:	94000498 	bl	409820 <_ZNSt6vectorIiSaIiEE17_M_realloc_insertIJiEEEvN9__gnu_cxx17__normal_iteratorIPiS1_EEDpOT_>
  4085c4:	91000673 	add	x19, x19, #0x1
  4085c8:	f946cfe0 	ldr	x0, [sp, #3480]
  4085cc:	f946cbe1 	ldr	x1, [sp, #3472]
  4085d0:	cb010000 	sub	x0, x0, x1
  4085d4:	9344fc00 	asr	x0, x0, #4
  4085d8:	9b147c00 	mul	x0, x0, x20
  4085dc:	eb13001f 	cmp	x0, x19
  4085e0:	54000169 	b.ls	40860c <_ZN5model5parseENSt7__cxx1112basic_stringIcSt11char_traitsIcESaIcEEE+0x2524>  // b.plast
  4085e4:	b90defff 	str	wzr, [sp, #3564]
  4085e8:	f946dfe1 	ldr	x1, [sp, #3512]
  4085ec:	f946e3e0 	ldr	x0, [sp, #3520]
  4085f0:	eb00003f 	cmp	x1, x0
  4085f4:	54fffe20 	b.eq	4085b8 <_ZN5model5parseENSt7__cxx1112basic_stringIcSt11char_traitsIcESaIcEEE+0x24d0>  // b.none
  4085f8:	b900003f 	str	wzr, [x1]
  4085fc:	f946dfe0 	ldr	x0, [sp, #3512]
  408600:	91001000 	add	x0, x0, #0x4
  408604:	f906dfe0 	str	x0, [sp, #3512]
  408608:	17ffffef 	b	4085c4 <_ZN5model5parseENSt7__cxx1112basic_stringIcSt11char_traitsIcESaIcEEE+0x24dc>
  40860c:	b94002c1 	ldr	w1, [x22]
  408610:	11000421 	add	w1, w1, #0x1
  408614:	aa1603e0 	mov	x0, x22
  408618:	b8018401 	str	w1, [x0], #24
  40861c:	b90cc3e1 	str	w1, [sp, #3264]
  408620:	913643e1 	add	x1, sp, #0xd90
  408624:	94000a3f 	bl	40af20 <_ZNSt6vectorI2PTSaIS0_EE12emplace_backIJRS0_EEEvDpOT_>
  408628:	913303e1 	add	x1, sp, #0xcc0
  40862c:	9101e2c0 	add	x0, x22, #0x78
  408630:	94000ac9 	bl	40b154 <_ZNSt8__detail9_Map_baseIiSt4pairIKiiESaIS3_ENS_10_Select1stESt8equal_toIiESt4hashIiENS_18_Mod_range_hashingENS_20_Default_ranged_hashENS_20_Prime_rehash_policyENS_17_Hashtable_traitsILb0ELb0ELb1EEELb1EEixERS2_>
  408634:	52800021 	mov	w1, #0x1                   	// #1
  408638:	b9000001 	str	w1, [x0]
  40863c:	f946bbe0 	ldr	x0, [sp, #3440]
  408640:	913603e1 	add	x1, sp, #0xd80
  408644:	eb01001f 	cmp	x0, x1
  408648:	54000080 	b.eq	408658 <_ZN5model5parseENSt7__cxx1112basic_stringIcSt11char_traitsIcESaIcEEE+0x2570>  // b.none
  40864c:	f946c3e1 	ldr	x1, [sp, #3456]
  408650:	91000421 	add	x1, x1, #0x1
  408654:	97ffe69b 	bl	4020c0 <_ZdlPvm@plt>
  408658:	f946e7e0 	ldr	x0, [sp, #3528]
  40865c:	b4000080 	cbz	x0, 40866c <_ZN5model5parseENSt7__cxx1112basic_stringIcSt11char_traitsIcESaIcEEE+0x2584>
  408660:	f946efe1 	ldr	x1, [sp, #3544]
  408664:	cb000021 	sub	x1, x1, x0
  408668:	97ffe696 	bl	4020c0 <_ZdlPvm@plt>
  40866c:	f946dbe0 	ldr	x0, [sp, #3504]
  408670:	b4000080 	cbz	x0, 408680 <_ZN5model5parseENSt7__cxx1112basic_stringIcSt11char_traitsIcESaIcEEE+0x2598>
  408674:	f946e3e1 	ldr	x1, [sp, #3520]
  408678:	cb000021 	sub	x1, x1, x0
  40867c:	97ffe691 	bl	4020c0 <_ZdlPvm@plt>
  408680:	f946cbf4 	ldr	x20, [sp, #3472]
  408684:	f946cff6 	ldr	x22, [sp, #3480]
  408688:	eb16029f 	cmp	x20, x22
  40868c:	54000c81 	b.ne	40881c <_ZN5model5parseENSt7__cxx1112basic_stringIcSt11char_traitsIcESaIcEEE+0x2734>  // b.any
  408690:	f946cbe0 	ldr	x0, [sp, #3472]
  408694:	b4000080 	cbz	x0, 4086a4 <_ZN5model5parseENSt7__cxx1112basic_stringIcSt11char_traitsIcESaIcEEE+0x25bc>
  408698:	f946d3e1 	ldr	x1, [sp, #3488]
  40869c:	cb000021 	sub	x1, x1, x0
  4086a0:	97ffe688 	bl	4020c0 <_ZdlPvm@plt>
  4086a4:	a94153f3 	ldp	x19, x20, [sp, #16]
  4086a8:	a9425bf5 	ldp	x21, x22, [sp, #32]
  4086ac:	a94363f7 	ldp	x23, x24, [sp, #48]
  4086b0:	a9446bf9 	ldp	x25, x26, [sp, #64]
  4086b4:	f9402bfb 	ldr	x27, [sp, #80]
  4086b8:	a9407bfd 	ldp	x29, x30, [sp]
  4086bc:	9137c3ff 	add	sp, sp, #0xdf0
  4086c0:	d65f03c0 	ret
  4086c4:	913643e1 	add	x1, sp, #0xd90
  4086c8:	9102e3e0 	add	x0, sp, #0xb8
  4086cc:	94000894 	bl	40a91c <_ZN2PTC1ERKS_>
  4086d0:	9102e3e1 	add	x1, sp, #0xb8
  4086d4:	aa1603e0 	mov	x0, x22
  4086d8:	97ffee8a 	bl	404100 <_ZN5model6FindPTE2PT>
  4086dc:	b90cc3e0 	str	w0, [sp, #3264]
  4086e0:	f9407be0 	ldr	x0, [sp, #240]
  4086e4:	b4000080 	cbz	x0, 4086f4 <_ZN5model5parseENSt7__cxx1112basic_stringIcSt11char_traitsIcESaIcEEE+0x260c>
  4086e8:	f94083e1 	ldr	x1, [sp, #256]
  4086ec:	cb000021 	sub	x1, x1, x0
  4086f0:	97ffe674 	bl	4020c0 <_ZdlPvm@plt>
  4086f4:	f9406fe0 	ldr	x0, [sp, #216]
  4086f8:	b4000080 	cbz	x0, 408708 <_ZN5model5parseENSt7__cxx1112basic_stringIcSt11char_traitsIcESaIcEEE+0x2620>
  4086fc:	f94077e1 	ldr	x1, [sp, #232]
  408700:	cb000021 	sub	x1, x1, x0
  408704:	97ffe66f 	bl	4020c0 <_ZdlPvm@plt>
  408708:	f9405ff4 	ldr	x20, [sp, #184]
  40870c:	f94063f7 	ldr	x23, [sp, #192]
  408710:	eb17029f 	cmp	x20, x23
  408714:	540003a1 	b.ne	408788 <_ZN5model5parseENSt7__cxx1112basic_stringIcSt11char_traitsIcESaIcEEE+0x26a0>  // b.any
  408718:	f9405fe0 	ldr	x0, [sp, #184]
  40871c:	b4000080 	cbz	x0, 40872c <_ZN5model5parseENSt7__cxx1112basic_stringIcSt11char_traitsIcESaIcEEE+0x2644>
  408720:	f94067e1 	ldr	x1, [sp, #200]
  408724:	cb000021 	sub	x1, x1, x0
  408728:	97ffe666 	bl	4020c0 <_ZdlPvm@plt>
  40872c:	913303e1 	add	x1, sp, #0xcc0
  408730:	9101e2c0 	add	x0, x22, #0x78
  408734:	94000a88 	bl	40b154 <_ZNSt8__detail9_Map_baseIiSt4pairIKiiESaIS3_ENS_10_Select1stESt8equal_toIiESt4hashIiENS_18_Mod_range_hashingENS_20_Default_ranged_hashENS_20_Prime_rehash_policyENS_17_Hashtable_traitsILb0ELb0ELb1EEELb1EEixERS2_>
  408738:	14000022 	b	4087c0 <_ZN5model5parseENSt7__cxx1112basic_stringIcSt11char_traitsIcESaIcEEE+0x26d8>
  40873c:	91008273 	add	x19, x19, #0x20
  408740:	eb1302bf 	cmp	x21, x19
  408744:	54000120 	b.eq	408768 <_ZN5model5parseENSt7__cxx1112basic_stringIcSt11char_traitsIcESaIcEEE+0x2680>  // b.none
  408748:	aa1303e1 	mov	x1, x19
  40874c:	f8410420 	ldr	x0, [x1], #16
  408750:	eb01001f 	cmp	x0, x1
  408754:	54ffff40 	b.eq	40873c <_ZN5model5parseENSt7__cxx1112basic_stringIcSt11char_traitsIcESaIcEEE+0x2654>  // b.none
  408758:	f9400a61 	ldr	x1, [x19, #16]
  40875c:	91000421 	add	x1, x1, #0x1
  408760:	97ffe658 	bl	4020c0 <_ZdlPvm@plt>
  408764:	17fffff6 	b	40873c <_ZN5model5parseENSt7__cxx1112basic_stringIcSt11char_traitsIcESaIcEEE+0x2654>
  408768:	f9400680 	ldr	x0, [x20, #8]
  40876c:	b4000080 	cbz	x0, 40877c <_ZN5model5parseENSt7__cxx1112basic_stringIcSt11char_traitsIcESaIcEEE+0x2694>
  408770:	f9400e81 	ldr	x1, [x20, #24]
  408774:	cb000021 	sub	x1, x1, x0
  408778:	97ffe652 	bl	4020c0 <_ZdlPvm@plt>
  40877c:	9102c294 	add	x20, x20, #0xb0
  408780:	eb1402ff 	cmp	x23, x20
  408784:	54fffca0 	b.eq	408718 <_ZN5model5parseENSt7__cxx1112basic_stringIcSt11char_traitsIcESaIcEEE+0x2630>  // b.none
  408788:	9101e280 	add	x0, x20, #0x78
  40878c:	97ffec3c 	bl	40387c <_ZNSt10_HashtableIiSt4pairIKiiESaIS2_ENSt8__detail10_Select1stESt8equal_toIiESt4hashIiENS4_18_Mod_range_hashingENS4_20_Default_ranged_hashENS4_20_Prime_rehash_policyENS4_17_Hashtable_traitsILb0ELb0ELb1EEEED1Ev>
  408790:	91010280 	add	x0, x20, #0x40
  408794:	97ffec11 	bl	4037d8 <_ZNSt10_HashtableINSt7__cxx1112basic_stringIcSt11char_traitsIcESaIcEEESt4pairIKS5_iESaIS8_ENSt8__detail10_Select1stESt8equal_toIS5_ESt4hashIS5_ENSA_18_Mod_range_hashingENSA_20_Default_ranged_hashENSA_20_Prime_rehash_policyENSA_17_Hashtable_traitsILb1ELb0ELb1EEEED1Ev>
  408798:	f9401280 	ldr	x0, [x20, #32]
  40879c:	b4000080 	cbz	x0, 4087ac <_ZN5model5parseENSt7__cxx1112basic_stringIcSt11char_traitsIcESaIcEEE+0x26c4>
  4087a0:	f9401a81 	ldr	x1, [x20, #48]
  4087a4:	cb000021 	sub	x1, x1, x0
  4087a8:	97ffe646 	bl	4020c0 <_ZdlPvm@plt>
  4087ac:	f9400693 	ldr	x19, [x20, #8]
  4087b0:	f9400a95 	ldr	x21, [x20, #16]
  4087b4:	eb15027f 	cmp	x19, x21
  4087b8:	54fffc81 	b.ne	408748 <_ZN5model5parseENSt7__cxx1112basic_stringIcSt11char_traitsIcESaIcEEE+0x2660>  // b.any
  4087bc:	17ffffeb 	b	408768 <_ZN5model5parseENSt7__cxx1112basic_stringIcSt11char_traitsIcESaIcEEE+0x2680>
  4087c0:	b9400001 	ldr	w1, [x0]
  4087c4:	11000421 	add	w1, w1, #0x1
  4087c8:	b9000001 	str	w1, [x0]
  4087cc:	17ffff9c 	b	40863c <_ZN5model5parseENSt7__cxx1112basic_stringIcSt11char_traitsIcESaIcEEE+0x2554>
  4087d0:	91008273 	add	x19, x19, #0x20
  4087d4:	eb1302bf 	cmp	x21, x19
  4087d8:	54000120 	b.eq	4087fc <_ZN5model5parseENSt7__cxx1112basic_stringIcSt11char_traitsIcESaIcEEE+0x2714>  // b.none
  4087dc:	aa1303e1 	mov	x1, x19
  4087e0:	f8410420 	ldr	x0, [x1], #16
  4087e4:	eb01001f 	cmp	x0, x1
  4087e8:	54ffff40 	b.eq	4087d0 <_ZN5model5parseENSt7__cxx1112basic_stringIcSt11char_traitsIcESaIcEEE+0x26e8>  // b.none
  4087ec:	f9400a61 	ldr	x1, [x19, #16]
  4087f0:	91000421 	add	x1, x1, #0x1
  4087f4:	97ffe633 	bl	4020c0 <_ZdlPvm@plt>
  4087f8:	17fffff6 	b	4087d0 <_ZN5model5parseENSt7__cxx1112basic_stringIcSt11char_traitsIcESaIcEEE+0x26e8>
  4087fc:	f9400680 	ldr	x0, [x20, #8]
  408800:	b4000080 	cbz	x0, 408810 <_ZN5model5parseENSt7__cxx1112basic_stringIcSt11char_traitsIcESaIcEEE+0x2728>
  408804:	f9400e81 	ldr	x1, [x20, #24]
  408808:	cb000021 	sub	x1, x1, x0
  40880c:	97ffe62d 	bl	4020c0 <_ZdlPvm@plt>
  408810:	9102c294 	add	x20, x20, #0xb0
  408814:	eb1402df 	cmp	x22, x20
  408818:	54fff3c0 	b.eq	408690 <_ZN5model5parseENSt7__cxx1112basic_stringIcSt11char_traitsIcESaIcEEE+0x25a8>  // b.none
  40881c:	9101e280 	add	x0, x20, #0x78
  408820:	97ffec17 	bl	40387c <_ZNSt10_HashtableIiSt4pairIKiiESaIS2_ENSt8__detail10_Select1stESt8equal_toIiESt4hashIiENS4_18_Mod_range_hashingENS4_20_Default_ranged_hashENS4_20_Prime_rehash_policyENS4_17_Hashtable_traitsILb0ELb0ELb1EEEED1Ev>
  408824:	91010280 	add	x0, x20, #0x40
  408828:	97ffebec 	bl	4037d8 <_ZNSt10_HashtableINSt7__cxx1112basic_stringIcSt11char_traitsIcESaIcEEESt4pairIKS5_iESaIS8_ENSt8__detail10_Select1stESt8equal_toIS5_ESt4hashIS5_ENSA_18_Mod_range_hashingENSA_20_Default_ranged_hashENSA_20_Prime_rehash_policyENSA_17_Hashtable_traitsILb1ELb0ELb1EEEED1Ev>
  40882c:	f9401280 	ldr	x0, [x20, #32]
  408830:	b4000080 	cbz	x0, 408840 <_ZN5model5parseENSt7__cxx1112basic_stringIcSt11char_traitsIcESaIcEEE+0x2758>
  408834:	f9401a81 	ldr	x1, [x20, #48]
  408838:	cb000021 	sub	x1, x1, x0
  40883c:	97ffe621 	bl	4020c0 <_ZdlPvm@plt>
  408840:	f9400693 	ldr	x19, [x20, #8]
  408844:	f9400a95 	ldr	x21, [x20, #16]
  408848:	eb15027f 	cmp	x19, x21
  40884c:	54fffc81 	b.ne	4087dc <_ZN5model5parseENSt7__cxx1112basic_stringIcSt11char_traitsIcESaIcEEE+0x26f4>  // b.any
  408850:	17ffffeb 	b	4087fc <_ZN5model5parseENSt7__cxx1112basic_stringIcSt11char_traitsIcESaIcEEE+0x2714>
  408854:	aa0003f3 	mov	x19, x0
  408858:	913303e0 	add	x0, sp, #0xcc0
  40885c:	97ffe62d 	bl	402110 <_ZNSt7__cxx1112basic_stringIcSt11char_traitsIcESaIcEE10_M_disposeEv@plt>
  408860:	913043e0 	add	x0, sp, #0xc10
  408864:	94000462 	bl	4099ec <_ZN7segmentD1Ev>
  408868:	9135c3e0 	add	x0, sp, #0xd70
  40886c:	97ffe629 	bl	402110 <_ZNSt7__cxx1112basic_stringIcSt11char_traitsIcESaIcEE10_M_disposeEv@plt>
  408870:	913643e0 	add	x0, sp, #0xd90
  408874:	940004b9 	bl	409b58 <_ZN2PTD1Ev>
  408878:	aa1303e0 	mov	x0, x19
  40887c:	97ffe679 	bl	402260 <_Unwind_Resume@plt>
  408880:	aa0003f3 	mov	x19, x0
  408884:	913303e0 	add	x0, sp, #0xcc0
  408888:	97ffe622 	bl	402110 <_ZNSt7__cxx1112basic_stringIcSt11char_traitsIcESaIcEE10_M_disposeEv@plt>
  40888c:	17fffff5 	b	408860 <_ZN5model5parseENSt7__cxx1112basic_stringIcSt11char_traitsIcESaIcEEE+0x2778>
  408890:	aa0003f3 	mov	x19, x0
  408894:	913303e0 	add	x0, sp, #0xcc0
  408898:	94000455 	bl	4099ec <_ZN7segmentD1Ev>
  40889c:	17fffff1 	b	408860 <_ZN5model5parseENSt7__cxx1112basic_stringIcSt11char_traitsIcESaIcEEE+0x2778>
  4088a0:	aa0003f3 	mov	x19, x0
  4088a4:	17ffffef 	b	408860 <_ZN5model5parseENSt7__cxx1112basic_stringIcSt11char_traitsIcESaIcEEE+0x2778>
  4088a8:	aa0003f3 	mov	x19, x0
  4088ac:	913303e0 	add	x0, sp, #0xcc0
  4088b0:	97ffe618 	bl	402110 <_ZNSt7__cxx1112basic_stringIcSt11char_traitsIcESaIcEE10_M_disposeEv@plt>
  4088b4:	913043e0 	add	x0, sp, #0xc10
  4088b8:	9400044d 	bl	4099ec <_ZN7segmentD1Ev>
  4088bc:	17ffffeb 	b	408868 <_ZN5model5parseENSt7__cxx1112basic_stringIcSt11char_traitsIcESaIcEEE+0x2780>
  4088c0:	aa0003f3 	mov	x19, x0
  4088c4:	913303e0 	add	x0, sp, #0xcc0
  4088c8:	97ffe612 	bl	402110 <_ZNSt7__cxx1112basic_stringIcSt11char_traitsIcESaIcEE10_M_disposeEv@plt>
  4088cc:	17fffffa 	b	4088b4 <_ZN5model5parseENSt7__cxx1112basic_stringIcSt11char_traitsIcESaIcEEE+0x27cc>
  4088d0:	aa0003f3 	mov	x19, x0
  4088d4:	913303e0 	add	x0, sp, #0xcc0
  4088d8:	94000445 	bl	4099ec <_ZN7segmentD1Ev>
  4088dc:	17fffff6 	b	4088b4 <_ZN5model5parseENSt7__cxx1112basic_stringIcSt11char_traitsIcESaIcEEE+0x27cc>
  4088e0:	aa0003f3 	mov	x19, x0
  4088e4:	17fffff4 	b	4088b4 <_ZN5model5parseENSt7__cxx1112basic_stringIcSt11char_traitsIcESaIcEEE+0x27cc>
  4088e8:	aa0003f3 	mov	x19, x0
  4088ec:	913303e0 	add	x0, sp, #0xcc0
  4088f0:	97ffe608 	bl	402110 <_ZNSt7__cxx1112basic_stringIcSt11char_traitsIcESaIcEE10_M_disposeEv@plt>
  4088f4:	913043e0 	add	x0, sp, #0xc10
  4088f8:	9400043d 	bl	4099ec <_ZN7segmentD1Ev>
  4088fc:	17ffffdb 	b	408868 <_ZN5model5parseENSt7__cxx1112basic_stringIcSt11char_traitsIcESaIcEEE+0x2780>
  408900:	aa0003f3 	mov	x19, x0
  408904:	913303e0 	add	x0, sp, #0xcc0
  408908:	97ffe602 	bl	402110 <_ZNSt7__cxx1112basic_stringIcSt11char_traitsIcESaIcEE10_M_disposeEv@plt>
  40890c:	17fffffa 	b	4088f4 <_ZN5model5parseENSt7__cxx1112basic_stringIcSt11char_traitsIcESaIcEEE+0x280c>
  408910:	aa0003f3 	mov	x19, x0
  408914:	913303e0 	add	x0, sp, #0xcc0
  408918:	94000435 	bl	4099ec <_ZN7segmentD1Ev>
  40891c:	17fffff6 	b	4088f4 <_ZN5model5parseENSt7__cxx1112basic_stringIcSt11char_traitsIcESaIcEEE+0x280c>
  408920:	aa0003f3 	mov	x19, x0
  408924:	17fffff4 	b	4088f4 <_ZN5model5parseENSt7__cxx1112basic_stringIcSt11char_traitsIcESaIcEEE+0x280c>
  408928:	aa0003f3 	mov	x19, x0
  40892c:	913303e0 	add	x0, sp, #0xcc0
  408930:	97ffe5f8 	bl	402110 <_ZNSt7__cxx1112basic_stringIcSt11char_traitsIcESaIcEE10_M_disposeEv@plt>
  408934:	913043e0 	add	x0, sp, #0xc10
  408938:	9400042d 	bl	4099ec <_ZN7segmentD1Ev>
  40893c:	17ffffcb 	b	408868 <_ZN5model5parseENSt7__cxx1112basic_stringIcSt11char_traitsIcESaIcEEE+0x2780>
  408940:	aa0003f3 	mov	x19, x0
  408944:	913303e0 	add	x0, sp, #0xcc0
  408948:	97ffe5f2 	bl	402110 <_ZNSt7__cxx1112basic_stringIcSt11char_traitsIcESaIcEE10_M_disposeEv@plt>
  40894c:	17fffffa 	b	408934 <_ZN5model5parseENSt7__cxx1112basic_stringIcSt11char_traitsIcESaIcEEE+0x284c>
  408950:	aa0003f3 	mov	x19, x0
  408954:	913303e0 	add	x0, sp, #0xcc0
  408958:	94000425 	bl	4099ec <_ZN7segmentD1Ev>
  40895c:	17fffff6 	b	408934 <_ZN5model5parseENSt7__cxx1112basic_stringIcSt11char_traitsIcESaIcEEE+0x284c>
  408960:	aa0003f3 	mov	x19, x0
  408964:	17fffff4 	b	408934 <_ZN5model5parseENSt7__cxx1112basic_stringIcSt11char_traitsIcESaIcEEE+0x284c>
  408968:	aa0003f3 	mov	x19, x0
  40896c:	913303e0 	add	x0, sp, #0xcc0
  408970:	97ffe5e8 	bl	402110 <_ZNSt7__cxx1112basic_stringIcSt11char_traitsIcESaIcEE10_M_disposeEv@plt>
  408974:	913043e0 	add	x0, sp, #0xc10
  408978:	9400041d 	bl	4099ec <_ZN7segmentD1Ev>
  40897c:	17ffffbb 	b	408868 <_ZN5model5parseENSt7__cxx1112basic_stringIcSt11char_traitsIcESaIcEEE+0x2780>
  408980:	aa0003f3 	mov	x19, x0
  408984:	913303e0 	add	x0, sp, #0xcc0
  408988:	97ffe5e2 	bl	402110 <_ZNSt7__cxx1112basic_stringIcSt11char_traitsIcESaIcEE10_M_disposeEv@plt>
  40898c:	17fffffa 	b	408974 <_ZN5model5parseENSt7__cxx1112basic_stringIcSt11char_traitsIcESaIcEEE+0x288c>
  408990:	aa0003f3 	mov	x19, x0
  408994:	913303e0 	add	x0, sp, #0xcc0
  408998:	94000415 	bl	4099ec <_ZN7segmentD1Ev>
  40899c:	17fffff6 	b	408974 <_ZN5model5parseENSt7__cxx1112basic_stringIcSt11char_traitsIcESaIcEEE+0x288c>
  4089a0:	aa0003f3 	mov	x19, x0
  4089a4:	17fffff4 	b	408974 <_ZN5model5parseENSt7__cxx1112basic_stringIcSt11char_traitsIcESaIcEEE+0x288c>
  4089a8:	aa0003f3 	mov	x19, x0
  4089ac:	913303e0 	add	x0, sp, #0xcc0
  4089b0:	97ffe5d8 	bl	402110 <_ZNSt7__cxx1112basic_stringIcSt11char_traitsIcESaIcEE10_M_disposeEv@plt>
  4089b4:	913043e0 	add	x0, sp, #0xc10
  4089b8:	9400040d 	bl	4099ec <_ZN7segmentD1Ev>
  4089bc:	17ffffab 	b	408868 <_ZN5model5parseENSt7__cxx1112basic_stringIcSt11char_traitsIcESaIcEEE+0x2780>
  4089c0:	aa0003f3 	mov	x19, x0
  4089c4:	913303e0 	add	x0, sp, #0xcc0
  4089c8:	97ffe5d2 	bl	402110 <_ZNSt7__cxx1112basic_stringIcSt11char_traitsIcESaIcEE10_M_disposeEv@plt>
  4089cc:	17fffffa 	b	4089b4 <_ZN5model5parseENSt7__cxx1112basic_stringIcSt11char_traitsIcESaIcEEE+0x28cc>
  4089d0:	aa0003f3 	mov	x19, x0
  4089d4:	913303e0 	add	x0, sp, #0xcc0
  4089d8:	94000405 	bl	4099ec <_ZN7segmentD1Ev>
  4089dc:	17fffff6 	b	4089b4 <_ZN5model5parseENSt7__cxx1112basic_stringIcSt11char_traitsIcESaIcEEE+0x28cc>
  4089e0:	aa0003f3 	mov	x19, x0
  4089e4:	17fffff4 	b	4089b4 <_ZN5model5parseENSt7__cxx1112basic_stringIcSt11char_traitsIcESaIcEEE+0x28cc>
  4089e8:	aa0003f3 	mov	x19, x0
  4089ec:	913303e0 	add	x0, sp, #0xcc0
  4089f0:	97ffe5c8 	bl	402110 <_ZNSt7__cxx1112basic_stringIcSt11char_traitsIcESaIcEE10_M_disposeEv@plt>
  4089f4:	913043e0 	add	x0, sp, #0xc10
  4089f8:	940003fd 	bl	4099ec <_ZN7segmentD1Ev>
  4089fc:	17ffff9b 	b	408868 <_ZN5model5parseENSt7__cxx1112basic_stringIcSt11char_traitsIcESaIcEEE+0x2780>
  408a00:	aa0003f3 	mov	x19, x0
  408a04:	913303e0 	add	x0, sp, #0xcc0
  408a08:	97ffe5c2 	bl	402110 <_ZNSt7__cxx1112basic_stringIcSt11char_traitsIcESaIcEE10_M_disposeEv@plt>
  408a0c:	17fffffa 	b	4089f4 <_ZN5model5parseENSt7__cxx1112basic_stringIcSt11char_traitsIcESaIcEEE+0x290c>
  408a10:	aa0003f3 	mov	x19, x0
  408a14:	913303e0 	add	x0, sp, #0xcc0
  408a18:	940003f5 	bl	4099ec <_ZN7segmentD1Ev>
  408a1c:	17fffff6 	b	4089f4 <_ZN5model5parseENSt7__cxx1112basic_stringIcSt11char_traitsIcESaIcEEE+0x290c>
  408a20:	aa0003f3 	mov	x19, x0
  408a24:	17fffff4 	b	4089f4 <_ZN5model5parseENSt7__cxx1112basic_stringIcSt11char_traitsIcESaIcEEE+0x290c>
  408a28:	aa0003f3 	mov	x19, x0
  408a2c:	913303e0 	add	x0, sp, #0xcc0
  408a30:	97ffe5b8 	bl	402110 <_ZNSt7__cxx1112basic_stringIcSt11char_traitsIcESaIcEE10_M_disposeEv@plt>
  408a34:	913043e0 	add	x0, sp, #0xc10
  408a38:	940003ed 	bl	4099ec <_ZN7segmentD1Ev>
  408a3c:	17ffff8b 	b	408868 <_ZN5model5parseENSt7__cxx1112basic_stringIcSt11char_traitsIcESaIcEEE+0x2780>
  408a40:	aa0003f3 	mov	x19, x0
  408a44:	913303e0 	add	x0, sp, #0xcc0
  408a48:	97ffe5b2 	bl	402110 <_ZNSt7__cxx1112basic_stringIcSt11char_traitsIcESaIcEE10_M_disposeEv@plt>
  408a4c:	17fffffa 	b	408a34 <_ZN5model5parseENSt7__cxx1112basic_stringIcSt11char_traitsIcESaIcEEE+0x294c>
  408a50:	aa0003f3 	mov	x19, x0
  408a54:	913303e0 	add	x0, sp, #0xcc0
  408a58:	940003e5 	bl	4099ec <_ZN7segmentD1Ev>
  408a5c:	17fffff6 	b	408a34 <_ZN5model5parseENSt7__cxx1112basic_stringIcSt11char_traitsIcESaIcEEE+0x294c>
  408a60:	aa0003f3 	mov	x19, x0
  408a64:	17fffff4 	b	408a34 <_ZN5model5parseENSt7__cxx1112basic_stringIcSt11char_traitsIcESaIcEEE+0x294c>
  408a68:	aa0003f3 	mov	x19, x0
  408a6c:	913303e0 	add	x0, sp, #0xcc0
  408a70:	97ffe5a8 	bl	402110 <_ZNSt7__cxx1112basic_stringIcSt11char_traitsIcESaIcEE10_M_disposeEv@plt>
  408a74:	912d83e0 	add	x0, sp, #0xb60
  408a78:	940003dd 	bl	4099ec <_ZN7segmentD1Ev>
  408a7c:	17ffff7b 	b	408868 <_ZN5model5parseENSt7__cxx1112basic_stringIcSt11char_traitsIcESaIcEEE+0x2780>
  408a80:	aa0003f3 	mov	x19, x0
  408a84:	913303e0 	add	x0, sp, #0xcc0
  408a88:	97ffe5a2 	bl	402110 <_ZNSt7__cxx1112basic_stringIcSt11char_traitsIcESaIcEE10_M_disposeEv@plt>
  408a8c:	17fffffa 	b	408a74 <_ZN5model5parseENSt7__cxx1112basic_stringIcSt11char_traitsIcESaIcEEE+0x298c>
  408a90:	aa0003f3 	mov	x19, x0
  408a94:	913303e0 	add	x0, sp, #0xcc0
  408a98:	940003d5 	bl	4099ec <_ZN7segmentD1Ev>
  408a9c:	17fffff6 	b	408a74 <_ZN5model5parseENSt7__cxx1112basic_stringIcSt11char_traitsIcESaIcEEE+0x298c>
  408aa0:	aa0003f3 	mov	x19, x0
  408aa4:	17fffff4 	b	408a74 <_ZN5model5parseENSt7__cxx1112basic_stringIcSt11char_traitsIcESaIcEEE+0x298c>
  408aa8:	aa0003f3 	mov	x19, x0
  408aac:	17ffff6f 	b	408868 <_ZN5model5parseENSt7__cxx1112basic_stringIcSt11char_traitsIcESaIcEEE+0x2780>

0000000000408ab0 <_ZN5model5trainENSt7__cxx1112basic_stringIcSt11char_traitsIcESaIcEEE>:
  408ab0:	d10a83ff 	sub	sp, sp, #0x2a0
  408ab4:	a9007bfd 	stp	x29, x30, [sp]
  408ab8:	910003fd 	mov	x29, sp
  408abc:	a90153f3 	stp	x19, x20, [sp, #16]
  408ac0:	a9025bf5 	stp	x21, x22, [sp, #32]
  408ac4:	a90363f7 	stp	x23, x24, [sp, #48]
  408ac8:	a9046bf9 	stp	x25, x26, [sp, #64]
  408acc:	aa0003f5 	mov	x21, x0
  408ad0:	aa0103f3 	mov	x19, x1
  408ad4:	910a43e0 	add	x0, sp, #0x290
  408ad8:	f90143e0 	str	x0, [sp, #640]
  408adc:	f90147ff 	str	xzr, [sp, #648]
  408ae0:	390a43ff 	strb	wzr, [sp, #656]
  408ae4:	9101c3f4 	add	x20, sp, #0x70
  408ae8:	91042280 	add	x0, x20, #0x108
  408aec:	97ffe525 	bl	401f80 <_ZNSt8ios_baseC2Ev@plt>
  408af0:	f0000120 	adrp	x0, 42f000 <__FRAME_END__+0x1a654>
  408af4:	912c0000 	add	x0, x0, #0xb00
  408af8:	f900bfe0 	str	x0, [sp, #376]
  408afc:	f9012bff 	str	xzr, [sp, #592]
  408b00:	390963ff 	strb	wzr, [sp, #600]
  408b04:	390967ff 	strb	wzr, [sp, #601]
  408b08:	f90133ff 	str	xzr, [sp, #608]
  408b0c:	f90137ff 	str	xzr, [sp, #616]
  408b10:	f9013bff 	str	xzr, [sp, #624]
  408b14:	f9013fff 	str	xzr, [sp, #632]
  408b18:	f0000120 	adrp	x0, 42f000 <__FRAME_END__+0x1a654>
  408b1c:	9134a000 	add	x0, x0, #0xd28
  408b20:	f9400417 	ldr	x23, [x0, #8]
  408b24:	f9003bf7 	str	x23, [sp, #112]
  408b28:	f9400818 	ldr	x24, [x0, #16]
  408b2c:	f85e82e0 	ldur	x0, [x23, #-24]
  408b30:	f8206a98 	str	x24, [x20, x0]
  408b34:	f9003fff 	str	xzr, [sp, #120]
  408b38:	f9403be0 	ldr	x0, [sp, #112]
  408b3c:	f85e8000 	ldur	x0, [x0, #-24]
  408b40:	d2800001 	mov	x1, #0x0                   	// #0
  408b44:	8b000280 	add	x0, x20, x0
  408b48:	97ffe58e 	bl	402180 <_ZNSt9basic_iosIcSt11char_traitsIcEE4initEPSt15basic_streambufIcS1_E@plt>
  408b4c:	f0000120 	adrp	x0, 42f000 <__FRAME_END__+0x1a654>
  408b50:	912fe000 	add	x0, x0, #0xbf8
  408b54:	f9003be0 	str	x0, [sp, #112]
  408b58:	f0000120 	adrp	x0, 42f000 <__FRAME_END__+0x1a654>
  408b5c:	91308000 	add	x0, x0, #0xc20
  408b60:	f900bfe0 	str	x0, [sp, #376]
  408b64:	910203e0 	add	x0, sp, #0x80
  408b68:	97ffe55a 	bl	4020d0 <_ZNSt13basic_filebufIcSt11char_traitsIcEEC1Ev@plt>
  408b6c:	91004281 	add	x1, x20, #0x10
  408b70:	91042280 	add	x0, x20, #0x108
  408b74:	97ffe583 	bl	402180 <_ZNSt9basic_iosIcSt11char_traitsIcEE4initEPSt15basic_streambufIcS1_E@plt>
  408b78:	52800102 	mov	w2, #0x8                   	// #8
  408b7c:	f9400261 	ldr	x1, [x19]
  408b80:	910203e0 	add	x0, sp, #0x80
  408b84:	97ffe543 	bl	402090 <_ZNSt13basic_filebufIcSt11char_traitsIcEE4openEPKcSt13_Ios_Openmode@plt>
  408b88:	b4000100 	cbz	x0, 408ba8 <_ZN5model5trainENSt7__cxx1112basic_stringIcSt11char_traitsIcESaIcEEE+0xf8>
  408b8c:	f9403be0 	ldr	x0, [sp, #112]
  408b90:	f85e8000 	ldur	x0, [x0, #-24]
  408b94:	52800001 	mov	w1, #0x0                   	// #0
  408b98:	9101c3e2 	add	x2, sp, #0x70
  408b9c:	8b000040 	add	x0, x2, x0
  408ba0:	97ffe5a8 	bl	402240 <_ZNSt9basic_iosIcSt11char_traitsIcEE5clearESt12_Ios_Iostate@plt>
  408ba4:	14000007 	b	408bc0 <_ZN5model5trainENSt7__cxx1112basic_stringIcSt11char_traitsIcESaIcEEE+0x110>
  408ba8:	f9403be0 	ldr	x0, [sp, #112]
  408bac:	f85e8000 	ldur	x0, [x0, #-24]
  408bb0:	8b000280 	add	x0, x20, x0
  408bb4:	b9402001 	ldr	w1, [x0, #32]
  408bb8:	321e0021 	orr	w1, w1, #0x4
  408bbc:	97ffe5a1 	bl	402240 <_ZNSt9basic_iosIcSt11char_traitsIcEE5clearESt12_Ios_Iostate@plt>
  408bc0:	d2800162 	mov	x2, #0xb                   	// #11
  408bc4:	d0000041 	adrp	x1, 412000 <_Z19MD5Hash_simdversionPKNSt7__cxx1112basic_stringIcSt11char_traitsIcESaIcEEEP12__Uint32x4_t+0x1480>
  408bc8:	9129e021 	add	x1, x1, #0xa78
  408bcc:	90000140 	adrp	x0, 430000 <_Znam@GLIBCXX_3.4>
  408bd0:	91084000 	add	x0, x0, #0x210
  408bd4:	97ffe547 	bl	4020f0 <_ZSt16__ostream_insertIcSt11char_traitsIcEERSt13basic_ostreamIT_T0_ES6_PKS3_l@plt>
  408bd8:	14000016 	b	408c30 <_ZN5model5trainENSt7__cxx1112basic_stringIcSt11char_traitsIcESaIcEEE+0x180>
  408bdc:	aa0003f3 	mov	x19, x0
  408be0:	910203e0 	add	x0, sp, #0x80
  408be4:	97ffe583 	bl	4021f0 <_ZNSt13basic_filebufIcSt11char_traitsIcEED1Ev@plt>
  408be8:	f9003bf7 	str	x23, [sp, #112]
  408bec:	f85e82e0 	ldur	x0, [x23, #-24]
  408bf0:	9101c3e1 	add	x1, sp, #0x70
  408bf4:	f8206838 	str	x24, [x1, x0]
  408bf8:	f9003fff 	str	xzr, [sp, #120]
  408bfc:	f0000120 	adrp	x0, 42f000 <__FRAME_END__+0x1a654>
  408c00:	912c0000 	add	x0, x0, #0xb00
  408c04:	f900bfe0 	str	x0, [sp, #376]
  408c08:	9105e3e0 	add	x0, sp, #0x178
  408c0c:	97ffe4e9 	bl	401fb0 <_ZNSt8ios_baseD2Ev@plt>
  408c10:	910a03e0 	add	x0, sp, #0x280
  408c14:	97ffe53f 	bl	402110 <_ZNSt7__cxx1112basic_stringIcSt11char_traitsIcESaIcEE10_M_disposeEv@plt>
  408c18:	aa1303e0 	mov	x0, x19
  408c1c:	97ffe591 	bl	402260 <_Unwind_Resume@plt>
  408c20:	aa0003f3 	mov	x19, x0
  408c24:	17fffff1 	b	408be8 <_ZN5model5trainENSt7__cxx1112basic_stringIcSt11char_traitsIcESaIcEEE+0x138>
  408c28:	aa0003f3 	mov	x19, x0
  408c2c:	17fffff4 	b	408bfc <_ZN5model5trainENSt7__cxx1112basic_stringIcSt11char_traitsIcESaIcEEE+0x14c>
  408c30:	90000140 	adrp	x0, 430000 <_Znam@GLIBCXX_3.4>
  408c34:	91084001 	add	x1, x0, #0x210
  408c38:	f9410800 	ldr	x0, [x0, #528]
  408c3c:	f85e8000 	ldur	x0, [x0, #-24]
  408c40:	8b010000 	add	x0, x0, x1
  408c44:	f9407813 	ldr	x19, [x0, #240]
  408c48:	b4000113 	cbz	x19, 408c68 <_ZN5model5trainENSt7__cxx1112basic_stringIcSt11char_traitsIcESaIcEEE+0x1b8>
  408c4c:	3940e260 	ldrb	w0, [x19, #56]
  408c50:	34000120 	cbz	w0, 408c74 <_ZN5model5trainENSt7__cxx1112basic_stringIcSt11char_traitsIcESaIcEEE+0x1c4>
  408c54:	39410e61 	ldrb	w1, [x19, #67]
  408c58:	90000140 	adrp	x0, 430000 <_Znam@GLIBCXX_3.4>
  408c5c:	91084000 	add	x0, x0, #0x210
  408c60:	97ffe4a8 	bl	401f00 <_ZNSo3putEc@plt>
  408c64:	1400000d 	b	408c98 <_ZN5model5trainENSt7__cxx1112basic_stringIcSt11char_traitsIcESaIcEEE+0x1e8>
  408c68:	97ffe532 	bl	402130 <_ZSt16__throw_bad_castv@plt>
  408c6c:	aa0003f3 	mov	x19, x0
  408c70:	140000a6 	b	408f08 <_ZN5model5trainENSt7__cxx1112basic_stringIcSt11char_traitsIcESaIcEEE+0x458>
  408c74:	aa1303e0 	mov	x0, x19
  408c78:	97ffe522 	bl	402100 <_ZNKSt5ctypeIcE13_M_widen_initEv@plt>
  408c7c:	f9400260 	ldr	x0, [x19]
  408c80:	f9401802 	ldr	x2, [x0, #48]
  408c84:	52800141 	mov	w1, #0xa                   	// #10
  408c88:	aa1303e0 	mov	x0, x19
  408c8c:	d63f0040 	blr	x2
  408c90:	12001c01 	and	w1, w0, #0xff
  408c94:	17fffff1 	b	408c58 <_ZN5model5trainENSt7__cxx1112basic_stringIcSt11char_traitsIcESaIcEEE+0x1a8>
  408c98:	97ffe4ea 	bl	402040 <_ZNSo5flushEv@plt>
  408c9c:	d2800642 	mov	x2, #0x32                  	// #50
  408ca0:	d0000041 	adrp	x1, 412000 <_Z19MD5Hash_simdversionPKNSt7__cxx1112basic_stringIcSt11char_traitsIcESaIcEEEP12__Uint32x4_t+0x1480>
  408ca4:	912a2021 	add	x1, x1, #0xa88
  408ca8:	90000140 	adrp	x0, 430000 <_Znam@GLIBCXX_3.4>
  408cac:	91084000 	add	x0, x0, #0x210
  408cb0:	97ffe510 	bl	4020f0 <_ZSt16__ostream_insertIcSt11char_traitsIcEERSt13basic_ostreamIT_T0_ES6_PKS3_l@plt>
  408cb4:	90000140 	adrp	x0, 430000 <_Znam@GLIBCXX_3.4>
  408cb8:	91084001 	add	x1, x0, #0x210
  408cbc:	f9410800 	ldr	x0, [x0, #528]
  408cc0:	f85e8000 	ldur	x0, [x0, #-24]
  408cc4:	8b010000 	add	x0, x0, x1
  408cc8:	f9407813 	ldr	x19, [x0, #240]
  408ccc:	b4000113 	cbz	x19, 408cec <_ZN5model5trainENSt7__cxx1112basic_stringIcSt11char_traitsIcESaIcEEE+0x23c>
  408cd0:	3940e260 	ldrb	w0, [x19, #56]
  408cd4:	340000e0 	cbz	w0, 408cf0 <_ZN5model5trainENSt7__cxx1112basic_stringIcSt11char_traitsIcESaIcEEE+0x240>
  408cd8:	39410e61 	ldrb	w1, [x19, #67]
  408cdc:	90000140 	adrp	x0, 430000 <_Znam@GLIBCXX_3.4>
  408ce0:	91084000 	add	x0, x0, #0x210
  408ce4:	97ffe487 	bl	401f00 <_ZNSo3putEc@plt>
  408ce8:	1400000b 	b	408d14 <_ZN5model5trainENSt7__cxx1112basic_stringIcSt11char_traitsIcESaIcEEE+0x264>
  408cec:	97ffe511 	bl	402130 <_ZSt16__throw_bad_castv@plt>
  408cf0:	aa1303e0 	mov	x0, x19
  408cf4:	97ffe503 	bl	402100 <_ZNKSt5ctypeIcE13_M_widen_initEv@plt>
  408cf8:	f9400260 	ldr	x0, [x19]
  408cfc:	f9401802 	ldr	x2, [x0, #48]
  408d00:	52800141 	mov	w1, #0xa                   	// #10
  408d04:	aa1303e0 	mov	x0, x19
  408d08:	d63f0040 	blr	x2
  408d0c:	12001c01 	and	w1, w0, #0xff
  408d10:	17fffff3 	b	408cdc <_ZN5model5trainENSt7__cxx1112basic_stringIcSt11char_traitsIcESaIcEEE+0x22c>
  408d14:	97ffe4cb 	bl	402040 <_ZNSo5flushEv@plt>
  408d18:	52800013 	mov	w19, #0x0                   	// #0
  408d1c:	529175b6 	mov	w22, #0x8bad                	// #35757
  408d20:	72ad1b76 	movk	w22, #0x68db, lsl #16
  408d24:	910183f4 	add	x20, sp, #0x60
  408d28:	14000044 	b	408e38 <_ZN5model5trainENSt7__cxx1112basic_stringIcSt11char_traitsIcESaIcEEE+0x388>
  408d2c:	f9400001 	ldr	x1, [x0]
  408d30:	f85e8021 	ldur	x1, [x1, #-24]
  408d34:	8b010000 	add	x0, x0, x1
  408d38:	b9402001 	ldr	w1, [x0, #32]
  408d3c:	528000a0 	mov	w0, #0x5                   	// #5
  408d40:	6a00003f 	tst	w1, w0
  408d44:	54000821 	b.ne	408e48 <_ZN5model5trainENSt7__cxx1112basic_stringIcSt11char_traitsIcESaIcEEE+0x398>  // b.any
  408d48:	11000673 	add	w19, w19, #0x1
  408d4c:	9b367e61 	smull	x1, w19, w22
  408d50:	936cfc21 	asr	x1, x1, #44
  408d54:	4b937c21 	sub	w1, w1, w19, asr #31
  408d58:	5284e200 	mov	w0, #0x2710                	// #10000
  408d5c:	1b00cc21 	msub	w1, w1, w0, w19
  408d60:	350004c1 	cbnz	w1, 408df8 <_ZN5model5trainENSt7__cxx1112basic_stringIcSt11char_traitsIcESaIcEEE+0x348>
  408d64:	d2800222 	mov	x2, #0x11                  	// #17
  408d68:	d0000041 	adrp	x1, 412000 <_Z19MD5Hash_simdversionPKNSt7__cxx1112basic_stringIcSt11char_traitsIcESaIcEEEP12__Uint32x4_t+0x1480>
  408d6c:	912b0021 	add	x1, x1, #0xac0
  408d70:	90000140 	adrp	x0, 430000 <_Znam@GLIBCXX_3.4>
  408d74:	91084000 	add	x0, x0, #0x210
  408d78:	97ffe4de 	bl	4020f0 <_ZSt16__ostream_insertIcSt11char_traitsIcEERSt13basic_ostreamIT_T0_ES6_PKS3_l@plt>
  408d7c:	2a1303e1 	mov	w1, w19
  408d80:	90000140 	adrp	x0, 430000 <_Znam@GLIBCXX_3.4>
  408d84:	91084000 	add	x0, x0, #0x210
  408d88:	97ffe532 	bl	402250 <_ZNSolsEi@plt>
  408d8c:	aa0003f9 	mov	x25, x0
  408d90:	f9400000 	ldr	x0, [x0]
  408d94:	f85e8000 	ldur	x0, [x0, #-24]
  408d98:	8b000320 	add	x0, x25, x0
  408d9c:	f940781a 	ldr	x26, [x0, #240]
  408da0:	b40000fa 	cbz	x26, 408dbc <_ZN5model5trainENSt7__cxx1112basic_stringIcSt11char_traitsIcESaIcEEE+0x30c>
  408da4:	3940e340 	ldrb	w0, [x26, #56]
  408da8:	340000c0 	cbz	w0, 408dc0 <_ZN5model5trainENSt7__cxx1112basic_stringIcSt11char_traitsIcESaIcEEE+0x310>
  408dac:	39410f41 	ldrb	w1, [x26, #67]
  408db0:	aa1903e0 	mov	x0, x25
  408db4:	97ffe453 	bl	401f00 <_ZNSo3putEc@plt>
  408db8:	1400000b 	b	408de4 <_ZN5model5trainENSt7__cxx1112basic_stringIcSt11char_traitsIcESaIcEEE+0x334>
  408dbc:	97ffe4dd 	bl	402130 <_ZSt16__throw_bad_castv@plt>
  408dc0:	aa1a03e0 	mov	x0, x26
  408dc4:	97ffe4cf 	bl	402100 <_ZNKSt5ctypeIcE13_M_widen_initEv@plt>
  408dc8:	f9400340 	ldr	x0, [x26]
  408dcc:	f9401802 	ldr	x2, [x0, #48]
  408dd0:	52800141 	mov	w1, #0xa                   	// #10
  408dd4:	aa1a03e0 	mov	x0, x26
  408dd8:	d63f0040 	blr	x2
  408ddc:	12001c01 	and	w1, w0, #0xff
  408de0:	17fffff4 	b	408db0 <_ZN5model5trainENSt7__cxx1112basic_stringIcSt11char_traitsIcESaIcEEE+0x300>
  408de4:	97ffe497 	bl	402040 <_ZNSo5flushEv@plt>
  408de8:	5298d800 	mov	w0, #0xc6c0                	// #50880
  408dec:	72a005a0 	movk	w0, #0x2d, lsl #16
  408df0:	6b00027f 	cmp	w19, w0
  408df4:	540002ac 	b.gt	408e48 <_ZN5model5trainENSt7__cxx1112basic_stringIcSt11char_traitsIcESaIcEEE+0x398>
  408df8:	f9002bf4 	str	x20, [sp, #80]
  408dfc:	f94143e1 	ldr	x1, [sp, #640]
  408e00:	52800003 	mov	w3, #0x0                   	// #0
  408e04:	f94147e2 	ldr	x2, [sp, #648]
  408e08:	8b020022 	add	x2, x1, x2
  408e0c:	910143e0 	add	x0, sp, #0x50
  408e10:	94000391 	bl	409c54 <_ZNSt7__cxx1112basic_stringIcSt11char_traitsIcESaIcEE12_M_constructIPcEEvT_S7_St20forward_iterator_tag>
  408e14:	910143e1 	add	x1, sp, #0x50
  408e18:	aa1503e0 	mov	x0, x21
  408e1c:	97fff4b3 	bl	4060e8 <_ZN5model5parseENSt7__cxx1112basic_stringIcSt11char_traitsIcESaIcEEE>
  408e20:	f9402be0 	ldr	x0, [sp, #80]
  408e24:	eb14001f 	cmp	x0, x20
  408e28:	54000080 	b.eq	408e38 <_ZN5model5trainENSt7__cxx1112basic_stringIcSt11char_traitsIcESaIcEEE+0x388>  // b.none
  408e2c:	f94033e1 	ldr	x1, [sp, #96]
  408e30:	91000421 	add	x1, x1, #0x1
  408e34:	97ffe4a3 	bl	4020c0 <_ZdlPvm@plt>
  408e38:	910a03e1 	add	x1, sp, #0x280
  408e3c:	9101c3e0 	add	x0, sp, #0x70
  408e40:	97ffe4c4 	bl	402150 <_ZStrsIcSt11char_traitsIcESaIcEERSt13basic_istreamIT_T0_ES7_RNSt7__cxx1112basic_stringIS4_S5_T1_EE@plt>
  408e44:	17ffffba 	b	408d2c <_ZN5model5trainENSt7__cxx1112basic_stringIcSt11char_traitsIcESaIcEEE+0x27c>
  408e48:	f0000120 	adrp	x0, 42f000 <__FRAME_END__+0x1a654>
  408e4c:	912fe000 	add	x0, x0, #0xbf8
  408e50:	f9003be0 	str	x0, [sp, #112]
  408e54:	f0000120 	adrp	x0, 42f000 <__FRAME_END__+0x1a654>
  408e58:	91308000 	add	x0, x0, #0xc20
  408e5c:	f900bfe0 	str	x0, [sp, #376]
  408e60:	f0000120 	adrp	x0, 42f000 <__FRAME_END__+0x1a654>
  408e64:	9132e000 	add	x0, x0, #0xcb8
  408e68:	f90043e0 	str	x0, [sp, #128]
  408e6c:	910203e0 	add	x0, sp, #0x80
  408e70:	97ffe438 	bl	401f50 <_ZNSt13basic_filebufIcSt11char_traitsIcEE5closeEv@plt>
  408e74:	14000003 	b	408e80 <_ZN5model5trainENSt7__cxx1112basic_stringIcSt11char_traitsIcESaIcEEE+0x3d0>
  408e78:	97ffe456 	bl	401fd0 <__cxa_begin_catch@plt>
  408e7c:	97ffe4e9 	bl	402220 <__cxa_end_catch@plt>
  408e80:	9101c3f3 	add	x19, sp, #0x70
  408e84:	9103c3e0 	add	x0, sp, #0xf0
  408e88:	97ffe502 	bl	402290 <_ZNSt12__basic_fileIcED1Ev@plt>
  408e8c:	f0000120 	adrp	x0, 42f000 <__FRAME_END__+0x1a654>
  408e90:	912dc000 	add	x0, x0, #0xb70
  408e94:	f90043e0 	str	x0, [sp, #128]
  408e98:	9102e3e0 	add	x0, sp, #0xb8
  408e9c:	97ffe4c1 	bl	4021a0 <_ZNSt6localeD1Ev@plt>
  408ea0:	f9003bf7 	str	x23, [sp, #112]
  408ea4:	f85e82e0 	ldur	x0, [x23, #-24]
  408ea8:	f8206a78 	str	x24, [x19, x0]
  408eac:	f9003fff 	str	xzr, [sp, #120]
  408eb0:	f0000120 	adrp	x0, 42f000 <__FRAME_END__+0x1a654>
  408eb4:	912c0000 	add	x0, x0, #0xb00
  408eb8:	f900bfe0 	str	x0, [sp, #376]
  408ebc:	9105e3e0 	add	x0, sp, #0x178
  408ec0:	97ffe43c 	bl	401fb0 <_ZNSt8ios_baseD2Ev@plt>
  408ec4:	f94143e0 	ldr	x0, [sp, #640]
  408ec8:	910a43e1 	add	x1, sp, #0x290
  408ecc:	eb01001f 	cmp	x0, x1
  408ed0:	54000080 	b.eq	408ee0 <_ZN5model5trainENSt7__cxx1112basic_stringIcSt11char_traitsIcESaIcEEE+0x430>  // b.none
  408ed4:	f9414be1 	ldr	x1, [sp, #656]
  408ed8:	91000421 	add	x1, x1, #0x1
  408edc:	97ffe479 	bl	4020c0 <_ZdlPvm@plt>
  408ee0:	a94153f3 	ldp	x19, x20, [sp, #16]
  408ee4:	a9425bf5 	ldp	x21, x22, [sp, #32]
  408ee8:	a94363f7 	ldp	x23, x24, [sp, #48]
  408eec:	a9446bf9 	ldp	x25, x26, [sp, #64]
  408ef0:	a9407bfd 	ldp	x29, x30, [sp]
  408ef4:	910a83ff 	add	sp, sp, #0x2a0
  408ef8:	d65f03c0 	ret
  408efc:	aa0003f3 	mov	x19, x0
  408f00:	910143e0 	add	x0, sp, #0x50
  408f04:	97ffe483 	bl	402110 <_ZNSt7__cxx1112basic_stringIcSt11char_traitsIcESaIcEE10_M_disposeEv@plt>
  408f08:	9101c3e0 	add	x0, sp, #0x70
  408f0c:	97ffe415 	bl	401f60 <_ZNSt14basic_ifstreamIcSt11char_traitsIcEED1Ev@plt>
  408f10:	17ffff40 	b	408c10 <_ZN5model5trainENSt7__cxx1112basic_stringIcSt11char_traitsIcESaIcEEE+0x160>

0000000000408f14 <_ZN5model5orderEv>:
  408f14:	a9ae7bfd 	stp	x29, x30, [sp, #-288]!
  408f18:	910003fd 	mov	x29, sp
  408f1c:	a90153f3 	stp	x19, x20, [sp, #16]
  408f20:	a9025bf5 	stp	x21, x22, [sp, #32]
  408f24:	aa0003f5 	mov	x21, x0
  408f28:	90000154 	adrp	x20, 430000 <_Znam@GLIBCXX_3.4>
  408f2c:	91084293 	add	x19, x20, #0x210
  408f30:	d2800682 	mov	x2, #0x34                  	// #52
  408f34:	d0000041 	adrp	x1, 412000 <_Z19MD5Hash_simdversionPKNSt7__cxx1112basic_stringIcSt11char_traitsIcESaIcEEEP12__Uint32x4_t+0x1480>
  408f38:	912b6021 	add	x1, x1, #0xad8
  408f3c:	aa1303e0 	mov	x0, x19
  408f40:	97ffe46c 	bl	4020f0 <_ZSt16__ostream_insertIcSt11char_traitsIcEERSt13basic_ostreamIT_T0_ES6_PKS3_l@plt>
  408f44:	f9410a80 	ldr	x0, [x20, #528]
  408f48:	f85e8000 	ldur	x0, [x0, #-24]
  408f4c:	8b130000 	add	x0, x0, x19
  408f50:	f9407813 	ldr	x19, [x0, #240]
  408f54:	b4000253 	cbz	x19, 408f9c <_ZN5model5orderEv+0x88>
  408f58:	a90363f7 	stp	x23, x24, [sp, #48]
  408f5c:	3940e260 	ldrb	w0, [x19, #56]
  408f60:	34000260 	cbz	w0, 408fac <_ZN5model5orderEv+0x98>
  408f64:	39410e61 	ldrb	w1, [x19, #67]
  408f68:	90000140 	adrp	x0, 430000 <_Znam@GLIBCXX_3.4>
  408f6c:	91084000 	add	x0, x0, #0x210
  408f70:	97ffe3e4 	bl	401f00 <_ZNSo3putEc@plt>
  408f74:	97ffe433 	bl	402040 <_ZNSo5flushEv@plt>
  408f78:	f9400eb6 	ldr	x22, [x21, #24]
  408f7c:	f94012b7 	ldr	x23, [x21, #32]
  408f80:	eb1702df 	cmp	x22, x23
  408f84:	54001300 	b.eq	4091e4 <_ZN5model5orderEv+0x2d0>  // b.none
  408f88:	a9046bf9 	stp	x25, x26, [sp, #64]
  408f8c:	f9002bfb 	str	x27, [sp, #80]
  408f90:	9101e2b8 	add	x24, x21, #0x78
  408f94:	910562b9 	add	x25, x21, #0x158
  408f98:	14000069 	b	40913c <_ZN5model5orderEv+0x228>
  408f9c:	a90363f7 	stp	x23, x24, [sp, #48]
  408fa0:	a9046bf9 	stp	x25, x26, [sp, #64]
  408fa4:	f9002bfb 	str	x27, [sp, #80]
  408fa8:	97ffe462 	bl	402130 <_ZSt16__throw_bad_castv@plt>
  408fac:	aa1303e0 	mov	x0, x19
  408fb0:	97ffe454 	bl	402100 <_ZNKSt5ctypeIcE13_M_widen_initEv@plt>
  408fb4:	f9400260 	ldr	x0, [x19]
  408fb8:	f9401802 	ldr	x2, [x0, #48]
  408fbc:	52800141 	mov	w1, #0xa                   	// #10
  408fc0:	aa1303e0 	mov	x0, x19
  408fc4:	d63f0040 	blr	x2
  408fc8:	12001c01 	and	w1, w0, #0xff
  408fcc:	17ffffe7 	b	408f68 <_ZN5model5orderEv+0x54>
  408fd0:	910303e1 	add	x1, sp, #0xc0
  408fd4:	aa1503e0 	mov	x0, x21
  408fd8:	97ffec4a 	bl	404100 <_ZN5model6FindPTE2PT>
  408fdc:	b9011fe0 	str	w0, [sp, #284]
  408fe0:	910473e1 	add	x1, sp, #0x11c
  408fe4:	aa1803e0 	mov	x0, x24
  408fe8:	94000889 	bl	40b20c <_ZNSt8__detail9_Map_baseIiSt4pairIKiiESaIS3_ENS_10_Select1stESt8equal_toIiESt4hashIiENS_18_Mod_range_hashingENS_20_Default_ranged_hashENS_20_Prime_rehash_policyENS_17_Hashtable_traitsILb0ELb0ELb1EEELb1EEixEOi>
  408fec:	bd400000 	ldr	s0, [x0]
  408ff0:	5e21d800 	scvtf	s0, s0
  408ff4:	bd4012a1 	ldr	s1, [x21, #16]
  408ff8:	5e21d821 	scvtf	s1, s1
  408ffc:	1e211800 	fdiv	s0, s0, s1
  409000:	bd00bbe0 	str	s0, [sp, #184]
  409004:	f9407fe0 	ldr	x0, [sp, #248]
  409008:	b4000080 	cbz	x0, 409018 <_ZN5model5orderEv+0x104>
  40900c:	f94087e1 	ldr	x1, [sp, #264]
  409010:	cb000021 	sub	x1, x1, x0
  409014:	97ffe42b 	bl	4020c0 <_ZdlPvm@plt>
  409018:	f94073e0 	ldr	x0, [sp, #224]
  40901c:	b4000080 	cbz	x0, 40902c <_ZN5model5orderEv+0x118>
  409020:	f9407be1 	ldr	x1, [sp, #240]
  409024:	cb000021 	sub	x1, x1, x0
  409028:	97ffe426 	bl	4020c0 <_ZdlPvm@plt>
  40902c:	f94063f4 	ldr	x20, [sp, #192]
  409030:	f94067fb 	ldr	x27, [sp, #200]
  409034:	eb1b029f 	cmp	x20, x27
  409038:	540003a1 	b.ne	4090ac <_ZN5model5orderEv+0x198>  // b.any
  40903c:	f94063e0 	ldr	x0, [sp, #192]
  409040:	b4000080 	cbz	x0, 409050 <_ZN5model5orderEv+0x13c>
  409044:	f9406be1 	ldr	x1, [sp, #208]
  409048:	cb000021 	sub	x1, x1, x0
  40904c:	97ffe41d 	bl	4020c0 <_ZdlPvm@plt>
  409050:	9101a3e1 	add	x1, sp, #0x68
  409054:	aa1903e0 	mov	x0, x25
  409058:	940007b2 	bl	40af20 <_ZNSt6vectorI2PTSaIS0_EE12emplace_backIJRS0_EEEvDpOT_>
  40905c:	14000022 	b	4090e4 <_ZN5model5orderEv+0x1d0>
  409060:	91008273 	add	x19, x19, #0x20
  409064:	eb13035f 	cmp	x26, x19
  409068:	54000120 	b.eq	40908c <_ZN5model5orderEv+0x178>  // b.none
  40906c:	aa1303e1 	mov	x1, x19
  409070:	f8410420 	ldr	x0, [x1], #16
  409074:	eb01001f 	cmp	x0, x1
  409078:	54ffff40 	b.eq	409060 <_ZN5model5orderEv+0x14c>  // b.none
  40907c:	f9400a61 	ldr	x1, [x19, #16]
  409080:	91000421 	add	x1, x1, #0x1
  409084:	97ffe40f 	bl	4020c0 <_ZdlPvm@plt>
  409088:	17fffff6 	b	409060 <_ZN5model5orderEv+0x14c>
  40908c:	f9400680 	ldr	x0, [x20, #8]
  409090:	b4000080 	cbz	x0, 4090a0 <_ZN5model5orderEv+0x18c>
  409094:	f9400e81 	ldr	x1, [x20, #24]
  409098:	cb000021 	sub	x1, x1, x0
  40909c:	97ffe409 	bl	4020c0 <_ZdlPvm@plt>
  4090a0:	9102c294 	add	x20, x20, #0xb0
  4090a4:	eb14037f 	cmp	x27, x20
  4090a8:	54fffca0 	b.eq	40903c <_ZN5model5orderEv+0x128>  // b.none
  4090ac:	9101e280 	add	x0, x20, #0x78
  4090b0:	97ffe9f3 	bl	40387c <_ZNSt10_HashtableIiSt4pairIKiiESaIS2_ENSt8__detail10_Select1stESt8equal_toIiESt4hashIiENS4_18_Mod_range_hashingENS4_20_Default_ranged_hashENS4_20_Prime_rehash_policyENS4_17_Hashtable_traitsILb0ELb0ELb1EEEED1Ev>
  4090b4:	91010280 	add	x0, x20, #0x40
  4090b8:	97ffe9c8 	bl	4037d8 <_ZNSt10_HashtableINSt7__cxx1112basic_stringIcSt11char_traitsIcESaIcEEESt4pairIKS5_iESaIS8_ENSt8__detail10_Select1stESt8equal_toIS5_ESt4hashIS5_ENSA_18_Mod_range_hashingENSA_20_Default_ranged_hashENSA_20_Prime_rehash_policyENSA_17_Hashtable_traitsILb1ELb0ELb1EEEED1Ev>
  4090bc:	f9401280 	ldr	x0, [x20, #32]
  4090c0:	b4000080 	cbz	x0, 4090d0 <_ZN5model5orderEv+0x1bc>
  4090c4:	f9401a81 	ldr	x1, [x20, #48]
  4090c8:	cb000021 	sub	x1, x1, x0
  4090cc:	97ffe3fd 	bl	4020c0 <_ZdlPvm@plt>
  4090d0:	f9400693 	ldr	x19, [x20, #8]
  4090d4:	f9400a9a 	ldr	x26, [x20, #16]
  4090d8:	eb1a027f 	cmp	x19, x26
  4090dc:	54fffc81 	b.ne	40906c <_ZN5model5orderEv+0x158>  // b.any
  4090e0:	17ffffeb 	b	40908c <_ZN5model5orderEv+0x178>
  4090e4:	f94053e0 	ldr	x0, [sp, #160]
  4090e8:	b4000080 	cbz	x0, 4090f8 <_ZN5model5orderEv+0x1e4>
  4090ec:	f9405be1 	ldr	x1, [sp, #176]
  4090f0:	cb000021 	sub	x1, x1, x0
  4090f4:	97ffe3f3 	bl	4020c0 <_ZdlPvm@plt>
  4090f8:	f94047e0 	ldr	x0, [sp, #136]
  4090fc:	b4000080 	cbz	x0, 40910c <_ZN5model5orderEv+0x1f8>
  409100:	f9404fe1 	ldr	x1, [sp, #152]
  409104:	cb000021 	sub	x1, x1, x0
  409108:	97ffe3ee 	bl	4020c0 <_ZdlPvm@plt>
  40910c:	f94037f4 	ldr	x20, [sp, #104]
  409110:	f9403bfb 	ldr	x27, [sp, #112]
  409114:	eb1b029f 	cmp	x20, x27
  409118:	54000461 	b.ne	4091a4 <_ZN5model5orderEv+0x290>  // b.any
  40911c:	f94037e0 	ldr	x0, [sp, #104]
  409120:	b4000080 	cbz	x0, 409130 <_ZN5model5orderEv+0x21c>
  409124:	f9403fe1 	ldr	x1, [sp, #120]
  409128:	cb000021 	sub	x1, x1, x0
  40912c:	97ffe3e5 	bl	4020c0 <_ZdlPvm@plt>
  409130:	910162d6 	add	x22, x22, #0x58
  409134:	eb1602ff 	cmp	x23, x22
  409138:	54000520 	b.eq	4091dc <_ZN5model5orderEv+0x2c8>  // b.none
  40913c:	aa1603e1 	mov	x1, x22
  409140:	9101a3e0 	add	x0, sp, #0x68
  409144:	940005f6 	bl	40a91c <_ZN2PTC1ERKS_>
  409148:	9101a3e1 	add	x1, sp, #0x68
  40914c:	910303e0 	add	x0, sp, #0xc0
  409150:	940005f3 	bl	40a91c <_ZN2PTC1ERKS_>
  409154:	17ffff9f 	b	408fd0 <_ZN5model5orderEv+0xbc>
  409158:	91008273 	add	x19, x19, #0x20
  40915c:	eb13035f 	cmp	x26, x19
  409160:	54000120 	b.eq	409184 <_ZN5model5orderEv+0x270>  // b.none
  409164:	aa1303e1 	mov	x1, x19
  409168:	f8410420 	ldr	x0, [x1], #16
  40916c:	eb01001f 	cmp	x0, x1
  409170:	54ffff40 	b.eq	409158 <_ZN5model5orderEv+0x244>  // b.none
  409174:	f9400a61 	ldr	x1, [x19, #16]
  409178:	91000421 	add	x1, x1, #0x1
  40917c:	97ffe3d1 	bl	4020c0 <_ZdlPvm@plt>
  409180:	17fffff6 	b	409158 <_ZN5model5orderEv+0x244>
  409184:	f9400680 	ldr	x0, [x20, #8]
  409188:	b4000080 	cbz	x0, 409198 <_ZN5model5orderEv+0x284>
  40918c:	f9400e81 	ldr	x1, [x20, #24]
  409190:	cb000021 	sub	x1, x1, x0
  409194:	97ffe3cb 	bl	4020c0 <_ZdlPvm@plt>
  409198:	9102c294 	add	x20, x20, #0xb0
  40919c:	eb14037f 	cmp	x27, x20
  4091a0:	54fffbe0 	b.eq	40911c <_ZN5model5orderEv+0x208>  // b.none
  4091a4:	9101e280 	add	x0, x20, #0x78
  4091a8:	97ffe9b5 	bl	40387c <_ZNSt10_HashtableIiSt4pairIKiiESaIS2_ENSt8__detail10_Select1stESt8equal_toIiESt4hashIiENS4_18_Mod_range_hashingENS4_20_Default_ranged_hashENS4_20_Prime_rehash_policyENS4_17_Hashtable_traitsILb0ELb0ELb1EEEED1Ev>
  4091ac:	91010280 	add	x0, x20, #0x40
  4091b0:	97ffe98a 	bl	4037d8 <_ZNSt10_HashtableINSt7__cxx1112basic_stringIcSt11char_traitsIcESaIcEEESt4pairIKS5_iESaIS8_ENSt8__detail10_Select1stESt8equal_toIS5_ESt4hashIS5_ENSA_18_Mod_range_hashingENSA_20_Default_ranged_hashENSA_20_Prime_rehash_policyENSA_17_Hashtable_traitsILb1ELb0ELb1EEEED1Ev>
  4091b4:	f9401280 	ldr	x0, [x20, #32]
  4091b8:	b4000080 	cbz	x0, 4091c8 <_ZN5model5orderEv+0x2b4>
  4091bc:	f9401a81 	ldr	x1, [x20, #48]
  4091c0:	cb000021 	sub	x1, x1, x0
  4091c4:	97ffe3bf 	bl	4020c0 <_ZdlPvm@plt>
  4091c8:	f9400693 	ldr	x19, [x20, #8]
  4091cc:	f9400a9a 	ldr	x26, [x20, #16]
  4091d0:	eb1a027f 	cmp	x19, x26
  4091d4:	54fffc81 	b.ne	409164 <_ZN5model5orderEv+0x250>  // b.any
  4091d8:	17ffffeb 	b	409184 <_ZN5model5orderEv+0x270>
  4091dc:	a9446bf9 	ldp	x25, x26, [sp, #64]
  4091e0:	f9402bfb 	ldr	x27, [sp, #80]
  4091e4:	f0000133 	adrp	x19, 430000 <_Znam@GLIBCXX_3.4>
  4091e8:	91084273 	add	x19, x19, #0x210
  4091ec:	d2800122 	mov	x2, #0x9                   	// #9
  4091f0:	b0000041 	adrp	x1, 412000 <_Z19MD5Hash_simdversionPKNSt7__cxx1112basic_stringIcSt11char_traitsIcESaIcEEEP12__Uint32x4_t+0x1480>
  4091f4:	912c4021 	add	x1, x1, #0xb10
  4091f8:	aa1303e0 	mov	x0, x19
  4091fc:	97ffe3bd 	bl	4020f0 <_ZSt16__ostream_insertIcSt11char_traitsIcEERSt13basic_ostreamIT_T0_ES6_PKS3_l@plt>
  409200:	f940b2a0 	ldr	x0, [x21, #352]
  409204:	f940aea1 	ldr	x1, [x21, #344]
  409208:	cb010000 	sub	x0, x0, x1
  40920c:	9343fc00 	asr	x0, x0, #3
  409210:	d2917461 	mov	x1, #0x8ba3                	// #35747
  409214:	f2b745c1 	movk	x1, #0xba2e, lsl #16
  409218:	f2d45d01 	movk	x1, #0xa2e8, lsl #32
  40921c:	f2e5d161 	movk	x1, #0x2e8b, lsl #48
  409220:	9b017c01 	mul	x1, x0, x1
  409224:	aa1303e0 	mov	x0, x19
  409228:	97ffe382 	bl	402030 <_ZNSo9_M_insertImEERSoT_@plt>
  40922c:	aa0003f4 	mov	x20, x0
  409230:	f9400000 	ldr	x0, [x0]
  409234:	f85e8000 	ldur	x0, [x0, #-24]
  409238:	8b000280 	add	x0, x20, x0
  40923c:	f9407813 	ldr	x19, [x0, #240]
  409240:	b40005b3 	cbz	x19, 4092f4 <_ZN5model5orderEv+0x3e0>
  409244:	3940e260 	ldrb	w0, [x19, #56]
  409248:	340005c0 	cbz	w0, 409300 <_ZN5model5orderEv+0x3ec>
  40924c:	39410e61 	ldrb	w1, [x19, #67]
  409250:	aa1403e0 	mov	x0, x20
  409254:	97ffe32b 	bl	401f00 <_ZNSo3putEc@plt>
  409258:	97ffe37a 	bl	402040 <_ZNSo5flushEv@plt>
  40925c:	f940aeb6 	ldr	x22, [x21, #344]
  409260:	f940b2b4 	ldr	x20, [x21, #352]
  409264:	eb16029f 	cmp	x20, x22
  409268:	54000660 	b.eq	409334 <_ZN5model5orderEv+0x420>  // b.none
  40926c:	cb160293 	sub	x19, x20, x22
  409270:	9343fe60 	asr	x0, x19, #3
  409274:	d2917461 	mov	x1, #0x8ba3                	// #35747
  409278:	f2b745c1 	movk	x1, #0xba2e, lsl #16
  40927c:	f2d45d01 	movk	x1, #0xa2e8, lsl #32
  409280:	f2e5d161 	movk	x1, #0x2e8b, lsl #48
  409284:	9b017c00 	mul	x0, x0, x1
  409288:	dac01000 	clz	x0, x0
  40928c:	f0ffffd7 	adrp	x23, 404000 <_ZNSt6vectorINSt7__cxx1112basic_stringIcSt11char_traitsIcESaIcEEESaIS5_EEC1ESt16initializer_listIS5_ERKS6_+0xa4>
  409290:	9103b2f7 	add	x23, x23, #0xec
  409294:	528007e2 	mov	w2, #0x3f                  	// #63
  409298:	4b000042 	sub	w2, w2, w0
  40929c:	aa1703e3 	mov	x3, x23
  4092a0:	937f7c42 	sbfiz	x2, x2, #1, #32
  4092a4:	aa1403e1 	mov	x1, x20
  4092a8:	aa1603e0 	mov	x0, x22
  4092ac:	940010f7 	bl	40d688 <_ZSt16__introsort_loopIN9__gnu_cxx17__normal_iteratorIP2PTSt6vectorIS2_SaIS2_EEEElNS0_5__ops15_Iter_comp_iterIPFbRKS2_SB_EEEEvT_SF_T0_T1_>
  4092b0:	f116027f 	cmp	x19, #0x580
  4092b4:	5400038d 	b.le	409324 <_ZN5model5orderEv+0x410>
  4092b8:	911602d3 	add	x19, x22, #0x580
  4092bc:	aa1703e2 	mov	x2, x23
  4092c0:	aa1303e1 	mov	x1, x19
  4092c4:	aa1603e0 	mov	x0, x22
  4092c8:	940009eb 	bl	40ba74 <_ZSt16__insertion_sortIN9__gnu_cxx17__normal_iteratorIP2PTSt6vectorIS2_SaIS2_EEEENS0_5__ops15_Iter_comp_iterIPFbRKS2_SB_EEEEvT_SF_T0_>
  4092cc:	eb13029f 	cmp	x20, x19
  4092d0:	54000320 	b.eq	409334 <_ZN5model5orderEv+0x420>  // b.none
  4092d4:	aa1703f6 	mov	x22, x23
  4092d8:	aa1603e1 	mov	x1, x22
  4092dc:	aa1303e0 	mov	x0, x19
  4092e0:	94000916 	bl	40b738 <_ZSt25__unguarded_linear_insertIN9__gnu_cxx17__normal_iteratorIP2PTSt6vectorIS2_SaIS2_EEEENS0_5__ops14_Val_comp_iterIPFbRKS2_SB_EEEEvT_T0_>
  4092e4:	91016273 	add	x19, x19, #0x58
  4092e8:	eb13029f 	cmp	x20, x19
  4092ec:	54ffff61 	b.ne	4092d8 <_ZN5model5orderEv+0x3c4>  // b.any
  4092f0:	14000011 	b	409334 <_ZN5model5orderEv+0x420>
  4092f4:	a9046bf9 	stp	x25, x26, [sp, #64]
  4092f8:	f9002bfb 	str	x27, [sp, #80]
  4092fc:	97ffe38d 	bl	402130 <_ZSt16__throw_bad_castv@plt>
  409300:	aa1303e0 	mov	x0, x19
  409304:	97ffe37f 	bl	402100 <_ZNKSt5ctypeIcE13_M_widen_initEv@plt>
  409308:	f9400260 	ldr	x0, [x19]
  40930c:	f9401802 	ldr	x2, [x0, #48]
  409310:	52800141 	mov	w1, #0xa                   	// #10
  409314:	aa1303e0 	mov	x0, x19
  409318:	d63f0040 	blr	x2
  40931c:	12001c01 	and	w1, w0, #0xff
  409320:	17ffffcc 	b	409250 <_ZN5model5orderEv+0x33c>
  409324:	aa1703e2 	mov	x2, x23
  409328:	aa1403e1 	mov	x1, x20
  40932c:	aa1603e0 	mov	x0, x22
  409330:	940009d1 	bl	40ba74 <_ZSt16__insertion_sortIN9__gnu_cxx17__normal_iteratorIP2PTSt6vectorIS2_SaIS2_EEEENS0_5__ops15_Iter_comp_iterIPFbRKS2_SB_EEEEvT_SF_T0_>
  409334:	f0000134 	adrp	x20, 430000 <_Znam@GLIBCXX_3.4>
  409338:	91084293 	add	x19, x20, #0x210
  40933c:	d2800202 	mov	x2, #0x10                  	// #16
  409340:	b0000041 	adrp	x1, 412000 <_Z19MD5Hash_simdversionPKNSt7__cxx1112basic_stringIcSt11char_traitsIcESaIcEEEP12__Uint32x4_t+0x1480>
  409344:	912c8021 	add	x1, x1, #0xb20
  409348:	aa1303e0 	mov	x0, x19
  40934c:	97ffe369 	bl	4020f0 <_ZSt16__ostream_insertIcSt11char_traitsIcEERSt13basic_ostreamIT_T0_ES6_PKS3_l@plt>
  409350:	f9410a80 	ldr	x0, [x20, #528]
  409354:	f85e8000 	ldur	x0, [x0, #-24]
  409358:	8b130000 	add	x0, x0, x19
  40935c:	f9407813 	ldr	x19, [x0, #240]
  409360:	b4000e53 	cbz	x19, 409528 <_ZN5model5orderEv+0x614>
  409364:	3940e260 	ldrb	w0, [x19, #56]
  409368:	34000e60 	cbz	w0, 409534 <_ZN5model5orderEv+0x620>
  40936c:	39410e61 	ldrb	w1, [x19, #67]
  409370:	f0000120 	adrp	x0, 430000 <_Znam@GLIBCXX_3.4>
  409374:	91084000 	add	x0, x0, #0x210
  409378:	97ffe2e2 	bl	401f00 <_ZNSo3putEc@plt>
  40937c:	97ffe331 	bl	402040 <_ZNSo5flushEv@plt>
  409380:	f9401aa0 	ldr	x0, [x21, #48]
  409384:	f9401ea1 	ldr	x1, [x21, #56]
  409388:	eb00003f 	cmp	x1, x0
  40938c:	54000240 	b.eq	4093d4 <_ZN5model5orderEv+0x4c0>  // b.none
  409390:	d2800014 	mov	x20, #0x0                   	// #0
  409394:	d2800013 	mov	x19, #0x0                   	// #0
  409398:	d2917476 	mov	x22, #0x8ba3                	// #35747
  40939c:	f2b745d6 	movk	x22, #0xba2e, lsl #16
  4093a0:	f2d45d16 	movk	x22, #0xa2e8, lsl #32
  4093a4:	f2e5d176 	movk	x22, #0x2e8b, lsl #48
  4093a8:	8b140000 	add	x0, x0, x20
  4093ac:	97ffefe5 	bl	405340 <_ZN7segment5orderEv>
  4093b0:	f9401aa0 	ldr	x0, [x21, #48]
  4093b4:	91000673 	add	x19, x19, #0x1
  4093b8:	9102c294 	add	x20, x20, #0xb0
  4093bc:	f9401ea1 	ldr	x1, [x21, #56]
  4093c0:	cb000021 	sub	x1, x1, x0
  4093c4:	9344fc21 	asr	x1, x1, #4
  4093c8:	9b167c21 	mul	x1, x1, x22
  4093cc:	eb13003f 	cmp	x1, x19
  4093d0:	54fffec8 	b.hi	4093a8 <_ZN5model5orderEv+0x494>  // b.pmore
  4093d4:	f0000134 	adrp	x20, 430000 <_Znam@GLIBCXX_3.4>
  4093d8:	91084293 	add	x19, x20, #0x210
  4093dc:	d28001e2 	mov	x2, #0xf                   	// #15
  4093e0:	b0000041 	adrp	x1, 412000 <_Z19MD5Hash_simdversionPKNSt7__cxx1112basic_stringIcSt11char_traitsIcESaIcEEEP12__Uint32x4_t+0x1480>
  4093e4:	912ce021 	add	x1, x1, #0xb38
  4093e8:	aa1303e0 	mov	x0, x19
  4093ec:	97ffe341 	bl	4020f0 <_ZSt16__ostream_insertIcSt11char_traitsIcEERSt13basic_ostreamIT_T0_ES6_PKS3_l@plt>
  4093f0:	f9410a80 	ldr	x0, [x20, #528]
  4093f4:	f85e8000 	ldur	x0, [x0, #-24]
  4093f8:	8b130000 	add	x0, x0, x19
  4093fc:	f9407813 	ldr	x19, [x0, #240]
  409400:	b4000ad3 	cbz	x19, 409558 <_ZN5model5orderEv+0x644>
  409404:	3940e260 	ldrb	w0, [x19, #56]
  409408:	34000ae0 	cbz	w0, 409564 <_ZN5model5orderEv+0x650>
  40940c:	39410e61 	ldrb	w1, [x19, #67]
  409410:	f0000120 	adrp	x0, 430000 <_Znam@GLIBCXX_3.4>
  409414:	91084000 	add	x0, x0, #0x210
  409418:	97ffe2ba 	bl	401f00 <_ZNSo3putEc@plt>
  40941c:	97ffe309 	bl	402040 <_ZNSo5flushEv@plt>
  409420:	f94026a0 	ldr	x0, [x21, #72]
  409424:	f9402aa1 	ldr	x1, [x21, #80]
  409428:	eb01001f 	cmp	x0, x1
  40942c:	54000240 	b.eq	409474 <_ZN5model5orderEv+0x560>  // b.none
  409430:	d2800014 	mov	x20, #0x0                   	// #0
  409434:	d2800013 	mov	x19, #0x0                   	// #0
  409438:	d2917476 	mov	x22, #0x8ba3                	// #35747
  40943c:	f2b745d6 	movk	x22, #0xba2e, lsl #16
  409440:	f2d45d16 	movk	x22, #0xa2e8, lsl #32
  409444:	f2e5d176 	movk	x22, #0x2e8b, lsl #48
  409448:	8b140000 	add	x0, x0, x20
  40944c:	97ffefbd 	bl	405340 <_ZN7segment5orderEv>
  409450:	f94026a0 	ldr	x0, [x21, #72]
  409454:	91000673 	add	x19, x19, #0x1
  409458:	9102c294 	add	x20, x20, #0xb0
  40945c:	f9402aa1 	ldr	x1, [x21, #80]
  409460:	cb000021 	sub	x1, x1, x0
  409464:	9344fc21 	asr	x1, x1, #4
  409468:	9b167c21 	mul	x1, x1, x22
  40946c:	eb13003f 	cmp	x1, x19
  409470:	54fffec8 	b.hi	409448 <_ZN5model5orderEv+0x534>  // b.pmore
  409474:	f0000134 	adrp	x20, 430000 <_Znam@GLIBCXX_3.4>
  409478:	91084293 	add	x19, x20, #0x210
  40947c:	d2800202 	mov	x2, #0x10                  	// #16
  409480:	b0000041 	adrp	x1, 412000 <_Z19MD5Hash_simdversionPKNSt7__cxx1112basic_stringIcSt11char_traitsIcESaIcEEEP12__Uint32x4_t+0x1480>
  409484:	912d2021 	add	x1, x1, #0xb48
  409488:	aa1303e0 	mov	x0, x19
  40948c:	97ffe319 	bl	4020f0 <_ZSt16__ostream_insertIcSt11char_traitsIcEERSt13basic_ostreamIT_T0_ES6_PKS3_l@plt>
  409490:	f9410a80 	ldr	x0, [x20, #528]
  409494:	f85e8000 	ldur	x0, [x0, #-24]
  409498:	8b130000 	add	x0, x0, x19
  40949c:	f9407813 	ldr	x19, [x0, #240]
  4094a0:	b4000753 	cbz	x19, 409588 <_ZN5model5orderEv+0x674>
  4094a4:	3940e260 	ldrb	w0, [x19, #56]
  4094a8:	34000760 	cbz	w0, 409594 <_ZN5model5orderEv+0x680>
  4094ac:	39410e61 	ldrb	w1, [x19, #67]
  4094b0:	f0000120 	adrp	x0, 430000 <_Znam@GLIBCXX_3.4>
  4094b4:	91084000 	add	x0, x0, #0x210
  4094b8:	97ffe292 	bl	401f00 <_ZNSo3putEc@plt>
  4094bc:	97ffe2e1 	bl	402040 <_ZNSo5flushEv@plt>
  4094c0:	f94032a0 	ldr	x0, [x21, #96]
  4094c4:	f94036a1 	ldr	x1, [x21, #104]
  4094c8:	eb00003f 	cmp	x1, x0
  4094cc:	54000240 	b.eq	409514 <_ZN5model5orderEv+0x600>  // b.none
  4094d0:	d2800014 	mov	x20, #0x0                   	// #0
  4094d4:	d2800013 	mov	x19, #0x0                   	// #0
  4094d8:	d2917476 	mov	x22, #0x8ba3                	// #35747
  4094dc:	f2b745d6 	movk	x22, #0xba2e, lsl #16
  4094e0:	f2d45d16 	movk	x22, #0xa2e8, lsl #32
  4094e4:	f2e5d176 	movk	x22, #0x2e8b, lsl #48
  4094e8:	8b140000 	add	x0, x0, x20
  4094ec:	97ffef95 	bl	405340 <_ZN7segment5orderEv>
  4094f0:	f94032a0 	ldr	x0, [x21, #96]
  4094f4:	91000673 	add	x19, x19, #0x1
  4094f8:	9102c294 	add	x20, x20, #0xb0
  4094fc:	f94036a1 	ldr	x1, [x21, #104]
  409500:	cb000021 	sub	x1, x1, x0
  409504:	9344fc21 	asr	x1, x1, #4
  409508:	9b167c21 	mul	x1, x1, x22
  40950c:	eb13003f 	cmp	x1, x19
  409510:	54fffec8 	b.hi	4094e8 <_ZN5model5orderEv+0x5d4>  // b.pmore
  409514:	a94363f7 	ldp	x23, x24, [sp, #48]
  409518:	a94153f3 	ldp	x19, x20, [sp, #16]
  40951c:	a9425bf5 	ldp	x21, x22, [sp, #32]
  409520:	a8d27bfd 	ldp	x29, x30, [sp], #288
  409524:	d65f03c0 	ret
  409528:	a9046bf9 	stp	x25, x26, [sp, #64]
  40952c:	f9002bfb 	str	x27, [sp, #80]
  409530:	97ffe300 	bl	402130 <_ZSt16__throw_bad_castv@plt>
  409534:	aa1303e0 	mov	x0, x19
  409538:	97ffe2f2 	bl	402100 <_ZNKSt5ctypeIcE13_M_widen_initEv@plt>
  40953c:	f9400260 	ldr	x0, [x19]
  409540:	f9401802 	ldr	x2, [x0, #48]
  409544:	52800141 	mov	w1, #0xa                   	// #10
  409548:	aa1303e0 	mov	x0, x19
  40954c:	d63f0040 	blr	x2
  409550:	12001c01 	and	w1, w0, #0xff
  409554:	17ffff87 	b	409370 <_ZN5model5orderEv+0x45c>
  409558:	a9046bf9 	stp	x25, x26, [sp, #64]
  40955c:	f9002bfb 	str	x27, [sp, #80]
  409560:	97ffe2f4 	bl	402130 <_ZSt16__throw_bad_castv@plt>
  409564:	aa1303e0 	mov	x0, x19
  409568:	97ffe2e6 	bl	402100 <_ZNKSt5ctypeIcE13_M_widen_initEv@plt>
  40956c:	f9400260 	ldr	x0, [x19]
  409570:	f9401802 	ldr	x2, [x0, #48]
  409574:	52800141 	mov	w1, #0xa                   	// #10
  409578:	aa1303e0 	mov	x0, x19
  40957c:	d63f0040 	blr	x2
  409580:	12001c01 	and	w1, w0, #0xff
  409584:	17ffffa3 	b	409410 <_ZN5model5orderEv+0x4fc>
  409588:	a9046bf9 	stp	x25, x26, [sp, #64]
  40958c:	f9002bfb 	str	x27, [sp, #80]
  409590:	97ffe2e8 	bl	402130 <_ZSt16__throw_bad_castv@plt>
  409594:	aa1303e0 	mov	x0, x19
  409598:	97ffe2da 	bl	402100 <_ZNKSt5ctypeIcE13_M_widen_initEv@plt>
  40959c:	f9400260 	ldr	x0, [x19]
  4095a0:	f9401802 	ldr	x2, [x0, #48]
  4095a4:	52800141 	mov	w1, #0xa                   	// #10
  4095a8:	aa1303e0 	mov	x0, x19
  4095ac:	d63f0040 	blr	x2
  4095b0:	12001c01 	and	w1, w0, #0xff
  4095b4:	17ffffbf 	b	4094b0 <_ZN5model5orderEv+0x59c>
  4095b8:	aa0003f3 	mov	x19, x0
  4095bc:	910303e0 	add	x0, sp, #0xc0
  4095c0:	94000166 	bl	409b58 <_ZN2PTD1Ev>
  4095c4:	9101a3e0 	add	x0, sp, #0x68
  4095c8:	94000164 	bl	409b58 <_ZN2PTD1Ev>
  4095cc:	aa1303e0 	mov	x0, x19
  4095d0:	97ffe324 	bl	402260 <_Unwind_Resume@plt>
  4095d4:	aa0003f3 	mov	x19, x0
  4095d8:	17fffffb 	b	4095c4 <_ZN5model5orderEv+0x6b0>

00000000004095dc <_GLOBAL__sub_I__ZN5model5trainENSt7__cxx1112basic_stringIcSt11char_traitsIcESaIcEEE>:
  4095dc:	a9be7bfd 	stp	x29, x30, [sp, #-32]!
  4095e0:	910003fd 	mov	x29, sp
  4095e4:	f9000bf3 	str	x19, [sp, #16]
  4095e8:	f0000133 	adrp	x19, 430000 <_Znam@GLIBCXX_3.4>
  4095ec:	910cc273 	add	x19, x19, #0x330
  4095f0:	aa1303e0 	mov	x0, x19
  4095f4:	97ffe2f7 	bl	4021d0 <_ZNSt8ios_base4InitC1Ev@plt>
  4095f8:	f0000122 	adrp	x2, 430000 <_Znam@GLIBCXX_3.4>
  4095fc:	9107e042 	add	x2, x2, #0x1f8
  409600:	aa1303e1 	mov	x1, x19
  409604:	b0ffffc0 	adrp	x0, 402000 <_ZSt20__throw_length_errorPKc@plt>
  409608:	910b0000 	add	x0, x0, #0x2c0
  40960c:	97ffe2b5 	bl	4020e0 <__cxa_atexit@plt>
  409610:	f9400bf3 	ldr	x19, [sp, #16]
  409614:	a8c27bfd 	ldp	x29, x30, [sp], #32
  409618:	d65f03c0 	ret

000000000040961c <_ZNSt12_Vector_baseIiSaIiEED1Ev>:
  40961c:	aa0003e1 	mov	x1, x0
  409620:	f9400000 	ldr	x0, [x0]
  409624:	b4000100 	cbz	x0, 409644 <_ZNSt12_Vector_baseIiSaIiEED1Ev+0x28>
  409628:	a9bf7bfd 	stp	x29, x30, [sp, #-16]!
  40962c:	910003fd 	mov	x29, sp
  409630:	f9400821 	ldr	x1, [x1, #16]
  409634:	cb000021 	sub	x1, x1, x0
  409638:	97ffe2a2 	bl	4020c0 <_ZdlPvm@plt>
  40963c:	a8c17bfd 	ldp	x29, x30, [sp], #16
  409640:	d65f03c0 	ret
  409644:	d65f03c0 	ret

0000000000409648 <_ZNSt10_HashtableIiSt4pairIKiiESaIS2_ENSt8__detail10_Select1stESt8equal_toIiESt4hashIiENS4_18_Mod_range_hashingENS4_20_Default_ranged_hashENS4_20_Prime_rehash_policyENS4_17_Hashtable_traitsILb0ELb0ELb1EEEE5clearEv>:
  409648:	a9bd7bfd 	stp	x29, x30, [sp, #-48]!
  40964c:	910003fd 	mov	x29, sp
  409650:	a90153f3 	stp	x19, x20, [sp, #16]
  409654:	f90013f5 	str	x21, [sp, #32]
  409658:	aa0003f5 	mov	x21, x0
  40965c:	f9400813 	ldr	x19, [x0, #16]
  409660:	b40000f3 	cbz	x19, 40967c <_ZNSt10_HashtableIiSt4pairIKiiESaIS2_ENSt8__detail10_Select1stESt8equal_toIiESt4hashIiENS4_18_Mod_range_hashingENS4_20_Default_ranged_hashENS4_20_Prime_rehash_policyENS4_17_Hashtable_traitsILb0ELb0ELb1EEEE5clearEv+0x34>
  409664:	d2800214 	mov	x20, #0x10                  	// #16
  409668:	aa1303e0 	mov	x0, x19
  40966c:	f9400273 	ldr	x19, [x19]
  409670:	aa1403e1 	mov	x1, x20
  409674:	97ffe293 	bl	4020c0 <_ZdlPvm@plt>
  409678:	b5ffff93 	cbnz	x19, 409668 <_ZNSt10_HashtableIiSt4pairIKiiESaIS2_ENSt8__detail10_Select1stESt8equal_toIiESt4hashIiENS4_18_Mod_range_hashingENS4_20_Default_ranged_hashENS4_20_Prime_rehash_policyENS4_17_Hashtable_traitsILb0ELb0ELb1EEEE5clearEv+0x20>
  40967c:	f94006a2 	ldr	x2, [x21, #8]
  409680:	d37df042 	lsl	x2, x2, #3
  409684:	52800001 	mov	w1, #0x0                   	// #0
  409688:	f94002a0 	ldr	x0, [x21]
  40968c:	97ffe265 	bl	402020 <memset@plt>
  409690:	f9000ebf 	str	xzr, [x21, #24]
  409694:	f9000abf 	str	xzr, [x21, #16]
  409698:	a94153f3 	ldp	x19, x20, [sp, #16]
  40969c:	f94013f5 	ldr	x21, [sp, #32]
  4096a0:	a8c37bfd 	ldp	x29, x30, [sp], #48
  4096a4:	d65f03c0 	ret

00000000004096a8 <_ZNSt6vectorIiSaIiEE17_M_realloc_insertIJRiEEEvN9__gnu_cxx17__normal_iteratorIPiS1_EEDpOT_>:
  4096a8:	a9bb7bfd 	stp	x29, x30, [sp, #-80]!
  4096ac:	910003fd 	mov	x29, sp
  4096b0:	a90153f3 	stp	x19, x20, [sp, #16]
  4096b4:	a9025bf5 	stp	x21, x22, [sp, #32]
  4096b8:	a90363f7 	stp	x23, x24, [sp, #48]
  4096bc:	a9046bf9 	stp	x25, x26, [sp, #64]
  4096c0:	aa0003f4 	mov	x20, x0
  4096c4:	f9400415 	ldr	x21, [x0, #8]
  4096c8:	f9400017 	ldr	x23, [x0]
  4096cc:	cb1702a3 	sub	x3, x21, x23
  4096d0:	9342fc63 	asr	x3, x3, #2
  4096d4:	92fc0000 	mov	x0, #0x1fffffffffffffff    	// #2305843009213693951
  4096d8:	eb00007f 	cmp	x3, x0
  4096dc:	540001c0 	b.eq	409714 <_ZNSt6vectorIiSaIiEE17_M_realloc_insertIJRiEEEvN9__gnu_cxx17__normal_iteratorIPiS1_EEDpOT_+0x6c>  // b.none
  4096e0:	aa0103f6 	mov	x22, x1
  4096e4:	aa0203f8 	mov	x24, x2
  4096e8:	f100007f 	cmp	x3, #0x0
  4096ec:	9a9f1464 	csinc	x4, x3, xzr, ne  // ne = any
  4096f0:	ab030084 	adds	x4, x4, x3
  4096f4:	54000302 	b.cs	409754 <_ZNSt6vectorIiSaIiEE17_M_realloc_insertIJRiEEEvN9__gnu_cxx17__normal_iteratorIPiS1_EEDpOT_+0xac>  // b.hs, b.nlast
  4096f8:	92fc001a 	mov	x26, #0x1fffffffffffffff    	// #2305843009213693951
  4096fc:	eb1a009f 	cmp	x4, x26
  409700:	9a9a909a 	csel	x26, x4, x26, ls  // ls = plast
  409704:	cb170033 	sub	x19, x1, x23
  409708:	d2800019 	mov	x25, #0x0                   	// #0
  40970c:	b40002e4 	cbz	x4, 409768 <_ZNSt6vectorIiSaIiEE17_M_realloc_insertIJRiEEEvN9__gnu_cxx17__normal_iteratorIPiS1_EEDpOT_+0xc0>
  409710:	14000013 	b	40975c <_ZNSt6vectorIiSaIiEE17_M_realloc_insertIJRiEEEvN9__gnu_cxx17__normal_iteratorIPiS1_EEDpOT_+0xb4>
  409714:	b0000040 	adrp	x0, 412000 <_Z19MD5Hash_simdversionPKNSt7__cxx1112basic_stringIcSt11char_traitsIcESaIcEEEP12__Uint32x4_t+0x1480>
  409718:	912d8000 	add	x0, x0, #0xb60
  40971c:	97ffe239 	bl	402000 <_ZSt20__throw_length_errorPKc@plt>
  409720:	aa1303e2 	mov	x2, x19
  409724:	aa1703e1 	mov	x1, x23
  409728:	aa1903e0 	mov	x0, x25
  40972c:	97ffe27d 	bl	402120 <memmove@plt>
  409730:	91001273 	add	x19, x19, #0x4
  409734:	8b130333 	add	x19, x25, x19
  409738:	cb1602b5 	sub	x21, x21, x22
  40973c:	f10002bf 	cmp	x21, #0x0
  409740:	5400026c 	b.gt	40978c <_ZNSt6vectorIiSaIiEE17_M_realloc_insertIJRiEEEvN9__gnu_cxx17__normal_iteratorIPiS1_EEDpOT_+0xe4>
  409744:	8b150273 	add	x19, x19, x21
  409748:	f9400a81 	ldr	x1, [x20, #16]
  40974c:	cb170021 	sub	x1, x1, x23
  409750:	14000017 	b	4097ac <_ZNSt6vectorIiSaIiEE17_M_realloc_insertIJRiEEEvN9__gnu_cxx17__normal_iteratorIPiS1_EEDpOT_+0x104>
  409754:	cb170033 	sub	x19, x1, x23
  409758:	92fc001a 	mov	x26, #0x1fffffffffffffff    	// #2305843009213693951
  40975c:	d37ef740 	lsl	x0, x26, #2
  409760:	97ffe254 	bl	4020b0 <_Znwm@plt>
  409764:	aa0003f9 	mov	x25, x0
  409768:	b9400300 	ldr	w0, [x24]
  40976c:	b8336b20 	str	w0, [x25, x19]
  409770:	f100027f 	cmp	x19, #0x0
  409774:	54fffd6c 	b.gt	409720 <_ZNSt6vectorIiSaIiEE17_M_realloc_insertIJRiEEEvN9__gnu_cxx17__normal_iteratorIPiS1_EEDpOT_+0x78>
  409778:	91001273 	add	x19, x19, #0x4
  40977c:	8b130333 	add	x19, x25, x19
  409780:	cb1602b5 	sub	x21, x21, x22
  409784:	f10002bf 	cmp	x21, #0x0
  409788:	540000ad 	b.le	40979c <_ZNSt6vectorIiSaIiEE17_M_realloc_insertIJRiEEEvN9__gnu_cxx17__normal_iteratorIPiS1_EEDpOT_+0xf4>
  40978c:	aa1503e2 	mov	x2, x21
  409790:	aa1603e1 	mov	x1, x22
  409794:	aa1303e0 	mov	x0, x19
  409798:	97ffe1e2 	bl	401f20 <memcpy@plt>
  40979c:	8b150273 	add	x19, x19, x21
  4097a0:	b40000b7 	cbz	x23, 4097b4 <_ZNSt6vectorIiSaIiEE17_M_realloc_insertIJRiEEEvN9__gnu_cxx17__normal_iteratorIPiS1_EEDpOT_+0x10c>
  4097a4:	f9400a81 	ldr	x1, [x20, #16]
  4097a8:	cb170021 	sub	x1, x1, x23
  4097ac:	aa1703e0 	mov	x0, x23
  4097b0:	97ffe244 	bl	4020c0 <_ZdlPvm@plt>
  4097b4:	f9000299 	str	x25, [x20]
  4097b8:	f9000693 	str	x19, [x20, #8]
  4097bc:	8b1a0b3a 	add	x26, x25, x26, lsl #2
  4097c0:	f9000a9a 	str	x26, [x20, #16]
  4097c4:	a94153f3 	ldp	x19, x20, [sp, #16]
  4097c8:	a9425bf5 	ldp	x21, x22, [sp, #32]
  4097cc:	a94363f7 	ldp	x23, x24, [sp, #48]
  4097d0:	a9446bf9 	ldp	x25, x26, [sp, #64]
  4097d4:	a8c57bfd 	ldp	x29, x30, [sp], #80
  4097d8:	d65f03c0 	ret

00000000004097dc <_ZNSt6vectorIiSaIiEE12emplace_backIJRiEEEvDpOT_>:
  4097dc:	f9400403 	ldr	x3, [x0, #8]
  4097e0:	f9400802 	ldr	x2, [x0, #16]
  4097e4:	eb02007f 	cmp	x3, x2
  4097e8:	540000e0 	b.eq	409804 <_ZNSt6vectorIiSaIiEE12emplace_backIJRiEEEvDpOT_+0x28>  // b.none
  4097ec:	b9400021 	ldr	w1, [x1]
  4097f0:	b9000061 	str	w1, [x3]
  4097f4:	f9400401 	ldr	x1, [x0, #8]
  4097f8:	91001021 	add	x1, x1, #0x4
  4097fc:	f9000401 	str	x1, [x0, #8]
  409800:	d65f03c0 	ret
  409804:	a9bf7bfd 	stp	x29, x30, [sp, #-16]!
  409808:	910003fd 	mov	x29, sp
  40980c:	aa0103e2 	mov	x2, x1
  409810:	aa0303e1 	mov	x1, x3
  409814:	97ffffa5 	bl	4096a8 <_ZNSt6vectorIiSaIiEE17_M_realloc_insertIJRiEEEvN9__gnu_cxx17__normal_iteratorIPiS1_EEDpOT_>
  409818:	a8c17bfd 	ldp	x29, x30, [sp], #16
  40981c:	d65f03c0 	ret

0000000000409820 <_ZNSt6vectorIiSaIiEE17_M_realloc_insertIJiEEEvN9__gnu_cxx17__normal_iteratorIPiS1_EEDpOT_>:
  409820:	a9bb7bfd 	stp	x29, x30, [sp, #-80]!
  409824:	910003fd 	mov	x29, sp
  409828:	a90153f3 	stp	x19, x20, [sp, #16]
  40982c:	a9025bf5 	stp	x21, x22, [sp, #32]
  409830:	a90363f7 	stp	x23, x24, [sp, #48]
  409834:	a9046bf9 	stp	x25, x26, [sp, #64]
  409838:	aa0003f4 	mov	x20, x0
  40983c:	f9400415 	ldr	x21, [x0, #8]
  409840:	f9400017 	ldr	x23, [x0]
  409844:	cb1702a3 	sub	x3, x21, x23
  409848:	9342fc63 	asr	x3, x3, #2
  40984c:	92fc0000 	mov	x0, #0x1fffffffffffffff    	// #2305843009213693951
  409850:	eb00007f 	cmp	x3, x0
  409854:	540001c0 	b.eq	40988c <_ZNSt6vectorIiSaIiEE17_M_realloc_insertIJiEEEvN9__gnu_cxx17__normal_iteratorIPiS1_EEDpOT_+0x6c>  // b.none
  409858:	aa0103f6 	mov	x22, x1
  40985c:	aa0203f8 	mov	x24, x2
  409860:	f100007f 	cmp	x3, #0x0
  409864:	9a9f1464 	csinc	x4, x3, xzr, ne  // ne = any
  409868:	ab030084 	adds	x4, x4, x3
  40986c:	54000302 	b.cs	4098cc <_ZNSt6vectorIiSaIiEE17_M_realloc_insertIJiEEEvN9__gnu_cxx17__normal_iteratorIPiS1_EEDpOT_+0xac>  // b.hs, b.nlast
  409870:	92fc001a 	mov	x26, #0x1fffffffffffffff    	// #2305843009213693951
  409874:	eb1a009f 	cmp	x4, x26
  409878:	9a9a909a 	csel	x26, x4, x26, ls  // ls = plast
  40987c:	cb170033 	sub	x19, x1, x23
  409880:	d2800019 	mov	x25, #0x0                   	// #0
  409884:	b40002e4 	cbz	x4, 4098e0 <_ZNSt6vectorIiSaIiEE17_M_realloc_insertIJiEEEvN9__gnu_cxx17__normal_iteratorIPiS1_EEDpOT_+0xc0>
  409888:	14000013 	b	4098d4 <_ZNSt6vectorIiSaIiEE17_M_realloc_insertIJiEEEvN9__gnu_cxx17__normal_iteratorIPiS1_EEDpOT_+0xb4>
  40988c:	b0000040 	adrp	x0, 412000 <_Z19MD5Hash_simdversionPKNSt7__cxx1112basic_stringIcSt11char_traitsIcESaIcEEEP12__Uint32x4_t+0x1480>
  409890:	912d8000 	add	x0, x0, #0xb60
  409894:	97ffe1db 	bl	402000 <_ZSt20__throw_length_errorPKc@plt>
  409898:	aa1303e2 	mov	x2, x19
  40989c:	aa1703e1 	mov	x1, x23
  4098a0:	aa1903e0 	mov	x0, x25
  4098a4:	97ffe21f 	bl	402120 <memmove@plt>
  4098a8:	91001273 	add	x19, x19, #0x4
  4098ac:	8b130333 	add	x19, x25, x19
  4098b0:	cb1602b5 	sub	x21, x21, x22
  4098b4:	f10002bf 	cmp	x21, #0x0
  4098b8:	5400026c 	b.gt	409904 <_ZNSt6vectorIiSaIiEE17_M_realloc_insertIJiEEEvN9__gnu_cxx17__normal_iteratorIPiS1_EEDpOT_+0xe4>
  4098bc:	8b150273 	add	x19, x19, x21
  4098c0:	f9400a81 	ldr	x1, [x20, #16]
  4098c4:	cb170021 	sub	x1, x1, x23
  4098c8:	14000017 	b	409924 <_ZNSt6vectorIiSaIiEE17_M_realloc_insertIJiEEEvN9__gnu_cxx17__normal_iteratorIPiS1_EEDpOT_+0x104>
  4098cc:	cb170033 	sub	x19, x1, x23
  4098d0:	92fc001a 	mov	x26, #0x1fffffffffffffff    	// #2305843009213693951
  4098d4:	d37ef740 	lsl	x0, x26, #2
  4098d8:	97ffe1f6 	bl	4020b0 <_Znwm@plt>
  4098dc:	aa0003f9 	mov	x25, x0
  4098e0:	b9400300 	ldr	w0, [x24]
  4098e4:	b8336b20 	str	w0, [x25, x19]
  4098e8:	f100027f 	cmp	x19, #0x0
  4098ec:	54fffd6c 	b.gt	409898 <_ZNSt6vectorIiSaIiEE17_M_realloc_insertIJiEEEvN9__gnu_cxx17__normal_iteratorIPiS1_EEDpOT_+0x78>
  4098f0:	91001273 	add	x19, x19, #0x4
  4098f4:	8b130333 	add	x19, x25, x19
  4098f8:	cb1602b5 	sub	x21, x21, x22
  4098fc:	f10002bf 	cmp	x21, #0x0
  409900:	540000ad 	b.le	409914 <_ZNSt6vectorIiSaIiEE17_M_realloc_insertIJiEEEvN9__gnu_cxx17__normal_iteratorIPiS1_EEDpOT_+0xf4>
  409904:	aa1503e2 	mov	x2, x21
  409908:	aa1603e1 	mov	x1, x22
  40990c:	aa1303e0 	mov	x0, x19
  409910:	97ffe184 	bl	401f20 <memcpy@plt>
  409914:	8b150273 	add	x19, x19, x21
  409918:	b40000b7 	cbz	x23, 40992c <_ZNSt6vectorIiSaIiEE17_M_realloc_insertIJiEEEvN9__gnu_cxx17__normal_iteratorIPiS1_EEDpOT_+0x10c>
  40991c:	f9400a81 	ldr	x1, [x20, #16]
  409920:	cb170021 	sub	x1, x1, x23
  409924:	aa1703e0 	mov	x0, x23
  409928:	97ffe1e6 	bl	4020c0 <_ZdlPvm@plt>
  40992c:	f9000299 	str	x25, [x20]
  409930:	f9000693 	str	x19, [x20, #8]
  409934:	8b1a0b3a 	add	x26, x25, x26, lsl #2
  409938:	f9000a9a 	str	x26, [x20, #16]
  40993c:	a94153f3 	ldp	x19, x20, [sp, #16]
  409940:	a9425bf5 	ldp	x21, x22, [sp, #32]
  409944:	a94363f7 	ldp	x23, x24, [sp, #48]
  409948:	a9446bf9 	ldp	x25, x26, [sp, #64]
  40994c:	a8c57bfd 	ldp	x29, x30, [sp], #80
  409950:	d65f03c0 	ret

0000000000409954 <_ZNSt8__detail16_Hashtable_allocISaINS_10_Hash_nodeISt4pairIKNSt7__cxx1112basic_stringIcSt11char_traitsIcESaIcEEEiELb1EEEEE18_M_deallocate_nodeEPSB_>:
  409954:	a9be7bfd 	stp	x29, x30, [sp, #-32]!
  409958:	910003fd 	mov	x29, sp
  40995c:	f9000bf3 	str	x19, [sp, #16]
  409960:	aa0103f3 	mov	x19, x1
  409964:	f9400420 	ldr	x0, [x1, #8]
  409968:	91006021 	add	x1, x1, #0x18
  40996c:	eb01001f 	cmp	x0, x1
  409970:	54000080 	b.eq	409980 <_ZNSt8__detail16_Hashtable_allocISaINS_10_Hash_nodeISt4pairIKNSt7__cxx1112basic_stringIcSt11char_traitsIcESaIcEEEiELb1EEEEE18_M_deallocate_nodeEPSB_+0x2c>  // b.none
  409974:	f9400e61 	ldr	x1, [x19, #24]
  409978:	91000421 	add	x1, x1, #0x1
  40997c:	97ffe1d1 	bl	4020c0 <_ZdlPvm@plt>
  409980:	d2800701 	mov	x1, #0x38                  	// #56
  409984:	aa1303e0 	mov	x0, x19
  409988:	97ffe1ce 	bl	4020c0 <_ZdlPvm@plt>
  40998c:	f9400bf3 	ldr	x19, [sp, #16]
  409990:	a8c27bfd 	ldp	x29, x30, [sp], #32
  409994:	d65f03c0 	ret

0000000000409998 <_ZNSt10_HashtableINSt7__cxx1112basic_stringIcSt11char_traitsIcESaIcEEESt4pairIKS5_iESaIS8_ENSt8__detail10_Select1stESt8equal_toIS5_ESt4hashIS5_ENSA_18_Mod_range_hashingENSA_20_Default_ranged_hashENSA_20_Prime_rehash_policyENSA_17_Hashtable_traitsILb1ELb0ELb1EEEE5clearEv>:
  409998:	a9be7bfd 	stp	x29, x30, [sp, #-32]!
  40999c:	910003fd 	mov	x29, sp
  4099a0:	a90153f3 	stp	x19, x20, [sp, #16]
  4099a4:	aa0003f4 	mov	x20, x0
  4099a8:	f9400813 	ldr	x19, [x0, #16]
  4099ac:	b40000d3 	cbz	x19, 4099c4 <_ZNSt10_HashtableINSt7__cxx1112basic_stringIcSt11char_traitsIcESaIcEEESt4pairIKS5_iESaIS8_ENSt8__detail10_Select1stESt8equal_toIS5_ESt4hashIS5_ENSA_18_Mod_range_hashingENSA_20_Default_ranged_hashENSA_20_Prime_rehash_policyENSA_17_Hashtable_traitsILb1ELb0ELb1EEEE5clearEv+0x2c>
  4099b0:	aa1303e1 	mov	x1, x19
  4099b4:	f9400273 	ldr	x19, [x19]
  4099b8:	aa1403e0 	mov	x0, x20
  4099bc:	97ffffe6 	bl	409954 <_ZNSt8__detail16_Hashtable_allocISaINS_10_Hash_nodeISt4pairIKNSt7__cxx1112basic_stringIcSt11char_traitsIcESaIcEEEiELb1EEEEE18_M_deallocate_nodeEPSB_>
  4099c0:	b5ffff93 	cbnz	x19, 4099b0 <_ZNSt10_HashtableINSt7__cxx1112basic_stringIcSt11char_traitsIcESaIcEEESt4pairIKS5_iESaIS8_ENSt8__detail10_Select1stESt8equal_toIS5_ESt4hashIS5_ENSA_18_Mod_range_hashingENSA_20_Default_ranged_hashENSA_20_Prime_rehash_policyENSA_17_Hashtable_traitsILb1ELb0ELb1EEEE5clearEv+0x18>
  4099c4:	f9400682 	ldr	x2, [x20, #8]
  4099c8:	d37df042 	lsl	x2, x2, #3
  4099cc:	52800001 	mov	w1, #0x0                   	// #0
  4099d0:	f9400280 	ldr	x0, [x20]
  4099d4:	97ffe193 	bl	402020 <memset@plt>
  4099d8:	f9000e9f 	str	xzr, [x20, #24]
  4099dc:	f9000a9f 	str	xzr, [x20, #16]
  4099e0:	a94153f3 	ldp	x19, x20, [sp, #16]
  4099e4:	a8c27bfd 	ldp	x29, x30, [sp], #32
  4099e8:	d65f03c0 	ret

00000000004099ec <_ZN7segmentD1Ev>:
  4099ec:	a9bd7bfd 	stp	x29, x30, [sp, #-48]!
  4099f0:	910003fd 	mov	x29, sp
  4099f4:	a90153f3 	stp	x19, x20, [sp, #16]
  4099f8:	f90013f5 	str	x21, [sp, #32]
  4099fc:	aa0003f5 	mov	x21, x0
  409a00:	9101e000 	add	x0, x0, #0x78
  409a04:	97ffe79e 	bl	40387c <_ZNSt10_HashtableIiSt4pairIKiiESaIS2_ENSt8__detail10_Select1stESt8equal_toIiESt4hashIiENS4_18_Mod_range_hashingENS4_20_Default_ranged_hashENS4_20_Prime_rehash_policyENS4_17_Hashtable_traitsILb0ELb0ELb1EEEED1Ev>
  409a08:	910102a0 	add	x0, x21, #0x40
  409a0c:	97ffe773 	bl	4037d8 <_ZNSt10_HashtableINSt7__cxx1112basic_stringIcSt11char_traitsIcESaIcEEESt4pairIKS5_iESaIS8_ENSt8__detail10_Select1stESt8equal_toIS5_ESt4hashIS5_ENSA_18_Mod_range_hashingENSA_20_Default_ranged_hashENSA_20_Prime_rehash_policyENSA_17_Hashtable_traitsILb1ELb0ELb1EEEED1Ev>
  409a10:	f94012a0 	ldr	x0, [x21, #32]
  409a14:	b4000080 	cbz	x0, 409a24 <_ZN7segmentD1Ev+0x38>
  409a18:	f9401aa1 	ldr	x1, [x21, #48]
  409a1c:	cb000021 	sub	x1, x1, x0
  409a20:	97ffe1a8 	bl	4020c0 <_ZdlPvm@plt>
  409a24:	f94006b3 	ldr	x19, [x21, #8]
  409a28:	f9400ab4 	ldr	x20, [x21, #16]
  409a2c:	eb14027f 	cmp	x19, x20
  409a30:	540001a1 	b.ne	409a64 <_ZN7segmentD1Ev+0x78>  // b.any
  409a34:	f94006a0 	ldr	x0, [x21, #8]
  409a38:	b4000080 	cbz	x0, 409a48 <_ZN7segmentD1Ev+0x5c>
  409a3c:	f9400ea1 	ldr	x1, [x21, #24]
  409a40:	cb000021 	sub	x1, x1, x0
  409a44:	97ffe19f 	bl	4020c0 <_ZdlPvm@plt>
  409a48:	a94153f3 	ldp	x19, x20, [sp, #16]
  409a4c:	f94013f5 	ldr	x21, [sp, #32]
  409a50:	a8c37bfd 	ldp	x29, x30, [sp], #48
  409a54:	d65f03c0 	ret
  409a58:	91008273 	add	x19, x19, #0x20
  409a5c:	eb13029f 	cmp	x20, x19
  409a60:	54fffea0 	b.eq	409a34 <_ZN7segmentD1Ev+0x48>  // b.none
  409a64:	aa1303e1 	mov	x1, x19
  409a68:	f8410420 	ldr	x0, [x1], #16
  409a6c:	eb01001f 	cmp	x0, x1
  409a70:	54ffff40 	b.eq	409a58 <_ZN7segmentD1Ev+0x6c>  // b.none
  409a74:	f9400a61 	ldr	x1, [x19, #16]
  409a78:	91000421 	add	x1, x1, #0x1
  409a7c:	97ffe191 	bl	4020c0 <_ZdlPvm@plt>
  409a80:	17fffff6 	b	409a58 <_ZN7segmentD1Ev+0x6c>

0000000000409a84 <_ZNSt6vectorI7segmentSaIS0_EED1Ev>:
  409a84:	a9bc7bfd 	stp	x29, x30, [sp, #-64]!
  409a88:	910003fd 	mov	x29, sp
  409a8c:	a90153f3 	stp	x19, x20, [sp, #16]
  409a90:	a9025bf5 	stp	x21, x22, [sp, #32]
  409a94:	f9001bf7 	str	x23, [sp, #48]
  409a98:	aa0003f7 	mov	x23, x0
  409a9c:	f9400014 	ldr	x20, [x0]
  409aa0:	f9400416 	ldr	x22, [x0, #8]
  409aa4:	eb16029f 	cmp	x20, x22
  409aa8:	540003c1 	b.ne	409b20 <_ZNSt6vectorI7segmentSaIS0_EED1Ev+0x9c>  // b.any
  409aac:	f94002e0 	ldr	x0, [x23]
  409ab0:	b4000080 	cbz	x0, 409ac0 <_ZNSt6vectorI7segmentSaIS0_EED1Ev+0x3c>
  409ab4:	f9400ae1 	ldr	x1, [x23, #16]
  409ab8:	cb000021 	sub	x1, x1, x0
  409abc:	97ffe181 	bl	4020c0 <_ZdlPvm@plt>
  409ac0:	a94153f3 	ldp	x19, x20, [sp, #16]
  409ac4:	a9425bf5 	ldp	x21, x22, [sp, #32]
  409ac8:	f9401bf7 	ldr	x23, [sp, #48]
  409acc:	a8c47bfd 	ldp	x29, x30, [sp], #64
  409ad0:	d65f03c0 	ret
  409ad4:	91008273 	add	x19, x19, #0x20
  409ad8:	eb1302bf 	cmp	x21, x19
  409adc:	54000120 	b.eq	409b00 <_ZNSt6vectorI7segmentSaIS0_EED1Ev+0x7c>  // b.none
  409ae0:	aa1303e1 	mov	x1, x19
  409ae4:	f8410420 	ldr	x0, [x1], #16
  409ae8:	eb01001f 	cmp	x0, x1
  409aec:	54ffff40 	b.eq	409ad4 <_ZNSt6vectorI7segmentSaIS0_EED1Ev+0x50>  // b.none
  409af0:	f9400a61 	ldr	x1, [x19, #16]
  409af4:	91000421 	add	x1, x1, #0x1
  409af8:	97ffe172 	bl	4020c0 <_ZdlPvm@plt>
  409afc:	17fffff6 	b	409ad4 <_ZNSt6vectorI7segmentSaIS0_EED1Ev+0x50>
  409b00:	f9400680 	ldr	x0, [x20, #8]
  409b04:	b4000080 	cbz	x0, 409b14 <_ZNSt6vectorI7segmentSaIS0_EED1Ev+0x90>
  409b08:	f9400e81 	ldr	x1, [x20, #24]
  409b0c:	cb000021 	sub	x1, x1, x0
  409b10:	97ffe16c 	bl	4020c0 <_ZdlPvm@plt>
  409b14:	9102c294 	add	x20, x20, #0xb0
  409b18:	eb1402df 	cmp	x22, x20
  409b1c:	54fffc80 	b.eq	409aac <_ZNSt6vectorI7segmentSaIS0_EED1Ev+0x28>  // b.none
  409b20:	9101e280 	add	x0, x20, #0x78
  409b24:	97ffe756 	bl	40387c <_ZNSt10_HashtableIiSt4pairIKiiESaIS2_ENSt8__detail10_Select1stESt8equal_toIiESt4hashIiENS4_18_Mod_range_hashingENS4_20_Default_ranged_hashENS4_20_Prime_rehash_policyENS4_17_Hashtable_traitsILb0ELb0ELb1EEEED1Ev>
  409b28:	91010280 	add	x0, x20, #0x40
  409b2c:	97ffe72b 	bl	4037d8 <_ZNSt10_HashtableINSt7__cxx1112basic_stringIcSt11char_traitsIcESaIcEEESt4pairIKS5_iESaIS8_ENSt8__detail10_Select1stESt8equal_toIS5_ESt4hashIS5_ENSA_18_Mod_range_hashingENSA_20_Default_ranged_hashENSA_20_Prime_rehash_policyENSA_17_Hashtable_traitsILb1ELb0ELb1EEEED1Ev>
  409b30:	f9401280 	ldr	x0, [x20, #32]
  409b34:	b4000080 	cbz	x0, 409b44 <_ZNSt6vectorI7segmentSaIS0_EED1Ev+0xc0>
  409b38:	f9401a81 	ldr	x1, [x20, #48]
  409b3c:	cb000021 	sub	x1, x1, x0
  409b40:	97ffe160 	bl	4020c0 <_ZdlPvm@plt>
  409b44:	f9400693 	ldr	x19, [x20, #8]
  409b48:	f9400a95 	ldr	x21, [x20, #16]
  409b4c:	eb15027f 	cmp	x19, x21
  409b50:	54fffc81 	b.ne	409ae0 <_ZNSt6vectorI7segmentSaIS0_EED1Ev+0x5c>  // b.any
  409b54:	17ffffeb 	b	409b00 <_ZNSt6vectorI7segmentSaIS0_EED1Ev+0x7c>

0000000000409b58 <_ZN2PTD1Ev>:
  409b58:	a9bc7bfd 	stp	x29, x30, [sp, #-64]!
  409b5c:	910003fd 	mov	x29, sp
  409b60:	a90153f3 	stp	x19, x20, [sp, #16]
  409b64:	a9025bf5 	stp	x21, x22, [sp, #32]
  409b68:	f9001bf7 	str	x23, [sp, #48]
  409b6c:	aa0003f7 	mov	x23, x0
  409b70:	f9401c00 	ldr	x0, [x0, #56]
  409b74:	b4000080 	cbz	x0, 409b84 <_ZN2PTD1Ev+0x2c>
  409b78:	f94026e1 	ldr	x1, [x23, #72]
  409b7c:	cb000021 	sub	x1, x1, x0
  409b80:	97ffe150 	bl	4020c0 <_ZdlPvm@plt>
  409b84:	f94012e0 	ldr	x0, [x23, #32]
  409b88:	b4000080 	cbz	x0, 409b98 <_ZN2PTD1Ev+0x40>
  409b8c:	f9401ae1 	ldr	x1, [x23, #48]
  409b90:	cb000021 	sub	x1, x1, x0
  409b94:	97ffe14b 	bl	4020c0 <_ZdlPvm@plt>
  409b98:	f94002f4 	ldr	x20, [x23]
  409b9c:	f94006f6 	ldr	x22, [x23, #8]
  409ba0:	eb16029f 	cmp	x20, x22
  409ba4:	540003c1 	b.ne	409c1c <_ZN2PTD1Ev+0xc4>  // b.any
  409ba8:	f94002e0 	ldr	x0, [x23]
  409bac:	b4000080 	cbz	x0, 409bbc <_ZN2PTD1Ev+0x64>
  409bb0:	f9400ae1 	ldr	x1, [x23, #16]
  409bb4:	cb000021 	sub	x1, x1, x0
  409bb8:	97ffe142 	bl	4020c0 <_ZdlPvm@plt>
  409bbc:	a94153f3 	ldp	x19, x20, [sp, #16]
  409bc0:	a9425bf5 	ldp	x21, x22, [sp, #32]
  409bc4:	f9401bf7 	ldr	x23, [sp, #48]
  409bc8:	a8c47bfd 	ldp	x29, x30, [sp], #64
  409bcc:	d65f03c0 	ret
  409bd0:	91008273 	add	x19, x19, #0x20
  409bd4:	eb1302bf 	cmp	x21, x19
  409bd8:	54000120 	b.eq	409bfc <_ZN2PTD1Ev+0xa4>  // b.none
  409bdc:	aa1303e1 	mov	x1, x19
  409be0:	f8410420 	ldr	x0, [x1], #16
  409be4:	eb01001f 	cmp	x0, x1
  409be8:	54ffff40 	b.eq	409bd0 <_ZN2PTD1Ev+0x78>  // b.none
  409bec:	f9400a61 	ldr	x1, [x19, #16]
  409bf0:	91000421 	add	x1, x1, #0x1
  409bf4:	97ffe133 	bl	4020c0 <_ZdlPvm@plt>
  409bf8:	17fffff6 	b	409bd0 <_ZN2PTD1Ev+0x78>
  409bfc:	f9400680 	ldr	x0, [x20, #8]
  409c00:	b4000080 	cbz	x0, 409c10 <_ZN2PTD1Ev+0xb8>
  409c04:	f9400e81 	ldr	x1, [x20, #24]
  409c08:	cb000021 	sub	x1, x1, x0
  409c0c:	97ffe12d 	bl	4020c0 <_ZdlPvm@plt>
  409c10:	9102c294 	add	x20, x20, #0xb0
  409c14:	eb1402df 	cmp	x22, x20
  409c18:	54fffc80 	b.eq	409ba8 <_ZN2PTD1Ev+0x50>  // b.none
  409c1c:	9101e280 	add	x0, x20, #0x78
  409c20:	97ffe717 	bl	40387c <_ZNSt10_HashtableIiSt4pairIKiiESaIS2_ENSt8__detail10_Select1stESt8equal_toIiESt4hashIiENS4_18_Mod_range_hashingENS4_20_Default_ranged_hashENS4_20_Prime_rehash_policyENS4_17_Hashtable_traitsILb0ELb0ELb1EEEED1Ev>
  409c24:	91010280 	add	x0, x20, #0x40
  409c28:	97ffe6ec 	bl	4037d8 <_ZNSt10_HashtableINSt7__cxx1112basic_stringIcSt11char_traitsIcESaIcEEESt4pairIKS5_iESaIS8_ENSt8__detail10_Select1stESt8equal_toIS5_ESt4hashIS5_ENSA_18_Mod_range_hashingENSA_20_Default_ranged_hashENSA_20_Prime_rehash_policyENSA_17_Hashtable_traitsILb1ELb0ELb1EEEED1Ev>
  409c2c:	f9401280 	ldr	x0, [x20, #32]
  409c30:	b4000080 	cbz	x0, 409c40 <_ZN2PTD1Ev+0xe8>
  409c34:	f9401a81 	ldr	x1, [x20, #48]
  409c38:	cb000021 	sub	x1, x1, x0
  409c3c:	97ffe121 	bl	4020c0 <_ZdlPvm@plt>
  409c40:	f9400693 	ldr	x19, [x20, #8]
  409c44:	f9400a95 	ldr	x21, [x20, #16]
  409c48:	eb15027f 	cmp	x19, x21
  409c4c:	54fffc81 	b.ne	409bdc <_ZN2PTD1Ev+0x84>  // b.any
  409c50:	17ffffeb 	b	409bfc <_ZN2PTD1Ev+0xa4>

0000000000409c54 <_ZNSt7__cxx1112basic_stringIcSt11char_traitsIcESaIcEE12_M_constructIPcEEvT_S7_St20forward_iterator_tag>:
  409c54:	a9bc7bfd 	stp	x29, x30, [sp, #-64]!
  409c58:	910003fd 	mov	x29, sp
  409c5c:	a90153f3 	stp	x19, x20, [sp, #16]
  409c60:	f90013f5 	str	x21, [sp, #32]
  409c64:	f100003f 	cmp	x1, #0x0
  409c68:	fa420024 	ccmp	x1, x2, #0x4, eq  // eq = none
  409c6c:	54000281 	b.ne	409cbc <_ZNSt7__cxx1112basic_stringIcSt11char_traitsIcESaIcEE12_M_constructIPcEEvT_S7_St20forward_iterator_tag+0x68>  // b.any
  409c70:	aa0003f4 	mov	x20, x0
  409c74:	aa0103f5 	mov	x21, x1
  409c78:	cb010053 	sub	x19, x2, x1
  409c7c:	f9001ff3 	str	x19, [sp, #56]
  409c80:	f1003e7f 	cmp	x19, #0xf
  409c84:	54000228 	b.hi	409cc8 <_ZNSt7__cxx1112basic_stringIcSt11char_traitsIcESaIcEE12_M_constructIPcEEvT_S7_St20forward_iterator_tag+0x74>  // b.pmore
  409c88:	f9400000 	ldr	x0, [x0]
  409c8c:	f100067f 	cmp	x19, #0x1
  409c90:	54000301 	b.ne	409cf0 <_ZNSt7__cxx1112basic_stringIcSt11char_traitsIcESaIcEE12_M_constructIPcEEvT_S7_St20forward_iterator_tag+0x9c>  // b.any
  409c94:	39400021 	ldrb	w1, [x1]
  409c98:	39000001 	strb	w1, [x0]
  409c9c:	f9401fe0 	ldr	x0, [sp, #56]
  409ca0:	f9000680 	str	x0, [x20, #8]
  409ca4:	f9400281 	ldr	x1, [x20]
  409ca8:	3820683f 	strb	wzr, [x1, x0]
  409cac:	a94153f3 	ldp	x19, x20, [sp, #16]
  409cb0:	f94013f5 	ldr	x21, [sp, #32]
  409cb4:	a8c47bfd 	ldp	x29, x30, [sp], #64
  409cb8:	d65f03c0 	ret
  409cbc:	b0000040 	adrp	x0, 412000 <_Z19MD5Hash_simdversionPKNSt7__cxx1112basic_stringIcSt11char_traitsIcESaIcEEEP12__Uint32x4_t+0x1480>
  409cc0:	911b8000 	add	x0, x0, #0x6e0
  409cc4:	97ffe0e3 	bl	402050 <_ZSt19__throw_logic_errorPKc@plt>
  409cc8:	d2800002 	mov	x2, #0x0                   	// #0
  409ccc:	9100e3e1 	add	x1, sp, #0x38
  409cd0:	97ffe168 	bl	402270 <_ZNSt7__cxx1112basic_stringIcSt11char_traitsIcESaIcEE9_M_createERmm@plt>
  409cd4:	f9000280 	str	x0, [x20]
  409cd8:	f9401fe1 	ldr	x1, [sp, #56]
  409cdc:	f9000a81 	str	x1, [x20, #16]
  409ce0:	aa1303e2 	mov	x2, x19
  409ce4:	aa1503e1 	mov	x1, x21
  409ce8:	97ffe08e 	bl	401f20 <memcpy@plt>
  409cec:	17ffffec 	b	409c9c <_ZNSt7__cxx1112basic_stringIcSt11char_traitsIcESaIcEE12_M_constructIPcEEvT_S7_St20forward_iterator_tag+0x48>
  409cf0:	b4fffd73 	cbz	x19, 409c9c <_ZNSt7__cxx1112basic_stringIcSt11char_traitsIcESaIcEE12_M_constructIPcEEvT_S7_St20forward_iterator_tag+0x48>
  409cf4:	17fffffb 	b	409ce0 <_ZNSt7__cxx1112basic_stringIcSt11char_traitsIcESaIcEE12_M_constructIPcEEvT_S7_St20forward_iterator_tag+0x8c>

0000000000409cf8 <_ZNSt6vectorINSt7__cxx1112basic_stringIcSt11char_traitsIcESaIcEEESaIS5_EE17_M_realloc_insertIJRS5_EEEvN9__gnu_cxx17__normal_iteratorIPS5_S7_EEDpOT_>:
  409cf8:	a9ba7bfd 	stp	x29, x30, [sp, #-96]!
  409cfc:	910003fd 	mov	x29, sp
  409d00:	a90153f3 	stp	x19, x20, [sp, #16]
  409d04:	a9025bf5 	stp	x21, x22, [sp, #32]
  409d08:	a90363f7 	stp	x23, x24, [sp, #48]
  409d0c:	a9046bf9 	stp	x25, x26, [sp, #64]
  409d10:	a90573fb 	stp	x27, x28, [sp, #80]
  409d14:	aa0003f5 	mov	x21, x0
  409d18:	aa0103f9 	mov	x25, x1
  409d1c:	aa0103f3 	mov	x19, x1
  409d20:	f9400414 	ldr	x20, [x0, #8]
  409d24:	f9400017 	ldr	x23, [x0]
  409d28:	cb170280 	sub	x0, x20, x23
  409d2c:	9345fc00 	asr	x0, x0, #5
  409d30:	92ff8001 	mov	x1, #0x3ffffffffffffff     	// #288230376151711743
  409d34:	eb01001f 	cmp	x0, x1
  409d38:	540001a0 	b.eq	409d6c <_ZNSt6vectorINSt7__cxx1112basic_stringIcSt11char_traitsIcESaIcEEESaIS5_EE17_M_realloc_insertIJRS5_EEEvN9__gnu_cxx17__normal_iteratorIPS5_S7_EEDpOT_+0x74>  // b.none
  409d3c:	aa0203fa 	mov	x26, x2
  409d40:	f100001f 	cmp	x0, #0x0
  409d44:	9a9f1401 	csinc	x1, x0, xzr, ne  // ne = any
  409d48:	ab000021 	adds	x1, x1, x0
  409d4c:	54000b82 	b.cs	409ebc <_ZNSt6vectorINSt7__cxx1112basic_stringIcSt11char_traitsIcESaIcEEESaIS5_EE17_M_realloc_insertIJRS5_EEEvN9__gnu_cxx17__normal_iteratorIPS5_S7_EEDpOT_+0x1c4>  // b.hs, b.nlast
  409d50:	92ff8018 	mov	x24, #0x3ffffffffffffff     	// #288230376151711743
  409d54:	eb18003f 	cmp	x1, x24
  409d58:	9a989038 	csel	x24, x1, x24, ls  // ls = plast
  409d5c:	cb17033b 	sub	x27, x25, x23
  409d60:	d2800016 	mov	x22, #0x0                   	// #0
  409d64:	b4000b61 	cbz	x1, 409ed0 <_ZNSt6vectorINSt7__cxx1112basic_stringIcSt11char_traitsIcESaIcEEESaIS5_EE17_M_realloc_insertIJRS5_EEEvN9__gnu_cxx17__normal_iteratorIPS5_S7_EEDpOT_+0x1d8>
  409d68:	14000057 	b	409ec4 <_ZNSt6vectorINSt7__cxx1112basic_stringIcSt11char_traitsIcESaIcEEESaIS5_EE17_M_realloc_insertIJRS5_EEEvN9__gnu_cxx17__normal_iteratorIPS5_S7_EEDpOT_+0x1cc>
  409d6c:	b0000040 	adrp	x0, 412000 <_Z19MD5Hash_simdversionPKNSt7__cxx1112basic_stringIcSt11char_traitsIcESaIcEEEP12__Uint32x4_t+0x1480>
  409d70:	912d8000 	add	x0, x0, #0xb60
  409d74:	97ffe0a3 	bl	402000 <_ZSt20__throw_length_errorPKc@plt>
  409d78:	eb17033f 	cmp	x25, x23
  409d7c:	540003c0 	b.eq	409df4 <_ZNSt6vectorINSt7__cxx1112basic_stringIcSt11char_traitsIcESaIcEEESaIS5_EE17_M_realloc_insertIJRS5_EEEvN9__gnu_cxx17__normal_iteratorIPS5_S7_EEDpOT_+0xfc>  // b.none
  409d80:	cb17033a 	sub	x26, x25, x23
  409d84:	aa1603e2 	mov	x2, x22
  409d88:	aa1703e3 	mov	x3, x23
  409d8c:	1400000a 	b	409db4 <_ZNSt6vectorINSt7__cxx1112basic_stringIcSt11char_traitsIcESaIcEEESaIS5_EE17_M_realloc_insertIJRS5_EEEvN9__gnu_cxx17__normal_iteratorIPS5_S7_EEDpOT_+0xbc>
  409d90:	f9000041 	str	x1, [x2]
  409d94:	f9400860 	ldr	x0, [x3, #16]
  409d98:	f9000840 	str	x0, [x2, #16]
  409d9c:	f9400460 	ldr	x0, [x3, #8]
  409da0:	f9000440 	str	x0, [x2, #8]
  409da4:	91008063 	add	x3, x3, #0x20
  409da8:	91008042 	add	x2, x2, #0x20
  409dac:	eb13007f 	cmp	x3, x19
  409db0:	54000140 	b.eq	409dd8 <_ZNSt6vectorINSt7__cxx1112basic_stringIcSt11char_traitsIcESaIcEEESaIS5_EE17_M_realloc_insertIJRS5_EEEvN9__gnu_cxx17__normal_iteratorIPS5_S7_EEDpOT_+0xe0>  // b.none
  409db4:	91004040 	add	x0, x2, #0x10
  409db8:	f9000040 	str	x0, [x2]
  409dbc:	aa0303e0 	mov	x0, x3
  409dc0:	f8410401 	ldr	x1, [x0], #16
  409dc4:	eb00003f 	cmp	x1, x0
  409dc8:	54fffe41 	b.ne	409d90 <_ZNSt6vectorINSt7__cxx1112basic_stringIcSt11char_traitsIcESaIcEEESaIS5_EE17_M_realloc_insertIJRS5_EEEvN9__gnu_cxx17__normal_iteratorIPS5_S7_EEDpOT_+0x98>  // b.any
  409dcc:	a9410460 	ldp	x0, x1, [x3, #16]
  409dd0:	a9010440 	stp	x0, x1, [x2, #16]
  409dd4:	17fffff2 	b	409d9c <_ZNSt6vectorINSt7__cxx1112basic_stringIcSt11char_traitsIcESaIcEEESaIS5_EE17_M_realloc_insertIJRS5_EEEvN9__gnu_cxx17__normal_iteratorIPS5_S7_EEDpOT_+0xa4>
  409dd8:	8b1a02da 	add	x26, x22, x26
  409ddc:	9100835a 	add	x26, x26, #0x20
  409de0:	eb14033f 	cmp	x25, x20
  409de4:	54000320 	b.eq	409e48 <_ZNSt6vectorINSt7__cxx1112basic_stringIcSt11char_traitsIcESaIcEEESaIS5_EE17_M_realloc_insertIJRS5_EEEvN9__gnu_cxx17__normal_iteratorIPS5_S7_EEDpOT_+0x150>  // b.none
  409de8:	cb190299 	sub	x25, x20, x25
  409dec:	aa1a03e2 	mov	x2, x26
  409df0:	1400000b 	b	409e1c <_ZNSt6vectorINSt7__cxx1112basic_stringIcSt11char_traitsIcESaIcEEESaIS5_EE17_M_realloc_insertIJRS5_EEEvN9__gnu_cxx17__normal_iteratorIPS5_S7_EEDpOT_+0x124>
  409df4:	aa1603fa 	mov	x26, x22
  409df8:	17fffff9 	b	409ddc <_ZNSt6vectorINSt7__cxx1112basic_stringIcSt11char_traitsIcESaIcEEESaIS5_EE17_M_realloc_insertIJRS5_EEEvN9__gnu_cxx17__normal_iteratorIPS5_S7_EEDpOT_+0xe4>
  409dfc:	a9410660 	ldp	x0, x1, [x19, #16]
  409e00:	a9010440 	stp	x0, x1, [x2, #16]
  409e04:	f9400660 	ldr	x0, [x19, #8]
  409e08:	f9000440 	str	x0, [x2, #8]
  409e0c:	91008273 	add	x19, x19, #0x20
  409e10:	91008042 	add	x2, x2, #0x20
  409e14:	eb14027f 	cmp	x19, x20
  409e18:	54000160 	b.eq	409e44 <_ZNSt6vectorINSt7__cxx1112basic_stringIcSt11char_traitsIcESaIcEEESaIS5_EE17_M_realloc_insertIJRS5_EEEvN9__gnu_cxx17__normal_iteratorIPS5_S7_EEDpOT_+0x14c>  // b.none
  409e1c:	91004040 	add	x0, x2, #0x10
  409e20:	f9000040 	str	x0, [x2]
  409e24:	aa1303e3 	mov	x3, x19
  409e28:	f8410460 	ldr	x0, [x3], #16
  409e2c:	eb03001f 	cmp	x0, x3
  409e30:	54fffe60 	b.eq	409dfc <_ZNSt6vectorINSt7__cxx1112basic_stringIcSt11char_traitsIcESaIcEEESaIS5_EE17_M_realloc_insertIJRS5_EEEvN9__gnu_cxx17__normal_iteratorIPS5_S7_EEDpOT_+0x104>  // b.none
  409e34:	f9000040 	str	x0, [x2]
  409e38:	f9400a60 	ldr	x0, [x19, #16]
  409e3c:	f9000840 	str	x0, [x2, #16]
  409e40:	17fffff1 	b	409e04 <_ZNSt6vectorINSt7__cxx1112basic_stringIcSt11char_traitsIcESaIcEEESaIS5_EE17_M_realloc_insertIJRS5_EEEvN9__gnu_cxx17__normal_iteratorIPS5_S7_EEDpOT_+0x10c>
  409e44:	8b19035a 	add	x26, x26, x25
  409e48:	b40000b7 	cbz	x23, 409e5c <_ZNSt6vectorINSt7__cxx1112basic_stringIcSt11char_traitsIcESaIcEEESaIS5_EE17_M_realloc_insertIJRS5_EEEvN9__gnu_cxx17__normal_iteratorIPS5_S7_EEDpOT_+0x164>
  409e4c:	f9400aa1 	ldr	x1, [x21, #16]
  409e50:	cb170021 	sub	x1, x1, x23
  409e54:	aa1703e0 	mov	x0, x23
  409e58:	97ffe09a 	bl	4020c0 <_ZdlPvm@plt>
  409e5c:	f90002b6 	str	x22, [x21]
  409e60:	f90006ba 	str	x26, [x21, #8]
  409e64:	8b1816d8 	add	x24, x22, x24, lsl #5
  409e68:	f9000ab8 	str	x24, [x21, #16]
  409e6c:	a94153f3 	ldp	x19, x20, [sp, #16]
  409e70:	a9425bf5 	ldp	x21, x22, [sp, #32]
  409e74:	a94363f7 	ldp	x23, x24, [sp, #48]
  409e78:	a9446bf9 	ldp	x25, x26, [sp, #64]
  409e7c:	a94573fb 	ldp	x27, x28, [sp, #80]
  409e80:	a8c67bfd 	ldp	x29, x30, [sp], #96
  409e84:	d65f03c0 	ret
  409e88:	97ffe052 	bl	401fd0 <__cxa_begin_catch@plt>
  409e8c:	b5000116 	cbnz	x22, 409eac <_ZNSt6vectorINSt7__cxx1112basic_stringIcSt11char_traitsIcESaIcEEESaIS5_EE17_M_realloc_insertIJRS5_EEEvN9__gnu_cxx17__normal_iteratorIPS5_S7_EEDpOT_+0x1b4>
  409e90:	aa1c03e0 	mov	x0, x28
  409e94:	97ffe09f 	bl	402110 <_ZNSt7__cxx1112basic_stringIcSt11char_traitsIcESaIcEE10_M_disposeEv@plt>
  409e98:	97ffe0ca 	bl	4021c0 <__cxa_rethrow@plt>
  409e9c:	aa0003f3 	mov	x19, x0
  409ea0:	97ffe0e0 	bl	402220 <__cxa_end_catch@plt>
  409ea4:	aa1303e0 	mov	x0, x19
  409ea8:	97ffe0ee 	bl	402260 <_Unwind_Resume@plt>
  409eac:	d37beb01 	lsl	x1, x24, #5
  409eb0:	aa1603e0 	mov	x0, x22
  409eb4:	97ffe083 	bl	4020c0 <_ZdlPvm@plt>
  409eb8:	17fffff8 	b	409e98 <_ZNSt6vectorINSt7__cxx1112basic_stringIcSt11char_traitsIcESaIcEEESaIS5_EE17_M_realloc_insertIJRS5_EEEvN9__gnu_cxx17__normal_iteratorIPS5_S7_EEDpOT_+0x1a0>
  409ebc:	cb17033b 	sub	x27, x25, x23
  409ec0:	92ff8018 	mov	x24, #0x3ffffffffffffff     	// #288230376151711743
  409ec4:	d37beb00 	lsl	x0, x24, #5
  409ec8:	97ffe07a 	bl	4020b0 <_Znwm@plt>
  409ecc:	aa0003f6 	mov	x22, x0
  409ed0:	8b1b02dc 	add	x28, x22, x27
  409ed4:	91004380 	add	x0, x28, #0x10
  409ed8:	f83b6ac0 	str	x0, [x22, x27]
  409edc:	f9400341 	ldr	x1, [x26]
  409ee0:	f9400742 	ldr	x2, [x26, #8]
  409ee4:	52800003 	mov	w3, #0x0                   	// #0
  409ee8:	8b020022 	add	x2, x1, x2
  409eec:	aa1c03e0 	mov	x0, x28
  409ef0:	97ffff59 	bl	409c54 <_ZNSt7__cxx1112basic_stringIcSt11char_traitsIcESaIcEE12_M_constructIPcEEvT_S7_St20forward_iterator_tag>
  409ef4:	17ffffa1 	b	409d78 <_ZNSt6vectorINSt7__cxx1112basic_stringIcSt11char_traitsIcESaIcEEESaIS5_EE17_M_realloc_insertIJRS5_EEEvN9__gnu_cxx17__normal_iteratorIPS5_S7_EEDpOT_+0x80>

0000000000409ef8 <_ZNKSt10_HashtableINSt7__cxx1112basic_stringIcSt11char_traitsIcESaIcEEESt4pairIKS5_iESaIS8_ENSt8__detail10_Select1stESt8equal_toIS5_ESt4hashIS5_ENSA_18_Mod_range_hashingENSA_20_Default_ranged_hashENSA_20_Prime_rehash_policyENSA_17_Hashtable_traitsILb1ELb0ELb1EEEE19_M_find_before_nodeEmRS7_m>:
  409ef8:	a9bc7bfd 	stp	x29, x30, [sp, #-64]!
  409efc:	910003fd 	mov	x29, sp
  409f00:	a90153f3 	stp	x19, x20, [sp, #16]
  409f04:	a9025bf5 	stp	x21, x22, [sp, #32]
  409f08:	aa0003f5 	mov	x21, x0
  409f0c:	f9400000 	ldr	x0, [x0]
  409f10:	f8617814 	ldr	x20, [x0, x1, lsl #3]
  409f14:	b40004d4 	cbz	x20, 409fac <_ZNKSt10_HashtableINSt7__cxx1112basic_stringIcSt11char_traitsIcESaIcEEESt4pairIKS5_iESaIS8_ENSt8__detail10_Select1stESt8equal_toIS5_ESt4hashIS5_ENSA_18_Mod_range_hashingENSA_20_Default_ranged_hashENSA_20_Prime_rehash_policyENSA_17_Hashtable_traitsILb1ELb0ELb1EEEE19_M_find_before_nodeEmRS7_m+0xb4>
  409f18:	a90363f7 	stp	x23, x24, [sp, #48]
  409f1c:	aa0103f6 	mov	x22, x1
  409f20:	aa0203f8 	mov	x24, x2
  409f24:	aa0303f7 	mov	x23, x3
  409f28:	f9400293 	ldr	x19, [x20]
  409f2c:	1400000b 	b	409f58 <_ZNKSt10_HashtableINSt7__cxx1112basic_stringIcSt11char_traitsIcESaIcEEESt4pairIKS5_iESaIS8_ENSt8__detail10_Select1stESt8equal_toIS5_ESt4hashIS5_ENSA_18_Mod_range_hashingENSA_20_Default_ranged_hashENSA_20_Prime_rehash_policyENSA_17_Hashtable_traitsILb1ELb0ELb1EEEE19_M_find_before_nodeEmRS7_m+0x60>
  409f30:	f9400264 	ldr	x4, [x19]
  409f34:	b4000344 	cbz	x4, 409f9c <_ZNKSt10_HashtableINSt7__cxx1112basic_stringIcSt11char_traitsIcESaIcEEESt4pairIKS5_iESaIS8_ENSt8__detail10_Select1stESt8equal_toIS5_ESt4hashIS5_ENSA_18_Mod_range_hashingENSA_20_Default_ranged_hashENSA_20_Prime_rehash_policyENSA_17_Hashtable_traitsILb1ELb0ELb1EEEE19_M_find_before_nodeEmRS7_m+0xa4>
  409f38:	aa1303f4 	mov	x20, x19
  409f3c:	f9401880 	ldr	x0, [x4, #48]
  409f40:	f94006a6 	ldr	x6, [x21, #8]
  409f44:	9ac60805 	udiv	x5, x0, x6
  409f48:	9b0680a5 	msub	x5, x5, x6, x0
  409f4c:	eb0502df 	cmp	x22, x5
  409f50:	54000201 	b.ne	409f90 <_ZNKSt10_HashtableINSt7__cxx1112basic_stringIcSt11char_traitsIcESaIcEEESt4pairIKS5_iESaIS8_ENSt8__detail10_Select1stESt8equal_toIS5_ESt4hashIS5_ENSA_18_Mod_range_hashingENSA_20_Default_ranged_hashENSA_20_Prime_rehash_policyENSA_17_Hashtable_traitsILb1ELb0ELb1EEEE19_M_find_before_nodeEmRS7_m+0x98>  // b.any
  409f54:	aa0403f3 	mov	x19, x4
  409f58:	f9401a60 	ldr	x0, [x19, #48]
  409f5c:	eb0002ff 	cmp	x23, x0
  409f60:	54fffe81 	b.ne	409f30 <_ZNKSt10_HashtableINSt7__cxx1112basic_stringIcSt11char_traitsIcESaIcEEESt4pairIKS5_iESaIS8_ENSt8__detail10_Select1stESt8equal_toIS5_ESt4hashIS5_ENSA_18_Mod_range_hashingENSA_20_Default_ranged_hashENSA_20_Prime_rehash_policyENSA_17_Hashtable_traitsILb1ELb0ELb1EEEE19_M_find_before_nodeEmRS7_m+0x38>  // b.any
  409f64:	f9400702 	ldr	x2, [x24, #8]
  409f68:	f9400a60 	ldr	x0, [x19, #16]
  409f6c:	eb00005f 	cmp	x2, x0
  409f70:	54fffe01 	b.ne	409f30 <_ZNKSt10_HashtableINSt7__cxx1112basic_stringIcSt11char_traitsIcESaIcEEESt4pairIKS5_iESaIS8_ENSt8__detail10_Select1stESt8equal_toIS5_ESt4hashIS5_ENSA_18_Mod_range_hashingENSA_20_Default_ranged_hashENSA_20_Prime_rehash_policyENSA_17_Hashtable_traitsILb1ELb0ELb1EEEE19_M_find_before_nodeEmRS7_m+0x38>  // b.any
  409f74:	b40001a2 	cbz	x2, 409fa8 <_ZNKSt10_HashtableINSt7__cxx1112basic_stringIcSt11char_traitsIcESaIcEEESt4pairIKS5_iESaIS8_ENSt8__detail10_Select1stESt8equal_toIS5_ESt4hashIS5_ENSA_18_Mod_range_hashingENSA_20_Default_ranged_hashENSA_20_Prime_rehash_policyENSA_17_Hashtable_traitsILb1ELb0ELb1EEEE19_M_find_before_nodeEmRS7_m+0xb0>
  409f78:	f9400661 	ldr	x1, [x19, #8]
  409f7c:	f9400300 	ldr	x0, [x24]
  409f80:	97ffe01c 	bl	401ff0 <memcmp@plt>
  409f84:	35fffd60 	cbnz	w0, 409f30 <_ZNKSt10_HashtableINSt7__cxx1112basic_stringIcSt11char_traitsIcESaIcEEESt4pairIKS5_iESaIS8_ENSt8__detail10_Select1stESt8equal_toIS5_ESt4hashIS5_ENSA_18_Mod_range_hashingENSA_20_Default_ranged_hashENSA_20_Prime_rehash_policyENSA_17_Hashtable_traitsILb1ELb0ELb1EEEE19_M_find_before_nodeEmRS7_m+0x38>
  409f88:	a94363f7 	ldp	x23, x24, [sp, #48]
  409f8c:	14000008 	b	409fac <_ZNKSt10_HashtableINSt7__cxx1112basic_stringIcSt11char_traitsIcESaIcEEESt4pairIKS5_iESaIS8_ENSt8__detail10_Select1stESt8equal_toIS5_ESt4hashIS5_ENSA_18_Mod_range_hashingENSA_20_Default_ranged_hashENSA_20_Prime_rehash_policyENSA_17_Hashtable_traitsILb1ELb0ELb1EEEE19_M_find_before_nodeEmRS7_m+0xb4>
  409f90:	d2800014 	mov	x20, #0x0                   	// #0
  409f94:	a94363f7 	ldp	x23, x24, [sp, #48]
  409f98:	14000005 	b	409fac <_ZNKSt10_HashtableINSt7__cxx1112basic_stringIcSt11char_traitsIcESaIcEEESt4pairIKS5_iESaIS8_ENSt8__detail10_Select1stESt8equal_toIS5_ESt4hashIS5_ENSA_18_Mod_range_hashingENSA_20_Default_ranged_hashENSA_20_Prime_rehash_policyENSA_17_Hashtable_traitsILb1ELb0ELb1EEEE19_M_find_before_nodeEmRS7_m+0xb4>
  409f9c:	aa0403f4 	mov	x20, x4
  409fa0:	a94363f7 	ldp	x23, x24, [sp, #48]
  409fa4:	14000002 	b	409fac <_ZNKSt10_HashtableINSt7__cxx1112basic_stringIcSt11char_traitsIcESaIcEEESt4pairIKS5_iESaIS8_ENSt8__detail10_Select1stESt8equal_toIS5_ESt4hashIS5_ENSA_18_Mod_range_hashingENSA_20_Default_ranged_hashENSA_20_Prime_rehash_policyENSA_17_Hashtable_traitsILb1ELb0ELb1EEEE19_M_find_before_nodeEmRS7_m+0xb4>
  409fa8:	a94363f7 	ldp	x23, x24, [sp, #48]
  409fac:	aa1403e0 	mov	x0, x20
  409fb0:	a94153f3 	ldp	x19, x20, [sp, #16]
  409fb4:	a9425bf5 	ldp	x21, x22, [sp, #32]
  409fb8:	a8c47bfd 	ldp	x29, x30, [sp], #64
  409fbc:	d65f03c0 	ret

0000000000409fc0 <_ZNKSt10_HashtableIiSt4pairIKiiESaIS2_ENSt8__detail10_Select1stESt8equal_toIiESt4hashIiENS4_18_Mod_range_hashingENS4_20_Default_ranged_hashENS4_20_Prime_rehash_policyENS4_17_Hashtable_traitsILb0ELb0ELb1EEEE19_M_find_before_nodeEmRS1_m>:
  409fc0:	aa0003e4 	mov	x4, x0
  409fc4:	f9400000 	ldr	x0, [x0]
  409fc8:	f8617800 	ldr	x0, [x0, x1, lsl #3]
  409fcc:	b4000280 	cbz	x0, 40a01c <_ZNKSt10_HashtableIiSt4pairIKiiESaIS2_ENSt8__detail10_Select1stESt8equal_toIiESt4hashIiENS4_18_Mod_range_hashingENS4_20_Default_ranged_hashENS4_20_Prime_rehash_policyENS4_17_Hashtable_traitsILb0ELb0ELb1EEEE19_M_find_before_nodeEmRS1_m+0x5c>
  409fd0:	f9400003 	ldr	x3, [x0]
  409fd4:	b9400047 	ldr	w7, [x2]
  409fd8:	14000002 	b	409fe0 <_ZNKSt10_HashtableIiSt4pairIKiiESaIS2_ENSt8__detail10_Select1stESt8equal_toIiESt4hashIiENS4_18_Mod_range_hashingENS4_20_Default_ranged_hashENS4_20_Prime_rehash_policyENS4_17_Hashtable_traitsILb0ELb0ELb1EEEE19_M_find_before_nodeEmRS1_m+0x20>
  409fdc:	aa0203e3 	mov	x3, x2
  409fe0:	b9400862 	ldr	w2, [x3, #8]
  409fe4:	6b07005f 	cmp	w2, w7
  409fe8:	540001a0 	b.eq	40a01c <_ZNKSt10_HashtableIiSt4pairIKiiESaIS2_ENSt8__detail10_Select1stESt8equal_toIiESt4hashIiENS4_18_Mod_range_hashingENS4_20_Default_ranged_hashENS4_20_Prime_rehash_policyENS4_17_Hashtable_traitsILb0ELb0ELb1EEEE19_M_find_before_nodeEmRS1_m+0x5c>  // b.none
  409fec:	f9400062 	ldr	x2, [x3]
  409ff0:	b4000142 	cbz	x2, 40a018 <_ZNKSt10_HashtableIiSt4pairIKiiESaIS2_ENSt8__detail10_Select1stESt8equal_toIiESt4hashIiENS4_18_Mod_range_hashingENS4_20_Default_ranged_hashENS4_20_Prime_rehash_policyENS4_17_Hashtable_traitsILb0ELb0ELb1EEEE19_M_find_before_nodeEmRS1_m+0x58>
  409ff4:	aa0303e0 	mov	x0, x3
  409ff8:	b9800846 	ldrsw	x6, [x2, #8]
  409ffc:	f9400485 	ldr	x5, [x4, #8]
  40a000:	9ac508c3 	udiv	x3, x6, x5
  40a004:	9b059863 	msub	x3, x3, x5, x6
  40a008:	eb03003f 	cmp	x1, x3
  40a00c:	54fffe80 	b.eq	409fdc <_ZNKSt10_HashtableIiSt4pairIKiiESaIS2_ENSt8__detail10_Select1stESt8equal_toIiESt4hashIiENS4_18_Mod_range_hashingENS4_20_Default_ranged_hashENS4_20_Prime_rehash_policyENS4_17_Hashtable_traitsILb0ELb0ELb1EEEE19_M_find_before_nodeEmRS1_m+0x1c>  // b.none
  40a010:	d2800000 	mov	x0, #0x0                   	// #0
  40a014:	14000002 	b	40a01c <_ZNKSt10_HashtableIiSt4pairIKiiESaIS2_ENSt8__detail10_Select1stESt8equal_toIiESt4hashIiENS4_18_Mod_range_hashingENS4_20_Default_ranged_hashENS4_20_Prime_rehash_policyENS4_17_Hashtable_traitsILb0ELb0ELb1EEEE19_M_find_before_nodeEmRS1_m+0x5c>
  40a018:	aa0203e0 	mov	x0, x2
  40a01c:	d65f03c0 	ret

000000000040a020 <_ZNSt8__detail9_Map_baseIiSt4pairIKiiESaIS3_ENS_10_Select1stESt8equal_toIiESt4hashIiENS_18_Mod_range_hashingENS_20_Default_ranged_hashENS_20_Prime_rehash_policyENS_17_Hashtable_traitsILb0ELb0ELb1EEELb1EE2atERS2_>:
  40a020:	a9bf7bfd 	stp	x29, x30, [sp, #-16]!
  40a024:	910003fd 	mov	x29, sp
  40a028:	aa0103e2 	mov	x2, x1
  40a02c:	b9800023 	ldrsw	x3, [x1]
  40a030:	f9400401 	ldr	x1, [x0, #8]
  40a034:	9ac10864 	udiv	x4, x3, x1
  40a038:	9b018c81 	msub	x1, x4, x1, x3
  40a03c:	97ffffe1 	bl	409fc0 <_ZNKSt10_HashtableIiSt4pairIKiiESaIS2_ENSt8__detail10_Select1stESt8equal_toIiESt4hashIiENS4_18_Mod_range_hashingENS4_20_Default_ranged_hashENS4_20_Prime_rehash_policyENS4_17_Hashtable_traitsILb0ELb0ELb1EEEE19_M_find_before_nodeEmRS1_m>
  40a040:	b40000c0 	cbz	x0, 40a058 <_ZNSt8__detail9_Map_baseIiSt4pairIKiiESaIS3_ENS_10_Select1stESt8equal_toIiESt4hashIiENS_18_Mod_range_hashingENS_20_Default_ranged_hashENS_20_Prime_rehash_policyENS_17_Hashtable_traitsILb0ELb0ELb1EEELb1EE2atERS2_+0x38>
  40a044:	f9400000 	ldr	x0, [x0]
  40a048:	b4000080 	cbz	x0, 40a058 <_ZNSt8__detail9_Map_baseIiSt4pairIKiiESaIS3_ENS_10_Select1stESt8equal_toIiESt4hashIiENS_18_Mod_range_hashingENS_20_Default_ranged_hashENS_20_Prime_rehash_policyENS_17_Hashtable_traitsILb0ELb0ELb1EEELb1EE2atERS2_+0x38>
  40a04c:	91003000 	add	x0, x0, #0xc
  40a050:	a8c17bfd 	ldp	x29, x30, [sp], #16
  40a054:	d65f03c0 	ret
  40a058:	90000040 	adrp	x0, 412000 <_Z19MD5Hash_simdversionPKNSt7__cxx1112basic_stringIcSt11char_traitsIcESaIcEEEP12__Uint32x4_t+0x1480>
  40a05c:	912e0000 	add	x0, x0, #0xb80
  40a060:	97ffe054 	bl	4021b0 <_ZSt20__throw_out_of_rangePKc@plt>

000000000040a064 <_ZNSt8__detail16_Hashtable_allocISaINS_10_Hash_nodeISt4pairIKNSt7__cxx1112basic_stringIcSt11char_traitsIcESaIcEEEiELb1EEEEE19_M_allocate_bucketsEm>:
  40a064:	a9be7bfd 	stp	x29, x30, [sp, #-32]!
  40a068:	910003fd 	mov	x29, sp
  40a06c:	a90153f3 	stp	x19, x20, [sp, #16]
  40a070:	92fe0000 	mov	x0, #0xfffffffffffffff     	// #1152921504606846975
  40a074:	eb00003f 	cmp	x1, x0
  40a078:	54000188 	b.hi	40a0a8 <_ZNSt8__detail16_Hashtable_allocISaINS_10_Hash_nodeISt4pairIKNSt7__cxx1112basic_stringIcSt11char_traitsIcESaIcEEEiELb1EEEEE19_M_allocate_bucketsEm+0x44>  // b.pmore
  40a07c:	d37df033 	lsl	x19, x1, #3
  40a080:	aa1303e0 	mov	x0, x19
  40a084:	97ffe00b 	bl	4020b0 <_Znwm@plt>
  40a088:	aa0003f4 	mov	x20, x0
  40a08c:	aa1303e2 	mov	x2, x19
  40a090:	52800001 	mov	w1, #0x0                   	// #0
  40a094:	97ffdfe3 	bl	402020 <memset@plt>
  40a098:	aa1403e0 	mov	x0, x20
  40a09c:	a94153f3 	ldp	x19, x20, [sp, #16]
  40a0a0:	a8c27bfd 	ldp	x29, x30, [sp], #32
  40a0a4:	d65f03c0 	ret
  40a0a8:	97ffdfc6 	bl	401fc0 <_ZSt17__throw_bad_allocv@plt>

000000000040a0ac <_ZNSt10_HashtableINSt7__cxx1112basic_stringIcSt11char_traitsIcESaIcEEESt4pairIKS5_iESaIS8_ENSt8__detail10_Select1stESt8equal_toIS5_ESt4hashIS5_ENSA_18_Mod_range_hashingENSA_20_Default_ranged_hashENSA_20_Prime_rehash_policyENSA_17_Hashtable_traitsILb1ELb0ELb1EEEE9_M_rehashEmRKm>:
  40a0ac:	a9bd7bfd 	stp	x29, x30, [sp, #-48]!
  40a0b0:	910003fd 	mov	x29, sp
  40a0b4:	a90153f3 	stp	x19, x20, [sp, #16]
  40a0b8:	f90013f5 	str	x21, [sp, #32]
  40a0bc:	aa0003f5 	mov	x21, x0
  40a0c0:	aa0103f3 	mov	x19, x1
  40a0c4:	f100043f 	cmp	x1, #0x1
  40a0c8:	54000080 	b.eq	40a0d8 <_ZNSt10_HashtableINSt7__cxx1112basic_stringIcSt11char_traitsIcESaIcEEESt4pairIKS5_iESaIS8_ENSt8__detail10_Select1stESt8equal_toIS5_ESt4hashIS5_ENSA_18_Mod_range_hashingENSA_20_Default_ranged_hashENSA_20_Prime_rehash_policyENSA_17_Hashtable_traitsILb1ELb0ELb1EEEE9_M_rehashEmRKm+0x2c>  // b.none
  40a0cc:	aa0203f4 	mov	x20, x2
  40a0d0:	97ffffe5 	bl	40a064 <_ZNSt8__detail16_Hashtable_allocISaINS_10_Hash_nodeISt4pairIKNSt7__cxx1112basic_stringIcSt11char_traitsIcESaIcEEEiELb1EEEEE19_M_allocate_bucketsEm>
  40a0d4:	14000004 	b	40a0e4 <_ZNSt10_HashtableINSt7__cxx1112basic_stringIcSt11char_traitsIcESaIcEEESt4pairIKS5_iESaIS8_ENSt8__detail10_Select1stESt8equal_toIS5_ESt4hashIS5_ENSA_18_Mod_range_hashingENSA_20_Default_ranged_hashENSA_20_Prime_rehash_policyENSA_17_Hashtable_traitsILb1ELb0ELb1EEEE9_M_rehashEmRKm+0x38>
  40a0d8:	aa0003f4 	mov	x20, x0
  40a0dc:	f8030e9f 	str	xzr, [x20, #48]!
  40a0e0:	14000002 	b	40a0e8 <_ZNSt10_HashtableINSt7__cxx1112basic_stringIcSt11char_traitsIcESaIcEEESt4pairIKS5_iESaIS8_ENSt8__detail10_Select1stESt8equal_toIS5_ESt4hashIS5_ENSA_18_Mod_range_hashingENSA_20_Default_ranged_hashENSA_20_Prime_rehash_policyENSA_17_Hashtable_traitsILb1ELb0ELb1EEEE9_M_rehashEmRKm+0x3c>
  40a0e4:	aa0003f4 	mov	x20, x0
  40a0e8:	f9400aa4 	ldr	x4, [x21, #16]
  40a0ec:	f9000abf 	str	xzr, [x21, #16]
  40a0f0:	b4000364 	cbz	x4, 40a15c <_ZNSt10_HashtableINSt7__cxx1112basic_stringIcSt11char_traitsIcESaIcEEESt4pairIKS5_iESaIS8_ENSt8__detail10_Select1stESt8equal_toIS5_ESt4hashIS5_ENSA_18_Mod_range_hashingENSA_20_Default_ranged_hashENSA_20_Prime_rehash_policyENSA_17_Hashtable_traitsILb1ELb0ELb1EEEE9_M_rehashEmRKm+0xb0>
  40a0f4:	d2800006 	mov	x6, #0x0                   	// #0
  40a0f8:	910042a7 	add	x7, x21, #0x10
  40a0fc:	14000008 	b	40a11c <_ZNSt10_HashtableINSt7__cxx1112basic_stringIcSt11char_traitsIcESaIcEEESt4pairIKS5_iESaIS8_ENSt8__detail10_Select1stESt8equal_toIS5_ESt4hashIS5_ENSA_18_Mod_range_hashingENSA_20_Default_ranged_hashENSA_20_Prime_rehash_policyENSA_17_Hashtable_traitsILb1ELb0ELb1EEEE9_M_rehashEmRKm+0x70>
  40a100:	aa0203e6 	mov	x6, x2
  40a104:	14000005 	b	40a118 <_ZNSt10_HashtableINSt7__cxx1112basic_stringIcSt11char_traitsIcESaIcEEESt4pairIKS5_iESaIS8_ENSt8__detail10_Select1stESt8equal_toIS5_ESt4hashIS5_ENSA_18_Mod_range_hashingENSA_20_Default_ranged_hashENSA_20_Prime_rehash_policyENSA_17_Hashtable_traitsILb1ELb0ELb1EEEE9_M_rehashEmRKm+0x6c>
  40a108:	f9400020 	ldr	x0, [x1]
  40a10c:	f9000060 	str	x0, [x3]
  40a110:	f8627a80 	ldr	x0, [x20, x2, lsl #3]
  40a114:	f9000003 	str	x3, [x0]
  40a118:	b4000224 	cbz	x4, 40a15c <_ZNSt10_HashtableINSt7__cxx1112basic_stringIcSt11char_traitsIcESaIcEEESt4pairIKS5_iESaIS8_ENSt8__detail10_Select1stESt8equal_toIS5_ESt4hashIS5_ENSA_18_Mod_range_hashingENSA_20_Default_ranged_hashENSA_20_Prime_rehash_policyENSA_17_Hashtable_traitsILb1ELb0ELb1EEEE9_M_rehashEmRKm+0xb0>
  40a11c:	aa0403e3 	mov	x3, x4
  40a120:	f9400084 	ldr	x4, [x4]
  40a124:	f9401865 	ldr	x5, [x3, #48]
  40a128:	9ad308a2 	udiv	x2, x5, x19
  40a12c:	9b139442 	msub	x2, x2, x19, x5
  40a130:	f8627a81 	ldr	x1, [x20, x2, lsl #3]
  40a134:	b5fffea1 	cbnz	x1, 40a108 <_ZNSt10_HashtableINSt7__cxx1112basic_stringIcSt11char_traitsIcESaIcEEESt4pairIKS5_iESaIS8_ENSt8__detail10_Select1stESt8equal_toIS5_ESt4hashIS5_ENSA_18_Mod_range_hashingENSA_20_Default_ranged_hashENSA_20_Prime_rehash_policyENSA_17_Hashtable_traitsILb1ELb0ELb1EEEE9_M_rehashEmRKm+0x5c>
  40a138:	f9400aa0 	ldr	x0, [x21, #16]
  40a13c:	f9000060 	str	x0, [x3]
  40a140:	f9000aa3 	str	x3, [x21, #16]
  40a144:	f8227a87 	str	x7, [x20, x2, lsl #3]
  40a148:	f9400060 	ldr	x0, [x3]
  40a14c:	b4fffda0 	cbz	x0, 40a100 <_ZNSt10_HashtableINSt7__cxx1112basic_stringIcSt11char_traitsIcESaIcEEESt4pairIKS5_iESaIS8_ENSt8__detail10_Select1stESt8equal_toIS5_ESt4hashIS5_ENSA_18_Mod_range_hashingENSA_20_Default_ranged_hashENSA_20_Prime_rehash_policyENSA_17_Hashtable_traitsILb1ELb0ELb1EEEE9_M_rehashEmRKm+0x54>
  40a150:	f8267a83 	str	x3, [x20, x6, lsl #3]
  40a154:	aa0203e6 	mov	x6, x2
  40a158:	17fffff0 	b	40a118 <_ZNSt10_HashtableINSt7__cxx1112basic_stringIcSt11char_traitsIcESaIcEEESt4pairIKS5_iESaIS8_ENSt8__detail10_Select1stESt8equal_toIS5_ESt4hashIS5_ENSA_18_Mod_range_hashingENSA_20_Default_ranged_hashENSA_20_Prime_rehash_policyENSA_17_Hashtable_traitsILb1ELb0ELb1EEEE9_M_rehashEmRKm+0x6c>
  40a15c:	f94002a0 	ldr	x0, [x21]
  40a160:	f94006a1 	ldr	x1, [x21, #8]
  40a164:	9100c2a2 	add	x2, x21, #0x30
  40a168:	eb02001f 	cmp	x0, x2
  40a16c:	54000060 	b.eq	40a178 <_ZNSt10_HashtableINSt7__cxx1112basic_stringIcSt11char_traitsIcESaIcEEESt4pairIKS5_iESaIS8_ENSt8__detail10_Select1stESt8equal_toIS5_ESt4hashIS5_ENSA_18_Mod_range_hashingENSA_20_Default_ranged_hashENSA_20_Prime_rehash_policyENSA_17_Hashtable_traitsILb1ELb0ELb1EEEE9_M_rehashEmRKm+0xcc>  // b.none
  40a170:	d37df021 	lsl	x1, x1, #3
  40a174:	97ffdfd3 	bl	4020c0 <_ZdlPvm@plt>
  40a178:	f90006b3 	str	x19, [x21, #8]
  40a17c:	f90002b4 	str	x20, [x21]
  40a180:	a94153f3 	ldp	x19, x20, [sp, #16]
  40a184:	f94013f5 	ldr	x21, [sp, #32]
  40a188:	a8c37bfd 	ldp	x29, x30, [sp], #48
  40a18c:	d65f03c0 	ret
  40a190:	97ffdf90 	bl	401fd0 <__cxa_begin_catch@plt>
  40a194:	f9400280 	ldr	x0, [x20]
  40a198:	f90016a0 	str	x0, [x21, #40]
  40a19c:	97ffe009 	bl	4021c0 <__cxa_rethrow@plt>
  40a1a0:	aa0003f3 	mov	x19, x0
  40a1a4:	97ffe01f 	bl	402220 <__cxa_end_catch@plt>
  40a1a8:	aa1303e0 	mov	x0, x19
  40a1ac:	97ffe02d 	bl	402260 <_Unwind_Resume@plt>

000000000040a1b0 <_ZNSt8__detail9_Map_baseINSt7__cxx1112basic_stringIcSt11char_traitsIcESaIcEEESt4pairIKS6_iESaIS9_ENS_10_Select1stESt8equal_toIS6_ESt4hashIS6_ENS_18_Mod_range_hashingENS_20_Default_ranged_hashENS_20_Prime_rehash_policyENS_17_Hashtable_traitsILb1ELb0ELb1EEELb1EEixERS8_>:
  40a1b0:	a9bb7bfd 	stp	x29, x30, [sp, #-80]!
  40a1b4:	910003fd 	mov	x29, sp
  40a1b8:	a90153f3 	stp	x19, x20, [sp, #16]
  40a1bc:	a9025bf5 	stp	x21, x22, [sp, #32]
  40a1c0:	f9001bf7 	str	x23, [sp, #48]
  40a1c4:	aa0003f4 	mov	x20, x0
  40a1c8:	aa0103f5 	mov	x21, x1
  40a1cc:	d28d20e2 	mov	x2, #0x6907                	// #26887
  40a1d0:	f2b8e1e2 	movk	x2, #0xc70f, lsl #16
  40a1d4:	f9400421 	ldr	x1, [x1, #8]
  40a1d8:	f94002a0 	ldr	x0, [x21]
  40a1dc:	97ffdf55 	bl	401f30 <_ZSt11_Hash_bytesPKvmm@plt>
  40a1e0:	aa0003f6 	mov	x22, x0
  40a1e4:	f9400680 	ldr	x0, [x20, #8]
  40a1e8:	9ac00ad7 	udiv	x23, x22, x0
  40a1ec:	9b00daf7 	msub	x23, x23, x0, x22
  40a1f0:	aa1603e3 	mov	x3, x22
  40a1f4:	aa1503e2 	mov	x2, x21
  40a1f8:	aa1703e1 	mov	x1, x23
  40a1fc:	aa1403e0 	mov	x0, x20
  40a200:	97ffff3e 	bl	409ef8 <_ZNKSt10_HashtableINSt7__cxx1112basic_stringIcSt11char_traitsIcESaIcEEESt4pairIKS5_iESaIS8_ENSt8__detail10_Select1stESt8equal_toIS5_ESt4hashIS5_ENSA_18_Mod_range_hashingENSA_20_Default_ranged_hashENSA_20_Prime_rehash_policyENSA_17_Hashtable_traitsILb1ELb0ELb1EEEE19_M_find_before_nodeEmRS7_m>
  40a204:	b4000120 	cbz	x0, 40a228 <_ZNSt8__detail9_Map_baseINSt7__cxx1112basic_stringIcSt11char_traitsIcESaIcEEESt4pairIKS6_iESaIS9_ENS_10_Select1stESt8equal_toIS6_ESt4hashIS6_ENS_18_Mod_range_hashingENS_20_Default_ranged_hashENS_20_Prime_rehash_policyENS_17_Hashtable_traitsILb1ELb0ELb1EEELb1EEixERS8_+0x78>
  40a208:	f9400013 	ldr	x19, [x0]
  40a20c:	9100a260 	add	x0, x19, #0x28
  40a210:	b40000d3 	cbz	x19, 40a228 <_ZNSt8__detail9_Map_baseINSt7__cxx1112basic_stringIcSt11char_traitsIcESaIcEEESt4pairIKS6_iESaIS9_ENS_10_Select1stESt8equal_toIS6_ESt4hashIS6_ENS_18_Mod_range_hashingENS_20_Default_ranged_hashENS_20_Prime_rehash_policyENS_17_Hashtable_traitsILb1ELb0ELb1EEELb1EEixERS8_+0x78>
  40a214:	a94153f3 	ldp	x19, x20, [sp, #16]
  40a218:	a9425bf5 	ldp	x21, x22, [sp, #32]
  40a21c:	f9401bf7 	ldr	x23, [sp, #48]
  40a220:	a8c57bfd 	ldp	x29, x30, [sp], #80
  40a224:	d65f03c0 	ret
  40a228:	d2800700 	mov	x0, #0x38                  	// #56
  40a22c:	97ffdfa1 	bl	4020b0 <_Znwm@plt>
  40a230:	aa0003f3 	mov	x19, x0
  40a234:	f800841f 	str	xzr, [x0], #8
  40a238:	91006261 	add	x1, x19, #0x18
  40a23c:	f9000661 	str	x1, [x19, #8]
  40a240:	f94002a1 	ldr	x1, [x21]
  40a244:	f94006a2 	ldr	x2, [x21, #8]
  40a248:	52800003 	mov	w3, #0x0                   	// #0
  40a24c:	8b020022 	add	x2, x1, x2
  40a250:	97fffe81 	bl	409c54 <_ZNSt7__cxx1112basic_stringIcSt11char_traitsIcESaIcEE12_M_constructIPcEEvT_S7_St20forward_iterator_tag>
  40a254:	b9002a7f 	str	wzr, [x19, #40]
  40a258:	f9401680 	ldr	x0, [x20, #40]
  40a25c:	f90027e0 	str	x0, [sp, #72]
  40a260:	d2800023 	mov	x3, #0x1                   	// #1
  40a264:	f9400e82 	ldr	x2, [x20, #24]
  40a268:	f9400681 	ldr	x1, [x20, #8]
  40a26c:	91008280 	add	x0, x20, #0x20
  40a270:	97ffdfc0 	bl	402170 <_ZNKSt8__detail20_Prime_rehash_policy14_M_need_rehashEmmm@plt>
  40a274:	72001c1f 	tst	w0, #0xff
  40a278:	54000301 	b.ne	40a2d8 <_ZNSt8__detail9_Map_baseINSt7__cxx1112basic_stringIcSt11char_traitsIcESaIcEEESt4pairIKS6_iESaIS9_ENS_10_Select1stESt8equal_toIS6_ESt4hashIS6_ENS_18_Mod_range_hashingENS_20_Default_ranged_hashENS_20_Prime_rehash_policyENS_17_Hashtable_traitsILb1ELb0ELb1EEELb1EEixERS8_+0x128>  // b.any
  40a27c:	f9001a76 	str	x22, [x19, #48]
  40a280:	f9400280 	ldr	x0, [x20]
  40a284:	d37df2e2 	lsl	x2, x23, #3
  40a288:	f8777801 	ldr	x1, [x0, x23, lsl #3]
  40a28c:	b4000341 	cbz	x1, 40a2f4 <_ZNSt8__detail9_Map_baseINSt7__cxx1112basic_stringIcSt11char_traitsIcESaIcEEESt4pairIKS6_iESaIS9_ENS_10_Select1stESt8equal_toIS6_ESt4hashIS6_ENS_18_Mod_range_hashingENS_20_Default_ranged_hashENS_20_Prime_rehash_policyENS_17_Hashtable_traitsILb1ELb0ELb1EEELb1EEixERS8_+0x144>
  40a290:	f9400021 	ldr	x1, [x1]
  40a294:	f9000261 	str	x1, [x19]
  40a298:	f8777800 	ldr	x0, [x0, x23, lsl #3]
  40a29c:	f9000013 	str	x19, [x0]
  40a2a0:	f9400e80 	ldr	x0, [x20, #24]
  40a2a4:	91000400 	add	x0, x0, #0x1
  40a2a8:	f9000e80 	str	x0, [x20, #24]
  40a2ac:	9100a260 	add	x0, x19, #0x28
  40a2b0:	17ffffd9 	b	40a214 <_ZNSt8__detail9_Map_baseINSt7__cxx1112basic_stringIcSt11char_traitsIcESaIcEEESt4pairIKS6_iESaIS9_ENS_10_Select1stESt8equal_toIS6_ESt4hashIS6_ENS_18_Mod_range_hashingENS_20_Default_ranged_hashENS_20_Prime_rehash_policyENS_17_Hashtable_traitsILb1ELb0ELb1EEELb1EEixERS8_+0x64>
  40a2b4:	97ffdf47 	bl	401fd0 <__cxa_begin_catch@plt>
  40a2b8:	d2800701 	mov	x1, #0x38                  	// #56
  40a2bc:	aa1303e0 	mov	x0, x19
  40a2c0:	97ffdf80 	bl	4020c0 <_ZdlPvm@plt>
  40a2c4:	97ffdfbf 	bl	4021c0 <__cxa_rethrow@plt>
  40a2c8:	aa0003f3 	mov	x19, x0
  40a2cc:	97ffdfd5 	bl	402220 <__cxa_end_catch@plt>
  40a2d0:	aa1303e0 	mov	x0, x19
  40a2d4:	97ffdfe3 	bl	402260 <_Unwind_Resume@plt>
  40a2d8:	910123e2 	add	x2, sp, #0x48
  40a2dc:	aa1403e0 	mov	x0, x20
  40a2e0:	97ffff73 	bl	40a0ac <_ZNSt10_HashtableINSt7__cxx1112basic_stringIcSt11char_traitsIcESaIcEEESt4pairIKS5_iESaIS8_ENSt8__detail10_Select1stESt8equal_toIS5_ESt4hashIS5_ENSA_18_Mod_range_hashingENSA_20_Default_ranged_hashENSA_20_Prime_rehash_policyENSA_17_Hashtable_traitsILb1ELb0ELb1EEEE9_M_rehashEmRKm>
  40a2e4:	f9400680 	ldr	x0, [x20, #8]
  40a2e8:	9ac00ad7 	udiv	x23, x22, x0
  40a2ec:	9b00daf7 	msub	x23, x23, x0, x22
  40a2f0:	17ffffe3 	b	40a27c <_ZNSt8__detail9_Map_baseINSt7__cxx1112basic_stringIcSt11char_traitsIcESaIcEEESt4pairIKS6_iESaIS9_ENS_10_Select1stESt8equal_toIS6_ESt4hashIS6_ENS_18_Mod_range_hashingENS_20_Default_ranged_hashENS_20_Prime_rehash_policyENS_17_Hashtable_traitsILb1ELb0ELb1EEELb1EEixERS8_+0xcc>
  40a2f4:	f9400a81 	ldr	x1, [x20, #16]
  40a2f8:	f9000261 	str	x1, [x19]
  40a2fc:	f9000a93 	str	x19, [x20, #16]
  40a300:	b40000c1 	cbz	x1, 40a318 <_ZNSt8__detail9_Map_baseINSt7__cxx1112basic_stringIcSt11char_traitsIcESaIcEEESt4pairIKS6_iESaIS9_ENS_10_Select1stESt8equal_toIS6_ESt4hashIS6_ENS_18_Mod_range_hashingENS_20_Default_ranged_hashENS_20_Prime_rehash_policyENS_17_Hashtable_traitsILb1ELb0ELb1EEELb1EEixERS8_+0x168>
  40a304:	f9401824 	ldr	x4, [x1, #48]
  40a308:	f9400683 	ldr	x3, [x20, #8]
  40a30c:	9ac30881 	udiv	x1, x4, x3
  40a310:	9b039021 	msub	x1, x1, x3, x4
  40a314:	f8217813 	str	x19, [x0, x1, lsl #3]
  40a318:	aa1403e0 	mov	x0, x20
  40a31c:	f8410401 	ldr	x1, [x0], #16
  40a320:	f8226820 	str	x0, [x1, x2]
  40a324:	17ffffdf 	b	40a2a0 <_ZNSt8__detail9_Map_baseINSt7__cxx1112basic_stringIcSt11char_traitsIcESaIcEEESt4pairIKS6_iESaIS9_ENS_10_Select1stESt8equal_toIS6_ESt4hashIS6_ENS_18_Mod_range_hashingENS_20_Default_ranged_hashENS_20_Prime_rehash_policyENS_17_Hashtable_traitsILb1ELb0ELb1EEELb1EEixERS8_+0xf0>
  40a328:	aa0003f5 	mov	x21, x0
  40a32c:	aa1303e1 	mov	x1, x19
  40a330:	aa1403e0 	mov	x0, x20
  40a334:	97fffd88 	bl	409954 <_ZNSt8__detail16_Hashtable_allocISaINS_10_Hash_nodeISt4pairIKNSt7__cxx1112basic_stringIcSt11char_traitsIcESaIcEEEiELb1EEEEE18_M_deallocate_nodeEPSB_>
  40a338:	aa1503e0 	mov	x0, x21
  40a33c:	97ffdfc9 	bl	402260 <_Unwind_Resume@plt>

000000000040a340 <_ZNSt8__detail16_Hashtable_allocISaINS_10_Hash_nodeISt4pairIKNSt7__cxx1112basic_stringIcSt11char_traitsIcESaIcEEEiELb1EEEEE16_M_allocate_nodeIJRKSA_EEEPSB_DpOT_>:
  40a340:	a9be7bfd 	stp	x29, x30, [sp, #-32]!
  40a344:	910003fd 	mov	x29, sp
  40a348:	a90153f3 	stp	x19, x20, [sp, #16]
  40a34c:	aa0103f4 	mov	x20, x1
  40a350:	d2800700 	mov	x0, #0x38                  	// #56
  40a354:	97ffdf57 	bl	4020b0 <_Znwm@plt>
  40a358:	aa0003f3 	mov	x19, x0
  40a35c:	f800841f 	str	xzr, [x0], #8
  40a360:	91006261 	add	x1, x19, #0x18
  40a364:	f9000661 	str	x1, [x19, #8]
  40a368:	f9400281 	ldr	x1, [x20]
  40a36c:	f9400682 	ldr	x2, [x20, #8]
  40a370:	52800003 	mov	w3, #0x0                   	// #0
  40a374:	8b020022 	add	x2, x1, x2
  40a378:	97fffe37 	bl	409c54 <_ZNSt7__cxx1112basic_stringIcSt11char_traitsIcESaIcEE12_M_constructIPcEEvT_S7_St20forward_iterator_tag>
  40a37c:	1400000a 	b	40a3a4 <_ZNSt8__detail16_Hashtable_allocISaINS_10_Hash_nodeISt4pairIKNSt7__cxx1112basic_stringIcSt11char_traitsIcESaIcEEEiELb1EEEEE16_M_allocate_nodeIJRKSA_EEEPSB_DpOT_+0x64>
  40a380:	97ffdf14 	bl	401fd0 <__cxa_begin_catch@plt>
  40a384:	d2800701 	mov	x1, #0x38                  	// #56
  40a388:	aa1303e0 	mov	x0, x19
  40a38c:	97ffdf4d 	bl	4020c0 <_ZdlPvm@plt>
  40a390:	97ffdf8c 	bl	4021c0 <__cxa_rethrow@plt>
  40a394:	aa0003f3 	mov	x19, x0
  40a398:	97ffdfa2 	bl	402220 <__cxa_end_catch@plt>
  40a39c:	aa1303e0 	mov	x0, x19
  40a3a0:	97ffdfb0 	bl	402260 <_Unwind_Resume@plt>
  40a3a4:	b9402280 	ldr	w0, [x20, #32]
  40a3a8:	b9002a60 	str	w0, [x19, #40]
  40a3ac:	aa1303e0 	mov	x0, x19
  40a3b0:	a94153f3 	ldp	x19, x20, [sp, #16]
  40a3b4:	a8c27bfd 	ldp	x29, x30, [sp], #32
  40a3b8:	d65f03c0 	ret

000000000040a3bc <_ZNSt10_HashtableINSt7__cxx1112basic_stringIcSt11char_traitsIcESaIcEEESt4pairIKS5_iESaIS8_ENSt8__detail10_Select1stESt8equal_toIS5_ESt4hashIS5_ENSA_18_Mod_range_hashingENSA_20_Default_ranged_hashENSA_20_Prime_rehash_policyENSA_17_Hashtable_traitsILb1ELb0ELb1EEEE9_M_assignIRKSL_NSA_10_AllocNodeISaINSA_10_Hash_nodeIS8_Lb1EEEEEEEEvOT_RKT0_>:
  40a3bc:	a9bc7bfd 	stp	x29, x30, [sp, #-64]!
  40a3c0:	910003fd 	mov	x29, sp
  40a3c4:	a90153f3 	stp	x19, x20, [sp, #16]
  40a3c8:	a9025bf5 	stp	x21, x22, [sp, #32]
  40a3cc:	f9001bf7 	str	x23, [sp, #48]
  40a3d0:	aa0003f4 	mov	x20, x0
  40a3d4:	aa0103f3 	mov	x19, x1
  40a3d8:	aa0203f5 	mov	x21, x2
  40a3dc:	f9400000 	ldr	x0, [x0]
  40a3e0:	d2800016 	mov	x22, #0x0                   	// #0
  40a3e4:	b40000e0 	cbz	x0, 40a400 <_ZNSt10_HashtableINSt7__cxx1112basic_stringIcSt11char_traitsIcESaIcEEESt4pairIKS5_iESaIS8_ENSt8__detail10_Select1stESt8equal_toIS5_ESt4hashIS5_ENSA_18_Mod_range_hashingENSA_20_Default_ranged_hashENSA_20_Prime_rehash_policyENSA_17_Hashtable_traitsILb1ELb0ELb1EEEE9_M_assignIRKSL_NSA_10_AllocNodeISaINSA_10_Hash_nodeIS8_Lb1EEEEEEEEvOT_RKT0_+0x44>
  40a3e8:	f9400a73 	ldr	x19, [x19, #16]
  40a3ec:	b4000393 	cbz	x19, 40a45c <_ZNSt10_HashtableINSt7__cxx1112basic_stringIcSt11char_traitsIcESaIcEEESt4pairIKS5_iESaIS8_ENSt8__detail10_Select1stESt8equal_toIS5_ESt4hashIS5_ENSA_18_Mod_range_hashingENSA_20_Default_ranged_hashENSA_20_Prime_rehash_policyENSA_17_Hashtable_traitsILb1ELb0ELb1EEEE9_M_assignIRKSL_NSA_10_AllocNodeISaINSA_10_Hash_nodeIS8_Lb1EEEEEEEEvOT_RKT0_+0xa0>
  40a3f0:	91002261 	add	x1, x19, #0x8
  40a3f4:	f94002a0 	ldr	x0, [x21]
  40a3f8:	97ffffd2 	bl	40a340 <_ZNSt8__detail16_Hashtable_allocISaINS_10_Hash_nodeISt4pairIKNSt7__cxx1112basic_stringIcSt11char_traitsIcESaIcEEEiELb1EEEEE16_M_allocate_nodeIJRKSA_EEEPSB_DpOT_>
  40a3fc:	1400000c 	b	40a42c <_ZNSt10_HashtableINSt7__cxx1112basic_stringIcSt11char_traitsIcESaIcEEESt4pairIKS5_iESaIS8_ENSt8__detail10_Select1stESt8equal_toIS5_ESt4hashIS5_ENSA_18_Mod_range_hashingENSA_20_Default_ranged_hashENSA_20_Prime_rehash_policyENSA_17_Hashtable_traitsILb1ELb0ELb1EEEE9_M_assignIRKSL_NSA_10_AllocNodeISaINSA_10_Hash_nodeIS8_Lb1EEEEEEEEvOT_RKT0_+0x70>
  40a400:	f9400681 	ldr	x1, [x20, #8]
  40a404:	f100043f 	cmp	x1, #0x1
  40a408:	540000c0 	b.eq	40a420 <_ZNSt10_HashtableINSt7__cxx1112basic_stringIcSt11char_traitsIcESaIcEEESt4pairIKS5_iESaIS8_ENSt8__detail10_Select1stESt8equal_toIS5_ESt4hashIS5_ENSA_18_Mod_range_hashingENSA_20_Default_ranged_hashENSA_20_Prime_rehash_policyENSA_17_Hashtable_traitsILb1ELb0ELb1EEEE9_M_assignIRKSL_NSA_10_AllocNodeISaINSA_10_Hash_nodeIS8_Lb1EEEEEEEEvOT_RKT0_+0x64>  // b.none
  40a40c:	aa1403e0 	mov	x0, x20
  40a410:	97ffff15 	bl	40a064 <_ZNSt8__detail16_Hashtable_allocISaINS_10_Hash_nodeISt4pairIKNSt7__cxx1112basic_stringIcSt11char_traitsIcESaIcEEEiELb1EEEEE19_M_allocate_bucketsEm>
  40a414:	aa0003f6 	mov	x22, x0
  40a418:	f9000296 	str	x22, [x20]
  40a41c:	17fffff3 	b	40a3e8 <_ZNSt10_HashtableINSt7__cxx1112basic_stringIcSt11char_traitsIcESaIcEEESt4pairIKS5_iESaIS8_ENSt8__detail10_Select1stESt8equal_toIS5_ESt4hashIS5_ENSA_18_Mod_range_hashingENSA_20_Default_ranged_hashENSA_20_Prime_rehash_policyENSA_17_Hashtable_traitsILb1ELb0ELb1EEEE9_M_assignIRKSL_NSA_10_AllocNodeISaINSA_10_Hash_nodeIS8_Lb1EEEEEEEEvOT_RKT0_+0x2c>
  40a420:	aa1403f6 	mov	x22, x20
  40a424:	f8030edf 	str	xzr, [x22, #48]!
  40a428:	17fffffc 	b	40a418 <_ZNSt10_HashtableINSt7__cxx1112basic_stringIcSt11char_traitsIcESaIcEEESt4pairIKS5_iESaIS8_ENSt8__detail10_Select1stESt8equal_toIS5_ESt4hashIS5_ENSA_18_Mod_range_hashingENSA_20_Default_ranged_hashENSA_20_Prime_rehash_policyENSA_17_Hashtable_traitsILb1ELb0ELb1EEEE9_M_assignIRKSL_NSA_10_AllocNodeISaINSA_10_Hash_nodeIS8_Lb1EEEEEEEEvOT_RKT0_+0x5c>
  40a42c:	f9401a61 	ldr	x1, [x19, #48]
  40a430:	f9001801 	str	x1, [x0, #48]
  40a434:	f9000a80 	str	x0, [x20, #16]
  40a438:	f9401803 	ldr	x3, [x0, #48]
  40a43c:	f9400682 	ldr	x2, [x20, #8]
  40a440:	9ac20861 	udiv	x1, x3, x2
  40a444:	9b028c21 	msub	x1, x1, x2, x3
  40a448:	aa1403e2 	mov	x2, x20
  40a44c:	f8410443 	ldr	x3, [x2], #16
  40a450:	f8217862 	str	x2, [x3, x1, lsl #3]
  40a454:	f9400273 	ldr	x19, [x19]
  40a458:	b5000233 	cbnz	x19, 40a49c <_ZNSt10_HashtableINSt7__cxx1112basic_stringIcSt11char_traitsIcESaIcEEESt4pairIKS5_iESaIS8_ENSt8__detail10_Select1stESt8equal_toIS5_ESt4hashIS5_ENSA_18_Mod_range_hashingENSA_20_Default_ranged_hashENSA_20_Prime_rehash_policyENSA_17_Hashtable_traitsILb1ELb0ELb1EEEE9_M_assignIRKSL_NSA_10_AllocNodeISaINSA_10_Hash_nodeIS8_Lb1EEEEEEEEvOT_RKT0_+0xe0>
  40a45c:	a94153f3 	ldp	x19, x20, [sp, #16]
  40a460:	a9425bf5 	ldp	x21, x22, [sp, #32]
  40a464:	f9401bf7 	ldr	x23, [sp, #48]
  40a468:	a8c47bfd 	ldp	x29, x30, [sp], #64
  40a46c:	d65f03c0 	ret
  40a470:	f90002e0 	str	x0, [x23]
  40a474:	f9401a63 	ldr	x3, [x19, #48]
  40a478:	f9001803 	str	x3, [x0, #48]
  40a47c:	f9400682 	ldr	x2, [x20, #8]
  40a480:	9ac20861 	udiv	x1, x3, x2
  40a484:	9b028c21 	msub	x1, x1, x2, x3
  40a488:	f9400282 	ldr	x2, [x20]
  40a48c:	f8617843 	ldr	x3, [x2, x1, lsl #3]
  40a490:	b4000103 	cbz	x3, 40a4b0 <_ZNSt10_HashtableINSt7__cxx1112basic_stringIcSt11char_traitsIcESaIcEEESt4pairIKS5_iESaIS8_ENSt8__detail10_Select1stESt8equal_toIS5_ESt4hashIS5_ENSA_18_Mod_range_hashingENSA_20_Default_ranged_hashENSA_20_Prime_rehash_policyENSA_17_Hashtable_traitsILb1ELb0ELb1EEEE9_M_assignIRKSL_NSA_10_AllocNodeISaINSA_10_Hash_nodeIS8_Lb1EEEEEEEEvOT_RKT0_+0xf4>
  40a494:	f9400273 	ldr	x19, [x19]
  40a498:	b4fffe33 	cbz	x19, 40a45c <_ZNSt10_HashtableINSt7__cxx1112basic_stringIcSt11char_traitsIcESaIcEEESt4pairIKS5_iESaIS8_ENSt8__detail10_Select1stESt8equal_toIS5_ESt4hashIS5_ENSA_18_Mod_range_hashingENSA_20_Default_ranged_hashENSA_20_Prime_rehash_policyENSA_17_Hashtable_traitsILb1ELb0ELb1EEEE9_M_assignIRKSL_NSA_10_AllocNodeISaINSA_10_Hash_nodeIS8_Lb1EEEEEEEEvOT_RKT0_+0xa0>
  40a49c:	aa0003f7 	mov	x23, x0
  40a4a0:	91002261 	add	x1, x19, #0x8
  40a4a4:	f94002a0 	ldr	x0, [x21]
  40a4a8:	97ffffa6 	bl	40a340 <_ZNSt8__detail16_Hashtable_allocISaINS_10_Hash_nodeISt4pairIKNSt7__cxx1112basic_stringIcSt11char_traitsIcESaIcEEEiELb1EEEEE16_M_allocate_nodeIJRKSA_EEEPSB_DpOT_>
  40a4ac:	17fffff1 	b	40a470 <_ZNSt10_HashtableINSt7__cxx1112basic_stringIcSt11char_traitsIcESaIcEEESt4pairIKS5_iESaIS8_ENSt8__detail10_Select1stESt8equal_toIS5_ESt4hashIS5_ENSA_18_Mod_range_hashingENSA_20_Default_ranged_hashENSA_20_Prime_rehash_policyENSA_17_Hashtable_traitsILb1ELb0ELb1EEEE9_M_assignIRKSL_NSA_10_AllocNodeISaINSA_10_Hash_nodeIS8_Lb1EEEEEEEEvOT_RKT0_+0xb4>
  40a4b0:	f8217857 	str	x23, [x2, x1, lsl #3]
  40a4b4:	17fffff8 	b	40a494 <_ZNSt10_HashtableINSt7__cxx1112basic_stringIcSt11char_traitsIcESaIcEEESt4pairIKS5_iESaIS8_ENSt8__detail10_Select1stESt8equal_toIS5_ESt4hashIS5_ENSA_18_Mod_range_hashingENSA_20_Default_ranged_hashENSA_20_Prime_rehash_policyENSA_17_Hashtable_traitsILb1ELb0ELb1EEEE9_M_assignIRKSL_NSA_10_AllocNodeISaINSA_10_Hash_nodeIS8_Lb1EEEEEEEEvOT_RKT0_+0xd8>
  40a4b8:	97ffdec6 	bl	401fd0 <__cxa_begin_catch@plt>
  40a4bc:	aa1403e0 	mov	x0, x20
  40a4c0:	97fffd36 	bl	409998 <_ZNSt10_HashtableINSt7__cxx1112basic_stringIcSt11char_traitsIcESaIcEEESt4pairIKS5_iESaIS8_ENSt8__detail10_Select1stESt8equal_toIS5_ESt4hashIS5_ENSA_18_Mod_range_hashingENSA_20_Default_ranged_hashENSA_20_Prime_rehash_policyENSA_17_Hashtable_traitsILb1ELb0ELb1EEEE5clearEv>
  40a4c4:	b4000116 	cbz	x22, 40a4e4 <_ZNSt10_HashtableINSt7__cxx1112basic_stringIcSt11char_traitsIcESaIcEEESt4pairIKS5_iESaIS8_ENSt8__detail10_Select1stESt8equal_toIS5_ESt4hashIS5_ENSA_18_Mod_range_hashingENSA_20_Default_ranged_hashENSA_20_Prime_rehash_policyENSA_17_Hashtable_traitsILb1ELb0ELb1EEEE9_M_assignIRKSL_NSA_10_AllocNodeISaINSA_10_Hash_nodeIS8_Lb1EEEEEEEEvOT_RKT0_+0x128>
  40a4c8:	f9400280 	ldr	x0, [x20]
  40a4cc:	f9400681 	ldr	x1, [x20, #8]
  40a4d0:	9100c294 	add	x20, x20, #0x30
  40a4d4:	eb14001f 	cmp	x0, x20
  40a4d8:	54000060 	b.eq	40a4e4 <_ZNSt10_HashtableINSt7__cxx1112basic_stringIcSt11char_traitsIcESaIcEEESt4pairIKS5_iESaIS8_ENSt8__detail10_Select1stESt8equal_toIS5_ESt4hashIS5_ENSA_18_Mod_range_hashingENSA_20_Default_ranged_hashENSA_20_Prime_rehash_policyENSA_17_Hashtable_traitsILb1ELb0ELb1EEEE9_M_assignIRKSL_NSA_10_AllocNodeISaINSA_10_Hash_nodeIS8_Lb1EEEEEEEEvOT_RKT0_+0x128>  // b.none
  40a4dc:	d37df021 	lsl	x1, x1, #3
  40a4e0:	97ffdef8 	bl	4020c0 <_ZdlPvm@plt>
  40a4e4:	97ffdf37 	bl	4021c0 <__cxa_rethrow@plt>
  40a4e8:	aa0003f3 	mov	x19, x0
  40a4ec:	97ffdf4d 	bl	402220 <__cxa_end_catch@plt>
  40a4f0:	aa1303e0 	mov	x0, x19
  40a4f4:	97ffdf5b 	bl	402260 <_Unwind_Resume@plt>

000000000040a4f8 <_ZNSt8__detail16_Hashtable_allocISaINS_10_Hash_nodeISt4pairIKiiELb0EEEEE19_M_allocate_bucketsEm>:
  40a4f8:	a9be7bfd 	stp	x29, x30, [sp, #-32]!
  40a4fc:	910003fd 	mov	x29, sp
  40a500:	a90153f3 	stp	x19, x20, [sp, #16]
  40a504:	92fe0000 	mov	x0, #0xfffffffffffffff     	// #1152921504606846975
  40a508:	eb00003f 	cmp	x1, x0
  40a50c:	54000188 	b.hi	40a53c <_ZNSt8__detail16_Hashtable_allocISaINS_10_Hash_nodeISt4pairIKiiELb0EEEEE19_M_allocate_bucketsEm+0x44>  // b.pmore
  40a510:	d37df033 	lsl	x19, x1, #3
  40a514:	aa1303e0 	mov	x0, x19
  40a518:	97ffdee6 	bl	4020b0 <_Znwm@plt>
  40a51c:	aa0003f4 	mov	x20, x0
  40a520:	aa1303e2 	mov	x2, x19
  40a524:	52800001 	mov	w1, #0x0                   	// #0
  40a528:	97ffdebe 	bl	402020 <memset@plt>
  40a52c:	aa1403e0 	mov	x0, x20
  40a530:	a94153f3 	ldp	x19, x20, [sp, #16]
  40a534:	a8c27bfd 	ldp	x29, x30, [sp], #32
  40a538:	d65f03c0 	ret
  40a53c:	97ffdea1 	bl	401fc0 <_ZSt17__throw_bad_allocv@plt>

000000000040a540 <_ZNSt10_HashtableIiSt4pairIKiiESaIS2_ENSt8__detail10_Select1stESt8equal_toIiESt4hashIiENS4_18_Mod_range_hashingENS4_20_Default_ranged_hashENS4_20_Prime_rehash_policyENS4_17_Hashtable_traitsILb0ELb0ELb1EEEE9_M_assignIRKSF_NS4_10_AllocNodeISaINS4_10_Hash_nodeIS2_Lb0EEEEEEEEvOT_RKT0_>:
  40a540:	a9bc7bfd 	stp	x29, x30, [sp, #-64]!
  40a544:	910003fd 	mov	x29, sp
  40a548:	a90153f3 	stp	x19, x20, [sp, #16]
  40a54c:	a9025bf5 	stp	x21, x22, [sp, #32]
  40a550:	f9001bf7 	str	x23, [sp, #48]
  40a554:	aa0003f4 	mov	x20, x0
  40a558:	aa0103f3 	mov	x19, x1
  40a55c:	f9400000 	ldr	x0, [x0]
  40a560:	d2800016 	mov	x22, #0x0                   	// #0
  40a564:	b40000c0 	cbz	x0, 40a57c <_ZNSt10_HashtableIiSt4pairIKiiESaIS2_ENSt8__detail10_Select1stESt8equal_toIiESt4hashIiENS4_18_Mod_range_hashingENS4_20_Default_ranged_hashENS4_20_Prime_rehash_policyENS4_17_Hashtable_traitsILb0ELb0ELb1EEEE9_M_assignIRKSF_NS4_10_AllocNodeISaINS4_10_Hash_nodeIS2_Lb0EEEEEEEEvOT_RKT0_+0x3c>
  40a568:	f9400a73 	ldr	x19, [x19, #16]
  40a56c:	b4000833 	cbz	x19, 40a670 <_ZNSt10_HashtableIiSt4pairIKiiESaIS2_ENSt8__detail10_Select1stESt8equal_toIiESt4hashIiENS4_18_Mod_range_hashingENS4_20_Default_ranged_hashENS4_20_Prime_rehash_policyENS4_17_Hashtable_traitsILb0ELb0ELb1EEEE9_M_assignIRKSF_NS4_10_AllocNodeISaINS4_10_Hash_nodeIS2_Lb0EEEEEEEEvOT_RKT0_+0x130>
  40a570:	d2800200 	mov	x0, #0x10                  	// #16
  40a574:	97ffdecf 	bl	4020b0 <_Znwm@plt>
  40a578:	1400000c 	b	40a5a8 <_ZNSt10_HashtableIiSt4pairIKiiESaIS2_ENSt8__detail10_Select1stESt8equal_toIiESt4hashIiENS4_18_Mod_range_hashingENS4_20_Default_ranged_hashENS4_20_Prime_rehash_policyENS4_17_Hashtable_traitsILb0ELb0ELb1EEEE9_M_assignIRKSF_NS4_10_AllocNodeISaINS4_10_Hash_nodeIS2_Lb0EEEEEEEEvOT_RKT0_+0x68>
  40a57c:	f9400681 	ldr	x1, [x20, #8]
  40a580:	f100043f 	cmp	x1, #0x1
  40a584:	540000c0 	b.eq	40a59c <_ZNSt10_HashtableIiSt4pairIKiiESaIS2_ENSt8__detail10_Select1stESt8equal_toIiESt4hashIiENS4_18_Mod_range_hashingENS4_20_Default_ranged_hashENS4_20_Prime_rehash_policyENS4_17_Hashtable_traitsILb0ELb0ELb1EEEE9_M_assignIRKSF_NS4_10_AllocNodeISaINS4_10_Hash_nodeIS2_Lb0EEEEEEEEvOT_RKT0_+0x5c>  // b.none
  40a588:	aa1403e0 	mov	x0, x20
  40a58c:	97ffffdb 	bl	40a4f8 <_ZNSt8__detail16_Hashtable_allocISaINS_10_Hash_nodeISt4pairIKiiELb0EEEEE19_M_allocate_bucketsEm>
  40a590:	aa0003f6 	mov	x22, x0
  40a594:	f9000296 	str	x22, [x20]
  40a598:	17fffff4 	b	40a568 <_ZNSt10_HashtableIiSt4pairIKiiESaIS2_ENSt8__detail10_Select1stESt8equal_toIiESt4hashIiENS4_18_Mod_range_hashingENS4_20_Default_ranged_hashENS4_20_Prime_rehash_policyENS4_17_Hashtable_traitsILb0ELb0ELb1EEEE9_M_assignIRKSF_NS4_10_AllocNodeISaINS4_10_Hash_nodeIS2_Lb0EEEEEEEEvOT_RKT0_+0x28>
  40a59c:	aa1403f6 	mov	x22, x20
  40a5a0:	f8030edf 	str	xzr, [x22, #48]!
  40a5a4:	17fffffc 	b	40a594 <_ZNSt10_HashtableIiSt4pairIKiiESaIS2_ENSt8__detail10_Select1stESt8equal_toIiESt4hashIiENS4_18_Mod_range_hashingENS4_20_Default_ranged_hashENS4_20_Prime_rehash_policyENS4_17_Hashtable_traitsILb0ELb0ELb1EEEE9_M_assignIRKSF_NS4_10_AllocNodeISaINS4_10_Hash_nodeIS2_Lb0EEEEEEEEvOT_RKT0_+0x54>
  40a5a8:	f900001f 	str	xzr, [x0]
  40a5ac:	f9400661 	ldr	x1, [x19, #8]
  40a5b0:	f9000401 	str	x1, [x0, #8]
  40a5b4:	f9000a80 	str	x0, [x20, #16]
  40a5b8:	93407c21 	sxtw	x1, w1
  40a5bc:	f9400683 	ldr	x3, [x20, #8]
  40a5c0:	9ac30822 	udiv	x2, x1, x3
  40a5c4:	9b038441 	msub	x1, x2, x3, x1
  40a5c8:	aa1403e2 	mov	x2, x20
  40a5cc:	f8410443 	ldr	x3, [x2], #16
  40a5d0:	f8217862 	str	x2, [x3, x1, lsl #3]
  40a5d4:	f9400273 	ldr	x19, [x19]
  40a5d8:	b40004d3 	cbz	x19, 40a670 <_ZNSt10_HashtableIiSt4pairIKiiESaIS2_ENSt8__detail10_Select1stESt8equal_toIiESt4hashIiENS4_18_Mod_range_hashingENS4_20_Default_ranged_hashENS4_20_Prime_rehash_policyENS4_17_Hashtable_traitsILb0ELb0ELb1EEEE9_M_assignIRKSF_NS4_10_AllocNodeISaINS4_10_Hash_nodeIS2_Lb0EEEEEEEEvOT_RKT0_+0x130>
  40a5dc:	d2800217 	mov	x23, #0x10                  	// #16
  40a5e0:	1400000e 	b	40a618 <_ZNSt10_HashtableIiSt4pairIKiiESaIS2_ENSt8__detail10_Select1stESt8equal_toIiESt4hashIiENS4_18_Mod_range_hashingENS4_20_Default_ranged_hashENS4_20_Prime_rehash_policyENS4_17_Hashtable_traitsILb0ELb0ELb1EEEE9_M_assignIRKSF_NS4_10_AllocNodeISaINS4_10_Hash_nodeIS2_Lb0EEEEEEEEvOT_RKT0_+0xd8>
  40a5e4:	f900001f 	str	xzr, [x0]
  40a5e8:	f9400661 	ldr	x1, [x19, #8]
  40a5ec:	f9000401 	str	x1, [x0, #8]
  40a5f0:	f90002a0 	str	x0, [x21]
  40a5f4:	b9800803 	ldrsw	x3, [x0, #8]
  40a5f8:	f9400682 	ldr	x2, [x20, #8]
  40a5fc:	9ac20861 	udiv	x1, x3, x2
  40a600:	9b028c21 	msub	x1, x1, x2, x3
  40a604:	f9400282 	ldr	x2, [x20]
  40a608:	f8617843 	ldr	x3, [x2, x1, lsl #3]
  40a60c:	b40000e3 	cbz	x3, 40a628 <_ZNSt10_HashtableIiSt4pairIKiiESaIS2_ENSt8__detail10_Select1stESt8equal_toIiESt4hashIiENS4_18_Mod_range_hashingENS4_20_Default_ranged_hashENS4_20_Prime_rehash_policyENS4_17_Hashtable_traitsILb0ELb0ELb1EEEE9_M_assignIRKSF_NS4_10_AllocNodeISaINS4_10_Hash_nodeIS2_Lb0EEEEEEEEvOT_RKT0_+0xe8>
  40a610:	f9400273 	ldr	x19, [x19]
  40a614:	b40002f3 	cbz	x19, 40a670 <_ZNSt10_HashtableIiSt4pairIKiiESaIS2_ENSt8__detail10_Select1stESt8equal_toIiESt4hashIiENS4_18_Mod_range_hashingENS4_20_Default_ranged_hashENS4_20_Prime_rehash_policyENS4_17_Hashtable_traitsILb0ELb0ELb1EEEE9_M_assignIRKSF_NS4_10_AllocNodeISaINS4_10_Hash_nodeIS2_Lb0EEEEEEEEvOT_RKT0_+0x130>
  40a618:	aa0003f5 	mov	x21, x0
  40a61c:	aa1703e0 	mov	x0, x23
  40a620:	97ffdea4 	bl	4020b0 <_Znwm@plt>
  40a624:	17fffff0 	b	40a5e4 <_ZNSt10_HashtableIiSt4pairIKiiESaIS2_ENSt8__detail10_Select1stESt8equal_toIiESt4hashIiENS4_18_Mod_range_hashingENS4_20_Default_ranged_hashENS4_20_Prime_rehash_policyENS4_17_Hashtable_traitsILb0ELb0ELb1EEEE9_M_assignIRKSF_NS4_10_AllocNodeISaINS4_10_Hash_nodeIS2_Lb0EEEEEEEEvOT_RKT0_+0xa4>
  40a628:	f8217855 	str	x21, [x2, x1, lsl #3]
  40a62c:	17fffff9 	b	40a610 <_ZNSt10_HashtableIiSt4pairIKiiESaIS2_ENSt8__detail10_Select1stESt8equal_toIiESt4hashIiENS4_18_Mod_range_hashingENS4_20_Default_ranged_hashENS4_20_Prime_rehash_policyENS4_17_Hashtable_traitsILb0ELb0ELb1EEEE9_M_assignIRKSF_NS4_10_AllocNodeISaINS4_10_Hash_nodeIS2_Lb0EEEEEEEEvOT_RKT0_+0xd0>
  40a630:	97ffde68 	bl	401fd0 <__cxa_begin_catch@plt>
  40a634:	aa1403e0 	mov	x0, x20
  40a638:	97fffc04 	bl	409648 <_ZNSt10_HashtableIiSt4pairIKiiESaIS2_ENSt8__detail10_Select1stESt8equal_toIiESt4hashIiENS4_18_Mod_range_hashingENS4_20_Default_ranged_hashENS4_20_Prime_rehash_policyENS4_17_Hashtable_traitsILb0ELb0ELb1EEEE5clearEv>
  40a63c:	b4000116 	cbz	x22, 40a65c <_ZNSt10_HashtableIiSt4pairIKiiESaIS2_ENSt8__detail10_Select1stESt8equal_toIiESt4hashIiENS4_18_Mod_range_hashingENS4_20_Default_ranged_hashENS4_20_Prime_rehash_policyENS4_17_Hashtable_traitsILb0ELb0ELb1EEEE9_M_assignIRKSF_NS4_10_AllocNodeISaINS4_10_Hash_nodeIS2_Lb0EEEEEEEEvOT_RKT0_+0x11c>
  40a640:	f9400280 	ldr	x0, [x20]
  40a644:	f9400681 	ldr	x1, [x20, #8]
  40a648:	9100c294 	add	x20, x20, #0x30
  40a64c:	eb14001f 	cmp	x0, x20
  40a650:	54000060 	b.eq	40a65c <_ZNSt10_HashtableIiSt4pairIKiiESaIS2_ENSt8__detail10_Select1stESt8equal_toIiESt4hashIiENS4_18_Mod_range_hashingENS4_20_Default_ranged_hashENS4_20_Prime_rehash_policyENS4_17_Hashtable_traitsILb0ELb0ELb1EEEE9_M_assignIRKSF_NS4_10_AllocNodeISaINS4_10_Hash_nodeIS2_Lb0EEEEEEEEvOT_RKT0_+0x11c>  // b.none
  40a654:	d37df021 	lsl	x1, x1, #3
  40a658:	97ffde9a 	bl	4020c0 <_ZdlPvm@plt>
  40a65c:	97ffded9 	bl	4021c0 <__cxa_rethrow@plt>
  40a660:	aa0003f3 	mov	x19, x0
  40a664:	97ffdeef 	bl	402220 <__cxa_end_catch@plt>
  40a668:	aa1303e0 	mov	x0, x19
  40a66c:	97ffdefd 	bl	402260 <_Unwind_Resume@plt>
  40a670:	a94153f3 	ldp	x19, x20, [sp, #16]
  40a674:	a9425bf5 	ldp	x21, x22, [sp, #32]
  40a678:	f9401bf7 	ldr	x23, [sp, #48]
  40a67c:	a8c47bfd 	ldp	x29, x30, [sp], #64
  40a680:	d65f03c0 	ret

000000000040a684 <_ZN7segmentC1ERKS_>:
  40a684:	a9bb7bfd 	stp	x29, x30, [sp, #-80]!
  40a688:	910003fd 	mov	x29, sp
  40a68c:	a90153f3 	stp	x19, x20, [sp, #16]
  40a690:	a9025bf5 	stp	x21, x22, [sp, #32]
  40a694:	a90363f7 	stp	x23, x24, [sp, #48]
  40a698:	aa0003f5 	mov	x21, x0
  40a69c:	aa0103f6 	mov	x22, x1
  40a6a0:	b9400020 	ldr	w0, [x1]
  40a6a4:	b90002a0 	str	w0, [x21]
  40a6a8:	b9400420 	ldr	w0, [x1, #4]
  40a6ac:	b90006a0 	str	w0, [x21, #4]
  40a6b0:	f9400833 	ldr	x19, [x1, #16]
  40a6b4:	f9400420 	ldr	x0, [x1, #8]
  40a6b8:	f90006bf 	str	xzr, [x21, #8]
  40a6bc:	f9000abf 	str	xzr, [x21, #16]
  40a6c0:	f9000ebf 	str	xzr, [x21, #24]
  40a6c4:	eb000273 	subs	x19, x19, x0
  40a6c8:	54000240 	b.eq	40a710 <_ZN7segmentC1ERKS_+0x8c>  // b.none
  40a6cc:	b27be7e0 	mov	x0, #0x7fffffffffffffe0    	// #9223372036854775776
  40a6d0:	eb00027f 	cmp	x19, x0
  40a6d4:	540001c8 	b.hi	40a70c <_ZN7segmentC1ERKS_+0x88>  // b.pmore
  40a6d8:	aa1303e0 	mov	x0, x19
  40a6dc:	97ffde75 	bl	4020b0 <_Znwm@plt>
  40a6e0:	aa0003f8 	mov	x24, x0
  40a6e4:	f90006b8 	str	x24, [x21, #8]
  40a6e8:	f9000ab8 	str	x24, [x21, #16]
  40a6ec:	8b130313 	add	x19, x24, x19
  40a6f0:	f9000eb3 	str	x19, [x21, #24]
  40a6f4:	f94006d3 	ldr	x19, [x22, #8]
  40a6f8:	f9400ad7 	ldr	x23, [x22, #16]
  40a6fc:	eb17027f 	cmp	x19, x23
  40a700:	54000260 	b.eq	40a74c <_ZN7segmentC1ERKS_+0xc8>  // b.none
  40a704:	aa1803f4 	mov	x20, x24
  40a708:	14000008 	b	40a728 <_ZN7segmentC1ERKS_+0xa4>
  40a70c:	97ffde2d 	bl	401fc0 <_ZSt17__throw_bad_allocv@plt>
  40a710:	d2800018 	mov	x24, #0x0                   	// #0
  40a714:	17fffff4 	b	40a6e4 <_ZN7segmentC1ERKS_+0x60>
  40a718:	91008294 	add	x20, x20, #0x20
  40a71c:	91008273 	add	x19, x19, #0x20
  40a720:	eb1302ff 	cmp	x23, x19
  40a724:	54000160 	b.eq	40a750 <_ZN7segmentC1ERKS_+0xcc>  // b.none
  40a728:	91004281 	add	x1, x20, #0x10
  40a72c:	f9000281 	str	x1, [x20]
  40a730:	f9400261 	ldr	x1, [x19]
  40a734:	f9400662 	ldr	x2, [x19, #8]
  40a738:	52800003 	mov	w3, #0x0                   	// #0
  40a73c:	8b020022 	add	x2, x1, x2
  40a740:	aa1403e0 	mov	x0, x20
  40a744:	97fffd44 	bl	409c54 <_ZNSt7__cxx1112basic_stringIcSt11char_traitsIcESaIcEE12_M_constructIPcEEvT_S7_St20forward_iterator_tag>
  40a748:	17fffff4 	b	40a718 <_ZN7segmentC1ERKS_+0x94>
  40a74c:	aa1803f4 	mov	x20, x24
  40a750:	f9000ab4 	str	x20, [x21, #16]
  40a754:	f94016d4 	ldr	x20, [x22, #40]
  40a758:	f94012c1 	ldr	x1, [x22, #32]
  40a75c:	f90012bf 	str	xzr, [x21, #32]
  40a760:	f90016bf 	str	xzr, [x21, #40]
  40a764:	f9001abf 	str	xzr, [x21, #48]
  40a768:	eb010294 	subs	x20, x20, x1
  40a76c:	d2800013 	mov	x19, #0x0                   	// #0
  40a770:	54000380 	b.eq	40a7e0 <_ZN7segmentC1ERKS_+0x15c>  // b.none
  40a774:	b27ef3e0 	mov	x0, #0x7ffffffffffffffc    	// #9223372036854775804
  40a778:	eb00029f 	cmp	x20, x0
  40a77c:	540002a8 	b.hi	40a7d0 <_ZN7segmentC1ERKS_+0x14c>  // b.pmore
  40a780:	aa1403e0 	mov	x0, x20
  40a784:	97ffde4b 	bl	4020b0 <_Znwm@plt>
  40a788:	14000015 	b	40a7dc <_ZN7segmentC1ERKS_+0x158>
  40a78c:	97ffde11 	bl	401fd0 <__cxa_begin_catch@plt>
  40a790:	eb14031f 	cmp	x24, x20
  40a794:	540000a0 	b.eq	40a7a8 <_ZN7segmentC1ERKS_+0x124>  // b.none
  40a798:	aa1803e0 	mov	x0, x24
  40a79c:	97ffde5d 	bl	402110 <_ZNSt7__cxx1112basic_stringIcSt11char_traitsIcESaIcEE10_M_disposeEv@plt>
  40a7a0:	91008318 	add	x24, x24, #0x20
  40a7a4:	17fffffb 	b	40a790 <_ZN7segmentC1ERKS_+0x10c>
  40a7a8:	97ffde86 	bl	4021c0 <__cxa_rethrow@plt>
  40a7ac:	aa0003f3 	mov	x19, x0
  40a7b0:	97ffde9c 	bl	402220 <__cxa_end_catch@plt>
  40a7b4:	f94006a0 	ldr	x0, [x21, #8]
  40a7b8:	f9400ea1 	ldr	x1, [x21, #24]
  40a7bc:	cb000021 	sub	x1, x1, x0
  40a7c0:	b4000040 	cbz	x0, 40a7c8 <_ZN7segmentC1ERKS_+0x144>
  40a7c4:	97ffde3f 	bl	4020c0 <_ZdlPvm@plt>
  40a7c8:	aa1303e0 	mov	x0, x19
  40a7cc:	97ffdea5 	bl	402260 <_Unwind_Resume@plt>
  40a7d0:	97ffddfc 	bl	401fc0 <_ZSt17__throw_bad_allocv@plt>
  40a7d4:	aa0003f3 	mov	x19, x0
  40a7d8:	14000036 	b	40a8b0 <_ZN7segmentC1ERKS_+0x22c>
  40a7dc:	aa0003f3 	mov	x19, x0
  40a7e0:	f90012b3 	str	x19, [x21, #32]
  40a7e4:	f90016b3 	str	x19, [x21, #40]
  40a7e8:	8b140274 	add	x20, x19, x20
  40a7ec:	f9001ab4 	str	x20, [x21, #48]
  40a7f0:	f94012c1 	ldr	x1, [x22, #32]
  40a7f4:	f94016c0 	ldr	x0, [x22, #40]
  40a7f8:	cb010014 	sub	x20, x0, x1
  40a7fc:	eb00003f 	cmp	x1, x0
  40a800:	54000080 	b.eq	40a810 <_ZN7segmentC1ERKS_+0x18c>  // b.none
  40a804:	aa1403e2 	mov	x2, x20
  40a808:	aa1303e0 	mov	x0, x19
  40a80c:	97ffde45 	bl	402120 <memmove@plt>
  40a810:	8b140273 	add	x19, x19, x20
  40a814:	f90016b3 	str	x19, [x21, #40]
  40a818:	b9403ac0 	ldr	w0, [x22, #56]
  40a81c:	b9003aa0 	str	w0, [x21, #56]
  40a820:	910102b3 	add	x19, x21, #0x40
  40a824:	f90022bf 	str	xzr, [x21, #64]
  40a828:	910102c1 	add	x1, x22, #0x40
  40a82c:	f9400420 	ldr	x0, [x1, #8]
  40a830:	f9000660 	str	x0, [x19, #8]
  40a834:	f9002abf 	str	xzr, [x21, #80]
  40a838:	f9400c20 	ldr	x0, [x1, #24]
  40a83c:	f9000e60 	str	x0, [x19, #24]
  40a840:	a9420c22 	ldp	x2, x3, [x1, #32]
  40a844:	a9020e62 	stp	x2, x3, [x19, #32]
  40a848:	f9001a7f 	str	xzr, [x19, #48]
  40a84c:	f90023f3 	str	x19, [sp, #64]
  40a850:	910103e2 	add	x2, sp, #0x40
  40a854:	aa1303e0 	mov	x0, x19
  40a858:	97fffed9 	bl	40a3bc <_ZNSt10_HashtableINSt7__cxx1112basic_stringIcSt11char_traitsIcESaIcEEESt4pairIKS5_iESaIS8_ENSt8__detail10_Select1stESt8equal_toIS5_ESt4hashIS5_ENSA_18_Mod_range_hashingENSA_20_Default_ranged_hashENSA_20_Prime_rehash_policyENSA_17_Hashtable_traitsILb1ELb0ELb1EEEE9_M_assignIRKSL_NSA_10_AllocNodeISaINSA_10_Hash_nodeIS8_Lb1EEEEEEEEvOT_RKT0_>
  40a85c:	9101e2a0 	add	x0, x21, #0x78
  40a860:	f9003ebf 	str	xzr, [x21, #120]
  40a864:	9101e2c1 	add	x1, x22, #0x78
  40a868:	f9400422 	ldr	x2, [x1, #8]
  40a86c:	f9000402 	str	x2, [x0, #8]
  40a870:	f90046bf 	str	xzr, [x21, #136]
  40a874:	f9400c22 	ldr	x2, [x1, #24]
  40a878:	f9000c02 	str	x2, [x0, #24]
  40a87c:	a9420c22 	ldp	x2, x3, [x1, #32]
  40a880:	a9020c02 	stp	x2, x3, [x0, #32]
  40a884:	f900181f 	str	xzr, [x0, #48]
  40a888:	f90027e0 	str	x0, [sp, #72]
  40a88c:	910123e2 	add	x2, sp, #0x48
  40a890:	97ffff2c 	bl	40a540 <_ZNSt10_HashtableIiSt4pairIKiiESaIS2_ENSt8__detail10_Select1stESt8equal_toIiESt4hashIiENS4_18_Mod_range_hashingENS4_20_Default_ranged_hashENS4_20_Prime_rehash_policyENS4_17_Hashtable_traitsILb0ELb0ELb1EEEE9_M_assignIRKSF_NS4_10_AllocNodeISaINS4_10_Hash_nodeIS2_Lb0EEEEEEEEvOT_RKT0_>
  40a894:	1400001d 	b	40a908 <_ZN7segmentC1ERKS_+0x284>
  40a898:	aa0003f4 	mov	x20, x0
  40a89c:	aa1303e0 	mov	x0, x19
  40a8a0:	97ffe3ce 	bl	4037d8 <_ZNSt10_HashtableINSt7__cxx1112basic_stringIcSt11char_traitsIcESaIcEEESt4pairIKS5_iESaIS8_ENSt8__detail10_Select1stESt8equal_toIS5_ESt4hashIS5_ENSA_18_Mod_range_hashingENSA_20_Default_ranged_hashENSA_20_Prime_rehash_policyENSA_17_Hashtable_traitsILb1ELb0ELb1EEEED1Ev>
  40a8a4:	aa1403f3 	mov	x19, x20
  40a8a8:	910082a0 	add	x0, x21, #0x20
  40a8ac:	97fffb5c 	bl	40961c <_ZNSt12_Vector_baseIiSaIiEED1Ev>
  40a8b0:	f94006b4 	ldr	x20, [x21, #8]
  40a8b4:	f9400ab6 	ldr	x22, [x21, #16]
  40a8b8:	eb1402df 	cmp	x22, x20
  40a8bc:	54000180 	b.eq	40a8ec <_ZN7segmentC1ERKS_+0x268>  // b.none
  40a8c0:	aa1403e1 	mov	x1, x20
  40a8c4:	f8410420 	ldr	x0, [x1], #16
  40a8c8:	eb01001f 	cmp	x0, x1
  40a8cc:	54000080 	b.eq	40a8dc <_ZN7segmentC1ERKS_+0x258>  // b.none
  40a8d0:	f9400a81 	ldr	x1, [x20, #16]
  40a8d4:	91000421 	add	x1, x1, #0x1
  40a8d8:	97ffddfa 	bl	4020c0 <_ZdlPvm@plt>
  40a8dc:	91008294 	add	x20, x20, #0x20
  40a8e0:	17fffff6 	b	40a8b8 <_ZN7segmentC1ERKS_+0x234>
  40a8e4:	aa0003f3 	mov	x19, x0
  40a8e8:	17fffff0 	b	40a8a8 <_ZN7segmentC1ERKS_+0x224>
  40a8ec:	f94006a0 	ldr	x0, [x21, #8]
  40a8f0:	f9400ea1 	ldr	x1, [x21, #24]
  40a8f4:	cb000021 	sub	x1, x1, x0
  40a8f8:	b4000040 	cbz	x0, 40a900 <_ZN7segmentC1ERKS_+0x27c>
  40a8fc:	97ffddf1 	bl	4020c0 <_ZdlPvm@plt>
  40a900:	aa1303e0 	mov	x0, x19
  40a904:	97ffde57 	bl	402260 <_Unwind_Resume@plt>
  40a908:	a94153f3 	ldp	x19, x20, [sp, #16]
  40a90c:	a9425bf5 	ldp	x21, x22, [sp, #32]
  40a910:	a94363f7 	ldp	x23, x24, [sp, #48]
  40a914:	a8c57bfd 	ldp	x29, x30, [sp], #80
  40a918:	d65f03c0 	ret

000000000040a91c <_ZN2PTC1ERKS_>:
  40a91c:	a9bc7bfd 	stp	x29, x30, [sp, #-64]!
  40a920:	910003fd 	mov	x29, sp
  40a924:	a90153f3 	stp	x19, x20, [sp, #16]
  40a928:	a9025bf5 	stp	x21, x22, [sp, #32]
  40a92c:	a90363f7 	stp	x23, x24, [sp, #48]
  40a930:	aa0003f5 	mov	x21, x0
  40a934:	aa0103f6 	mov	x22, x1
  40a938:	f9400433 	ldr	x19, [x1, #8]
  40a93c:	f9400020 	ldr	x0, [x1]
  40a940:	f90002bf 	str	xzr, [x21]
  40a944:	f90006bf 	str	xzr, [x21, #8]
  40a948:	f9000abf 	str	xzr, [x21, #16]
  40a94c:	eb000273 	subs	x19, x19, x0
  40a950:	54000260 	b.eq	40a99c <_ZN2PTC1ERKS_+0x80>  // b.none
  40a954:	92800be0 	mov	x0, #0xffffffffffffffa0    	// #-96
  40a958:	f2efffe0 	movk	x0, #0x7fff, lsl #48
  40a95c:	eb00027f 	cmp	x19, x0
  40a960:	540001c8 	b.hi	40a998 <_ZN2PTC1ERKS_+0x7c>  // b.pmore
  40a964:	aa1303e0 	mov	x0, x19
  40a968:	97ffddd2 	bl	4020b0 <_Znwm@plt>
  40a96c:	aa0003f8 	mov	x24, x0
  40a970:	f90002b8 	str	x24, [x21]
  40a974:	f90006b8 	str	x24, [x21, #8]
  40a978:	8b130313 	add	x19, x24, x19
  40a97c:	f9000ab3 	str	x19, [x21, #16]
  40a980:	f94002d3 	ldr	x19, [x22]
  40a984:	f94006d7 	ldr	x23, [x22, #8]
  40a988:	eb17027f 	cmp	x19, x23
  40a98c:	540001c0 	b.eq	40a9c4 <_ZN2PTC1ERKS_+0xa8>  // b.none
  40a990:	aa1803f4 	mov	x20, x24
  40a994:	14000008 	b	40a9b4 <_ZN2PTC1ERKS_+0x98>
  40a998:	97ffdd8a 	bl	401fc0 <_ZSt17__throw_bad_allocv@plt>
  40a99c:	d2800018 	mov	x24, #0x0                   	// #0
  40a9a0:	17fffff4 	b	40a970 <_ZN2PTC1ERKS_+0x54>
  40a9a4:	9102c294 	add	x20, x20, #0xb0
  40a9a8:	9102c273 	add	x19, x19, #0xb0
  40a9ac:	eb1302ff 	cmp	x23, x19
  40a9b0:	540000c0 	b.eq	40a9c8 <_ZN2PTC1ERKS_+0xac>  // b.none
  40a9b4:	aa1303e1 	mov	x1, x19
  40a9b8:	aa1403e0 	mov	x0, x20
  40a9bc:	97ffff32 	bl	40a684 <_ZN7segmentC1ERKS_>
  40a9c0:	17fffff9 	b	40a9a4 <_ZN2PTC1ERKS_+0x88>
  40a9c4:	aa1803f4 	mov	x20, x24
  40a9c8:	f90006b4 	str	x20, [x21, #8]
  40a9cc:	b9401ac0 	ldr	w0, [x22, #24]
  40a9d0:	b9001aa0 	str	w0, [x21, #24]
  40a9d4:	f94016d4 	ldr	x20, [x22, #40]
  40a9d8:	f94012c1 	ldr	x1, [x22, #32]
  40a9dc:	f90012bf 	str	xzr, [x21, #32]
  40a9e0:	f90016bf 	str	xzr, [x21, #40]
  40a9e4:	f9001abf 	str	xzr, [x21, #48]
  40a9e8:	eb010294 	subs	x20, x20, x1
  40a9ec:	d2800013 	mov	x19, #0x0                   	// #0
  40a9f0:	54000380 	b.eq	40aa60 <_ZN2PTC1ERKS_+0x144>  // b.none
  40a9f4:	b27ef3e0 	mov	x0, #0x7ffffffffffffffc    	// #9223372036854775804
  40a9f8:	eb00029f 	cmp	x20, x0
  40a9fc:	540002a8 	b.hi	40aa50 <_ZN2PTC1ERKS_+0x134>  // b.pmore
  40aa00:	aa1403e0 	mov	x0, x20
  40aa04:	97ffddab 	bl	4020b0 <_Znwm@plt>
  40aa08:	14000015 	b	40aa5c <_ZN2PTC1ERKS_+0x140>
  40aa0c:	97ffdd71 	bl	401fd0 <__cxa_begin_catch@plt>
  40aa10:	eb14031f 	cmp	x24, x20
  40aa14:	540000a0 	b.eq	40aa28 <_ZN2PTC1ERKS_+0x10c>  // b.none
  40aa18:	aa1803e0 	mov	x0, x24
  40aa1c:	97fffbf4 	bl	4099ec <_ZN7segmentD1Ev>
  40aa20:	9102c318 	add	x24, x24, #0xb0
  40aa24:	17fffffb 	b	40aa10 <_ZN2PTC1ERKS_+0xf4>
  40aa28:	97ffdde6 	bl	4021c0 <__cxa_rethrow@plt>
  40aa2c:	aa0003f3 	mov	x19, x0
  40aa30:	97ffddfc 	bl	402220 <__cxa_end_catch@plt>
  40aa34:	f94002a0 	ldr	x0, [x21]
  40aa38:	f9400aa1 	ldr	x1, [x21, #16]
  40aa3c:	cb000021 	sub	x1, x1, x0
  40aa40:	b4000040 	cbz	x0, 40aa48 <_ZN2PTC1ERKS_+0x12c>
  40aa44:	97ffdd9f 	bl	4020c0 <_ZdlPvm@plt>
  40aa48:	aa1303e0 	mov	x0, x19
  40aa4c:	97ffde05 	bl	402260 <_Unwind_Resume@plt>
  40aa50:	97ffdd5c 	bl	401fc0 <_ZSt17__throw_bad_allocv@plt>
  40aa54:	aa0003f3 	mov	x19, x0
  40aa58:	14000021 	b	40aadc <_ZN2PTC1ERKS_+0x1c0>
  40aa5c:	aa0003f3 	mov	x19, x0
  40aa60:	f90012b3 	str	x19, [x21, #32]
  40aa64:	f90016b3 	str	x19, [x21, #40]
  40aa68:	8b140274 	add	x20, x19, x20
  40aa6c:	f9001ab4 	str	x20, [x21, #48]
  40aa70:	f94012c1 	ldr	x1, [x22, #32]
  40aa74:	f94016c0 	ldr	x0, [x22, #40]
  40aa78:	cb010014 	sub	x20, x0, x1
  40aa7c:	eb00003f 	cmp	x1, x0
  40aa80:	54000080 	b.eq	40aa90 <_ZN2PTC1ERKS_+0x174>  // b.none
  40aa84:	aa1403e2 	mov	x2, x20
  40aa88:	aa1303e0 	mov	x0, x19
  40aa8c:	97ffdda5 	bl	402120 <memmove@plt>
  40aa90:	8b140273 	add	x19, x19, x20
  40aa94:	f90016b3 	str	x19, [x21, #40]
  40aa98:	f94022d4 	ldr	x20, [x22, #64]
  40aa9c:	f9401ec1 	ldr	x1, [x22, #56]
  40aaa0:	f9001ebf 	str	xzr, [x21, #56]
  40aaa4:	f90022bf 	str	xzr, [x21, #64]
  40aaa8:	f90026bf 	str	xzr, [x21, #72]
  40aaac:	eb010294 	subs	x20, x20, x1
  40aab0:	540004e0 	b.eq	40ab4c <_ZN2PTC1ERKS_+0x230>  // b.none
  40aab4:	b27ef3e0 	mov	x0, #0x7ffffffffffffffc    	// #9223372036854775804
  40aab8:	eb00029f 	cmp	x20, x0
  40aabc:	54000088 	b.hi	40aacc <_ZN2PTC1ERKS_+0x1b0>  // b.pmore
  40aac0:	aa1403e0 	mov	x0, x20
  40aac4:	97ffdd7b 	bl	4020b0 <_Znwm@plt>
  40aac8:	14000009 	b	40aaec <_ZN2PTC1ERKS_+0x1d0>
  40aacc:	97ffdd3d 	bl	401fc0 <_ZSt17__throw_bad_allocv@plt>
  40aad0:	aa0003f3 	mov	x19, x0
  40aad4:	910082a0 	add	x0, x21, #0x20
  40aad8:	97fffad1 	bl	40961c <_ZNSt12_Vector_baseIiSaIiEED1Ev>
  40aadc:	aa1503e0 	mov	x0, x21
  40aae0:	97fffbe9 	bl	409a84 <_ZNSt6vectorI7segmentSaIS0_EED1Ev>
  40aae4:	aa1303e0 	mov	x0, x19
  40aae8:	97ffddde 	bl	402260 <_Unwind_Resume@plt>
  40aaec:	aa0003f3 	mov	x19, x0
  40aaf0:	f9001eb3 	str	x19, [x21, #56]
  40aaf4:	f90022b3 	str	x19, [x21, #64]
  40aaf8:	8b140274 	add	x20, x19, x20
  40aafc:	f90026b4 	str	x20, [x21, #72]
  40ab00:	f9401ec1 	ldr	x1, [x22, #56]
  40ab04:	f94022c0 	ldr	x0, [x22, #64]
  40ab08:	cb010014 	sub	x20, x0, x1
  40ab0c:	eb00003f 	cmp	x1, x0
  40ab10:	54000080 	b.eq	40ab20 <_ZN2PTC1ERKS_+0x204>  // b.none
  40ab14:	aa1403e2 	mov	x2, x20
  40ab18:	aa1303e0 	mov	x0, x19
  40ab1c:	97ffdd81 	bl	402120 <memmove@plt>
  40ab20:	8b140273 	add	x19, x19, x20
  40ab24:	f90022b3 	str	x19, [x21, #64]
  40ab28:	bd4052c0 	ldr	s0, [x22, #80]
  40ab2c:	bd0052a0 	str	s0, [x21, #80]
  40ab30:	bd4056c0 	ldr	s0, [x22, #84]
  40ab34:	bd0056a0 	str	s0, [x21, #84]
  40ab38:	a94153f3 	ldp	x19, x20, [sp, #16]
  40ab3c:	a9425bf5 	ldp	x21, x22, [sp, #32]
  40ab40:	a94363f7 	ldp	x23, x24, [sp, #48]
  40ab44:	a8c47bfd 	ldp	x29, x30, [sp], #64
  40ab48:	d65f03c0 	ret
  40ab4c:	d2800013 	mov	x19, #0x0                   	// #0
  40ab50:	17ffffe8 	b	40aaf0 <_ZN2PTC1ERKS_+0x1d4>

000000000040ab54 <_ZNSt6vectorI2PTSaIS0_EE17_M_realloc_insertIJRS0_EEEvN9__gnu_cxx17__normal_iteratorIPS0_S2_EEDpOT_>:
  40ab54:	a9b97bfd 	stp	x29, x30, [sp, #-112]!
  40ab58:	910003fd 	mov	x29, sp
  40ab5c:	a9046bf9 	stp	x25, x26, [sp, #64]
  40ab60:	a90573fb 	stp	x27, x28, [sp, #80]
  40ab64:	f90037e0 	str	x0, [sp, #104]
  40ab68:	aa0103f9 	mov	x25, x1
  40ab6c:	f940041a 	ldr	x26, [x0, #8]
  40ab70:	f940001c 	ldr	x28, [x0]
  40ab74:	cb1c0340 	sub	x0, x26, x28
  40ab78:	9343fc00 	asr	x0, x0, #3
  40ab7c:	d2917461 	mov	x1, #0x8ba3                	// #35747
  40ab80:	f2b745c1 	movk	x1, #0xba2e, lsl #16
  40ab84:	f2d45d01 	movk	x1, #0xa2e8, lsl #32
  40ab88:	f2e5d161 	movk	x1, #0x2e8b, lsl #48
  40ab8c:	9b017c00 	mul	x0, x0, x1
  40ab90:	d28e8ba1 	mov	x1, #0x745d                	// #29789
  40ab94:	f2a8ba21 	movk	x1, #0x45d1, lsl #16
  40ab98:	f2cba2e1 	movk	x1, #0x5d17, lsl #32
  40ab9c:	f2e02e81 	movk	x1, #0x174, lsl #48
  40aba0:	eb01001f 	cmp	x0, x1
  40aba4:	54000240 	b.eq	40abec <_ZNSt6vectorI2PTSaIS0_EE17_M_realloc_insertIJRS0_EEEvN9__gnu_cxx17__normal_iteratorIPS0_S2_EEDpOT_+0x98>  // b.none
  40aba8:	a90153f3 	stp	x19, x20, [sp, #16]
  40abac:	a90363f7 	stp	x23, x24, [sp, #48]
  40abb0:	aa0203f3 	mov	x19, x2
  40abb4:	f100001f 	cmp	x0, #0x0
  40abb8:	9a9f1401 	csinc	x1, x0, xzr, ne  // ne = any
  40abbc:	ab000020 	adds	x0, x1, x0
  40abc0:	540018e2 	b.cs	40aedc <_ZNSt6vectorI2PTSaIS0_EE17_M_realloc_insertIJRS0_EEEvN9__gnu_cxx17__normal_iteratorIPS0_S2_EEDpOT_+0x388>  // b.hs, b.nlast
  40abc4:	d28e8bbb 	mov	x27, #0x745d                	// #29789
  40abc8:	f2a8ba3b 	movk	x27, #0x45d1, lsl #16
  40abcc:	f2cba2fb 	movk	x27, #0x5d17, lsl #32
  40abd0:	f2e02e9b 	movk	x27, #0x174, lsl #48
  40abd4:	eb1b001f 	cmp	x0, x27
  40abd8:	9a9b901b 	csel	x27, x0, x27, ls  // ls = plast
  40abdc:	cb1c0334 	sub	x20, x25, x28
  40abe0:	f90033ff 	str	xzr, [sp, #96]
  40abe4:	b4001920 	cbz	x0, 40af08 <_ZNSt6vectorI2PTSaIS0_EE17_M_realloc_insertIJRS0_EEEvN9__gnu_cxx17__normal_iteratorIPS0_S2_EEDpOT_+0x3b4>
  40abe8:	140000c2 	b	40aef0 <_ZNSt6vectorI2PTSaIS0_EE17_M_realloc_insertIJRS0_EEEvN9__gnu_cxx17__normal_iteratorIPS0_S2_EEDpOT_+0x39c>
  40abec:	a90153f3 	stp	x19, x20, [sp, #16]
  40abf0:	a9025bf5 	stp	x21, x22, [sp, #32]
  40abf4:	a90363f7 	stp	x23, x24, [sp, #48]
  40abf8:	90000040 	adrp	x0, 412000 <_Z19MD5Hash_simdversionPKNSt7__cxx1112basic_stringIcSt11char_traitsIcESaIcEEEP12__Uint32x4_t+0x1480>
  40abfc:	912d8000 	add	x0, x0, #0xb60
  40ac00:	97ffdd00 	bl	402000 <_ZSt20__throw_length_errorPKc@plt>
  40ac04:	eb1c033f 	cmp	x25, x28
  40ac08:	54001460 	b.eq	40ae94 <_ZNSt6vectorI2PTSaIS0_EE17_M_realloc_insertIJRS0_EEEvN9__gnu_cxx17__normal_iteratorIPS0_S2_EEDpOT_+0x340>  // b.none
  40ac0c:	a9025bf5 	stp	x21, x22, [sp, #32]
  40ac10:	aa1c03f4 	mov	x20, x28
  40ac14:	1400002b 	b	40acc0 <_ZNSt6vectorI2PTSaIS0_EE17_M_realloc_insertIJRS0_EEEvN9__gnu_cxx17__normal_iteratorIPS0_S2_EEDpOT_+0x16c>
  40ac18:	910082b5 	add	x21, x21, #0x20
  40ac1c:	eb1502df 	cmp	x22, x21
  40ac20:	54000120 	b.eq	40ac44 <_ZNSt6vectorI2PTSaIS0_EE17_M_realloc_insertIJRS0_EEEvN9__gnu_cxx17__normal_iteratorIPS0_S2_EEDpOT_+0xf0>  // b.none
  40ac24:	aa1503e1 	mov	x1, x21
  40ac28:	f8410420 	ldr	x0, [x1], #16
  40ac2c:	eb01001f 	cmp	x0, x1
  40ac30:	54ffff40 	b.eq	40ac18 <_ZNSt6vectorI2PTSaIS0_EE17_M_realloc_insertIJRS0_EEEvN9__gnu_cxx17__normal_iteratorIPS0_S2_EEDpOT_+0xc4>  // b.none
  40ac34:	f9400aa1 	ldr	x1, [x21, #16]
  40ac38:	91000421 	add	x1, x1, #0x1
  40ac3c:	97ffdd21 	bl	4020c0 <_ZdlPvm@plt>
  40ac40:	17fffff6 	b	40ac18 <_ZNSt6vectorI2PTSaIS0_EE17_M_realloc_insertIJRS0_EEEvN9__gnu_cxx17__normal_iteratorIPS0_S2_EEDpOT_+0xc4>
  40ac44:	f9400660 	ldr	x0, [x19, #8]
  40ac48:	b4000080 	cbz	x0, 40ac58 <_ZNSt6vectorI2PTSaIS0_EE17_M_realloc_insertIJRS0_EEEvN9__gnu_cxx17__normal_iteratorIPS0_S2_EEDpOT_+0x104>
  40ac4c:	f9400e61 	ldr	x1, [x19, #24]
  40ac50:	cb000021 	sub	x1, x1, x0
  40ac54:	97ffdd1b 	bl	4020c0 <_ZdlPvm@plt>
  40ac58:	9102c273 	add	x19, x19, #0xb0
  40ac5c:	eb13031f 	cmp	x24, x19
  40ac60:	540001e0 	b.eq	40ac9c <_ZNSt6vectorI2PTSaIS0_EE17_M_realloc_insertIJRS0_EEEvN9__gnu_cxx17__normal_iteratorIPS0_S2_EEDpOT_+0x148>  // b.none
  40ac64:	9101e260 	add	x0, x19, #0x78
  40ac68:	97ffe305 	bl	40387c <_ZNSt10_HashtableIiSt4pairIKiiESaIS2_ENSt8__detail10_Select1stESt8equal_toIiESt4hashIiENS4_18_Mod_range_hashingENS4_20_Default_ranged_hashENS4_20_Prime_rehash_policyENS4_17_Hashtable_traitsILb0ELb0ELb1EEEED1Ev>
  40ac6c:	91010260 	add	x0, x19, #0x40
  40ac70:	97ffe2da 	bl	4037d8 <_ZNSt10_HashtableINSt7__cxx1112basic_stringIcSt11char_traitsIcESaIcEEESt4pairIKS5_iESaIS8_ENSt8__detail10_Select1stESt8equal_toIS5_ESt4hashIS5_ENSA_18_Mod_range_hashingENSA_20_Default_ranged_hashENSA_20_Prime_rehash_policyENSA_17_Hashtable_traitsILb1ELb0ELb1EEEED1Ev>
  40ac74:	f9401260 	ldr	x0, [x19, #32]
  40ac78:	b4000080 	cbz	x0, 40ac88 <_ZNSt6vectorI2PTSaIS0_EE17_M_realloc_insertIJRS0_EEEvN9__gnu_cxx17__normal_iteratorIPS0_S2_EEDpOT_+0x134>
  40ac7c:	f9401a61 	ldr	x1, [x19, #48]
  40ac80:	cb000021 	sub	x1, x1, x0
  40ac84:	97ffdd0f 	bl	4020c0 <_ZdlPvm@plt>
  40ac88:	f9400675 	ldr	x21, [x19, #8]
  40ac8c:	f9400a76 	ldr	x22, [x19, #16]
  40ac90:	eb1602bf 	cmp	x21, x22
  40ac94:	54fffc81 	b.ne	40ac24 <_ZNSt6vectorI2PTSaIS0_EE17_M_realloc_insertIJRS0_EEEvN9__gnu_cxx17__normal_iteratorIPS0_S2_EEDpOT_+0xd0>  // b.any
  40ac98:	17ffffeb 	b	40ac44 <_ZNSt6vectorI2PTSaIS0_EE17_M_realloc_insertIJRS0_EEEvN9__gnu_cxx17__normal_iteratorIPS0_S2_EEDpOT_+0xf0>
  40ac9c:	f9400280 	ldr	x0, [x20]
  40aca0:	b4000080 	cbz	x0, 40acb0 <_ZNSt6vectorI2PTSaIS0_EE17_M_realloc_insertIJRS0_EEEvN9__gnu_cxx17__normal_iteratorIPS0_S2_EEDpOT_+0x15c>
  40aca4:	f9400a81 	ldr	x1, [x20, #16]
  40aca8:	cb000021 	sub	x1, x1, x0
  40acac:	97ffdd05 	bl	4020c0 <_ZdlPvm@plt>
  40acb0:	91016294 	add	x20, x20, #0x58
  40acb4:	910162f7 	add	x23, x23, #0x58
  40acb8:	eb14033f 	cmp	x25, x20
  40acbc:	54000620 	b.eq	40ad80 <_ZNSt6vectorI2PTSaIS0_EE17_M_realloc_insertIJRS0_EEEvN9__gnu_cxx17__normal_iteratorIPS0_S2_EEDpOT_+0x22c>  // b.none
  40acc0:	f9400280 	ldr	x0, [x20]
  40acc4:	f90002e0 	str	x0, [x23]
  40acc8:	f9400680 	ldr	x0, [x20, #8]
  40accc:	f90006e0 	str	x0, [x23, #8]
  40acd0:	f9400a80 	ldr	x0, [x20, #16]
  40acd4:	f9000ae0 	str	x0, [x23, #16]
  40acd8:	f9000a9f 	str	xzr, [x20, #16]
  40acdc:	f900069f 	str	xzr, [x20, #8]
  40ace0:	f900029f 	str	xzr, [x20]
  40ace4:	b9401a80 	ldr	w0, [x20, #24]
  40ace8:	b9001ae0 	str	w0, [x23, #24]
  40acec:	f9401280 	ldr	x0, [x20, #32]
  40acf0:	f90012e0 	str	x0, [x23, #32]
  40acf4:	f9401680 	ldr	x0, [x20, #40]
  40acf8:	f90016e0 	str	x0, [x23, #40]
  40acfc:	f9401a80 	ldr	x0, [x20, #48]
  40ad00:	f9001ae0 	str	x0, [x23, #48]
  40ad04:	f9001a9f 	str	xzr, [x20, #48]
  40ad08:	f900169f 	str	xzr, [x20, #40]
  40ad0c:	f900129f 	str	xzr, [x20, #32]
  40ad10:	f9401e80 	ldr	x0, [x20, #56]
  40ad14:	f9001ee0 	str	x0, [x23, #56]
  40ad18:	f9402280 	ldr	x0, [x20, #64]
  40ad1c:	f90022e0 	str	x0, [x23, #64]
  40ad20:	f9402680 	ldr	x0, [x20, #72]
  40ad24:	f90026e0 	str	x0, [x23, #72]
  40ad28:	f900269f 	str	xzr, [x20, #72]
  40ad2c:	f900229f 	str	xzr, [x20, #64]
  40ad30:	f9001e9f 	str	xzr, [x20, #56]
  40ad34:	bd405280 	ldr	s0, [x20, #80]
  40ad38:	bd0052e0 	str	s0, [x23, #80]
  40ad3c:	bd405680 	ldr	s0, [x20, #84]
  40ad40:	bd0056e0 	str	s0, [x23, #84]
  40ad44:	f9401e80 	ldr	x0, [x20, #56]
  40ad48:	b4000080 	cbz	x0, 40ad58 <_ZNSt6vectorI2PTSaIS0_EE17_M_realloc_insertIJRS0_EEEvN9__gnu_cxx17__normal_iteratorIPS0_S2_EEDpOT_+0x204>
  40ad4c:	f9402681 	ldr	x1, [x20, #72]
  40ad50:	cb000021 	sub	x1, x1, x0
  40ad54:	97ffdcdb 	bl	4020c0 <_ZdlPvm@plt>
  40ad58:	f9401280 	ldr	x0, [x20, #32]
  40ad5c:	b4000080 	cbz	x0, 40ad6c <_ZNSt6vectorI2PTSaIS0_EE17_M_realloc_insertIJRS0_EEEvN9__gnu_cxx17__normal_iteratorIPS0_S2_EEDpOT_+0x218>
  40ad60:	f9401a81 	ldr	x1, [x20, #48]
  40ad64:	cb000021 	sub	x1, x1, x0
  40ad68:	97ffdcd6 	bl	4020c0 <_ZdlPvm@plt>
  40ad6c:	f9400293 	ldr	x19, [x20]
  40ad70:	f9400698 	ldr	x24, [x20, #8]
  40ad74:	eb18027f 	cmp	x19, x24
  40ad78:	54fff761 	b.ne	40ac64 <_ZNSt6vectorI2PTSaIS0_EE17_M_realloc_insertIJRS0_EEEvN9__gnu_cxx17__normal_iteratorIPS0_S2_EEDpOT_+0x110>  // b.any
  40ad7c:	17ffffc8 	b	40ac9c <_ZNSt6vectorI2PTSaIS0_EE17_M_realloc_insertIJRS0_EEEvN9__gnu_cxx17__normal_iteratorIPS0_S2_EEDpOT_+0x148>
  40ad80:	a9425bf5 	ldp	x21, x22, [sp, #32]
  40ad84:	910162f7 	add	x23, x23, #0x58
  40ad88:	eb1a033f 	cmp	x25, x26
  40ad8c:	540005a0 	b.eq	40ae40 <_ZNSt6vectorI2PTSaIS0_EE17_M_realloc_insertIJRS0_EEEvN9__gnu_cxx17__normal_iteratorIPS0_S2_EEDpOT_+0x2ec>  // b.none
  40ad90:	aa1703e1 	mov	x1, x23
  40ad94:	aa1903e0 	mov	x0, x25
  40ad98:	f9400002 	ldr	x2, [x0]
  40ad9c:	f9000022 	str	x2, [x1]
  40ada0:	f9400402 	ldr	x2, [x0, #8]
  40ada4:	f9000422 	str	x2, [x1, #8]
  40ada8:	f9400802 	ldr	x2, [x0, #16]
  40adac:	f9000822 	str	x2, [x1, #16]
  40adb0:	b9401802 	ldr	w2, [x0, #24]
  40adb4:	b9001822 	str	w2, [x1, #24]
  40adb8:	f9401002 	ldr	x2, [x0, #32]
  40adbc:	f9001022 	str	x2, [x1, #32]
  40adc0:	f9401402 	ldr	x2, [x0, #40]
  40adc4:	f9001422 	str	x2, [x1, #40]
  40adc8:	f9401802 	ldr	x2, [x0, #48]
  40adcc:	f9001822 	str	x2, [x1, #48]
  40add0:	f9401c02 	ldr	x2, [x0, #56]
  40add4:	f9001c22 	str	x2, [x1, #56]
  40add8:	f9402002 	ldr	x2, [x0, #64]
  40addc:	f9002022 	str	x2, [x1, #64]
  40ade0:	f9402402 	ldr	x2, [x0, #72]
  40ade4:	f9002422 	str	x2, [x1, #72]
  40ade8:	bd405000 	ldr	s0, [x0, #80]
  40adec:	bd005020 	str	s0, [x1, #80]
  40adf0:	bd405400 	ldr	s0, [x0, #84]
  40adf4:	bd005420 	str	s0, [x1, #84]
  40adf8:	91016000 	add	x0, x0, #0x58
  40adfc:	91016021 	add	x1, x1, #0x58
  40ae00:	eb00035f 	cmp	x26, x0
  40ae04:	54fffca1 	b.ne	40ad98 <_ZNSt6vectorI2PTSaIS0_EE17_M_realloc_insertIJRS0_EEEvN9__gnu_cxx17__normal_iteratorIPS0_S2_EEDpOT_+0x244>  // b.any
  40ae08:	cb190340 	sub	x0, x26, x25
  40ae0c:	d1016000 	sub	x0, x0, #0x58
  40ae10:	d343fc00 	lsr	x0, x0, #3
  40ae14:	d2917461 	mov	x1, #0x8ba3                	// #35747
  40ae18:	f2b745c1 	movk	x1, #0xba2e, lsl #16
  40ae1c:	f2d45d01 	movk	x1, #0xa2e8, lsl #32
  40ae20:	f2e1d161 	movk	x1, #0xe8b, lsl #48
  40ae24:	9b017c00 	mul	x0, x0, x1
  40ae28:	9240f000 	and	x0, x0, #0x1fffffffffffffff
  40ae2c:	91000400 	add	x0, x0, #0x1
  40ae30:	8b000401 	add	x1, x0, x0, lsl #1
  40ae34:	d37ef421 	lsl	x1, x1, #2
  40ae38:	cb000020 	sub	x0, x1, x0
  40ae3c:	8b000ef7 	add	x23, x23, x0, lsl #3
  40ae40:	b40000dc 	cbz	x28, 40ae58 <_ZNSt6vectorI2PTSaIS0_EE17_M_realloc_insertIJRS0_EEEvN9__gnu_cxx17__normal_iteratorIPS0_S2_EEDpOT_+0x304>
  40ae44:	f94037e0 	ldr	x0, [sp, #104]
  40ae48:	f9400801 	ldr	x1, [x0, #16]
  40ae4c:	cb1c0021 	sub	x1, x1, x28
  40ae50:	aa1c03e0 	mov	x0, x28
  40ae54:	97ffdc9b 	bl	4020c0 <_ZdlPvm@plt>
  40ae58:	f94037e1 	ldr	x1, [sp, #104]
  40ae5c:	f94033e2 	ldr	x2, [sp, #96]
  40ae60:	f9000022 	str	x2, [x1]
  40ae64:	f9000437 	str	x23, [x1, #8]
  40ae68:	8b1b0760 	add	x0, x27, x27, lsl #1
  40ae6c:	d37ef400 	lsl	x0, x0, #2
  40ae70:	cb1b0000 	sub	x0, x0, x27
  40ae74:	8b000c40 	add	x0, x2, x0, lsl #3
  40ae78:	f9000820 	str	x0, [x1, #16]
  40ae7c:	a94153f3 	ldp	x19, x20, [sp, #16]
  40ae80:	a94363f7 	ldp	x23, x24, [sp, #48]
  40ae84:	a9446bf9 	ldp	x25, x26, [sp, #64]
  40ae88:	a94573fb 	ldp	x27, x28, [sp, #80]
  40ae8c:	a8c77bfd 	ldp	x29, x30, [sp], #112
  40ae90:	d65f03c0 	ret
  40ae94:	f94033f7 	ldr	x23, [sp, #96]
  40ae98:	17ffffbb 	b	40ad84 <_ZNSt6vectorI2PTSaIS0_EE17_M_realloc_insertIJRS0_EEEvN9__gnu_cxx17__normal_iteratorIPS0_S2_EEDpOT_+0x230>
  40ae9c:	a9025bf5 	stp	x21, x22, [sp, #32]
  40aea0:	97ffdc4c 	bl	401fd0 <__cxa_begin_catch@plt>
  40aea4:	f94033e0 	ldr	x0, [sp, #96]
  40aea8:	b5000100 	cbnz	x0, 40aec8 <_ZNSt6vectorI2PTSaIS0_EE17_M_realloc_insertIJRS0_EEEvN9__gnu_cxx17__normal_iteratorIPS0_S2_EEDpOT_+0x374>
  40aeac:	aa1403e0 	mov	x0, x20
  40aeb0:	97fffb2a 	bl	409b58 <_ZN2PTD1Ev>
  40aeb4:	97ffdcc3 	bl	4021c0 <__cxa_rethrow@plt>
  40aeb8:	aa0003f3 	mov	x19, x0
  40aebc:	97ffdcd9 	bl	402220 <__cxa_end_catch@plt>
  40aec0:	aa1303e0 	mov	x0, x19
  40aec4:	97ffdce7 	bl	402260 <_Unwind_Resume@plt>
  40aec8:	d2800b01 	mov	x1, #0x58                  	// #88
  40aecc:	9b017f61 	mul	x1, x27, x1
  40aed0:	f94033e0 	ldr	x0, [sp, #96]
  40aed4:	97ffdc7b 	bl	4020c0 <_ZdlPvm@plt>
  40aed8:	17fffff7 	b	40aeb4 <_ZNSt6vectorI2PTSaIS0_EE17_M_realloc_insertIJRS0_EEEvN9__gnu_cxx17__normal_iteratorIPS0_S2_EEDpOT_+0x360>
  40aedc:	cb1c0334 	sub	x20, x25, x28
  40aee0:	d28e8bbb 	mov	x27, #0x745d                	// #29789
  40aee4:	f2a8ba3b 	movk	x27, #0x45d1, lsl #16
  40aee8:	f2cba2fb 	movk	x27, #0x5d17, lsl #32
  40aeec:	f2e02e9b 	movk	x27, #0x174, lsl #48
  40aef0:	8b1b0760 	add	x0, x27, x27, lsl #1
  40aef4:	d37ef400 	lsl	x0, x0, #2
  40aef8:	cb1b0000 	sub	x0, x0, x27
  40aefc:	d37df000 	lsl	x0, x0, #3
  40af00:	97ffdc6c 	bl	4020b0 <_Znwm@plt>
  40af04:	f90033e0 	str	x0, [sp, #96]
  40af08:	f94033f7 	ldr	x23, [sp, #96]
  40af0c:	8b1402f4 	add	x20, x23, x20
  40af10:	aa1303e1 	mov	x1, x19
  40af14:	aa1403e0 	mov	x0, x20
  40af18:	97fffe81 	bl	40a91c <_ZN2PTC1ERKS_>
  40af1c:	17ffff3a 	b	40ac04 <_ZNSt6vectorI2PTSaIS0_EE17_M_realloc_insertIJRS0_EEEvN9__gnu_cxx17__normal_iteratorIPS0_S2_EEDpOT_+0xb0>

000000000040af20 <_ZNSt6vectorI2PTSaIS0_EE12emplace_backIJRS0_EEEvDpOT_>:
  40af20:	a9be7bfd 	stp	x29, x30, [sp, #-32]!
  40af24:	910003fd 	mov	x29, sp
  40af28:	f9000bf3 	str	x19, [sp, #16]
  40af2c:	aa0003f3 	mov	x19, x0
  40af30:	f9400400 	ldr	x0, [x0, #8]
  40af34:	f9400a62 	ldr	x2, [x19, #16]
  40af38:	eb02001f 	cmp	x0, x2
  40af3c:	54000100 	b.eq	40af5c <_ZNSt6vectorI2PTSaIS0_EE12emplace_backIJRS0_EEEvDpOT_+0x3c>  // b.none
  40af40:	97fffe77 	bl	40a91c <_ZN2PTC1ERKS_>
  40af44:	f9400660 	ldr	x0, [x19, #8]
  40af48:	91016000 	add	x0, x0, #0x58
  40af4c:	f9000660 	str	x0, [x19, #8]
  40af50:	f9400bf3 	ldr	x19, [sp, #16]
  40af54:	a8c27bfd 	ldp	x29, x30, [sp], #32
  40af58:	d65f03c0 	ret
  40af5c:	aa0103e2 	mov	x2, x1
  40af60:	aa0003e1 	mov	x1, x0
  40af64:	aa1303e0 	mov	x0, x19
  40af68:	97fffefb 	bl	40ab54 <_ZNSt6vectorI2PTSaIS0_EE17_M_realloc_insertIJRS0_EEEvN9__gnu_cxx17__normal_iteratorIPS0_S2_EEDpOT_>
  40af6c:	17fffff9 	b	40af50 <_ZNSt6vectorI2PTSaIS0_EE12emplace_backIJRS0_EEEvDpOT_+0x30>

000000000040af70 <_ZNSt10_HashtableIiSt4pairIKiiESaIS2_ENSt8__detail10_Select1stESt8equal_toIiESt4hashIiENS4_18_Mod_range_hashingENS4_20_Default_ranged_hashENS4_20_Prime_rehash_policyENS4_17_Hashtable_traitsILb0ELb0ELb1EEEE9_M_rehashEmRKm>:
  40af70:	a9bd7bfd 	stp	x29, x30, [sp, #-48]!
  40af74:	910003fd 	mov	x29, sp
  40af78:	a90153f3 	stp	x19, x20, [sp, #16]
  40af7c:	f90013f5 	str	x21, [sp, #32]
  40af80:	aa0003f5 	mov	x21, x0
  40af84:	aa0103f3 	mov	x19, x1
  40af88:	f100043f 	cmp	x1, #0x1
  40af8c:	54000080 	b.eq	40af9c <_ZNSt10_HashtableIiSt4pairIKiiESaIS2_ENSt8__detail10_Select1stESt8equal_toIiESt4hashIiENS4_18_Mod_range_hashingENS4_20_Default_ranged_hashENS4_20_Prime_rehash_policyENS4_17_Hashtable_traitsILb0ELb0ELb1EEEE9_M_rehashEmRKm+0x2c>  // b.none
  40af90:	aa0203f4 	mov	x20, x2
  40af94:	97fffd59 	bl	40a4f8 <_ZNSt8__detail16_Hashtable_allocISaINS_10_Hash_nodeISt4pairIKiiELb0EEEEE19_M_allocate_bucketsEm>
  40af98:	14000004 	b	40afa8 <_ZNSt10_HashtableIiSt4pairIKiiESaIS2_ENSt8__detail10_Select1stESt8equal_toIiESt4hashIiENS4_18_Mod_range_hashingENS4_20_Default_ranged_hashENS4_20_Prime_rehash_policyENS4_17_Hashtable_traitsILb0ELb0ELb1EEEE9_M_rehashEmRKm+0x38>
  40af9c:	aa0003f4 	mov	x20, x0
  40afa0:	f8030e9f 	str	xzr, [x20, #48]!
  40afa4:	14000002 	b	40afac <_ZNSt10_HashtableIiSt4pairIKiiESaIS2_ENSt8__detail10_Select1stESt8equal_toIiESt4hashIiENS4_18_Mod_range_hashingENS4_20_Default_ranged_hashENS4_20_Prime_rehash_policyENS4_17_Hashtable_traitsILb0ELb0ELb1EEEE9_M_rehashEmRKm+0x3c>
  40afa8:	aa0003f4 	mov	x20, x0
  40afac:	f9400aa4 	ldr	x4, [x21, #16]
  40afb0:	f9000abf 	str	xzr, [x21, #16]
  40afb4:	b4000364 	cbz	x4, 40b020 <_ZNSt10_HashtableIiSt4pairIKiiESaIS2_ENSt8__detail10_Select1stESt8equal_toIiESt4hashIiENS4_18_Mod_range_hashingENS4_20_Default_ranged_hashENS4_20_Prime_rehash_policyENS4_17_Hashtable_traitsILb0ELb0ELb1EEEE9_M_rehashEmRKm+0xb0>
  40afb8:	d2800006 	mov	x6, #0x0                   	// #0
  40afbc:	910042a7 	add	x7, x21, #0x10
  40afc0:	14000008 	b	40afe0 <_ZNSt10_HashtableIiSt4pairIKiiESaIS2_ENSt8__detail10_Select1stESt8equal_toIiESt4hashIiENS4_18_Mod_range_hashingENS4_20_Default_ranged_hashENS4_20_Prime_rehash_policyENS4_17_Hashtable_traitsILb0ELb0ELb1EEEE9_M_rehashEmRKm+0x70>
  40afc4:	aa0203e6 	mov	x6, x2
  40afc8:	14000005 	b	40afdc <_ZNSt10_HashtableIiSt4pairIKiiESaIS2_ENSt8__detail10_Select1stESt8equal_toIiESt4hashIiENS4_18_Mod_range_hashingENS4_20_Default_ranged_hashENS4_20_Prime_rehash_policyENS4_17_Hashtable_traitsILb0ELb0ELb1EEEE9_M_rehashEmRKm+0x6c>
  40afcc:	f9400020 	ldr	x0, [x1]
  40afd0:	f9000060 	str	x0, [x3]
  40afd4:	f8627a80 	ldr	x0, [x20, x2, lsl #3]
  40afd8:	f9000003 	str	x3, [x0]
  40afdc:	b4000224 	cbz	x4, 40b020 <_ZNSt10_HashtableIiSt4pairIKiiESaIS2_ENSt8__detail10_Select1stESt8equal_toIiESt4hashIiENS4_18_Mod_range_hashingENS4_20_Default_ranged_hashENS4_20_Prime_rehash_policyENS4_17_Hashtable_traitsILb0ELb0ELb1EEEE9_M_rehashEmRKm+0xb0>
  40afe0:	aa0403e3 	mov	x3, x4
  40afe4:	f9400084 	ldr	x4, [x4]
  40afe8:	b9800865 	ldrsw	x5, [x3, #8]
  40afec:	9ad308a2 	udiv	x2, x5, x19
  40aff0:	9b139442 	msub	x2, x2, x19, x5
  40aff4:	f8627a81 	ldr	x1, [x20, x2, lsl #3]
  40aff8:	b5fffea1 	cbnz	x1, 40afcc <_ZNSt10_HashtableIiSt4pairIKiiESaIS2_ENSt8__detail10_Select1stESt8equal_toIiESt4hashIiENS4_18_Mod_range_hashingENS4_20_Default_ranged_hashENS4_20_Prime_rehash_policyENS4_17_Hashtable_traitsILb0ELb0ELb1EEEE9_M_rehashEmRKm+0x5c>
  40affc:	f9400aa0 	ldr	x0, [x21, #16]
  40b000:	f9000060 	str	x0, [x3]
  40b004:	f9000aa3 	str	x3, [x21, #16]
  40b008:	f8227a87 	str	x7, [x20, x2, lsl #3]
  40b00c:	f9400060 	ldr	x0, [x3]
  40b010:	b4fffda0 	cbz	x0, 40afc4 <_ZNSt10_HashtableIiSt4pairIKiiESaIS2_ENSt8__detail10_Select1stESt8equal_toIiESt4hashIiENS4_18_Mod_range_hashingENS4_20_Default_ranged_hashENS4_20_Prime_rehash_policyENS4_17_Hashtable_traitsILb0ELb0ELb1EEEE9_M_rehashEmRKm+0x54>
  40b014:	f8267a83 	str	x3, [x20, x6, lsl #3]
  40b018:	aa0203e6 	mov	x6, x2
  40b01c:	17fffff0 	b	40afdc <_ZNSt10_HashtableIiSt4pairIKiiESaIS2_ENSt8__detail10_Select1stESt8equal_toIiESt4hashIiENS4_18_Mod_range_hashingENS4_20_Default_ranged_hashENS4_20_Prime_rehash_policyENS4_17_Hashtable_traitsILb0ELb0ELb1EEEE9_M_rehashEmRKm+0x6c>
  40b020:	f94002a0 	ldr	x0, [x21]
  40b024:	f94006a1 	ldr	x1, [x21, #8]
  40b028:	9100c2a2 	add	x2, x21, #0x30
  40b02c:	eb02001f 	cmp	x0, x2
  40b030:	54000060 	b.eq	40b03c <_ZNSt10_HashtableIiSt4pairIKiiESaIS2_ENSt8__detail10_Select1stESt8equal_toIiESt4hashIiENS4_18_Mod_range_hashingENS4_20_Default_ranged_hashENS4_20_Prime_rehash_policyENS4_17_Hashtable_traitsILb0ELb0ELb1EEEE9_M_rehashEmRKm+0xcc>  // b.none
  40b034:	d37df021 	lsl	x1, x1, #3
  40b038:	97ffdc22 	bl	4020c0 <_ZdlPvm@plt>
  40b03c:	f90006b3 	str	x19, [x21, #8]
  40b040:	f90002b4 	str	x20, [x21]
  40b044:	a94153f3 	ldp	x19, x20, [sp, #16]
  40b048:	f94013f5 	ldr	x21, [sp, #32]
  40b04c:	a8c37bfd 	ldp	x29, x30, [sp], #48
  40b050:	d65f03c0 	ret
  40b054:	97ffdbdf 	bl	401fd0 <__cxa_begin_catch@plt>
  40b058:	f9400280 	ldr	x0, [x20]
  40b05c:	f90016a0 	str	x0, [x21, #40]
  40b060:	97ffdc58 	bl	4021c0 <__cxa_rethrow@plt>
  40b064:	aa0003f3 	mov	x19, x0
  40b068:	97ffdc6e 	bl	402220 <__cxa_end_catch@plt>
  40b06c:	aa1303e0 	mov	x0, x19
  40b070:	97ffdc7c 	bl	402260 <_Unwind_Resume@plt>

000000000040b074 <_ZNSt10_HashtableIiSt4pairIKiiESaIS2_ENSt8__detail10_Select1stESt8equal_toIiESt4hashIiENS4_18_Mod_range_hashingENS4_20_Default_ranged_hashENS4_20_Prime_rehash_policyENS4_17_Hashtable_traitsILb0ELb0ELb1EEEE21_M_insert_unique_nodeERS1_mmPNS4_10_Hash_nodeIS2_Lb0EEEm>:
  40b074:	a9bc7bfd 	stp	x29, x30, [sp, #-64]!
  40b078:	910003fd 	mov	x29, sp
  40b07c:	a90153f3 	stp	x19, x20, [sp, #16]
  40b080:	a9025bf5 	stp	x21, x22, [sp, #32]
  40b084:	aa0003f3 	mov	x19, x0
  40b088:	aa0203f4 	mov	x20, x2
  40b08c:	aa0303f6 	mov	x22, x3
  40b090:	aa0403f5 	mov	x21, x4
  40b094:	f9401400 	ldr	x0, [x0, #40]
  40b098:	f9001fe0 	str	x0, [sp, #56]
  40b09c:	aa0503e3 	mov	x3, x5
  40b0a0:	f9400e62 	ldr	x2, [x19, #24]
  40b0a4:	f9400661 	ldr	x1, [x19, #8]
  40b0a8:	91008260 	add	x0, x19, #0x20
  40b0ac:	97ffdc31 	bl	402170 <_ZNKSt8__detail20_Prime_rehash_policy14_M_need_rehashEmmm@plt>
  40b0b0:	72001c1f 	tst	w0, #0xff
  40b0b4:	54000241 	b.ne	40b0fc <_ZNSt10_HashtableIiSt4pairIKiiESaIS2_ENSt8__detail10_Select1stESt8equal_toIiESt4hashIiENS4_18_Mod_range_hashingENS4_20_Default_ranged_hashENS4_20_Prime_rehash_policyENS4_17_Hashtable_traitsILb0ELb0ELb1EEEE21_M_insert_unique_nodeERS1_mmPNS4_10_Hash_nodeIS2_Lb0EEEm+0x88>  // b.any
  40b0b8:	d37df281 	lsl	x1, x20, #3
  40b0bc:	f9400260 	ldr	x0, [x19]
  40b0c0:	f8747800 	ldr	x0, [x0, x20, lsl #3]
  40b0c4:	b40002a0 	cbz	x0, 40b118 <_ZNSt10_HashtableIiSt4pairIKiiESaIS2_ENSt8__detail10_Select1stESt8equal_toIiESt4hashIiENS4_18_Mod_range_hashingENS4_20_Default_ranged_hashENS4_20_Prime_rehash_policyENS4_17_Hashtable_traitsILb0ELb0ELb1EEEE21_M_insert_unique_nodeERS1_mmPNS4_10_Hash_nodeIS2_Lb0EEEm+0xa4>
  40b0c8:	f9400000 	ldr	x0, [x0]
  40b0cc:	f90002a0 	str	x0, [x21]
  40b0d0:	f9400260 	ldr	x0, [x19]
  40b0d4:	f8747800 	ldr	x0, [x0, x20, lsl #3]
  40b0d8:	f9000015 	str	x21, [x0]
  40b0dc:	f9400e60 	ldr	x0, [x19, #24]
  40b0e0:	91000400 	add	x0, x0, #0x1
  40b0e4:	f9000e60 	str	x0, [x19, #24]
  40b0e8:	aa1503e0 	mov	x0, x21
  40b0ec:	a94153f3 	ldp	x19, x20, [sp, #16]
  40b0f0:	a9425bf5 	ldp	x21, x22, [sp, #32]
  40b0f4:	a8c47bfd 	ldp	x29, x30, [sp], #64
  40b0f8:	d65f03c0 	ret
  40b0fc:	9100e3e2 	add	x2, sp, #0x38
  40b100:	aa1303e0 	mov	x0, x19
  40b104:	97ffff9b 	bl	40af70 <_ZNSt10_HashtableIiSt4pairIKiiESaIS2_ENSt8__detail10_Select1stESt8equal_toIiESt4hashIiENS4_18_Mod_range_hashingENS4_20_Default_ranged_hashENS4_20_Prime_rehash_policyENS4_17_Hashtable_traitsILb0ELb0ELb1EEEE9_M_rehashEmRKm>
  40b108:	f9400660 	ldr	x0, [x19, #8]
  40b10c:	9ac00ad4 	udiv	x20, x22, x0
  40b110:	9b00da94 	msub	x20, x20, x0, x22
  40b114:	17ffffe9 	b	40b0b8 <_ZNSt10_HashtableIiSt4pairIKiiESaIS2_ENSt8__detail10_Select1stESt8equal_toIiESt4hashIiENS4_18_Mod_range_hashingENS4_20_Default_ranged_hashENS4_20_Prime_rehash_policyENS4_17_Hashtable_traitsILb0ELb0ELb1EEEE21_M_insert_unique_nodeERS1_mmPNS4_10_Hash_nodeIS2_Lb0EEEm+0x44>
  40b118:	f9400a60 	ldr	x0, [x19, #16]
  40b11c:	f90002a0 	str	x0, [x21]
  40b120:	f9000a75 	str	x21, [x19, #16]
  40b124:	f94002a0 	ldr	x0, [x21]
  40b128:	b40000e0 	cbz	x0, 40b144 <_ZNSt10_HashtableIiSt4pairIKiiESaIS2_ENSt8__detail10_Select1stESt8equal_toIiESt4hashIiENS4_18_Mod_range_hashingENS4_20_Default_ranged_hashENS4_20_Prime_rehash_policyENS4_17_Hashtable_traitsILb0ELb0ELb1EEEE21_M_insert_unique_nodeERS1_mmPNS4_10_Hash_nodeIS2_Lb0EEEm+0xd0>
  40b12c:	b9800803 	ldrsw	x3, [x0, #8]
  40b130:	f9400662 	ldr	x2, [x19, #8]
  40b134:	9ac20860 	udiv	x0, x3, x2
  40b138:	9b028c00 	msub	x0, x0, x2, x3
  40b13c:	f9400262 	ldr	x2, [x19]
  40b140:	f8207855 	str	x21, [x2, x0, lsl #3]
  40b144:	aa1303e0 	mov	x0, x19
  40b148:	f8410402 	ldr	x2, [x0], #16
  40b14c:	f8216840 	str	x0, [x2, x1]
  40b150:	17ffffe3 	b	40b0dc <_ZNSt10_HashtableIiSt4pairIKiiESaIS2_ENSt8__detail10_Select1stESt8equal_toIiESt4hashIiENS4_18_Mod_range_hashingENS4_20_Default_ranged_hashENS4_20_Prime_rehash_policyENS4_17_Hashtable_traitsILb0ELb0ELb1EEEE21_M_insert_unique_nodeERS1_mmPNS4_10_Hash_nodeIS2_Lb0EEEm+0x68>

000000000040b154 <_ZNSt8__detail9_Map_baseIiSt4pairIKiiESaIS3_ENS_10_Select1stESt8equal_toIiESt4hashIiENS_18_Mod_range_hashingENS_20_Default_ranged_hashENS_20_Prime_rehash_policyENS_17_Hashtable_traitsILb0ELb0ELb1EEELb1EEixERS2_>:
  40b154:	a9bc7bfd 	stp	x29, x30, [sp, #-64]!
  40b158:	910003fd 	mov	x29, sp
  40b15c:	a90153f3 	stp	x19, x20, [sp, #16]
  40b160:	a9025bf5 	stp	x21, x22, [sp, #32]
  40b164:	aa0003f4 	mov	x20, x0
  40b168:	aa0103f3 	mov	x19, x1
  40b16c:	b9800036 	ldrsw	x22, [x1]
  40b170:	f9400401 	ldr	x1, [x0, #8]
  40b174:	9ac10ad5 	udiv	x21, x22, x1
  40b178:	9b01dab5 	msub	x21, x21, x1, x22
  40b17c:	aa1603e3 	mov	x3, x22
  40b180:	aa1303e2 	mov	x2, x19
  40b184:	aa1503e1 	mov	x1, x21
  40b188:	97fffb8e 	bl	409fc0 <_ZNKSt10_HashtableIiSt4pairIKiiESaIS2_ENSt8__detail10_Select1stESt8equal_toIiESt4hashIiENS4_18_Mod_range_hashingENS4_20_Default_ranged_hashENS4_20_Prime_rehash_policyENS4_17_Hashtable_traitsILb0ELb0ELb1EEEE19_M_find_before_nodeEmRS1_m>
  40b18c:	b4000100 	cbz	x0, 40b1ac <_ZNSt8__detail9_Map_baseIiSt4pairIKiiESaIS3_ENS_10_Select1stESt8equal_toIiESt4hashIiENS_18_Mod_range_hashingENS_20_Default_ranged_hashENS_20_Prime_rehash_policyENS_17_Hashtable_traitsILb0ELb0ELb1EEELb1EEixERS2_+0x58>
  40b190:	f9400003 	ldr	x3, [x0]
  40b194:	91003060 	add	x0, x3, #0xc
  40b198:	b40000a3 	cbz	x3, 40b1ac <_ZNSt8__detail9_Map_baseIiSt4pairIKiiESaIS3_ENS_10_Select1stESt8equal_toIiESt4hashIiENS_18_Mod_range_hashingENS_20_Default_ranged_hashENS_20_Prime_rehash_policyENS_17_Hashtable_traitsILb0ELb0ELb1EEELb1EEixERS2_+0x58>
  40b19c:	a94153f3 	ldp	x19, x20, [sp, #16]
  40b1a0:	a9425bf5 	ldp	x21, x22, [sp, #32]
  40b1a4:	a8c47bfd 	ldp	x29, x30, [sp], #64
  40b1a8:	d65f03c0 	ret
  40b1ac:	f9001bf7 	str	x23, [sp, #48]
  40b1b0:	d2800200 	mov	x0, #0x10                  	// #16
  40b1b4:	97ffdbbf 	bl	4020b0 <_Znwm@plt>
  40b1b8:	aa0003f7 	mov	x23, x0
  40b1bc:	f900001f 	str	xzr, [x0]
  40b1c0:	b9400260 	ldr	w0, [x19]
  40b1c4:	b9000ae0 	str	w0, [x23, #8]
  40b1c8:	b9000eff 	str	wzr, [x23, #12]
  40b1cc:	d2800025 	mov	x5, #0x1                   	// #1
  40b1d0:	aa1703e4 	mov	x4, x23
  40b1d4:	aa1603e3 	mov	x3, x22
  40b1d8:	aa1503e2 	mov	x2, x21
  40b1dc:	aa1303e1 	mov	x1, x19
  40b1e0:	aa1403e0 	mov	x0, x20
  40b1e4:	97ffffa4 	bl	40b074 <_ZNSt10_HashtableIiSt4pairIKiiESaIS2_ENSt8__detail10_Select1stESt8equal_toIiESt4hashIiENS4_18_Mod_range_hashingENS4_20_Default_ranged_hashENS4_20_Prime_rehash_policyENS4_17_Hashtable_traitsILb0ELb0ELb1EEEE21_M_insert_unique_nodeERS1_mmPNS4_10_Hash_nodeIS2_Lb0EEEm>
  40b1e8:	91003000 	add	x0, x0, #0xc
  40b1ec:	f9401bf7 	ldr	x23, [sp, #48]
  40b1f0:	17ffffeb 	b	40b19c <_ZNSt8__detail9_Map_baseIiSt4pairIKiiESaIS3_ENS_10_Select1stESt8equal_toIiESt4hashIiENS_18_Mod_range_hashingENS_20_Default_ranged_hashENS_20_Prime_rehash_policyENS_17_Hashtable_traitsILb0ELb0ELb1EEELb1EEixERS2_+0x48>
  40b1f4:	aa0003f3 	mov	x19, x0
  40b1f8:	d2800201 	mov	x1, #0x10                  	// #16
  40b1fc:	aa1703e0 	mov	x0, x23
  40b200:	97ffdbb0 	bl	4020c0 <_ZdlPvm@plt>
  40b204:	aa1303e0 	mov	x0, x19
  40b208:	97ffdc16 	bl	402260 <_Unwind_Resume@plt>

000000000040b20c <_ZNSt8__detail9_Map_baseIiSt4pairIKiiESaIS3_ENS_10_Select1stESt8equal_toIiESt4hashIiENS_18_Mod_range_hashingENS_20_Default_ranged_hashENS_20_Prime_rehash_policyENS_17_Hashtable_traitsILb0ELb0ELb1EEELb1EEixEOi>:
  40b20c:	a9bc7bfd 	stp	x29, x30, [sp, #-64]!
  40b210:	910003fd 	mov	x29, sp
  40b214:	a90153f3 	stp	x19, x20, [sp, #16]
  40b218:	a9025bf5 	stp	x21, x22, [sp, #32]
  40b21c:	aa0003f4 	mov	x20, x0
  40b220:	aa0103f3 	mov	x19, x1
  40b224:	b9800036 	ldrsw	x22, [x1]
  40b228:	f9400401 	ldr	x1, [x0, #8]
  40b22c:	9ac10ad5 	udiv	x21, x22, x1
  40b230:	9b01dab5 	msub	x21, x21, x1, x22
  40b234:	aa1603e3 	mov	x3, x22
  40b238:	aa1303e2 	mov	x2, x19
  40b23c:	aa1503e1 	mov	x1, x21
  40b240:	97fffb60 	bl	409fc0 <_ZNKSt10_HashtableIiSt4pairIKiiESaIS2_ENSt8__detail10_Select1stESt8equal_toIiESt4hashIiENS4_18_Mod_range_hashingENS4_20_Default_ranged_hashENS4_20_Prime_rehash_policyENS4_17_Hashtable_traitsILb0ELb0ELb1EEEE19_M_find_before_nodeEmRS1_m>
  40b244:	b4000100 	cbz	x0, 40b264 <_ZNSt8__detail9_Map_baseIiSt4pairIKiiESaIS3_ENS_10_Select1stESt8equal_toIiESt4hashIiENS_18_Mod_range_hashingENS_20_Default_ranged_hashENS_20_Prime_rehash_policyENS_17_Hashtable_traitsILb0ELb0ELb1EEELb1EEixEOi+0x58>
  40b248:	f9400003 	ldr	x3, [x0]
  40b24c:	91003060 	add	x0, x3, #0xc
  40b250:	b40000a3 	cbz	x3, 40b264 <_ZNSt8__detail9_Map_baseIiSt4pairIKiiESaIS3_ENS_10_Select1stESt8equal_toIiESt4hashIiENS_18_Mod_range_hashingENS_20_Default_ranged_hashENS_20_Prime_rehash_policyENS_17_Hashtable_traitsILb0ELb0ELb1EEELb1EEixEOi+0x58>
  40b254:	a94153f3 	ldp	x19, x20, [sp, #16]
  40b258:	a9425bf5 	ldp	x21, x22, [sp, #32]
  40b25c:	a8c47bfd 	ldp	x29, x30, [sp], #64
  40b260:	d65f03c0 	ret
  40b264:	f9001bf7 	str	x23, [sp, #48]
  40b268:	d2800200 	mov	x0, #0x10                  	// #16
  40b26c:	97ffdb91 	bl	4020b0 <_Znwm@plt>
  40b270:	aa0003f7 	mov	x23, x0
  40b274:	f900001f 	str	xzr, [x0]
  40b278:	b9400260 	ldr	w0, [x19]
  40b27c:	b9000ae0 	str	w0, [x23, #8]
  40b280:	b9000eff 	str	wzr, [x23, #12]
  40b284:	d2800025 	mov	x5, #0x1                   	// #1
  40b288:	aa1703e4 	mov	x4, x23
  40b28c:	aa1603e3 	mov	x3, x22
  40b290:	aa1503e2 	mov	x2, x21
  40b294:	aa1303e1 	mov	x1, x19
  40b298:	aa1403e0 	mov	x0, x20
  40b29c:	97ffff76 	bl	40b074 <_ZNSt10_HashtableIiSt4pairIKiiESaIS2_ENSt8__detail10_Select1stESt8equal_toIiESt4hashIiENS4_18_Mod_range_hashingENS4_20_Default_ranged_hashENS4_20_Prime_rehash_policyENS4_17_Hashtable_traitsILb0ELb0ELb1EEEE21_M_insert_unique_nodeERS1_mmPNS4_10_Hash_nodeIS2_Lb0EEEm>
  40b2a0:	91003000 	add	x0, x0, #0xc
  40b2a4:	f9401bf7 	ldr	x23, [sp, #48]
  40b2a8:	17ffffeb 	b	40b254 <_ZNSt8__detail9_Map_baseIiSt4pairIKiiESaIS3_ENS_10_Select1stESt8equal_toIiESt4hashIiENS_18_Mod_range_hashingENS_20_Default_ranged_hashENS_20_Prime_rehash_policyENS_17_Hashtable_traitsILb0ELb0ELb1EEELb1EEixEOi+0x48>
  40b2ac:	aa0003f3 	mov	x19, x0
  40b2b0:	d2800201 	mov	x1, #0x10                  	// #16
  40b2b4:	aa1703e0 	mov	x0, x23
  40b2b8:	97ffdb82 	bl	4020c0 <_ZdlPvm@plt>
  40b2bc:	aa1303e0 	mov	x0, x19
  40b2c0:	97ffdbe8 	bl	402260 <_Unwind_Resume@plt>

000000000040b2c4 <_ZN2PTaSEOS_>:
  40b2c4:	a9bb7bfd 	stp	x29, x30, [sp, #-80]!
  40b2c8:	910003fd 	mov	x29, sp
  40b2cc:	a9025bf5 	stp	x21, x22, [sp, #32]
  40b2d0:	a90363f7 	stp	x23, x24, [sp, #48]
  40b2d4:	a9046bf9 	stp	x25, x26, [sp, #64]
  40b2d8:	aa0003f6 	mov	x22, x0
  40b2dc:	aa0103f7 	mov	x23, x1
  40b2e0:	f9400019 	ldr	x25, [x0]
  40b2e4:	f9400418 	ldr	x24, [x0, #8]
  40b2e8:	f940081a 	ldr	x26, [x0, #16]
  40b2ec:	f9400020 	ldr	x0, [x1]
  40b2f0:	f90002c0 	str	x0, [x22]
  40b2f4:	f9400420 	ldr	x0, [x1, #8]
  40b2f8:	f90006c0 	str	x0, [x22, #8]
  40b2fc:	f9400820 	ldr	x0, [x1, #16]
  40b300:	f9000ac0 	str	x0, [x22, #16]
  40b304:	f900003f 	str	xzr, [x1]
  40b308:	f900043f 	str	xzr, [x1, #8]
  40b30c:	f900083f 	str	xzr, [x1, #16]
  40b310:	eb18033f 	cmp	x25, x24
  40b314:	540004c0 	b.eq	40b3ac <_ZN2PTaSEOS_+0xe8>  // b.none
  40b318:	a90153f3 	stp	x19, x20, [sp, #16]
  40b31c:	aa1903f4 	mov	x20, x25
  40b320:	14000014 	b	40b370 <_ZN2PTaSEOS_+0xac>
  40b324:	91008273 	add	x19, x19, #0x20
  40b328:	eb1302bf 	cmp	x21, x19
  40b32c:	54000120 	b.eq	40b350 <_ZN2PTaSEOS_+0x8c>  // b.none
  40b330:	aa1303e2 	mov	x2, x19
  40b334:	f8410440 	ldr	x0, [x2], #16
  40b338:	eb02001f 	cmp	x0, x2
  40b33c:	54ffff40 	b.eq	40b324 <_ZN2PTaSEOS_+0x60>  // b.none
  40b340:	f9400a61 	ldr	x1, [x19, #16]
  40b344:	91000421 	add	x1, x1, #0x1
  40b348:	97ffdb5e 	bl	4020c0 <_ZdlPvm@plt>
  40b34c:	17fffff6 	b	40b324 <_ZN2PTaSEOS_+0x60>
  40b350:	f9400680 	ldr	x0, [x20, #8]
  40b354:	b4000080 	cbz	x0, 40b364 <_ZN2PTaSEOS_+0xa0>
  40b358:	f9400e81 	ldr	x1, [x20, #24]
  40b35c:	cb000021 	sub	x1, x1, x0
  40b360:	97ffdb58 	bl	4020c0 <_ZdlPvm@plt>
  40b364:	9102c294 	add	x20, x20, #0xb0
  40b368:	eb14031f 	cmp	x24, x20
  40b36c:	540001e0 	b.eq	40b3a8 <_ZN2PTaSEOS_+0xe4>  // b.none
  40b370:	9101e280 	add	x0, x20, #0x78
  40b374:	97ffe142 	bl	40387c <_ZNSt10_HashtableIiSt4pairIKiiESaIS2_ENSt8__detail10_Select1stESt8equal_toIiESt4hashIiENS4_18_Mod_range_hashingENS4_20_Default_ranged_hashENS4_20_Prime_rehash_policyENS4_17_Hashtable_traitsILb0ELb0ELb1EEEED1Ev>
  40b378:	91010280 	add	x0, x20, #0x40
  40b37c:	97ffe117 	bl	4037d8 <_ZNSt10_HashtableINSt7__cxx1112basic_stringIcSt11char_traitsIcESaIcEEESt4pairIKS5_iESaIS8_ENSt8__detail10_Select1stESt8equal_toIS5_ESt4hashIS5_ENSA_18_Mod_range_hashingENSA_20_Default_ranged_hashENSA_20_Prime_rehash_policyENSA_17_Hashtable_traitsILb1ELb0ELb1EEEED1Ev>
  40b380:	f9401280 	ldr	x0, [x20, #32]
  40b384:	b4000080 	cbz	x0, 40b394 <_ZN2PTaSEOS_+0xd0>
  40b388:	f9401a81 	ldr	x1, [x20, #48]
  40b38c:	cb000021 	sub	x1, x1, x0
  40b390:	97ffdb4c 	bl	4020c0 <_ZdlPvm@plt>
  40b394:	f9400693 	ldr	x19, [x20, #8]
  40b398:	f9400a95 	ldr	x21, [x20, #16]
  40b39c:	eb15027f 	cmp	x19, x21
  40b3a0:	54fffc81 	b.ne	40b330 <_ZN2PTaSEOS_+0x6c>  // b.any
  40b3a4:	17ffffeb 	b	40b350 <_ZN2PTaSEOS_+0x8c>
  40b3a8:	a94153f3 	ldp	x19, x20, [sp, #16]
  40b3ac:	b4000099 	cbz	x25, 40b3bc <_ZN2PTaSEOS_+0xf8>
  40b3b0:	cb190341 	sub	x1, x26, x25
  40b3b4:	aa1903e0 	mov	x0, x25
  40b3b8:	97ffdb42 	bl	4020c0 <_ZdlPvm@plt>
  40b3bc:	b9401ae0 	ldr	w0, [x23, #24]
  40b3c0:	b9001ac0 	str	w0, [x22, #24]
  40b3c4:	f94012c0 	ldr	x0, [x22, #32]
  40b3c8:	f9401ac1 	ldr	x1, [x22, #48]
  40b3cc:	f94012e4 	ldr	x4, [x23, #32]
  40b3d0:	f90012c4 	str	x4, [x22, #32]
  40b3d4:	f94016e4 	ldr	x4, [x23, #40]
  40b3d8:	f90016c4 	str	x4, [x22, #40]
  40b3dc:	f9401ae4 	ldr	x4, [x23, #48]
  40b3e0:	f9001ac4 	str	x4, [x22, #48]
  40b3e4:	f90012ff 	str	xzr, [x23, #32]
  40b3e8:	f90016ff 	str	xzr, [x23, #40]
  40b3ec:	f9001aff 	str	xzr, [x23, #48]
  40b3f0:	b4000060 	cbz	x0, 40b3fc <_ZN2PTaSEOS_+0x138>
  40b3f4:	cb000021 	sub	x1, x1, x0
  40b3f8:	97ffdb32 	bl	4020c0 <_ZdlPvm@plt>
  40b3fc:	f9401ec0 	ldr	x0, [x22, #56]
  40b400:	f94026c1 	ldr	x1, [x22, #72]
  40b404:	f9401ee4 	ldr	x4, [x23, #56]
  40b408:	f9001ec4 	str	x4, [x22, #56]
  40b40c:	f94022e4 	ldr	x4, [x23, #64]
  40b410:	f90022c4 	str	x4, [x22, #64]
  40b414:	f94026e4 	ldr	x4, [x23, #72]
  40b418:	f90026c4 	str	x4, [x22, #72]
  40b41c:	f9001eff 	str	xzr, [x23, #56]
  40b420:	f90022ff 	str	xzr, [x23, #64]
  40b424:	f90026ff 	str	xzr, [x23, #72]
  40b428:	b4000060 	cbz	x0, 40b434 <_ZN2PTaSEOS_+0x170>
  40b42c:	cb000021 	sub	x1, x1, x0
  40b430:	97ffdb24 	bl	4020c0 <_ZdlPvm@plt>
  40b434:	bd4052e0 	ldr	s0, [x23, #80]
  40b438:	bd0052c0 	str	s0, [x22, #80]
  40b43c:	bd4056e0 	ldr	s0, [x23, #84]
  40b440:	bd0056c0 	str	s0, [x22, #84]
  40b444:	aa1603e0 	mov	x0, x22
  40b448:	a9425bf5 	ldp	x21, x22, [sp, #32]
  40b44c:	a94363f7 	ldp	x23, x24, [sp, #48]
  40b450:	a9446bf9 	ldp	x25, x26, [sp, #64]
  40b454:	a8c57bfd 	ldp	x29, x30, [sp], #80
  40b458:	d65f03c0 	ret

000000000040b45c <_ZSt21__unguarded_partitionIN9__gnu_cxx17__normal_iteratorIP2PTSt6vectorIS2_SaIS2_EEEENS0_5__ops15_Iter_comp_iterIPFbRKS2_SB_EEEET_SF_SF_SF_T0_>:
  40b45c:	a9b57bfd 	stp	x29, x30, [sp, #-176]!
  40b460:	910003fd 	mov	x29, sp
  40b464:	a90153f3 	stp	x19, x20, [sp, #16]
  40b468:	a9025bf5 	stp	x21, x22, [sp, #32]
  40b46c:	a90363f7 	stp	x23, x24, [sp, #48]
  40b470:	a9046bf9 	stp	x25, x26, [sp, #64]
  40b474:	a90573fb 	stp	x27, x28, [sp, #80]
  40b478:	6d0627e8 	stp	d8, d9, [sp, #96]
  40b47c:	aa0203f8 	mov	x24, x2
  40b480:	aa0103f6 	mov	x22, x1
  40b484:	aa0303f7 	mov	x23, x3
  40b488:	aa0003fa 	mov	x26, x0
  40b48c:	14000041 	b	40b590 <_ZSt21__unguarded_partitionIN9__gnu_cxx17__normal_iteratorIP2PTSt6vectorIS2_SaIS2_EEEENS0_5__ops15_Iter_comp_iterIPFbRKS2_SB_EEEET_SF_SF_SF_T0_+0x134>
  40b490:	91008273 	add	x19, x19, #0x20
  40b494:	eb1302bf 	cmp	x21, x19
  40b498:	54000120 	b.eq	40b4bc <_ZSt21__unguarded_partitionIN9__gnu_cxx17__normal_iteratorIP2PTSt6vectorIS2_SaIS2_EEEENS0_5__ops15_Iter_comp_iterIPFbRKS2_SB_EEEET_SF_SF_SF_T0_+0x60>  // b.none
  40b49c:	aa1303e1 	mov	x1, x19
  40b4a0:	f8410420 	ldr	x0, [x1], #16
  40b4a4:	eb01001f 	cmp	x0, x1
  40b4a8:	54ffff40 	b.eq	40b490 <_ZSt21__unguarded_partitionIN9__gnu_cxx17__normal_iteratorIP2PTSt6vectorIS2_SaIS2_EEEENS0_5__ops15_Iter_comp_iterIPFbRKS2_SB_EEEET_SF_SF_SF_T0_+0x34>  // b.none
  40b4ac:	f9400a61 	ldr	x1, [x19, #16]
  40b4b0:	91000421 	add	x1, x1, #0x1
  40b4b4:	97ffdb03 	bl	4020c0 <_ZdlPvm@plt>
  40b4b8:	17fffff6 	b	40b490 <_ZSt21__unguarded_partitionIN9__gnu_cxx17__normal_iteratorIP2PTSt6vectorIS2_SaIS2_EEEENS0_5__ops15_Iter_comp_iterIPFbRKS2_SB_EEEET_SF_SF_SF_T0_+0x34>
  40b4bc:	f9400680 	ldr	x0, [x20, #8]
  40b4c0:	b4000080 	cbz	x0, 40b4d0 <_ZSt21__unguarded_partitionIN9__gnu_cxx17__normal_iteratorIP2PTSt6vectorIS2_SaIS2_EEEENS0_5__ops15_Iter_comp_iterIPFbRKS2_SB_EEEET_SF_SF_SF_T0_+0x74>
  40b4c4:	f9400e81 	ldr	x1, [x20, #24]
  40b4c8:	cb000021 	sub	x1, x1, x0
  40b4cc:	97ffdafd 	bl	4020c0 <_ZdlPvm@plt>
  40b4d0:	9102c294 	add	x20, x20, #0xb0
  40b4d4:	eb14033f 	cmp	x25, x20
  40b4d8:	540001e0 	b.eq	40b514 <_ZSt21__unguarded_partitionIN9__gnu_cxx17__normal_iteratorIP2PTSt6vectorIS2_SaIS2_EEEENS0_5__ops15_Iter_comp_iterIPFbRKS2_SB_EEEET_SF_SF_SF_T0_+0xb8>  // b.none
  40b4dc:	9101e280 	add	x0, x20, #0x78
  40b4e0:	97ffe0e7 	bl	40387c <_ZNSt10_HashtableIiSt4pairIKiiESaIS2_ENSt8__detail10_Select1stESt8equal_toIiESt4hashIiENS4_18_Mod_range_hashingENS4_20_Default_ranged_hashENS4_20_Prime_rehash_policyENS4_17_Hashtable_traitsILb0ELb0ELb1EEEED1Ev>
  40b4e4:	91010280 	add	x0, x20, #0x40
  40b4e8:	97ffe0bc 	bl	4037d8 <_ZNSt10_HashtableINSt7__cxx1112basic_stringIcSt11char_traitsIcESaIcEEESt4pairIKS5_iESaIS8_ENSt8__detail10_Select1stESt8equal_toIS5_ESt4hashIS5_ENSA_18_Mod_range_hashingENSA_20_Default_ranged_hashENSA_20_Prime_rehash_policyENSA_17_Hashtable_traitsILb1ELb0ELb1EEEED1Ev>
  40b4ec:	f9401280 	ldr	x0, [x20, #32]
  40b4f0:	b4000080 	cbz	x0, 40b500 <_ZSt21__unguarded_partitionIN9__gnu_cxx17__normal_iteratorIP2PTSt6vectorIS2_SaIS2_EEEENS0_5__ops15_Iter_comp_iterIPFbRKS2_SB_EEEET_SF_SF_SF_T0_+0xa4>
  40b4f4:	f9401a81 	ldr	x1, [x20, #48]
  40b4f8:	cb000021 	sub	x1, x1, x0
  40b4fc:	97ffdaf1 	bl	4020c0 <_ZdlPvm@plt>
  40b500:	f9400693 	ldr	x19, [x20, #8]
  40b504:	f9400a95 	ldr	x21, [x20, #16]
  40b508:	eb15027f 	cmp	x19, x21
  40b50c:	54fffc81 	b.ne	40b49c <_ZSt21__unguarded_partitionIN9__gnu_cxx17__normal_iteratorIP2PTSt6vectorIS2_SaIS2_EEEENS0_5__ops15_Iter_comp_iterIPFbRKS2_SB_EEEET_SF_SF_SF_T0_+0x40>  // b.any
  40b510:	17ffffeb 	b	40b4bc <_ZSt21__unguarded_partitionIN9__gnu_cxx17__normal_iteratorIP2PTSt6vectorIS2_SaIS2_EEEENS0_5__ops15_Iter_comp_iterIPFbRKS2_SB_EEEET_SF_SF_SF_T0_+0x60>
  40b514:	b40000bb 	cbz	x27, 40b528 <_ZSt21__unguarded_partitionIN9__gnu_cxx17__normal_iteratorIP2PTSt6vectorIS2_SaIS2_EEEENS0_5__ops15_Iter_comp_iterIPFbRKS2_SB_EEEET_SF_SF_SF_T0_+0xcc>
  40b518:	f94057e0 	ldr	x0, [sp, #168]
  40b51c:	cb1b0001 	sub	x1, x0, x27
  40b520:	aa1b03e0 	mov	x0, x27
  40b524:	97ffdae7 	bl	4020c0 <_ZdlPvm@plt>
  40b528:	b9001adc 	str	w28, [x22, #24]
  40b52c:	f94012c0 	ldr	x0, [x22, #32]
  40b530:	f9401ac1 	ldr	x1, [x22, #48]
  40b534:	f9403fe3 	ldr	x3, [sp, #120]
  40b538:	f90012c3 	str	x3, [x22, #32]
  40b53c:	f94043e3 	ldr	x3, [sp, #128]
  40b540:	f90016c3 	str	x3, [x22, #40]
  40b544:	f94047e3 	ldr	x3, [sp, #136]
  40b548:	f9001ac3 	str	x3, [x22, #48]
  40b54c:	b4000060 	cbz	x0, 40b558 <_ZSt21__unguarded_partitionIN9__gnu_cxx17__normal_iteratorIP2PTSt6vectorIS2_SaIS2_EEEENS0_5__ops15_Iter_comp_iterIPFbRKS2_SB_EEEET_SF_SF_SF_T0_+0xfc>
  40b550:	cb000021 	sub	x1, x1, x0
  40b554:	97ffdadb 	bl	4020c0 <_ZdlPvm@plt>
  40b558:	f9401ec0 	ldr	x0, [x22, #56]
  40b55c:	f94026c1 	ldr	x1, [x22, #72]
  40b560:	f9404be3 	ldr	x3, [sp, #144]
  40b564:	f9001ec3 	str	x3, [x22, #56]
  40b568:	f9404fe3 	ldr	x3, [sp, #152]
  40b56c:	f90022c3 	str	x3, [x22, #64]
  40b570:	f94053e3 	ldr	x3, [sp, #160]
  40b574:	f90026c3 	str	x3, [x22, #72]
  40b578:	b4000060 	cbz	x0, 40b584 <_ZSt21__unguarded_partitionIN9__gnu_cxx17__normal_iteratorIP2PTSt6vectorIS2_SaIS2_EEEENS0_5__ops15_Iter_comp_iterIPFbRKS2_SB_EEEET_SF_SF_SF_T0_+0x128>
  40b57c:	cb000021 	sub	x1, x1, x0
  40b580:	97ffdad0 	bl	4020c0 <_ZdlPvm@plt>
  40b584:	bd0052c9 	str	s9, [x22, #80]
  40b588:	bd0056c8 	str	s8, [x22, #84]
  40b58c:	9101635a 	add	x26, x26, #0x58
  40b590:	aa1a03f9 	mov	x25, x26
  40b594:	aa1803e1 	mov	x1, x24
  40b598:	aa1a03e0 	mov	x0, x26
  40b59c:	d63f02e0 	blr	x23
  40b5a0:	12001c00 	and	w0, w0, #0xff
  40b5a4:	35ffff40 	cbnz	w0, 40b58c <_ZSt21__unguarded_partitionIN9__gnu_cxx17__normal_iteratorIP2PTSt6vectorIS2_SaIS2_EEEENS0_5__ops15_Iter_comp_iterIPFbRKS2_SB_EEEET_SF_SF_SF_T0_+0x130>
  40b5a8:	d10162d3 	sub	x19, x22, #0x58
  40b5ac:	aa1303f6 	mov	x22, x19
  40b5b0:	aa1303e1 	mov	x1, x19
  40b5b4:	aa1803e0 	mov	x0, x24
  40b5b8:	d63f02e0 	blr	x23
  40b5bc:	12001c00 	and	w0, w0, #0xff
  40b5c0:	d1016273 	sub	x19, x19, #0x58
  40b5c4:	35ffff40 	cbnz	w0, 40b5ac <_ZSt21__unguarded_partitionIN9__gnu_cxx17__normal_iteratorIP2PTSt6vectorIS2_SaIS2_EEEENS0_5__ops15_Iter_comp_iterIPFbRKS2_SB_EEEET_SF_SF_SF_T0_+0x150>
  40b5c8:	eb1902df 	cmp	x22, x25
  40b5cc:	54000a49 	b.ls	40b714 <_ZSt21__unguarded_partitionIN9__gnu_cxx17__normal_iteratorIP2PTSt6vectorIS2_SaIS2_EEEENS0_5__ops15_Iter_comp_iterIPFbRKS2_SB_EEEET_SF_SF_SF_T0_+0x2b8>  // b.plast
  40b5d0:	f9400335 	ldr	x21, [x25]
  40b5d4:	f9400734 	ldr	x20, [x25, #8]
  40b5d8:	f9400b33 	ldr	x19, [x25, #16]
  40b5dc:	f9000b3f 	str	xzr, [x25, #16]
  40b5e0:	f900073f 	str	xzr, [x25, #8]
  40b5e4:	f900033f 	str	xzr, [x25]
  40b5e8:	b9401b3c 	ldr	w28, [x25, #24]
  40b5ec:	f9401320 	ldr	x0, [x25, #32]
  40b5f0:	f9003fe0 	str	x0, [sp, #120]
  40b5f4:	f9401720 	ldr	x0, [x25, #40]
  40b5f8:	f90043e0 	str	x0, [sp, #128]
  40b5fc:	f9401b20 	ldr	x0, [x25, #48]
  40b600:	f90047e0 	str	x0, [sp, #136]
  40b604:	f9001b3f 	str	xzr, [x25, #48]
  40b608:	f900173f 	str	xzr, [x25, #40]
  40b60c:	f900133f 	str	xzr, [x25, #32]
  40b610:	f9401f20 	ldr	x0, [x25, #56]
  40b614:	f9004be0 	str	x0, [sp, #144]
  40b618:	f9402320 	ldr	x0, [x25, #64]
  40b61c:	f9004fe0 	str	x0, [sp, #152]
  40b620:	f9402720 	ldr	x0, [x25, #72]
  40b624:	f90053e0 	str	x0, [sp, #160]
  40b628:	f900273f 	str	xzr, [x25, #72]
  40b62c:	f900233f 	str	xzr, [x25, #64]
  40b630:	f9001f3f 	str	xzr, [x25, #56]
  40b634:	bd405329 	ldr	s9, [x25, #80]
  40b638:	bd405728 	ldr	s8, [x25, #84]
  40b63c:	f94002c0 	ldr	x0, [x22]
  40b640:	f9000320 	str	x0, [x25]
  40b644:	f94006c0 	ldr	x0, [x22, #8]
  40b648:	f9000720 	str	x0, [x25, #8]
  40b64c:	f9400ac0 	ldr	x0, [x22, #16]
  40b650:	f9000b20 	str	x0, [x25, #16]
  40b654:	f90002df 	str	xzr, [x22]
  40b658:	f90006df 	str	xzr, [x22, #8]
  40b65c:	f9000adf 	str	xzr, [x22, #16]
  40b660:	b9401ac0 	ldr	w0, [x22, #24]
  40b664:	b9001b20 	str	w0, [x25, #24]
  40b668:	f9401320 	ldr	x0, [x25, #32]
  40b66c:	f9401b21 	ldr	x1, [x25, #48]
  40b670:	f94012c3 	ldr	x3, [x22, #32]
  40b674:	f9001323 	str	x3, [x25, #32]
  40b678:	f94016c3 	ldr	x3, [x22, #40]
  40b67c:	f9001723 	str	x3, [x25, #40]
  40b680:	f9401ac3 	ldr	x3, [x22, #48]
  40b684:	f9001b23 	str	x3, [x25, #48]
  40b688:	f90012df 	str	xzr, [x22, #32]
  40b68c:	f90016df 	str	xzr, [x22, #40]
  40b690:	f9001adf 	str	xzr, [x22, #48]
  40b694:	b4000060 	cbz	x0, 40b6a0 <_ZSt21__unguarded_partitionIN9__gnu_cxx17__normal_iteratorIP2PTSt6vectorIS2_SaIS2_EEEENS0_5__ops15_Iter_comp_iterIPFbRKS2_SB_EEEET_SF_SF_SF_T0_+0x244>
  40b698:	cb000021 	sub	x1, x1, x0
  40b69c:	97ffda89 	bl	4020c0 <_ZdlPvm@plt>
  40b6a0:	f9401f20 	ldr	x0, [x25, #56]
  40b6a4:	f9402721 	ldr	x1, [x25, #72]
  40b6a8:	f9401ec3 	ldr	x3, [x22, #56]
  40b6ac:	f9001f23 	str	x3, [x25, #56]
  40b6b0:	f94022c3 	ldr	x3, [x22, #64]
  40b6b4:	f9002323 	str	x3, [x25, #64]
  40b6b8:	f94026c3 	ldr	x3, [x22, #72]
  40b6bc:	f9002723 	str	x3, [x25, #72]
  40b6c0:	f9001edf 	str	xzr, [x22, #56]
  40b6c4:	f90022df 	str	xzr, [x22, #64]
  40b6c8:	f90026df 	str	xzr, [x22, #72]
  40b6cc:	b4000060 	cbz	x0, 40b6d8 <_ZSt21__unguarded_partitionIN9__gnu_cxx17__normal_iteratorIP2PTSt6vectorIS2_SaIS2_EEEENS0_5__ops15_Iter_comp_iterIPFbRKS2_SB_EEEET_SF_SF_SF_T0_+0x27c>
  40b6d0:	cb000021 	sub	x1, x1, x0
  40b6d4:	97ffda7b 	bl	4020c0 <_ZdlPvm@plt>
  40b6d8:	bd4052c0 	ldr	s0, [x22, #80]
  40b6dc:	bd005320 	str	s0, [x25, #80]
  40b6e0:	bd4056c0 	ldr	s0, [x22, #84]
  40b6e4:	bd005720 	str	s0, [x25, #84]
  40b6e8:	f94002db 	ldr	x27, [x22]
  40b6ec:	f94006d9 	ldr	x25, [x22, #8]
  40b6f0:	f9400ac0 	ldr	x0, [x22, #16]
  40b6f4:	f90057e0 	str	x0, [sp, #168]
  40b6f8:	f90002d5 	str	x21, [x22]
  40b6fc:	f90006d4 	str	x20, [x22, #8]
  40b700:	f9000ad3 	str	x19, [x22, #16]
  40b704:	eb19037f 	cmp	x27, x25
  40b708:	54fff060 	b.eq	40b514 <_ZSt21__unguarded_partitionIN9__gnu_cxx17__normal_iteratorIP2PTSt6vectorIS2_SaIS2_EEEENS0_5__ops15_Iter_comp_iterIPFbRKS2_SB_EEEET_SF_SF_SF_T0_+0xb8>  // b.none
  40b70c:	aa1b03f4 	mov	x20, x27
  40b710:	17ffff73 	b	40b4dc <_ZSt21__unguarded_partitionIN9__gnu_cxx17__normal_iteratorIP2PTSt6vectorIS2_SaIS2_EEEENS0_5__ops15_Iter_comp_iterIPFbRKS2_SB_EEEET_SF_SF_SF_T0_+0x80>
  40b714:	aa1903e0 	mov	x0, x25
  40b718:	6d4627e8 	ldp	d8, d9, [sp, #96]
  40b71c:	a94153f3 	ldp	x19, x20, [sp, #16]
  40b720:	a9425bf5 	ldp	x21, x22, [sp, #32]
  40b724:	a94363f7 	ldp	x23, x24, [sp, #48]
  40b728:	a9446bf9 	ldp	x25, x26, [sp, #64]
  40b72c:	a94573fb 	ldp	x27, x28, [sp, #80]
  40b730:	a8cb7bfd 	ldp	x29, x30, [sp], #176
  40b734:	d65f03c0 	ret

000000000040b738 <_ZSt25__unguarded_linear_insertIN9__gnu_cxx17__normal_iteratorIP2PTSt6vectorIS2_SaIS2_EEEENS0_5__ops14_Val_comp_iterIPFbRKS2_SB_EEEEvT_T0_>:
  40b738:	a9b47bfd 	stp	x29, x30, [sp, #-192]!
  40b73c:	910003fd 	mov	x29, sp
  40b740:	a90153f3 	stp	x19, x20, [sp, #16]
  40b744:	a9025bf5 	stp	x21, x22, [sp, #32]
  40b748:	a90363f7 	stp	x23, x24, [sp, #48]
  40b74c:	a9046bf9 	stp	x25, x26, [sp, #64]
  40b750:	f9002bfb 	str	x27, [sp, #80]
  40b754:	aa0003f8 	mov	x24, x0
  40b758:	aa0103fb 	mov	x27, x1
  40b75c:	f9400000 	ldr	x0, [x0]
  40b760:	f90037e0 	str	x0, [sp, #104]
  40b764:	f9400700 	ldr	x0, [x24, #8]
  40b768:	f9003be0 	str	x0, [sp, #112]
  40b76c:	f9400b00 	ldr	x0, [x24, #16]
  40b770:	f9003fe0 	str	x0, [sp, #120]
  40b774:	f9000b1f 	str	xzr, [x24, #16]
  40b778:	f900071f 	str	xzr, [x24, #8]
  40b77c:	f900031f 	str	xzr, [x24]
  40b780:	b9401b00 	ldr	w0, [x24, #24]
  40b784:	b90083e0 	str	w0, [sp, #128]
  40b788:	f9401301 	ldr	x1, [x24, #32]
  40b78c:	f90047e1 	str	x1, [sp, #136]
  40b790:	f9401701 	ldr	x1, [x24, #40]
  40b794:	f9004be1 	str	x1, [sp, #144]
  40b798:	f9401b01 	ldr	x1, [x24, #48]
  40b79c:	f9004fe1 	str	x1, [sp, #152]
  40b7a0:	f9001b1f 	str	xzr, [x24, #48]
  40b7a4:	f900171f 	str	xzr, [x24, #40]
  40b7a8:	f900131f 	str	xzr, [x24, #32]
  40b7ac:	f9401f01 	ldr	x1, [x24, #56]
  40b7b0:	f90053e1 	str	x1, [sp, #160]
  40b7b4:	f9402301 	ldr	x1, [x24, #64]
  40b7b8:	f90057e1 	str	x1, [sp, #168]
  40b7bc:	f9402701 	ldr	x1, [x24, #72]
  40b7c0:	f9005be1 	str	x1, [sp, #176]
  40b7c4:	f900271f 	str	xzr, [x24, #72]
  40b7c8:	f900231f 	str	xzr, [x24, #64]
  40b7cc:	f9001f1f 	str	xzr, [x24, #56]
  40b7d0:	bd405300 	ldr	s0, [x24, #80]
  40b7d4:	bd00bbe0 	str	s0, [sp, #184]
  40b7d8:	bd405700 	ldr	s0, [x24, #84]
  40b7dc:	bd00bfe0 	str	s0, [sp, #188]
  40b7e0:	d1016318 	sub	x24, x24, #0x58
  40b7e4:	1400005b 	b	40b950 <_ZSt25__unguarded_linear_insertIN9__gnu_cxx17__normal_iteratorIP2PTSt6vectorIS2_SaIS2_EEEENS0_5__ops14_Val_comp_iterIPFbRKS2_SB_EEEEvT_T0_+0x218>
  40b7e8:	12001c00 	and	w0, w0, #0xff
  40b7ec:	34000be0 	cbz	w0, 40b968 <_ZSt25__unguarded_linear_insertIN9__gnu_cxx17__normal_iteratorIP2PTSt6vectorIS2_SaIS2_EEEENS0_5__ops14_Val_comp_iterIPFbRKS2_SB_EEEEvT_T0_+0x230>
  40b7f0:	f9402f19 	ldr	x25, [x24, #88]
  40b7f4:	f9403317 	ldr	x23, [x24, #96]
  40b7f8:	f940371a 	ldr	x26, [x24, #104]
  40b7fc:	f9400300 	ldr	x0, [x24]
  40b800:	f9002f00 	str	x0, [x24, #88]
  40b804:	f9400700 	ldr	x0, [x24, #8]
  40b808:	f9003300 	str	x0, [x24, #96]
  40b80c:	f9400b00 	ldr	x0, [x24, #16]
  40b810:	f9003700 	str	x0, [x24, #104]
  40b814:	f900031f 	str	xzr, [x24]
  40b818:	f900071f 	str	xzr, [x24, #8]
  40b81c:	f9000b1f 	str	xzr, [x24, #16]
  40b820:	eb17033f 	cmp	x25, x23
  40b824:	54000480 	b.eq	40b8b4 <_ZSt25__unguarded_linear_insertIN9__gnu_cxx17__normal_iteratorIP2PTSt6vectorIS2_SaIS2_EEEENS0_5__ops14_Val_comp_iterIPFbRKS2_SB_EEEEvT_T0_+0x17c>  // b.none
  40b828:	aa1903f4 	mov	x20, x25
  40b82c:	14000014 	b	40b87c <_ZSt25__unguarded_linear_insertIN9__gnu_cxx17__normal_iteratorIP2PTSt6vectorIS2_SaIS2_EEEENS0_5__ops14_Val_comp_iterIPFbRKS2_SB_EEEEvT_T0_+0x144>
  40b830:	91008273 	add	x19, x19, #0x20
  40b834:	eb1302bf 	cmp	x21, x19
  40b838:	54000120 	b.eq	40b85c <_ZSt25__unguarded_linear_insertIN9__gnu_cxx17__normal_iteratorIP2PTSt6vectorIS2_SaIS2_EEEENS0_5__ops14_Val_comp_iterIPFbRKS2_SB_EEEEvT_T0_+0x124>  // b.none
  40b83c:	aa1303e1 	mov	x1, x19
  40b840:	f8410420 	ldr	x0, [x1], #16
  40b844:	eb01001f 	cmp	x0, x1
  40b848:	54ffff40 	b.eq	40b830 <_ZSt25__unguarded_linear_insertIN9__gnu_cxx17__normal_iteratorIP2PTSt6vectorIS2_SaIS2_EEEENS0_5__ops14_Val_comp_iterIPFbRKS2_SB_EEEEvT_T0_+0xf8>  // b.none
  40b84c:	f9400a61 	ldr	x1, [x19, #16]
  40b850:	91000421 	add	x1, x1, #0x1
  40b854:	97ffda1b 	bl	4020c0 <_ZdlPvm@plt>
  40b858:	17fffff6 	b	40b830 <_ZSt25__unguarded_linear_insertIN9__gnu_cxx17__normal_iteratorIP2PTSt6vectorIS2_SaIS2_EEEENS0_5__ops14_Val_comp_iterIPFbRKS2_SB_EEEEvT_T0_+0xf8>
  40b85c:	f9400680 	ldr	x0, [x20, #8]
  40b860:	b4000080 	cbz	x0, 40b870 <_ZSt25__unguarded_linear_insertIN9__gnu_cxx17__normal_iteratorIP2PTSt6vectorIS2_SaIS2_EEEENS0_5__ops14_Val_comp_iterIPFbRKS2_SB_EEEEvT_T0_+0x138>
  40b864:	f9400e81 	ldr	x1, [x20, #24]
  40b868:	cb000021 	sub	x1, x1, x0
  40b86c:	97ffda15 	bl	4020c0 <_ZdlPvm@plt>
  40b870:	9102c294 	add	x20, x20, #0xb0
  40b874:	eb1402ff 	cmp	x23, x20
  40b878:	540001e0 	b.eq	40b8b4 <_ZSt25__unguarded_linear_insertIN9__gnu_cxx17__normal_iteratorIP2PTSt6vectorIS2_SaIS2_EEEENS0_5__ops14_Val_comp_iterIPFbRKS2_SB_EEEEvT_T0_+0x17c>  // b.none
  40b87c:	9101e280 	add	x0, x20, #0x78
  40b880:	97ffdfff 	bl	40387c <_ZNSt10_HashtableIiSt4pairIKiiESaIS2_ENSt8__detail10_Select1stESt8equal_toIiESt4hashIiENS4_18_Mod_range_hashingENS4_20_Default_ranged_hashENS4_20_Prime_rehash_policyENS4_17_Hashtable_traitsILb0ELb0ELb1EEEED1Ev>
  40b884:	91010280 	add	x0, x20, #0x40
  40b888:	97ffdfd4 	bl	4037d8 <_ZNSt10_HashtableINSt7__cxx1112basic_stringIcSt11char_traitsIcESaIcEEESt4pairIKS5_iESaIS8_ENSt8__detail10_Select1stESt8equal_toIS5_ESt4hashIS5_ENSA_18_Mod_range_hashingENSA_20_Default_ranged_hashENSA_20_Prime_rehash_policyENSA_17_Hashtable_traitsILb1ELb0ELb1EEEED1Ev>
  40b88c:	f9401280 	ldr	x0, [x20, #32]
  40b890:	b4000080 	cbz	x0, 40b8a0 <_ZSt25__unguarded_linear_insertIN9__gnu_cxx17__normal_iteratorIP2PTSt6vectorIS2_SaIS2_EEEENS0_5__ops14_Val_comp_iterIPFbRKS2_SB_EEEEvT_T0_+0x168>
  40b894:	f9401a81 	ldr	x1, [x20, #48]
  40b898:	cb000021 	sub	x1, x1, x0
  40b89c:	97ffda09 	bl	4020c0 <_ZdlPvm@plt>
  40b8a0:	f9400693 	ldr	x19, [x20, #8]
  40b8a4:	f9400a95 	ldr	x21, [x20, #16]
  40b8a8:	eb15027f 	cmp	x19, x21
  40b8ac:	54fffc81 	b.ne	40b83c <_ZSt25__unguarded_linear_insertIN9__gnu_cxx17__normal_iteratorIP2PTSt6vectorIS2_SaIS2_EEEENS0_5__ops14_Val_comp_iterIPFbRKS2_SB_EEEEvT_T0_+0x104>  // b.any
  40b8b0:	17ffffeb 	b	40b85c <_ZSt25__unguarded_linear_insertIN9__gnu_cxx17__normal_iteratorIP2PTSt6vectorIS2_SaIS2_EEEENS0_5__ops14_Val_comp_iterIPFbRKS2_SB_EEEEvT_T0_+0x124>
  40b8b4:	b4000099 	cbz	x25, 40b8c4 <_ZSt25__unguarded_linear_insertIN9__gnu_cxx17__normal_iteratorIP2PTSt6vectorIS2_SaIS2_EEEENS0_5__ops14_Val_comp_iterIPFbRKS2_SB_EEEEvT_T0_+0x18c>
  40b8b8:	cb190341 	sub	x1, x26, x25
  40b8bc:	aa1903e0 	mov	x0, x25
  40b8c0:	97ffda00 	bl	4020c0 <_ZdlPvm@plt>
  40b8c4:	b9401ac0 	ldr	w0, [x22, #24]
  40b8c8:	b90072c0 	str	w0, [x22, #112]
  40b8cc:	f9403ec0 	ldr	x0, [x22, #120]
  40b8d0:	f94046c1 	ldr	x1, [x22, #136]
  40b8d4:	f94012c2 	ldr	x2, [x22, #32]
  40b8d8:	f9003ec2 	str	x2, [x22, #120]
  40b8dc:	f94016c2 	ldr	x2, [x22, #40]
  40b8e0:	f90042c2 	str	x2, [x22, #128]
  40b8e4:	f9401ac2 	ldr	x2, [x22, #48]
  40b8e8:	f90046c2 	str	x2, [x22, #136]
  40b8ec:	f90012df 	str	xzr, [x22, #32]
  40b8f0:	f90016df 	str	xzr, [x22, #40]
  40b8f4:	f9001adf 	str	xzr, [x22, #48]
  40b8f8:	b4000060 	cbz	x0, 40b904 <_ZSt25__unguarded_linear_insertIN9__gnu_cxx17__normal_iteratorIP2PTSt6vectorIS2_SaIS2_EEEENS0_5__ops14_Val_comp_iterIPFbRKS2_SB_EEEEvT_T0_+0x1cc>
  40b8fc:	cb000021 	sub	x1, x1, x0
  40b900:	97ffd9f0 	bl	4020c0 <_ZdlPvm@plt>
  40b904:	f9404ac0 	ldr	x0, [x22, #144]
  40b908:	f94052c1 	ldr	x1, [x22, #160]
  40b90c:	f9401ec2 	ldr	x2, [x22, #56]
  40b910:	f9004ac2 	str	x2, [x22, #144]
  40b914:	f94022c2 	ldr	x2, [x22, #64]
  40b918:	f9004ec2 	str	x2, [x22, #152]
  40b91c:	f94026c2 	ldr	x2, [x22, #72]
  40b920:	f90052c2 	str	x2, [x22, #160]
  40b924:	f9001edf 	str	xzr, [x22, #56]
  40b928:	f90022df 	str	xzr, [x22, #64]
  40b92c:	f90026df 	str	xzr, [x22, #72]
  40b930:	b4000060 	cbz	x0, 40b93c <_ZSt25__unguarded_linear_insertIN9__gnu_cxx17__normal_iteratorIP2PTSt6vectorIS2_SaIS2_EEEENS0_5__ops14_Val_comp_iterIPFbRKS2_SB_EEEEvT_T0_+0x204>
  40b934:	cb000021 	sub	x1, x1, x0
  40b938:	97ffd9e2 	bl	4020c0 <_ZdlPvm@plt>
  40b93c:	bd4052c0 	ldr	s0, [x22, #80]
  40b940:	bd00aac0 	str	s0, [x22, #168]
  40b944:	bd4056c0 	ldr	s0, [x22, #84]
  40b948:	bd00aec0 	str	s0, [x22, #172]
  40b94c:	d1016318 	sub	x24, x24, #0x58
  40b950:	91016313 	add	x19, x24, #0x58
  40b954:	aa1803f6 	mov	x22, x24
  40b958:	aa1803e1 	mov	x1, x24
  40b95c:	9101a3e0 	add	x0, sp, #0x68
  40b960:	d63f0360 	blr	x27
  40b964:	17ffffa1 	b	40b7e8 <_ZSt25__unguarded_linear_insertIN9__gnu_cxx17__normal_iteratorIP2PTSt6vectorIS2_SaIS2_EEEENS0_5__ops14_Val_comp_iterIPFbRKS2_SB_EEEEvT_T0_+0xb0>
  40b968:	9101a3e1 	add	x1, sp, #0x68
  40b96c:	aa1303e0 	mov	x0, x19
  40b970:	97fffe55 	bl	40b2c4 <_ZN2PTaSEOS_>
  40b974:	f94053e0 	ldr	x0, [sp, #160]
  40b978:	b4000080 	cbz	x0, 40b988 <_ZSt25__unguarded_linear_insertIN9__gnu_cxx17__normal_iteratorIP2PTSt6vectorIS2_SaIS2_EEEENS0_5__ops14_Val_comp_iterIPFbRKS2_SB_EEEEvT_T0_+0x250>
  40b97c:	f9405be1 	ldr	x1, [sp, #176]
  40b980:	cb000021 	sub	x1, x1, x0
  40b984:	97ffd9cf 	bl	4020c0 <_ZdlPvm@plt>
  40b988:	f94047e0 	ldr	x0, [sp, #136]
  40b98c:	b4000080 	cbz	x0, 40b99c <_ZSt25__unguarded_linear_insertIN9__gnu_cxx17__normal_iteratorIP2PTSt6vectorIS2_SaIS2_EEEENS0_5__ops14_Val_comp_iterIPFbRKS2_SB_EEEEvT_T0_+0x264>
  40b990:	f9404fe1 	ldr	x1, [sp, #152]
  40b994:	cb000021 	sub	x1, x1, x0
  40b998:	97ffd9ca 	bl	4020c0 <_ZdlPvm@plt>
  40b99c:	f94037f5 	ldr	x21, [sp, #104]
  40b9a0:	f9403bf6 	ldr	x22, [sp, #112]
  40b9a4:	eb1602bf 	cmp	x21, x22
  40b9a8:	54000401 	b.ne	40ba28 <_ZSt25__unguarded_linear_insertIN9__gnu_cxx17__normal_iteratorIP2PTSt6vectorIS2_SaIS2_EEEENS0_5__ops14_Val_comp_iterIPFbRKS2_SB_EEEEvT_T0_+0x2f0>  // b.any
  40b9ac:	f94037e0 	ldr	x0, [sp, #104]
  40b9b0:	b4000080 	cbz	x0, 40b9c0 <_ZSt25__unguarded_linear_insertIN9__gnu_cxx17__normal_iteratorIP2PTSt6vectorIS2_SaIS2_EEEENS0_5__ops14_Val_comp_iterIPFbRKS2_SB_EEEEvT_T0_+0x288>
  40b9b4:	f9403fe1 	ldr	x1, [sp, #120]
  40b9b8:	cb000021 	sub	x1, x1, x0
  40b9bc:	97ffd9c1 	bl	4020c0 <_ZdlPvm@plt>
  40b9c0:	a94153f3 	ldp	x19, x20, [sp, #16]
  40b9c4:	a9425bf5 	ldp	x21, x22, [sp, #32]
  40b9c8:	a94363f7 	ldp	x23, x24, [sp, #48]
  40b9cc:	a9446bf9 	ldp	x25, x26, [sp, #64]
  40b9d0:	f9402bfb 	ldr	x27, [sp, #80]
  40b9d4:	a8cc7bfd 	ldp	x29, x30, [sp], #192
  40b9d8:	d65f03c0 	ret
  40b9dc:	91008273 	add	x19, x19, #0x20
  40b9e0:	eb13029f 	cmp	x20, x19
  40b9e4:	54000120 	b.eq	40ba08 <_ZSt25__unguarded_linear_insertIN9__gnu_cxx17__normal_iteratorIP2PTSt6vectorIS2_SaIS2_EEEENS0_5__ops14_Val_comp_iterIPFbRKS2_SB_EEEEvT_T0_+0x2d0>  // b.none
  40b9e8:	aa1303e1 	mov	x1, x19
  40b9ec:	f8410420 	ldr	x0, [x1], #16
  40b9f0:	eb01001f 	cmp	x0, x1
  40b9f4:	54ffff40 	b.eq	40b9dc <_ZSt25__unguarded_linear_insertIN9__gnu_cxx17__normal_iteratorIP2PTSt6vectorIS2_SaIS2_EEEENS0_5__ops14_Val_comp_iterIPFbRKS2_SB_EEEEvT_T0_+0x2a4>  // b.none
  40b9f8:	f9400a61 	ldr	x1, [x19, #16]
  40b9fc:	91000421 	add	x1, x1, #0x1
  40ba00:	97ffd9b0 	bl	4020c0 <_ZdlPvm@plt>
  40ba04:	17fffff6 	b	40b9dc <_ZSt25__unguarded_linear_insertIN9__gnu_cxx17__normal_iteratorIP2PTSt6vectorIS2_SaIS2_EEEENS0_5__ops14_Val_comp_iterIPFbRKS2_SB_EEEEvT_T0_+0x2a4>
  40ba08:	f94006a0 	ldr	x0, [x21, #8]
  40ba0c:	b4000080 	cbz	x0, 40ba1c <_ZSt25__unguarded_linear_insertIN9__gnu_cxx17__normal_iteratorIP2PTSt6vectorIS2_SaIS2_EEEENS0_5__ops14_Val_comp_iterIPFbRKS2_SB_EEEEvT_T0_+0x2e4>
  40ba10:	f9400ea1 	ldr	x1, [x21, #24]
  40ba14:	cb000021 	sub	x1, x1, x0
  40ba18:	97ffd9aa 	bl	4020c0 <_ZdlPvm@plt>
  40ba1c:	9102c2b5 	add	x21, x21, #0xb0
  40ba20:	eb1502df 	cmp	x22, x21
  40ba24:	54fffc40 	b.eq	40b9ac <_ZSt25__unguarded_linear_insertIN9__gnu_cxx17__normal_iteratorIP2PTSt6vectorIS2_SaIS2_EEEENS0_5__ops14_Val_comp_iterIPFbRKS2_SB_EEEEvT_T0_+0x274>  // b.none
  40ba28:	9101e2a0 	add	x0, x21, #0x78
  40ba2c:	97ffdf94 	bl	40387c <_ZNSt10_HashtableIiSt4pairIKiiESaIS2_ENSt8__detail10_Select1stESt8equal_toIiESt4hashIiENS4_18_Mod_range_hashingENS4_20_Default_ranged_hashENS4_20_Prime_rehash_policyENS4_17_Hashtable_traitsILb0ELb0ELb1EEEED1Ev>
  40ba30:	910102a0 	add	x0, x21, #0x40
  40ba34:	97ffdf69 	bl	4037d8 <_ZNSt10_HashtableINSt7__cxx1112basic_stringIcSt11char_traitsIcESaIcEEESt4pairIKS5_iESaIS8_ENSt8__detail10_Select1stESt8equal_toIS5_ESt4hashIS5_ENSA_18_Mod_range_hashingENSA_20_Default_ranged_hashENSA_20_Prime_rehash_policyENSA_17_Hashtable_traitsILb1ELb0ELb1EEEED1Ev>
  40ba38:	f94012a0 	ldr	x0, [x21, #32]
  40ba3c:	b4000080 	cbz	x0, 40ba4c <_ZSt25__unguarded_linear_insertIN9__gnu_cxx17__normal_iteratorIP2PTSt6vectorIS2_SaIS2_EEEENS0_5__ops14_Val_comp_iterIPFbRKS2_SB_EEEEvT_T0_+0x314>
  40ba40:	f9401aa1 	ldr	x1, [x21, #48]
  40ba44:	cb000021 	sub	x1, x1, x0
  40ba48:	97ffd99e 	bl	4020c0 <_ZdlPvm@plt>
  40ba4c:	f94006b3 	ldr	x19, [x21, #8]
  40ba50:	f9400ab4 	ldr	x20, [x21, #16]
  40ba54:	eb14027f 	cmp	x19, x20
  40ba58:	54fffc81 	b.ne	40b9e8 <_ZSt25__unguarded_linear_insertIN9__gnu_cxx17__normal_iteratorIP2PTSt6vectorIS2_SaIS2_EEEENS0_5__ops14_Val_comp_iterIPFbRKS2_SB_EEEEvT_T0_+0x2b0>  // b.any
  40ba5c:	17ffffeb 	b	40ba08 <_ZSt25__unguarded_linear_insertIN9__gnu_cxx17__normal_iteratorIP2PTSt6vectorIS2_SaIS2_EEEENS0_5__ops14_Val_comp_iterIPFbRKS2_SB_EEEEvT_T0_+0x2d0>
  40ba60:	aa0003f3 	mov	x19, x0
  40ba64:	9101a3e0 	add	x0, sp, #0x68
  40ba68:	97fff83c 	bl	409b58 <_ZN2PTD1Ev>
  40ba6c:	aa1303e0 	mov	x0, x19
  40ba70:	97ffd9fc 	bl	402260 <_Unwind_Resume@plt>

000000000040ba74 <_ZSt16__insertion_sortIN9__gnu_cxx17__normal_iteratorIP2PTSt6vectorIS2_SaIS2_EEEENS0_5__ops15_Iter_comp_iterIPFbRKS2_SB_EEEEvT_SF_T0_>:
  40ba74:	a9b37bfd 	stp	x29, x30, [sp, #-208]!
  40ba78:	910003fd 	mov	x29, sp
  40ba7c:	a90573fb 	stp	x27, x28, [sp, #80]
  40ba80:	aa0003fc 	mov	x28, x0
  40ba84:	f90037e1 	str	x1, [sp, #104]
  40ba88:	f90033e2 	str	x2, [sp, #96]
  40ba8c:	eb01001f 	cmp	x0, x1
  40ba90:	54001ae0 	b.eq	40bdec <_ZSt16__insertion_sortIN9__gnu_cxx17__normal_iteratorIP2PTSt6vectorIS2_SaIS2_EEEENS0_5__ops15_Iter_comp_iterIPFbRKS2_SB_EEEEvT_SF_T0_+0x378>  // b.none
  40ba94:	a9046bf9 	stp	x25, x26, [sp, #64]
  40ba98:	9101601a 	add	x26, x0, #0x58
  40ba9c:	eb01035f 	cmp	x26, x1
  40baa0:	54001ac0 	b.eq	40bdf8 <_ZSt16__insertion_sortIN9__gnu_cxx17__normal_iteratorIP2PTSt6vectorIS2_SaIS2_EEEENS0_5__ops15_Iter_comp_iterIPFbRKS2_SB_EEEEvT_SF_T0_+0x384>  // b.none
  40baa4:	a90153f3 	stp	x19, x20, [sp, #16]
  40baa8:	a9025bf5 	stp	x21, x22, [sp, #32]
  40baac:	a90363f7 	stp	x23, x24, [sp, #48]
  40bab0:	14000083 	b	40bcbc <_ZSt16__insertion_sortIN9__gnu_cxx17__normal_iteratorIP2PTSt6vectorIS2_SaIS2_EEEENS0_5__ops15_Iter_comp_iterIPFbRKS2_SB_EEEEvT_SF_T0_+0x248>
  40bab4:	91008273 	add	x19, x19, #0x20
  40bab8:	eb1302bf 	cmp	x21, x19
  40babc:	54000120 	b.eq	40bae0 <_ZSt16__insertion_sortIN9__gnu_cxx17__normal_iteratorIP2PTSt6vectorIS2_SaIS2_EEEENS0_5__ops15_Iter_comp_iterIPFbRKS2_SB_EEEEvT_SF_T0_+0x6c>  // b.none
  40bac0:	aa1303e1 	mov	x1, x19
  40bac4:	f8410420 	ldr	x0, [x1], #16
  40bac8:	eb01001f 	cmp	x0, x1
  40bacc:	54ffff40 	b.eq	40bab4 <_ZSt16__insertion_sortIN9__gnu_cxx17__normal_iteratorIP2PTSt6vectorIS2_SaIS2_EEEENS0_5__ops15_Iter_comp_iterIPFbRKS2_SB_EEEEvT_SF_T0_+0x40>  // b.none
  40bad0:	f9400a61 	ldr	x1, [x19, #16]
  40bad4:	91000421 	add	x1, x1, #0x1
  40bad8:	97ffd97a 	bl	4020c0 <_ZdlPvm@plt>
  40badc:	17fffff6 	b	40bab4 <_ZSt16__insertion_sortIN9__gnu_cxx17__normal_iteratorIP2PTSt6vectorIS2_SaIS2_EEEENS0_5__ops15_Iter_comp_iterIPFbRKS2_SB_EEEEvT_SF_T0_+0x40>
  40bae0:	f9400680 	ldr	x0, [x20, #8]
  40bae4:	b4000080 	cbz	x0, 40baf4 <_ZSt16__insertion_sortIN9__gnu_cxx17__normal_iteratorIP2PTSt6vectorIS2_SaIS2_EEEENS0_5__ops15_Iter_comp_iterIPFbRKS2_SB_EEEEvT_SF_T0_+0x80>
  40bae8:	f9400e81 	ldr	x1, [x20, #24]
  40baec:	cb000021 	sub	x1, x1, x0
  40baf0:	97ffd974 	bl	4020c0 <_ZdlPvm@plt>
  40baf4:	9102c294 	add	x20, x20, #0xb0
  40baf8:	eb1402ff 	cmp	x23, x20
  40bafc:	540001e0 	b.eq	40bb38 <_ZSt16__insertion_sortIN9__gnu_cxx17__normal_iteratorIP2PTSt6vectorIS2_SaIS2_EEEENS0_5__ops15_Iter_comp_iterIPFbRKS2_SB_EEEEvT_SF_T0_+0xc4>  // b.none
  40bb00:	9101e280 	add	x0, x20, #0x78
  40bb04:	97ffdf5e 	bl	40387c <_ZNSt10_HashtableIiSt4pairIKiiESaIS2_ENSt8__detail10_Select1stESt8equal_toIiESt4hashIiENS4_18_Mod_range_hashingENS4_20_Default_ranged_hashENS4_20_Prime_rehash_policyENS4_17_Hashtable_traitsILb0ELb0ELb1EEEED1Ev>
  40bb08:	91010280 	add	x0, x20, #0x40
  40bb0c:	97ffdf33 	bl	4037d8 <_ZNSt10_HashtableINSt7__cxx1112basic_stringIcSt11char_traitsIcESaIcEEESt4pairIKS5_iESaIS8_ENSt8__detail10_Select1stESt8equal_toIS5_ESt4hashIS5_ENSA_18_Mod_range_hashingENSA_20_Default_ranged_hashENSA_20_Prime_rehash_policyENSA_17_Hashtable_traitsILb1ELb0ELb1EEEED1Ev>
  40bb10:	f9401280 	ldr	x0, [x20, #32]
  40bb14:	b4000080 	cbz	x0, 40bb24 <_ZSt16__insertion_sortIN9__gnu_cxx17__normal_iteratorIP2PTSt6vectorIS2_SaIS2_EEEENS0_5__ops15_Iter_comp_iterIPFbRKS2_SB_EEEEvT_SF_T0_+0xb0>
  40bb18:	f9401a81 	ldr	x1, [x20, #48]
  40bb1c:	cb000021 	sub	x1, x1, x0
  40bb20:	97ffd968 	bl	4020c0 <_ZdlPvm@plt>
  40bb24:	f9400693 	ldr	x19, [x20, #8]
  40bb28:	f9400a95 	ldr	x21, [x20, #16]
  40bb2c:	eb15027f 	cmp	x19, x21
  40bb30:	54fffc81 	b.ne	40bac0 <_ZSt16__insertion_sortIN9__gnu_cxx17__normal_iteratorIP2PTSt6vectorIS2_SaIS2_EEEENS0_5__ops15_Iter_comp_iterIPFbRKS2_SB_EEEEvT_SF_T0_+0x4c>  // b.any
  40bb34:	17ffffeb 	b	40bae0 <_ZSt16__insertion_sortIN9__gnu_cxx17__normal_iteratorIP2PTSt6vectorIS2_SaIS2_EEEENS0_5__ops15_Iter_comp_iterIPFbRKS2_SB_EEEEvT_SF_T0_+0x6c>
  40bb38:	b4000098 	cbz	x24, 40bb48 <_ZSt16__insertion_sortIN9__gnu_cxx17__normal_iteratorIP2PTSt6vectorIS2_SaIS2_EEEENS0_5__ops15_Iter_comp_iterIPFbRKS2_SB_EEEEvT_SF_T0_+0xd4>
  40bb3c:	cb180361 	sub	x1, x27, x24
  40bb40:	aa1803e0 	mov	x0, x24
  40bb44:	97ffd95f 	bl	4020c0 <_ZdlPvm@plt>
  40bb48:	b85c02c0 	ldur	w0, [x22, #-64]
  40bb4c:	b9001ac0 	str	w0, [x22, #24]
  40bb50:	f94012c0 	ldr	x0, [x22, #32]
  40bb54:	f9401ac1 	ldr	x1, [x22, #48]
  40bb58:	f85c82c2 	ldur	x2, [x22, #-56]
  40bb5c:	f90012c2 	str	x2, [x22, #32]
  40bb60:	f85d02c2 	ldur	x2, [x22, #-48]
  40bb64:	f90016c2 	str	x2, [x22, #40]
  40bb68:	f85d82c2 	ldur	x2, [x22, #-40]
  40bb6c:	f9001ac2 	str	x2, [x22, #48]
  40bb70:	f81c82df 	stur	xzr, [x22, #-56]
  40bb74:	f81d02df 	stur	xzr, [x22, #-48]
  40bb78:	f81d82df 	stur	xzr, [x22, #-40]
  40bb7c:	b4000060 	cbz	x0, 40bb88 <_ZSt16__insertion_sortIN9__gnu_cxx17__normal_iteratorIP2PTSt6vectorIS2_SaIS2_EEEENS0_5__ops15_Iter_comp_iterIPFbRKS2_SB_EEEEvT_SF_T0_+0x114>
  40bb80:	cb000021 	sub	x1, x1, x0
  40bb84:	97ffd94f 	bl	4020c0 <_ZdlPvm@plt>
  40bb88:	f9401ec0 	ldr	x0, [x22, #56]
  40bb8c:	f94026c1 	ldr	x1, [x22, #72]
  40bb90:	f85e02c2 	ldur	x2, [x22, #-32]
  40bb94:	f9001ec2 	str	x2, [x22, #56]
  40bb98:	f85e82c2 	ldur	x2, [x22, #-24]
  40bb9c:	f90022c2 	str	x2, [x22, #64]
  40bba0:	f85f02c2 	ldur	x2, [x22, #-16]
  40bba4:	f90026c2 	str	x2, [x22, #72]
  40bba8:	f81e02df 	stur	xzr, [x22, #-32]
  40bbac:	f81e82df 	stur	xzr, [x22, #-24]
  40bbb0:	f81f02df 	stur	xzr, [x22, #-16]
  40bbb4:	b4000060 	cbz	x0, 40bbc0 <_ZSt16__insertion_sortIN9__gnu_cxx17__normal_iteratorIP2PTSt6vectorIS2_SaIS2_EEEENS0_5__ops15_Iter_comp_iterIPFbRKS2_SB_EEEEvT_SF_T0_+0x14c>
  40bbb8:	cb000021 	sub	x1, x1, x0
  40bbbc:	97ffd941 	bl	4020c0 <_ZdlPvm@plt>
  40bbc0:	bc5f82c0 	ldur	s0, [x22, #-8]
  40bbc4:	bd0052c0 	str	s0, [x22, #80]
  40bbc8:	bc5fc2c0 	ldur	s0, [x22, #-4]
  40bbcc:	bd0056c0 	str	s0, [x22, #84]
  40bbd0:	d1000739 	sub	x25, x25, #0x1
  40bbd4:	f100033f 	cmp	x25, #0x0
  40bbd8:	54000d4d 	b.le	40bd80 <_ZSt16__insertion_sortIN9__gnu_cxx17__normal_iteratorIP2PTSt6vectorIS2_SaIS2_EEEENS0_5__ops15_Iter_comp_iterIPFbRKS2_SB_EEEEvT_SF_T0_+0x30c>
  40bbdc:	f85a8ed8 	ldr	x24, [x22, #-88]!
  40bbe0:	f94006d7 	ldr	x23, [x22, #8]
  40bbe4:	f9400adb 	ldr	x27, [x22, #16]
  40bbe8:	f85a82c0 	ldur	x0, [x22, #-88]
  40bbec:	f90002c0 	str	x0, [x22]
  40bbf0:	f85b02c0 	ldur	x0, [x22, #-80]
  40bbf4:	f90006c0 	str	x0, [x22, #8]
  40bbf8:	f85b82c0 	ldur	x0, [x22, #-72]
  40bbfc:	f9000ac0 	str	x0, [x22, #16]
  40bc00:	f81a82df 	stur	xzr, [x22, #-88]
  40bc04:	f81b02df 	stur	xzr, [x22, #-80]
  40bc08:	f81b82df 	stur	xzr, [x22, #-72]
  40bc0c:	eb17031f 	cmp	x24, x23
  40bc10:	54fff940 	b.eq	40bb38 <_ZSt16__insertion_sortIN9__gnu_cxx17__normal_iteratorIP2PTSt6vectorIS2_SaIS2_EEEENS0_5__ops15_Iter_comp_iterIPFbRKS2_SB_EEEEvT_SF_T0_+0xc4>  // b.none
  40bc14:	aa1803f4 	mov	x20, x24
  40bc18:	17ffffba 	b	40bb00 <_ZSt16__insertion_sortIN9__gnu_cxx17__normal_iteratorIP2PTSt6vectorIS2_SaIS2_EEEENS0_5__ops15_Iter_comp_iterIPFbRKS2_SB_EEEEvT_SF_T0_+0x8c>
  40bc1c:	91008273 	add	x19, x19, #0x20
  40bc20:	eb13029f 	cmp	x20, x19
  40bc24:	54000120 	b.eq	40bc48 <_ZSt16__insertion_sortIN9__gnu_cxx17__normal_iteratorIP2PTSt6vectorIS2_SaIS2_EEEENS0_5__ops15_Iter_comp_iterIPFbRKS2_SB_EEEEvT_SF_T0_+0x1d4>  // b.none
  40bc28:	aa1303e1 	mov	x1, x19
  40bc2c:	f8410420 	ldr	x0, [x1], #16
  40bc30:	eb01001f 	cmp	x0, x1
  40bc34:	54ffff40 	b.eq	40bc1c <_ZSt16__insertion_sortIN9__gnu_cxx17__normal_iteratorIP2PTSt6vectorIS2_SaIS2_EEEENS0_5__ops15_Iter_comp_iterIPFbRKS2_SB_EEEEvT_SF_T0_+0x1a8>  // b.none
  40bc38:	f9400a61 	ldr	x1, [x19, #16]
  40bc3c:	91000421 	add	x1, x1, #0x1
  40bc40:	97ffd920 	bl	4020c0 <_ZdlPvm@plt>
  40bc44:	17fffff6 	b	40bc1c <_ZSt16__insertion_sortIN9__gnu_cxx17__normal_iteratorIP2PTSt6vectorIS2_SaIS2_EEEENS0_5__ops15_Iter_comp_iterIPFbRKS2_SB_EEEEvT_SF_T0_+0x1a8>
  40bc48:	f94006a0 	ldr	x0, [x21, #8]
  40bc4c:	b4000080 	cbz	x0, 40bc5c <_ZSt16__insertion_sortIN9__gnu_cxx17__normal_iteratorIP2PTSt6vectorIS2_SaIS2_EEEENS0_5__ops15_Iter_comp_iterIPFbRKS2_SB_EEEEvT_SF_T0_+0x1e8>
  40bc50:	f9400ea1 	ldr	x1, [x21, #24]
  40bc54:	cb000021 	sub	x1, x1, x0
  40bc58:	97ffd91a 	bl	4020c0 <_ZdlPvm@plt>
  40bc5c:	9102c2b5 	add	x21, x21, #0xb0
  40bc60:	eb1502df 	cmp	x22, x21
  40bc64:	54000b00 	b.eq	40bdc4 <_ZSt16__insertion_sortIN9__gnu_cxx17__normal_iteratorIP2PTSt6vectorIS2_SaIS2_EEEENS0_5__ops15_Iter_comp_iterIPFbRKS2_SB_EEEEvT_SF_T0_+0x350>  // b.none
  40bc68:	9101e2a0 	add	x0, x21, #0x78
  40bc6c:	97ffdf04 	bl	40387c <_ZNSt10_HashtableIiSt4pairIKiiESaIS2_ENSt8__detail10_Select1stESt8equal_toIiESt4hashIiENS4_18_Mod_range_hashingENS4_20_Default_ranged_hashENS4_20_Prime_rehash_policyENS4_17_Hashtable_traitsILb0ELb0ELb1EEEED1Ev>
  40bc70:	910102a0 	add	x0, x21, #0x40
  40bc74:	97ffded9 	bl	4037d8 <_ZNSt10_HashtableINSt7__cxx1112basic_stringIcSt11char_traitsIcESaIcEEESt4pairIKS5_iESaIS8_ENSt8__detail10_Select1stESt8equal_toIS5_ESt4hashIS5_ENSA_18_Mod_range_hashingENSA_20_Default_ranged_hashENSA_20_Prime_rehash_policyENSA_17_Hashtable_traitsILb1ELb0ELb1EEEED1Ev>
  40bc78:	f94012a0 	ldr	x0, [x21, #32]
  40bc7c:	b4000080 	cbz	x0, 40bc8c <_ZSt16__insertion_sortIN9__gnu_cxx17__normal_iteratorIP2PTSt6vectorIS2_SaIS2_EEEENS0_5__ops15_Iter_comp_iterIPFbRKS2_SB_EEEEvT_SF_T0_+0x218>
  40bc80:	f9401aa1 	ldr	x1, [x21, #48]
  40bc84:	cb000021 	sub	x1, x1, x0
  40bc88:	97ffd90e 	bl	4020c0 <_ZdlPvm@plt>
  40bc8c:	f94006b3 	ldr	x19, [x21, #8]
  40bc90:	f9400ab4 	ldr	x20, [x21, #16]
  40bc94:	eb14027f 	cmp	x19, x20
  40bc98:	54fffc81 	b.ne	40bc28 <_ZSt16__insertion_sortIN9__gnu_cxx17__normal_iteratorIP2PTSt6vectorIS2_SaIS2_EEEENS0_5__ops15_Iter_comp_iterIPFbRKS2_SB_EEEEvT_SF_T0_+0x1b4>  // b.any
  40bc9c:	17ffffeb 	b	40bc48 <_ZSt16__insertion_sortIN9__gnu_cxx17__normal_iteratorIP2PTSt6vectorIS2_SaIS2_EEEENS0_5__ops15_Iter_comp_iterIPFbRKS2_SB_EEEEvT_SF_T0_+0x1d4>
  40bca0:	f94033e1 	ldr	x1, [sp, #96]
  40bca4:	aa1a03e0 	mov	x0, x26
  40bca8:	97fffea4 	bl	40b738 <_ZSt25__unguarded_linear_insertIN9__gnu_cxx17__normal_iteratorIP2PTSt6vectorIS2_SaIS2_EEEENS0_5__ops14_Val_comp_iterIPFbRKS2_SB_EEEEvT_T0_>
  40bcac:	9101635a 	add	x26, x26, #0x58
  40bcb0:	f94037e0 	ldr	x0, [sp, #104]
  40bcb4:	eb1a001f 	cmp	x0, x26
  40bcb8:	54000920 	b.eq	40bddc <_ZSt16__insertion_sortIN9__gnu_cxx17__normal_iteratorIP2PTSt6vectorIS2_SaIS2_EEEENS0_5__ops15_Iter_comp_iterIPFbRKS2_SB_EEEEvT_SF_T0_+0x368>  // b.none
  40bcbc:	aa1c03e1 	mov	x1, x28
  40bcc0:	aa1a03e0 	mov	x0, x26
  40bcc4:	f94033e2 	ldr	x2, [sp, #96]
  40bcc8:	d63f0040 	blr	x2
  40bccc:	12001c00 	and	w0, w0, #0xff
  40bcd0:	34fffe80 	cbz	w0, 40bca0 <_ZSt16__insertion_sortIN9__gnu_cxx17__normal_iteratorIP2PTSt6vectorIS2_SaIS2_EEEENS0_5__ops15_Iter_comp_iterIPFbRKS2_SB_EEEEvT_SF_T0_+0x22c>
  40bcd4:	f9400340 	ldr	x0, [x26]
  40bcd8:	f9003fe0 	str	x0, [sp, #120]
  40bcdc:	f9400740 	ldr	x0, [x26, #8]
  40bce0:	f90043e0 	str	x0, [sp, #128]
  40bce4:	f9400b40 	ldr	x0, [x26, #16]
  40bce8:	f90047e0 	str	x0, [sp, #136]
  40bcec:	f9000b5f 	str	xzr, [x26, #16]
  40bcf0:	f900075f 	str	xzr, [x26, #8]
  40bcf4:	f900035f 	str	xzr, [x26]
  40bcf8:	b9401b40 	ldr	w0, [x26, #24]
  40bcfc:	b90093e0 	str	w0, [sp, #144]
  40bd00:	f9401340 	ldr	x0, [x26, #32]
  40bd04:	f9004fe0 	str	x0, [sp, #152]
  40bd08:	f9401740 	ldr	x0, [x26, #40]
  40bd0c:	f90053e0 	str	x0, [sp, #160]
  40bd10:	f9401b40 	ldr	x0, [x26, #48]
  40bd14:	f90057e0 	str	x0, [sp, #168]
  40bd18:	f9001b5f 	str	xzr, [x26, #48]
  40bd1c:	f900175f 	str	xzr, [x26, #40]
  40bd20:	f900135f 	str	xzr, [x26, #32]
  40bd24:	f9401f40 	ldr	x0, [x26, #56]
  40bd28:	f9005be0 	str	x0, [sp, #176]
  40bd2c:	f9402340 	ldr	x0, [x26, #64]
  40bd30:	f9005fe0 	str	x0, [sp, #184]
  40bd34:	f9402740 	ldr	x0, [x26, #72]
  40bd38:	f90063e0 	str	x0, [sp, #192]
  40bd3c:	f900275f 	str	xzr, [x26, #72]
  40bd40:	f900235f 	str	xzr, [x26, #64]
  40bd44:	f9001f5f 	str	xzr, [x26, #56]
  40bd48:	bd405340 	ldr	s0, [x26, #80]
  40bd4c:	bd00cbe0 	str	s0, [sp, #200]
  40bd50:	bd405740 	ldr	s0, [x26, #84]
  40bd54:	bd00cfe0 	str	s0, [sp, #204]
  40bd58:	91016356 	add	x22, x26, #0x58
  40bd5c:	cb1c0340 	sub	x0, x26, x28
  40bd60:	9343fc19 	asr	x25, x0, #3
  40bd64:	d2917461 	mov	x1, #0x8ba3                	// #35747
  40bd68:	f2b745c1 	movk	x1, #0xba2e, lsl #16
  40bd6c:	f2d45d01 	movk	x1, #0xa2e8, lsl #32
  40bd70:	f2e5d161 	movk	x1, #0x2e8b, lsl #48
  40bd74:	9b017f39 	mul	x25, x25, x1
  40bd78:	f100001f 	cmp	x0, #0x0
  40bd7c:	54fff30c 	b.gt	40bbdc <_ZSt16__insertion_sortIN9__gnu_cxx17__normal_iteratorIP2PTSt6vectorIS2_SaIS2_EEEENS0_5__ops15_Iter_comp_iterIPFbRKS2_SB_EEEEvT_SF_T0_+0x168>
  40bd80:	9101e3e1 	add	x1, sp, #0x78
  40bd84:	aa1c03e0 	mov	x0, x28
  40bd88:	97fffd4f 	bl	40b2c4 <_ZN2PTaSEOS_>
  40bd8c:	f9405be0 	ldr	x0, [sp, #176]
  40bd90:	b4000080 	cbz	x0, 40bda0 <_ZSt16__insertion_sortIN9__gnu_cxx17__normal_iteratorIP2PTSt6vectorIS2_SaIS2_EEEENS0_5__ops15_Iter_comp_iterIPFbRKS2_SB_EEEEvT_SF_T0_+0x32c>
  40bd94:	f94063e1 	ldr	x1, [sp, #192]
  40bd98:	cb000021 	sub	x1, x1, x0
  40bd9c:	97ffd8c9 	bl	4020c0 <_ZdlPvm@plt>
  40bda0:	f9404fe0 	ldr	x0, [sp, #152]
  40bda4:	b4000080 	cbz	x0, 40bdb4 <_ZSt16__insertion_sortIN9__gnu_cxx17__normal_iteratorIP2PTSt6vectorIS2_SaIS2_EEEENS0_5__ops15_Iter_comp_iterIPFbRKS2_SB_EEEEvT_SF_T0_+0x340>
  40bda8:	f94057e1 	ldr	x1, [sp, #168]
  40bdac:	cb000021 	sub	x1, x1, x0
  40bdb0:	97ffd8c4 	bl	4020c0 <_ZdlPvm@plt>
  40bdb4:	f9403ff5 	ldr	x21, [sp, #120]
  40bdb8:	f94043f6 	ldr	x22, [sp, #128]
  40bdbc:	eb1602bf 	cmp	x21, x22
  40bdc0:	54fff541 	b.ne	40bc68 <_ZSt16__insertion_sortIN9__gnu_cxx17__normal_iteratorIP2PTSt6vectorIS2_SaIS2_EEEENS0_5__ops15_Iter_comp_iterIPFbRKS2_SB_EEEEvT_SF_T0_+0x1f4>  // b.any
  40bdc4:	f9403fe0 	ldr	x0, [sp, #120]
  40bdc8:	b4fff720 	cbz	x0, 40bcac <_ZSt16__insertion_sortIN9__gnu_cxx17__normal_iteratorIP2PTSt6vectorIS2_SaIS2_EEEENS0_5__ops15_Iter_comp_iterIPFbRKS2_SB_EEEEvT_SF_T0_+0x238>
  40bdcc:	f94047e1 	ldr	x1, [sp, #136]
  40bdd0:	cb000021 	sub	x1, x1, x0
  40bdd4:	97ffd8bb 	bl	4020c0 <_ZdlPvm@plt>
  40bdd8:	17ffffb5 	b	40bcac <_ZSt16__insertion_sortIN9__gnu_cxx17__normal_iteratorIP2PTSt6vectorIS2_SaIS2_EEEENS0_5__ops15_Iter_comp_iterIPFbRKS2_SB_EEEEvT_SF_T0_+0x238>
  40bddc:	a94153f3 	ldp	x19, x20, [sp, #16]
  40bde0:	a9425bf5 	ldp	x21, x22, [sp, #32]
  40bde4:	a94363f7 	ldp	x23, x24, [sp, #48]
  40bde8:	a9446bf9 	ldp	x25, x26, [sp, #64]
  40bdec:	a94573fb 	ldp	x27, x28, [sp, #80]
  40bdf0:	a8cd7bfd 	ldp	x29, x30, [sp], #208
  40bdf4:	d65f03c0 	ret
  40bdf8:	a9446bf9 	ldp	x25, x26, [sp, #64]
  40bdfc:	17fffffc 	b	40bdec <_ZSt16__insertion_sortIN9__gnu_cxx17__normal_iteratorIP2PTSt6vectorIS2_SaIS2_EEEENS0_5__ops15_Iter_comp_iterIPFbRKS2_SB_EEEEvT_SF_T0_+0x378>

000000000040be00 <_ZSt4swapI2PTENSt9enable_ifIXsrSt6__and_IJSt6__not_ISt15__is_tuple_likeIT_EESt21is_move_constructibleIS5_ESt18is_move_assignableIS5_EEE5valueEvE4typeERS5_SF_>:
  40be00:	a9b77bfd 	stp	x29, x30, [sp, #-144]!
  40be04:	910003fd 	mov	x29, sp
  40be08:	a90153f3 	stp	x19, x20, [sp, #16]
  40be0c:	a9025bf5 	stp	x21, x22, [sp, #32]
  40be10:	aa0103f3 	mov	x19, x1
  40be14:	f9400003 	ldr	x3, [x0]
  40be18:	f9001fe3 	str	x3, [sp, #56]
  40be1c:	f9400403 	ldr	x3, [x0, #8]
  40be20:	f90023e3 	str	x3, [sp, #64]
  40be24:	f9400803 	ldr	x3, [x0, #16]
  40be28:	f90027e3 	str	x3, [sp, #72]
  40be2c:	f900081f 	str	xzr, [x0, #16]
  40be30:	f900041f 	str	xzr, [x0, #8]
  40be34:	f900001f 	str	xzr, [x0]
  40be38:	b9401803 	ldr	w3, [x0, #24]
  40be3c:	b90053e3 	str	w3, [sp, #80]
  40be40:	f9401004 	ldr	x4, [x0, #32]
  40be44:	f9002fe4 	str	x4, [sp, #88]
  40be48:	f9401404 	ldr	x4, [x0, #40]
  40be4c:	f90033e4 	str	x4, [sp, #96]
  40be50:	f9401804 	ldr	x4, [x0, #48]
  40be54:	f90037e4 	str	x4, [sp, #104]
  40be58:	f900181f 	str	xzr, [x0, #48]
  40be5c:	f900141f 	str	xzr, [x0, #40]
  40be60:	f900101f 	str	xzr, [x0, #32]
  40be64:	f9401c04 	ldr	x4, [x0, #56]
  40be68:	f9003be4 	str	x4, [sp, #112]
  40be6c:	f9402004 	ldr	x4, [x0, #64]
  40be70:	f9003fe4 	str	x4, [sp, #120]
  40be74:	f9402404 	ldr	x4, [x0, #72]
  40be78:	f90043e4 	str	x4, [sp, #128]
  40be7c:	f900241f 	str	xzr, [x0, #72]
  40be80:	f900201f 	str	xzr, [x0, #64]
  40be84:	f9001c1f 	str	xzr, [x0, #56]
  40be88:	bd405000 	ldr	s0, [x0, #80]
  40be8c:	bd008be0 	str	s0, [sp, #136]
  40be90:	bd405400 	ldr	s0, [x0, #84]
  40be94:	bd008fe0 	str	s0, [sp, #140]
  40be98:	97fffd0b 	bl	40b2c4 <_ZN2PTaSEOS_>
  40be9c:	9100e3e1 	add	x1, sp, #0x38
  40bea0:	aa1303e0 	mov	x0, x19
  40bea4:	97fffd08 	bl	40b2c4 <_ZN2PTaSEOS_>
  40bea8:	f9403be0 	ldr	x0, [sp, #112]
  40beac:	b4000080 	cbz	x0, 40bebc <_ZSt4swapI2PTENSt9enable_ifIXsrSt6__and_IJSt6__not_ISt15__is_tuple_likeIT_EESt21is_move_constructibleIS5_ESt18is_move_assignableIS5_EEE5valueEvE4typeERS5_SF_+0xbc>
  40beb0:	f94043e1 	ldr	x1, [sp, #128]
  40beb4:	cb000021 	sub	x1, x1, x0
  40beb8:	97ffd882 	bl	4020c0 <_ZdlPvm@plt>
  40bebc:	f9402fe0 	ldr	x0, [sp, #88]
  40bec0:	b4000080 	cbz	x0, 40bed0 <_ZSt4swapI2PTENSt9enable_ifIXsrSt6__and_IJSt6__not_ISt15__is_tuple_likeIT_EESt21is_move_constructibleIS5_ESt18is_move_assignableIS5_EEE5valueEvE4typeERS5_SF_+0xd0>
  40bec4:	f94037e1 	ldr	x1, [sp, #104]
  40bec8:	cb000021 	sub	x1, x1, x0
  40becc:	97ffd87d 	bl	4020c0 <_ZdlPvm@plt>
  40bed0:	f9401ff4 	ldr	x20, [sp, #56]
  40bed4:	f94023f6 	ldr	x22, [sp, #64]
  40bed8:	eb16029f 	cmp	x20, x22
  40bedc:	540003a1 	b.ne	40bf50 <_ZSt4swapI2PTENSt9enable_ifIXsrSt6__and_IJSt6__not_ISt15__is_tuple_likeIT_EESt21is_move_constructibleIS5_ESt18is_move_assignableIS5_EEE5valueEvE4typeERS5_SF_+0x150>  // b.any
  40bee0:	f9401fe0 	ldr	x0, [sp, #56]
  40bee4:	b4000080 	cbz	x0, 40bef4 <_ZSt4swapI2PTENSt9enable_ifIXsrSt6__and_IJSt6__not_ISt15__is_tuple_likeIT_EESt21is_move_constructibleIS5_ESt18is_move_assignableIS5_EEE5valueEvE4typeERS5_SF_+0xf4>
  40bee8:	f94027e1 	ldr	x1, [sp, #72]
  40beec:	cb000021 	sub	x1, x1, x0
  40bef0:	97ffd874 	bl	4020c0 <_ZdlPvm@plt>
  40bef4:	a94153f3 	ldp	x19, x20, [sp, #16]
  40bef8:	a9425bf5 	ldp	x21, x22, [sp, #32]
  40befc:	a8c97bfd 	ldp	x29, x30, [sp], #144
  40bf00:	d65f03c0 	ret
  40bf04:	91008273 	add	x19, x19, #0x20
  40bf08:	eb1302bf 	cmp	x21, x19
  40bf0c:	54000120 	b.eq	40bf30 <_ZSt4swapI2PTENSt9enable_ifIXsrSt6__and_IJSt6__not_ISt15__is_tuple_likeIT_EESt21is_move_constructibleIS5_ESt18is_move_assignableIS5_EEE5valueEvE4typeERS5_SF_+0x130>  // b.none
  40bf10:	aa1303e1 	mov	x1, x19
  40bf14:	f8410420 	ldr	x0, [x1], #16
  40bf18:	eb01001f 	cmp	x0, x1
  40bf1c:	54ffff40 	b.eq	40bf04 <_ZSt4swapI2PTENSt9enable_ifIXsrSt6__and_IJSt6__not_ISt15__is_tuple_likeIT_EESt21is_move_constructibleIS5_ESt18is_move_assignableIS5_EEE5valueEvE4typeERS5_SF_+0x104>  // b.none
  40bf20:	f9400a61 	ldr	x1, [x19, #16]
  40bf24:	91000421 	add	x1, x1, #0x1
  40bf28:	97ffd866 	bl	4020c0 <_ZdlPvm@plt>
  40bf2c:	17fffff6 	b	40bf04 <_ZSt4swapI2PTENSt9enable_ifIXsrSt6__and_IJSt6__not_ISt15__is_tuple_likeIT_EESt21is_move_constructibleIS5_ESt18is_move_assignableIS5_EEE5valueEvE4typeERS5_SF_+0x104>
  40bf30:	f9400680 	ldr	x0, [x20, #8]
  40bf34:	b4000080 	cbz	x0, 40bf44 <_ZSt4swapI2PTENSt9enable_ifIXsrSt6__and_IJSt6__not_ISt15__is_tuple_likeIT_EESt21is_move_constructibleIS5_ESt18is_move_assignableIS5_EEE5valueEvE4typeERS5_SF_+0x144>
  40bf38:	f9400e81 	ldr	x1, [x20, #24]
  40bf3c:	cb000021 	sub	x1, x1, x0
  40bf40:	97ffd860 	bl	4020c0 <_ZdlPvm@plt>
  40bf44:	9102c294 	add	x20, x20, #0xb0
  40bf48:	eb1402df 	cmp	x22, x20
  40bf4c:	54fffca0 	b.eq	40bee0 <_ZSt4swapI2PTENSt9enable_ifIXsrSt6__and_IJSt6__not_ISt15__is_tuple_likeIT_EESt21is_move_constructibleIS5_ESt18is_move_assignableIS5_EEE5valueEvE4typeERS5_SF_+0xe0>  // b.none
  40bf50:	9101e280 	add	x0, x20, #0x78
  40bf54:	97ffde4a 	bl	40387c <_ZNSt10_HashtableIiSt4pairIKiiESaIS2_ENSt8__detail10_Select1stESt8equal_toIiESt4hashIiENS4_18_Mod_range_hashingENS4_20_Default_ranged_hashENS4_20_Prime_rehash_policyENS4_17_Hashtable_traitsILb0ELb0ELb1EEEED1Ev>
  40bf58:	91010280 	add	x0, x20, #0x40
  40bf5c:	97ffde1f 	bl	4037d8 <_ZNSt10_HashtableINSt7__cxx1112basic_stringIcSt11char_traitsIcESaIcEEESt4pairIKS5_iESaIS8_ENSt8__detail10_Select1stESt8equal_toIS5_ESt4hashIS5_ENSA_18_Mod_range_hashingENSA_20_Default_ranged_hashENSA_20_Prime_rehash_policyENSA_17_Hashtable_traitsILb1ELb0ELb1EEEED1Ev>
  40bf60:	f9401280 	ldr	x0, [x20, #32]
  40bf64:	b4000080 	cbz	x0, 40bf74 <_ZSt4swapI2PTENSt9enable_ifIXsrSt6__and_IJSt6__not_ISt15__is_tuple_likeIT_EESt21is_move_constructibleIS5_ESt18is_move_assignableIS5_EEE5valueEvE4typeERS5_SF_+0x174>
  40bf68:	f9401a81 	ldr	x1, [x20, #48]
  40bf6c:	cb000021 	sub	x1, x1, x0
  40bf70:	97ffd854 	bl	4020c0 <_ZdlPvm@plt>
  40bf74:	f9400693 	ldr	x19, [x20, #8]
  40bf78:	f9400a95 	ldr	x21, [x20, #16]
  40bf7c:	eb15027f 	cmp	x19, x21
  40bf80:	54fffc81 	b.ne	40bf10 <_ZSt4swapI2PTENSt9enable_ifIXsrSt6__and_IJSt6__not_ISt15__is_tuple_likeIT_EESt21is_move_constructibleIS5_ESt18is_move_assignableIS5_EEE5valueEvE4typeERS5_SF_+0x110>  // b.any
  40bf84:	17ffffeb 	b	40bf30 <_ZSt4swapI2PTENSt9enable_ifIXsrSt6__and_IJSt6__not_ISt15__is_tuple_likeIT_EESt21is_move_constructibleIS5_ESt18is_move_assignableIS5_EEE5valueEvE4typeERS5_SF_+0x130>

000000000040bf88 <_ZNSt10_HashtableINSt7__cxx1112basic_stringIcSt11char_traitsIcESaIcEEESt4pairIKS5_iESaIS8_ENSt8__detail10_Select1stESt8equal_toIS5_ESt4hashIS5_ENSA_18_Mod_range_hashingENSA_20_Default_ranged_hashENSA_20_Prime_rehash_policyENSA_17_Hashtable_traitsILb1ELb0ELb1EEEEC1EOSL_>:
  40bf88:	f9400022 	ldr	x2, [x1]
  40bf8c:	f9000002 	str	x2, [x0]
  40bf90:	f9400424 	ldr	x4, [x1, #8]
  40bf94:	f9000404 	str	x4, [x0, #8]
  40bf98:	f9400823 	ldr	x3, [x1, #16]
  40bf9c:	f9000803 	str	x3, [x0, #16]
  40bfa0:	f9400c22 	ldr	x2, [x1, #24]
  40bfa4:	f9000c02 	str	x2, [x0, #24]
  40bfa8:	a9421c26 	ldp	x6, x7, [x1, #32]
  40bfac:	a9021c06 	stp	x6, x7, [x0, #32]
  40bfb0:	f900181f 	str	xzr, [x0, #48]
  40bfb4:	aa0103e2 	mov	x2, x1
  40bfb8:	f8430445 	ldr	x5, [x2], #48
  40bfbc:	eb05005f 	cmp	x2, x5
  40bfc0:	540001e0 	b.eq	40bffc <_ZNSt10_HashtableINSt7__cxx1112basic_stringIcSt11char_traitsIcESaIcEEESt4pairIKS5_iESaIS8_ENSt8__detail10_Select1stESt8equal_toIS5_ESt4hashIS5_ENSA_18_Mod_range_hashingENSA_20_Default_ranged_hashENSA_20_Prime_rehash_policyENSA_17_Hashtable_traitsILb1ELb0ELb1EEEEC1EOSL_+0x74>  // b.none
  40bfc4:	b40000c3 	cbz	x3, 40bfdc <_ZNSt10_HashtableINSt7__cxx1112basic_stringIcSt11char_traitsIcESaIcEEESt4pairIKS5_iESaIS8_ENSt8__detail10_Select1stESt8equal_toIS5_ESt4hashIS5_ENSA_18_Mod_range_hashingENSA_20_Default_ranged_hashENSA_20_Prime_rehash_policyENSA_17_Hashtable_traitsILb1ELb0ELb1EEEEC1EOSL_+0x54>
  40bfc8:	f9401865 	ldr	x5, [x3, #48]
  40bfcc:	9ac408a3 	udiv	x3, x5, x4
  40bfd0:	9b049463 	msub	x3, x3, x4, x5
  40bfd4:	f8410404 	ldr	x4, [x0], #16
  40bfd8:	f8237880 	str	x0, [x4, x3, lsl #3]
  40bfdc:	f900143f 	str	xzr, [x1, #40]
  40bfe0:	d2800020 	mov	x0, #0x1                   	// #1
  40bfe4:	f9000420 	str	x0, [x1, #8]
  40bfe8:	f900183f 	str	xzr, [x1, #48]
  40bfec:	f9000022 	str	x2, [x1]
  40bff0:	f900083f 	str	xzr, [x1, #16]
  40bff4:	f9000c3f 	str	xzr, [x1, #24]
  40bff8:	d65f03c0 	ret
  40bffc:	9100c005 	add	x5, x0, #0x30
  40c000:	f9000005 	str	x5, [x0]
  40c004:	f9401825 	ldr	x5, [x1, #48]
  40c008:	f9001805 	str	x5, [x0, #48]
  40c00c:	17ffffee 	b	40bfc4 <_ZNSt10_HashtableINSt7__cxx1112basic_stringIcSt11char_traitsIcESaIcEEESt4pairIKS5_iESaIS8_ENSt8__detail10_Select1stESt8equal_toIS5_ESt4hashIS5_ENSA_18_Mod_range_hashingENSA_20_Default_ranged_hashENSA_20_Prime_rehash_policyENSA_17_Hashtable_traitsILb1ELb0ELb1EEEEC1EOSL_+0x3c>

000000000040c010 <_ZNSt10_HashtableIiSt4pairIKiiESaIS2_ENSt8__detail10_Select1stESt8equal_toIiESt4hashIiENS4_18_Mod_range_hashingENS4_20_Default_ranged_hashENS4_20_Prime_rehash_policyENS4_17_Hashtable_traitsILb0ELb0ELb1EEEEC1EOSF_>:
  40c010:	f9400022 	ldr	x2, [x1]
  40c014:	f9000002 	str	x2, [x0]
  40c018:	f9400424 	ldr	x4, [x1, #8]
  40c01c:	f9000404 	str	x4, [x0, #8]
  40c020:	f9400823 	ldr	x3, [x1, #16]
  40c024:	f9000803 	str	x3, [x0, #16]
  40c028:	f9400c22 	ldr	x2, [x1, #24]
  40c02c:	f9000c02 	str	x2, [x0, #24]
  40c030:	a9421c26 	ldp	x6, x7, [x1, #32]
  40c034:	a9021c06 	stp	x6, x7, [x0, #32]
  40c038:	f900181f 	str	xzr, [x0, #48]
  40c03c:	aa0103e2 	mov	x2, x1
  40c040:	f8430445 	ldr	x5, [x2], #48
  40c044:	eb05005f 	cmp	x2, x5
  40c048:	540001e0 	b.eq	40c084 <_ZNSt10_HashtableIiSt4pairIKiiESaIS2_ENSt8__detail10_Select1stESt8equal_toIiESt4hashIiENS4_18_Mod_range_hashingENS4_20_Default_ranged_hashENS4_20_Prime_rehash_policyENS4_17_Hashtable_traitsILb0ELb0ELb1EEEEC1EOSF_+0x74>  // b.none
  40c04c:	b40000c3 	cbz	x3, 40c064 <_ZNSt10_HashtableIiSt4pairIKiiESaIS2_ENSt8__detail10_Select1stESt8equal_toIiESt4hashIiENS4_18_Mod_range_hashingENS4_20_Default_ranged_hashENS4_20_Prime_rehash_policyENS4_17_Hashtable_traitsILb0ELb0ELb1EEEEC1EOSF_+0x54>
  40c050:	b9800865 	ldrsw	x5, [x3, #8]
  40c054:	9ac408a3 	udiv	x3, x5, x4
  40c058:	9b049463 	msub	x3, x3, x4, x5
  40c05c:	f8410404 	ldr	x4, [x0], #16
  40c060:	f8237880 	str	x0, [x4, x3, lsl #3]
  40c064:	f900143f 	str	xzr, [x1, #40]
  40c068:	d2800020 	mov	x0, #0x1                   	// #1
  40c06c:	f9000420 	str	x0, [x1, #8]
  40c070:	f900183f 	str	xzr, [x1, #48]
  40c074:	f9000022 	str	x2, [x1]
  40c078:	f900083f 	str	xzr, [x1, #16]
  40c07c:	f9000c3f 	str	xzr, [x1, #24]
  40c080:	d65f03c0 	ret
  40c084:	9100c005 	add	x5, x0, #0x30
  40c088:	f9000005 	str	x5, [x0]
  40c08c:	f9401825 	ldr	x5, [x1, #48]
  40c090:	f9001805 	str	x5, [x0, #48]
  40c094:	17ffffee 	b	40c04c <_ZNSt10_HashtableIiSt4pairIKiiESaIS2_ENSt8__detail10_Select1stESt8equal_toIiESt4hashIiENS4_18_Mod_range_hashingENS4_20_Default_ranged_hashENS4_20_Prime_rehash_policyENS4_17_Hashtable_traitsILb0ELb0ELb1EEEEC1EOSF_+0x3c>

000000000040c098 <_ZNSt6vectorI7segmentSaIS0_EE17_M_realloc_insertIJRS0_EEEvN9__gnu_cxx17__normal_iteratorIPS0_S2_EEDpOT_>:
  40c098:	a9b97bfd 	stp	x29, x30, [sp, #-112]!
  40c09c:	910003fd 	mov	x29, sp
  40c0a0:	a90153f3 	stp	x19, x20, [sp, #16]
  40c0a4:	a9025bf5 	stp	x21, x22, [sp, #32]
  40c0a8:	a90363f7 	stp	x23, x24, [sp, #48]
  40c0ac:	a9046bf9 	stp	x25, x26, [sp, #64]
  40c0b0:	a90573fb 	stp	x27, x28, [sp, #80]
  40c0b4:	aa0003f9 	mov	x25, x0
  40c0b8:	f90037e1 	str	x1, [sp, #104]
  40c0bc:	aa0103f5 	mov	x21, x1
  40c0c0:	f9400418 	ldr	x24, [x0, #8]
  40c0c4:	f940001b 	ldr	x27, [x0]
  40c0c8:	cb1b0300 	sub	x0, x24, x27
  40c0cc:	9344fc00 	asr	x0, x0, #4
  40c0d0:	d2917461 	mov	x1, #0x8ba3                	// #35747
  40c0d4:	f2b745c1 	movk	x1, #0xba2e, lsl #16
  40c0d8:	f2d45d01 	movk	x1, #0xa2e8, lsl #32
  40c0dc:	f2e5d161 	movk	x1, #0x2e8b, lsl #48
  40c0e0:	9b017c00 	mul	x0, x0, x1
  40c0e4:	d29745c1 	mov	x1, #0xba2e                	// #47662
  40c0e8:	f2b45d01 	movk	x1, #0xa2e8, lsl #16
  40c0ec:	f2c5d161 	movk	x1, #0x2e8b, lsl #32
  40c0f0:	f2e01741 	movk	x1, #0xba, lsl #48
  40c0f4:	eb01001f 	cmp	x0, x1
  40c0f8:	54000220 	b.eq	40c13c <_ZNSt6vectorI7segmentSaIS0_EE17_M_realloc_insertIJRS0_EEEvN9__gnu_cxx17__normal_iteratorIPS0_S2_EEDpOT_+0xa4>  // b.none
  40c0fc:	aa0203f3 	mov	x19, x2
  40c100:	f100001f 	cmp	x0, #0x0
  40c104:	9a9f1401 	csinc	x1, x0, xzr, ne  // ne = any
  40c108:	ab000021 	adds	x1, x1, x0
  40c10c:	540017e2 	b.cs	40c408 <_ZNSt6vectorI7segmentSaIS0_EE17_M_realloc_insertIJRS0_EEEvN9__gnu_cxx17__normal_iteratorIPS0_S2_EEDpOT_+0x370>  // b.hs, b.nlast
  40c110:	d29745da 	mov	x26, #0xba2e                	// #47662
  40c114:	f2b45d1a 	movk	x26, #0xa2e8, lsl #16
  40c118:	f2c5d17a 	movk	x26, #0x2e8b, lsl #32
  40c11c:	f2e0175a 	movk	x26, #0xba, lsl #48
  40c120:	eb1a003f 	cmp	x1, x26
  40c124:	9a9a903a 	csel	x26, x1, x26, ls  // ls = plast
  40c128:	f94037e0 	ldr	x0, [sp, #104]
  40c12c:	cb1b0014 	sub	x20, x0, x27
  40c130:	d280001c 	mov	x28, #0x0                   	// #0
  40c134:	b4001821 	cbz	x1, 40c438 <_ZNSt6vectorI7segmentSaIS0_EE17_M_realloc_insertIJRS0_EEEvN9__gnu_cxx17__normal_iteratorIPS0_S2_EEDpOT_+0x3a0>
  40c138:	140000ba 	b	40c420 <_ZNSt6vectorI7segmentSaIS0_EE17_M_realloc_insertIJRS0_EEEvN9__gnu_cxx17__normal_iteratorIPS0_S2_EEDpOT_+0x388>
  40c13c:	d0000020 	adrp	x0, 412000 <_Z19MD5Hash_simdversionPKNSt7__cxx1112basic_stringIcSt11char_traitsIcESaIcEEEP12__Uint32x4_t+0x1480>
  40c140:	912d8000 	add	x0, x0, #0xb60
  40c144:	97ffd7af 	bl	402000 <_ZSt20__throw_length_errorPKc@plt>
  40c148:	f94037e0 	ldr	x0, [sp, #104]
  40c14c:	eb1b001f 	cmp	x0, x27
  40c150:	540008c0 	b.eq	40c268 <_ZNSt6vectorI7segmentSaIS0_EE17_M_realloc_insertIJRS0_EEEvN9__gnu_cxx17__normal_iteratorIPS0_S2_EEDpOT_+0x1d0>  // b.none
  40c154:	aa1c03f4 	mov	x20, x28
  40c158:	aa1b03f6 	mov	x22, x27
  40c15c:	14000015 	b	40c1b0 <_ZNSt6vectorI7segmentSaIS0_EE17_M_realloc_insertIJRS0_EEEvN9__gnu_cxx17__normal_iteratorIPS0_S2_EEDpOT_+0x118>
  40c160:	f9400a61 	ldr	x1, [x19, #16]
  40c164:	91000421 	add	x1, x1, #0x1
  40c168:	97ffd7d6 	bl	4020c0 <_ZdlPvm@plt>
  40c16c:	91008273 	add	x19, x19, #0x20
  40c170:	eb1302ff 	cmp	x23, x19
  40c174:	540000c0 	b.eq	40c18c <_ZNSt6vectorI7segmentSaIS0_EE17_M_realloc_insertIJRS0_EEEvN9__gnu_cxx17__normal_iteratorIPS0_S2_EEDpOT_+0xf4>  // b.none
  40c178:	aa1303e1 	mov	x1, x19
  40c17c:	f8410420 	ldr	x0, [x1], #16
  40c180:	eb01001f 	cmp	x0, x1
  40c184:	54fffee1 	b.ne	40c160 <_ZNSt6vectorI7segmentSaIS0_EE17_M_realloc_insertIJRS0_EEEvN9__gnu_cxx17__normal_iteratorIPS0_S2_EEDpOT_+0xc8>  // b.any
  40c188:	17fffff9 	b	40c16c <_ZNSt6vectorI7segmentSaIS0_EE17_M_realloc_insertIJRS0_EEEvN9__gnu_cxx17__normal_iteratorIPS0_S2_EEDpOT_+0xd4>
  40c18c:	f94006c0 	ldr	x0, [x22, #8]
  40c190:	b4000080 	cbz	x0, 40c1a0 <_ZNSt6vectorI7segmentSaIS0_EE17_M_realloc_insertIJRS0_EEEvN9__gnu_cxx17__normal_iteratorIPS0_S2_EEDpOT_+0x108>
  40c194:	f9400ec1 	ldr	x1, [x22, #24]
  40c198:	cb000021 	sub	x1, x1, x0
  40c19c:	97ffd7c9 	bl	4020c0 <_ZdlPvm@plt>
  40c1a0:	9102c2d6 	add	x22, x22, #0xb0
  40c1a4:	9102c294 	add	x20, x20, #0xb0
  40c1a8:	eb1602bf 	cmp	x21, x22
  40c1ac:	54000600 	b.eq	40c26c <_ZNSt6vectorI7segmentSaIS0_EE17_M_realloc_insertIJRS0_EEEvN9__gnu_cxx17__normal_iteratorIPS0_S2_EEDpOT_+0x1d4>  // b.none
  40c1b0:	b94002c0 	ldr	w0, [x22]
  40c1b4:	b9000280 	str	w0, [x20]
  40c1b8:	b94006c0 	ldr	w0, [x22, #4]
  40c1bc:	b9000680 	str	w0, [x20, #4]
  40c1c0:	f94006c0 	ldr	x0, [x22, #8]
  40c1c4:	f9000680 	str	x0, [x20, #8]
  40c1c8:	f9400ac0 	ldr	x0, [x22, #16]
  40c1cc:	f9000a80 	str	x0, [x20, #16]
  40c1d0:	f9400ec0 	ldr	x0, [x22, #24]
  40c1d4:	f9000e80 	str	x0, [x20, #24]
  40c1d8:	f9000edf 	str	xzr, [x22, #24]
  40c1dc:	f9000adf 	str	xzr, [x22, #16]
  40c1e0:	f90006df 	str	xzr, [x22, #8]
  40c1e4:	f94012c0 	ldr	x0, [x22, #32]
  40c1e8:	f9001280 	str	x0, [x20, #32]
  40c1ec:	f94016c0 	ldr	x0, [x22, #40]
  40c1f0:	f9001680 	str	x0, [x20, #40]
  40c1f4:	f9401ac0 	ldr	x0, [x22, #48]
  40c1f8:	f9001a80 	str	x0, [x20, #48]
  40c1fc:	f9001adf 	str	xzr, [x22, #48]
  40c200:	f90016df 	str	xzr, [x22, #40]
  40c204:	f90012df 	str	xzr, [x22, #32]
  40c208:	b9403ac0 	ldr	w0, [x22, #56]
  40c20c:	b9003a80 	str	w0, [x20, #56]
  40c210:	910102d3 	add	x19, x22, #0x40
  40c214:	aa1303e1 	mov	x1, x19
  40c218:	91010280 	add	x0, x20, #0x40
  40c21c:	97ffff5b 	bl	40bf88 <_ZNSt10_HashtableINSt7__cxx1112basic_stringIcSt11char_traitsIcESaIcEEESt4pairIKS5_iESaIS8_ENSt8__detail10_Select1stESt8equal_toIS5_ESt4hashIS5_ENSA_18_Mod_range_hashingENSA_20_Default_ranged_hashENSA_20_Prime_rehash_policyENSA_17_Hashtable_traitsILb1ELb0ELb1EEEEC1EOSL_>
  40c220:	9101e2d7 	add	x23, x22, #0x78
  40c224:	aa1703e1 	mov	x1, x23
  40c228:	9101e280 	add	x0, x20, #0x78
  40c22c:	97ffff79 	bl	40c010 <_ZNSt10_HashtableIiSt4pairIKiiESaIS2_ENSt8__detail10_Select1stESt8equal_toIiESt4hashIiENS4_18_Mod_range_hashingENS4_20_Default_ranged_hashENS4_20_Prime_rehash_policyENS4_17_Hashtable_traitsILb0ELb0ELb1EEEEC1EOSF_>
  40c230:	aa1703e0 	mov	x0, x23
  40c234:	97ffdd92 	bl	40387c <_ZNSt10_HashtableIiSt4pairIKiiESaIS2_ENSt8__detail10_Select1stESt8equal_toIiESt4hashIiENS4_18_Mod_range_hashingENS4_20_Default_ranged_hashENS4_20_Prime_rehash_policyENS4_17_Hashtable_traitsILb0ELb0ELb1EEEED1Ev>
  40c238:	aa1303e0 	mov	x0, x19
  40c23c:	97ffdd67 	bl	4037d8 <_ZNSt10_HashtableINSt7__cxx1112basic_stringIcSt11char_traitsIcESaIcEEESt4pairIKS5_iESaIS8_ENSt8__detail10_Select1stESt8equal_toIS5_ESt4hashIS5_ENSA_18_Mod_range_hashingENSA_20_Default_ranged_hashENSA_20_Prime_rehash_policyENSA_17_Hashtable_traitsILb1ELb0ELb1EEEED1Ev>
  40c240:	f94012c0 	ldr	x0, [x22, #32]
  40c244:	b4000080 	cbz	x0, 40c254 <_ZNSt6vectorI7segmentSaIS0_EE17_M_realloc_insertIJRS0_EEEvN9__gnu_cxx17__normal_iteratorIPS0_S2_EEDpOT_+0x1bc>
  40c248:	f9401ac1 	ldr	x1, [x22, #48]
  40c24c:	cb000021 	sub	x1, x1, x0
  40c250:	97ffd79c 	bl	4020c0 <_ZdlPvm@plt>
  40c254:	f94006d3 	ldr	x19, [x22, #8]
  40c258:	f9400ad7 	ldr	x23, [x22, #16]
  40c25c:	eb17027f 	cmp	x19, x23
  40c260:	54fff8c1 	b.ne	40c178 <_ZNSt6vectorI7segmentSaIS0_EE17_M_realloc_insertIJRS0_EEEvN9__gnu_cxx17__normal_iteratorIPS0_S2_EEDpOT_+0xe0>  // b.any
  40c264:	17ffffca 	b	40c18c <_ZNSt6vectorI7segmentSaIS0_EE17_M_realloc_insertIJRS0_EEEvN9__gnu_cxx17__normal_iteratorIPS0_S2_EEDpOT_+0xf4>
  40c268:	aa1c03f4 	mov	x20, x28
  40c26c:	9102c294 	add	x20, x20, #0xb0
  40c270:	f94037e0 	ldr	x0, [sp, #104]
  40c274:	eb18001f 	cmp	x0, x24
  40c278:	54000501 	b.ne	40c318 <_ZNSt6vectorI7segmentSaIS0_EE17_M_realloc_insertIJRS0_EEEvN9__gnu_cxx17__normal_iteratorIPS0_S2_EEDpOT_+0x280>  // b.any
  40c27c:	b40000bb 	cbz	x27, 40c290 <_ZNSt6vectorI7segmentSaIS0_EE17_M_realloc_insertIJRS0_EEEvN9__gnu_cxx17__normal_iteratorIPS0_S2_EEDpOT_+0x1f8>
  40c280:	f9400b21 	ldr	x1, [x25, #16]
  40c284:	cb1b0021 	sub	x1, x1, x27
  40c288:	aa1b03e0 	mov	x0, x27
  40c28c:	97ffd78d 	bl	4020c0 <_ZdlPvm@plt>
  40c290:	f900033c 	str	x28, [x25]
  40c294:	f9000734 	str	x20, [x25, #8]
  40c298:	8b1a0740 	add	x0, x26, x26, lsl #1
  40c29c:	d37ef400 	lsl	x0, x0, #2
  40c2a0:	cb1a0000 	sub	x0, x0, x26
  40c2a4:	8b001380 	add	x0, x28, x0, lsl #4
  40c2a8:	f9000b20 	str	x0, [x25, #16]
  40c2ac:	a94153f3 	ldp	x19, x20, [sp, #16]
  40c2b0:	a9425bf5 	ldp	x21, x22, [sp, #32]
  40c2b4:	a94363f7 	ldp	x23, x24, [sp, #48]
  40c2b8:	a9446bf9 	ldp	x25, x26, [sp, #64]
  40c2bc:	a94573fb 	ldp	x27, x28, [sp, #80]
  40c2c0:	a8c77bfd 	ldp	x29, x30, [sp], #112
  40c2c4:	d65f03c0 	ret
  40c2c8:	f9400a61 	ldr	x1, [x19, #16]
  40c2cc:	91000421 	add	x1, x1, #0x1
  40c2d0:	97ffd77c 	bl	4020c0 <_ZdlPvm@plt>
  40c2d4:	91008273 	add	x19, x19, #0x20
  40c2d8:	eb1302df 	cmp	x22, x19
  40c2dc:	540000c0 	b.eq	40c2f4 <_ZNSt6vectorI7segmentSaIS0_EE17_M_realloc_insertIJRS0_EEEvN9__gnu_cxx17__normal_iteratorIPS0_S2_EEDpOT_+0x25c>  // b.none
  40c2e0:	aa1303e1 	mov	x1, x19
  40c2e4:	f8410420 	ldr	x0, [x1], #16
  40c2e8:	eb01001f 	cmp	x0, x1
  40c2ec:	54fffee1 	b.ne	40c2c8 <_ZNSt6vectorI7segmentSaIS0_EE17_M_realloc_insertIJRS0_EEEvN9__gnu_cxx17__normal_iteratorIPS0_S2_EEDpOT_+0x230>  // b.any
  40c2f0:	17fffff9 	b	40c2d4 <_ZNSt6vectorI7segmentSaIS0_EE17_M_realloc_insertIJRS0_EEEvN9__gnu_cxx17__normal_iteratorIPS0_S2_EEDpOT_+0x23c>
  40c2f4:	f94006a0 	ldr	x0, [x21, #8]
  40c2f8:	b4000080 	cbz	x0, 40c308 <_ZNSt6vectorI7segmentSaIS0_EE17_M_realloc_insertIJRS0_EEEvN9__gnu_cxx17__normal_iteratorIPS0_S2_EEDpOT_+0x270>
  40c2fc:	f9400ea1 	ldr	x1, [x21, #24]
  40c300:	cb000021 	sub	x1, x1, x0
  40c304:	97ffd76f 	bl	4020c0 <_ZdlPvm@plt>
  40c308:	9102c2b5 	add	x21, x21, #0xb0
  40c30c:	9102c294 	add	x20, x20, #0xb0
  40c310:	eb15031f 	cmp	x24, x21
  40c314:	54fffb40 	b.eq	40c27c <_ZNSt6vectorI7segmentSaIS0_EE17_M_realloc_insertIJRS0_EEEvN9__gnu_cxx17__normal_iteratorIPS0_S2_EEDpOT_+0x1e4>  // b.none
  40c318:	b94002a0 	ldr	w0, [x21]
  40c31c:	b9000280 	str	w0, [x20]
  40c320:	b94006a0 	ldr	w0, [x21, #4]
  40c324:	b9000680 	str	w0, [x20, #4]
  40c328:	f94006a0 	ldr	x0, [x21, #8]
  40c32c:	f9000680 	str	x0, [x20, #8]
  40c330:	f9400aa0 	ldr	x0, [x21, #16]
  40c334:	f9000a80 	str	x0, [x20, #16]
  40c338:	f9400ea0 	ldr	x0, [x21, #24]
  40c33c:	f9000e80 	str	x0, [x20, #24]
  40c340:	f9000ebf 	str	xzr, [x21, #24]
  40c344:	f9000abf 	str	xzr, [x21, #16]
  40c348:	f90006bf 	str	xzr, [x21, #8]
  40c34c:	f94012a0 	ldr	x0, [x21, #32]
  40c350:	f9001280 	str	x0, [x20, #32]
  40c354:	f94016a0 	ldr	x0, [x21, #40]
  40c358:	f9001680 	str	x0, [x20, #40]
  40c35c:	f9401aa0 	ldr	x0, [x21, #48]
  40c360:	f9001a80 	str	x0, [x20, #48]
  40c364:	f9001abf 	str	xzr, [x21, #48]
  40c368:	f90016bf 	str	xzr, [x21, #40]
  40c36c:	f90012bf 	str	xzr, [x21, #32]
  40c370:	b9403aa0 	ldr	w0, [x21, #56]
  40c374:	b9003a80 	str	w0, [x20, #56]
  40c378:	910102b3 	add	x19, x21, #0x40
  40c37c:	aa1303e1 	mov	x1, x19
  40c380:	91010280 	add	x0, x20, #0x40
  40c384:	97ffff01 	bl	40bf88 <_ZNSt10_HashtableINSt7__cxx1112basic_stringIcSt11char_traitsIcESaIcEEESt4pairIKS5_iESaIS8_ENSt8__detail10_Select1stESt8equal_toIS5_ESt4hashIS5_ENSA_18_Mod_range_hashingENSA_20_Default_ranged_hashENSA_20_Prime_rehash_policyENSA_17_Hashtable_traitsILb1ELb0ELb1EEEEC1EOSL_>
  40c388:	9101e2b6 	add	x22, x21, #0x78
  40c38c:	aa1603e1 	mov	x1, x22
  40c390:	9101e280 	add	x0, x20, #0x78
  40c394:	97ffff1f 	bl	40c010 <_ZNSt10_HashtableIiSt4pairIKiiESaIS2_ENSt8__detail10_Select1stESt8equal_toIiESt4hashIiENS4_18_Mod_range_hashingENS4_20_Default_ranged_hashENS4_20_Prime_rehash_policyENS4_17_Hashtable_traitsILb0ELb0ELb1EEEEC1EOSF_>
  40c398:	aa1603e0 	mov	x0, x22
  40c39c:	97ffdd38 	bl	40387c <_ZNSt10_HashtableIiSt4pairIKiiESaIS2_ENSt8__detail10_Select1stESt8equal_toIiESt4hashIiENS4_18_Mod_range_hashingENS4_20_Default_ranged_hashENS4_20_Prime_rehash_policyENS4_17_Hashtable_traitsILb0ELb0ELb1EEEED1Ev>
  40c3a0:	aa1303e0 	mov	x0, x19
  40c3a4:	97ffdd0d 	bl	4037d8 <_ZNSt10_HashtableINSt7__cxx1112basic_stringIcSt11char_traitsIcESaIcEEESt4pairIKS5_iESaIS8_ENSt8__detail10_Select1stESt8equal_toIS5_ESt4hashIS5_ENSA_18_Mod_range_hashingENSA_20_Default_ranged_hashENSA_20_Prime_rehash_policyENSA_17_Hashtable_traitsILb1ELb0ELb1EEEED1Ev>
  40c3a8:	f94012a0 	ldr	x0, [x21, #32]
  40c3ac:	b4000080 	cbz	x0, 40c3bc <_ZNSt6vectorI7segmentSaIS0_EE17_M_realloc_insertIJRS0_EEEvN9__gnu_cxx17__normal_iteratorIPS0_S2_EEDpOT_+0x324>
  40c3b0:	f9401aa1 	ldr	x1, [x21, #48]
  40c3b4:	cb000021 	sub	x1, x1, x0
  40c3b8:	97ffd742 	bl	4020c0 <_ZdlPvm@plt>
  40c3bc:	f94006b3 	ldr	x19, [x21, #8]
  40c3c0:	f9400ab6 	ldr	x22, [x21, #16]
  40c3c4:	eb16027f 	cmp	x19, x22
  40c3c8:	54fff8c1 	b.ne	40c2e0 <_ZNSt6vectorI7segmentSaIS0_EE17_M_realloc_insertIJRS0_EEEvN9__gnu_cxx17__normal_iteratorIPS0_S2_EEDpOT_+0x248>  // b.any
  40c3cc:	17ffffca 	b	40c2f4 <_ZNSt6vectorI7segmentSaIS0_EE17_M_realloc_insertIJRS0_EEEvN9__gnu_cxx17__normal_iteratorIPS0_S2_EEDpOT_+0x25c>
  40c3d0:	97ffd700 	bl	401fd0 <__cxa_begin_catch@plt>
  40c3d4:	b500011c 	cbnz	x28, 40c3f4 <_ZNSt6vectorI7segmentSaIS0_EE17_M_realloc_insertIJRS0_EEEvN9__gnu_cxx17__normal_iteratorIPS0_S2_EEDpOT_+0x35c>
  40c3d8:	aa1403e0 	mov	x0, x20
  40c3dc:	97fff584 	bl	4099ec <_ZN7segmentD1Ev>
  40c3e0:	97ffd778 	bl	4021c0 <__cxa_rethrow@plt>
  40c3e4:	aa0003f3 	mov	x19, x0
  40c3e8:	97ffd78e 	bl	402220 <__cxa_end_catch@plt>
  40c3ec:	aa1303e0 	mov	x0, x19
  40c3f0:	97ffd79c 	bl	402260 <_Unwind_Resume@plt>
  40c3f4:	d2801601 	mov	x1, #0xb0                  	// #176
  40c3f8:	9b017f41 	mul	x1, x26, x1
  40c3fc:	aa1c03e0 	mov	x0, x28
  40c400:	97ffd730 	bl	4020c0 <_ZdlPvm@plt>
  40c404:	17fffff7 	b	40c3e0 <_ZNSt6vectorI7segmentSaIS0_EE17_M_realloc_insertIJRS0_EEEvN9__gnu_cxx17__normal_iteratorIPS0_S2_EEDpOT_+0x348>
  40c408:	f94037e0 	ldr	x0, [sp, #104]
  40c40c:	cb1b0014 	sub	x20, x0, x27
  40c410:	d29745da 	mov	x26, #0xba2e                	// #47662
  40c414:	f2b45d1a 	movk	x26, #0xa2e8, lsl #16
  40c418:	f2c5d17a 	movk	x26, #0x2e8b, lsl #32
  40c41c:	f2e0175a 	movk	x26, #0xba, lsl #48
  40c420:	8b1a0740 	add	x0, x26, x26, lsl #1
  40c424:	d37ef400 	lsl	x0, x0, #2
  40c428:	cb1a0000 	sub	x0, x0, x26
  40c42c:	d37cec00 	lsl	x0, x0, #4
  40c430:	97ffd720 	bl	4020b0 <_Znwm@plt>
  40c434:	aa0003fc 	mov	x28, x0
  40c438:	8b140394 	add	x20, x28, x20
  40c43c:	aa1303e1 	mov	x1, x19
  40c440:	aa1403e0 	mov	x0, x20
  40c444:	97fff890 	bl	40a684 <_ZN7segmentC1ERKS_>
  40c448:	17ffff40 	b	40c148 <_ZNSt6vectorI7segmentSaIS0_EE17_M_realloc_insertIJRS0_EEEvN9__gnu_cxx17__normal_iteratorIPS0_S2_EEDpOT_+0xb0>

000000000040c44c <_ZNSt6vectorI7segmentSaIS0_EE12emplace_backIJRS0_EEEvDpOT_>:
  40c44c:	a9be7bfd 	stp	x29, x30, [sp, #-32]!
  40c450:	910003fd 	mov	x29, sp
  40c454:	f9000bf3 	str	x19, [sp, #16]
  40c458:	aa0003f3 	mov	x19, x0
  40c45c:	f9400400 	ldr	x0, [x0, #8]
  40c460:	f9400a62 	ldr	x2, [x19, #16]
  40c464:	eb02001f 	cmp	x0, x2
  40c468:	54000100 	b.eq	40c488 <_ZNSt6vectorI7segmentSaIS0_EE12emplace_backIJRS0_EEEvDpOT_+0x3c>  // b.none
  40c46c:	97fff886 	bl	40a684 <_ZN7segmentC1ERKS_>
  40c470:	f9400660 	ldr	x0, [x19, #8]
  40c474:	9102c000 	add	x0, x0, #0xb0
  40c478:	f9000660 	str	x0, [x19, #8]
  40c47c:	f9400bf3 	ldr	x19, [sp, #16]
  40c480:	a8c27bfd 	ldp	x29, x30, [sp], #32
  40c484:	d65f03c0 	ret
  40c488:	aa0103e2 	mov	x2, x1
  40c48c:	aa0003e1 	mov	x1, x0
  40c490:	aa1303e0 	mov	x0, x19
  40c494:	97ffff01 	bl	40c098 <_ZNSt6vectorI7segmentSaIS0_EE17_M_realloc_insertIJRS0_EEEvN9__gnu_cxx17__normal_iteratorIPS0_S2_EEDpOT_>
  40c498:	17fffff9 	b	40c47c <_ZNSt6vectorI7segmentSaIS0_EE12emplace_backIJRS0_EEEvDpOT_+0x30>

000000000040c49c <_ZSt11__push_heapIN9__gnu_cxx17__normal_iteratorIP2PTSt6vectorIS2_SaIS2_EEEElS2_NS0_5__ops14_Iter_comp_valIPFbRKS2_SB_EEEEvT_T0_SG_T1_RT2_>:
  40c49c:	a9b87bfd 	stp	x29, x30, [sp, #-128]!
  40c4a0:	910003fd 	mov	x29, sp
  40c4a4:	a90153f3 	stp	x19, x20, [sp, #16]
  40c4a8:	a9046bf9 	stp	x25, x26, [sp, #64]
  40c4ac:	a90573fb 	stp	x27, x28, [sp, #80]
  40c4b0:	aa0003fa 	mov	x26, x0
  40c4b4:	aa0103f4 	mov	x20, x1
  40c4b8:	f9003fe2 	str	x2, [sp, #120]
  40c4bc:	f9003be3 	str	x3, [sp, #112]
  40c4c0:	aa0403fc 	mov	x28, x4
  40c4c4:	d1000420 	sub	x0, x1, #0x1
  40c4c8:	8b40fc00 	add	x0, x0, x0, lsr #63
  40c4cc:	9341fc19 	asr	x25, x0, #1
  40c4d0:	eb02003f 	cmp	x1, x2
  40c4d4:	54000f0d 	b.le	40c6b4 <_ZSt11__push_heapIN9__gnu_cxx17__normal_iteratorIP2PTSt6vectorIS2_SaIS2_EEEElS2_NS0_5__ops14_Iter_comp_valIPFbRKS2_SB_EEEEvT_T0_SG_T1_RT2_+0x218>
  40c4d8:	a9025bf5 	stp	x21, x22, [sp, #32]
  40c4dc:	a90363f7 	stp	x23, x24, [sp, #48]
  40c4e0:	14000051 	b	40c624 <_ZSt11__push_heapIN9__gnu_cxx17__normal_iteratorIP2PTSt6vectorIS2_SaIS2_EEEElS2_NS0_5__ops14_Iter_comp_valIPFbRKS2_SB_EEEEvT_T0_SG_T1_RT2_+0x188>
  40c4e4:	91008273 	add	x19, x19, #0x20
  40c4e8:	eb1302bf 	cmp	x21, x19
  40c4ec:	54000120 	b.eq	40c510 <_ZSt11__push_heapIN9__gnu_cxx17__normal_iteratorIP2PTSt6vectorIS2_SaIS2_EEEElS2_NS0_5__ops14_Iter_comp_valIPFbRKS2_SB_EEEEvT_T0_SG_T1_RT2_+0x74>  // b.none
  40c4f0:	aa1303e1 	mov	x1, x19
  40c4f4:	f8410420 	ldr	x0, [x1], #16
  40c4f8:	eb01001f 	cmp	x0, x1
  40c4fc:	54ffff40 	b.eq	40c4e4 <_ZSt11__push_heapIN9__gnu_cxx17__normal_iteratorIP2PTSt6vectorIS2_SaIS2_EEEElS2_NS0_5__ops14_Iter_comp_valIPFbRKS2_SB_EEEEvT_T0_SG_T1_RT2_+0x48>  // b.none
  40c500:	f9400a61 	ldr	x1, [x19, #16]
  40c504:	91000421 	add	x1, x1, #0x1
  40c508:	97ffd6ee 	bl	4020c0 <_ZdlPvm@plt>
  40c50c:	17fffff6 	b	40c4e4 <_ZSt11__push_heapIN9__gnu_cxx17__normal_iteratorIP2PTSt6vectorIS2_SaIS2_EEEElS2_NS0_5__ops14_Iter_comp_valIPFbRKS2_SB_EEEEvT_T0_SG_T1_RT2_+0x48>
  40c510:	f9400680 	ldr	x0, [x20, #8]
  40c514:	b4000080 	cbz	x0, 40c524 <_ZSt11__push_heapIN9__gnu_cxx17__normal_iteratorIP2PTSt6vectorIS2_SaIS2_EEEElS2_NS0_5__ops14_Iter_comp_valIPFbRKS2_SB_EEEEvT_T0_SG_T1_RT2_+0x88>
  40c518:	f9400e81 	ldr	x1, [x20, #24]
  40c51c:	cb000021 	sub	x1, x1, x0
  40c520:	97ffd6e8 	bl	4020c0 <_ZdlPvm@plt>
  40c524:	9102c294 	add	x20, x20, #0xb0
  40c528:	eb14031f 	cmp	x24, x20
  40c52c:	540001e0 	b.eq	40c568 <_ZSt11__push_heapIN9__gnu_cxx17__normal_iteratorIP2PTSt6vectorIS2_SaIS2_EEEElS2_NS0_5__ops14_Iter_comp_valIPFbRKS2_SB_EEEEvT_T0_SG_T1_RT2_+0xcc>  // b.none
  40c530:	9101e280 	add	x0, x20, #0x78
  40c534:	97ffdcd2 	bl	40387c <_ZNSt10_HashtableIiSt4pairIKiiESaIS2_ENSt8__detail10_Select1stESt8equal_toIiESt4hashIiENS4_18_Mod_range_hashingENS4_20_Default_ranged_hashENS4_20_Prime_rehash_policyENS4_17_Hashtable_traitsILb0ELb0ELb1EEEED1Ev>
  40c538:	91010280 	add	x0, x20, #0x40
  40c53c:	97ffdca7 	bl	4037d8 <_ZNSt10_HashtableINSt7__cxx1112basic_stringIcSt11char_traitsIcESaIcEEESt4pairIKS5_iESaIS8_ENSt8__detail10_Select1stESt8equal_toIS5_ESt4hashIS5_ENSA_18_Mod_range_hashingENSA_20_Default_ranged_hashENSA_20_Prime_rehash_policyENSA_17_Hashtable_traitsILb1ELb0ELb1EEEED1Ev>
  40c540:	f9401280 	ldr	x0, [x20, #32]
  40c544:	b4000080 	cbz	x0, 40c554 <_ZSt11__push_heapIN9__gnu_cxx17__normal_iteratorIP2PTSt6vectorIS2_SaIS2_EEEElS2_NS0_5__ops14_Iter_comp_valIPFbRKS2_SB_EEEEvT_T0_SG_T1_RT2_+0xb8>
  40c548:	f9401a81 	ldr	x1, [x20, #48]
  40c54c:	cb000021 	sub	x1, x1, x0
  40c550:	97ffd6dc 	bl	4020c0 <_ZdlPvm@plt>
  40c554:	f9400693 	ldr	x19, [x20, #8]
  40c558:	f9400a95 	ldr	x21, [x20, #16]
  40c55c:	eb15027f 	cmp	x19, x21
  40c560:	54fffc81 	b.ne	40c4f0 <_ZSt11__push_heapIN9__gnu_cxx17__normal_iteratorIP2PTSt6vectorIS2_SaIS2_EEEElS2_NS0_5__ops14_Iter_comp_valIPFbRKS2_SB_EEEEvT_T0_SG_T1_RT2_+0x54>  // b.any
  40c564:	17ffffeb 	b	40c510 <_ZSt11__push_heapIN9__gnu_cxx17__normal_iteratorIP2PTSt6vectorIS2_SaIS2_EEEElS2_NS0_5__ops14_Iter_comp_valIPFbRKS2_SB_EEEEvT_T0_SG_T1_RT2_+0x74>
  40c568:	b40000bb 	cbz	x27, 40c57c <_ZSt11__push_heapIN9__gnu_cxx17__normal_iteratorIP2PTSt6vectorIS2_SaIS2_EEEElS2_NS0_5__ops14_Iter_comp_valIPFbRKS2_SB_EEEEvT_T0_SG_T1_RT2_+0xe0>
  40c56c:	f94037e0 	ldr	x0, [sp, #104]
  40c570:	cb1b0001 	sub	x1, x0, x27
  40c574:	aa1b03e0 	mov	x0, x27
  40c578:	97ffd6d2 	bl	4020c0 <_ZdlPvm@plt>
  40c57c:	b9401ac0 	ldr	w0, [x22, #24]
  40c580:	b9001ae0 	str	w0, [x23, #24]
  40c584:	f94012e0 	ldr	x0, [x23, #32]
  40c588:	f9401ae1 	ldr	x1, [x23, #48]
  40c58c:	f94012c4 	ldr	x4, [x22, #32]
  40c590:	f90012e4 	str	x4, [x23, #32]
  40c594:	f94016c4 	ldr	x4, [x22, #40]
  40c598:	f90016e4 	str	x4, [x23, #40]
  40c59c:	f9401ac4 	ldr	x4, [x22, #48]
  40c5a0:	f9001ae4 	str	x4, [x23, #48]
  40c5a4:	f90012df 	str	xzr, [x22, #32]
  40c5a8:	f90016df 	str	xzr, [x22, #40]
  40c5ac:	f9001adf 	str	xzr, [x22, #48]
  40c5b0:	b4000060 	cbz	x0, 40c5bc <_ZSt11__push_heapIN9__gnu_cxx17__normal_iteratorIP2PTSt6vectorIS2_SaIS2_EEEElS2_NS0_5__ops14_Iter_comp_valIPFbRKS2_SB_EEEEvT_T0_SG_T1_RT2_+0x120>
  40c5b4:	cb000021 	sub	x1, x1, x0
  40c5b8:	97ffd6c2 	bl	4020c0 <_ZdlPvm@plt>
  40c5bc:	f9401ee0 	ldr	x0, [x23, #56]
  40c5c0:	f94026e1 	ldr	x1, [x23, #72]
  40c5c4:	f9401ec4 	ldr	x4, [x22, #56]
  40c5c8:	f9001ee4 	str	x4, [x23, #56]
  40c5cc:	f94022c4 	ldr	x4, [x22, #64]
  40c5d0:	f90022e4 	str	x4, [x23, #64]
  40c5d4:	f94026c4 	ldr	x4, [x22, #72]
  40c5d8:	f90026e4 	str	x4, [x23, #72]
  40c5dc:	f9001edf 	str	xzr, [x22, #56]
  40c5e0:	f90022df 	str	xzr, [x22, #64]
  40c5e4:	f90026df 	str	xzr, [x22, #72]
  40c5e8:	b4000060 	cbz	x0, 40c5f4 <_ZSt11__push_heapIN9__gnu_cxx17__normal_iteratorIP2PTSt6vectorIS2_SaIS2_EEEElS2_NS0_5__ops14_Iter_comp_valIPFbRKS2_SB_EEEEvT_T0_SG_T1_RT2_+0x158>
  40c5ec:	cb000021 	sub	x1, x1, x0
  40c5f0:	97ffd6b4 	bl	4020c0 <_ZdlPvm@plt>
  40c5f4:	bd4052c0 	ldr	s0, [x22, #80]
  40c5f8:	bd0052e0 	str	s0, [x23, #80]
  40c5fc:	bd4056c0 	ldr	s0, [x22, #84]
  40c600:	bd0056e0 	str	s0, [x23, #84]
  40c604:	d1000720 	sub	x0, x25, #0x1
  40c608:	8b40fc00 	add	x0, x0, x0, lsr #63
  40c60c:	9341fc00 	asr	x0, x0, #1
  40c610:	aa1903f4 	mov	x20, x25
  40c614:	f9403fe1 	ldr	x1, [sp, #120]
  40c618:	eb19003f 	cmp	x1, x25
  40c61c:	5400042a 	b.ge	40c6a0 <_ZSt11__push_heapIN9__gnu_cxx17__normal_iteratorIP2PTSt6vectorIS2_SaIS2_EEEElS2_NS0_5__ops14_Iter_comp_valIPFbRKS2_SB_EEEEvT_T0_SG_T1_RT2_+0x204>  // b.tcont
  40c620:	aa0003f9 	mov	x25, x0
  40c624:	8b190733 	add	x19, x25, x25, lsl #1
  40c628:	d37ef673 	lsl	x19, x19, #2
  40c62c:	cb190273 	sub	x19, x19, x25
  40c630:	8b130f56 	add	x22, x26, x19, lsl #3
  40c634:	f9400382 	ldr	x2, [x28]
  40c638:	f9403be1 	ldr	x1, [sp, #112]
  40c63c:	aa1603e0 	mov	x0, x22
  40c640:	d63f0040 	blr	x2
  40c644:	12001c00 	and	w0, w0, #0xff
  40c648:	34000320 	cbz	w0, 40c6ac <_ZSt11__push_heapIN9__gnu_cxx17__normal_iteratorIP2PTSt6vectorIS2_SaIS2_EEEElS2_NS0_5__ops14_Iter_comp_valIPFbRKS2_SB_EEEEvT_T0_SG_T1_RT2_+0x210>
  40c64c:	8b140680 	add	x0, x20, x20, lsl #1
  40c650:	d37ef400 	lsl	x0, x0, #2
  40c654:	cb140000 	sub	x0, x0, x20
  40c658:	8b000f57 	add	x23, x26, x0, lsl #3
  40c65c:	f8607b5b 	ldr	x27, [x26, x0, lsl #3]
  40c660:	f94006f8 	ldr	x24, [x23, #8]
  40c664:	f9400ae1 	ldr	x1, [x23, #16]
  40c668:	f90037e1 	str	x1, [sp, #104]
  40c66c:	f8737b41 	ldr	x1, [x26, x19, lsl #3]
  40c670:	f8207b41 	str	x1, [x26, x0, lsl #3]
  40c674:	f94006c0 	ldr	x0, [x22, #8]
  40c678:	f90006e0 	str	x0, [x23, #8]
  40c67c:	f9400ac0 	ldr	x0, [x22, #16]
  40c680:	f9000ae0 	str	x0, [x23, #16]
  40c684:	f8337b5f 	str	xzr, [x26, x19, lsl #3]
  40c688:	f90006df 	str	xzr, [x22, #8]
  40c68c:	f9000adf 	str	xzr, [x22, #16]
  40c690:	eb18037f 	cmp	x27, x24
  40c694:	54fff6a0 	b.eq	40c568 <_ZSt11__push_heapIN9__gnu_cxx17__normal_iteratorIP2PTSt6vectorIS2_SaIS2_EEEElS2_NS0_5__ops14_Iter_comp_valIPFbRKS2_SB_EEEEvT_T0_SG_T1_RT2_+0xcc>  // b.none
  40c698:	aa1b03f4 	mov	x20, x27
  40c69c:	17ffffa5 	b	40c530 <_ZSt11__push_heapIN9__gnu_cxx17__normal_iteratorIP2PTSt6vectorIS2_SaIS2_EEEElS2_NS0_5__ops14_Iter_comp_valIPFbRKS2_SB_EEEEvT_T0_SG_T1_RT2_+0x94>
  40c6a0:	a9425bf5 	ldp	x21, x22, [sp, #32]
  40c6a4:	a94363f7 	ldp	x23, x24, [sp, #48]
  40c6a8:	14000003 	b	40c6b4 <_ZSt11__push_heapIN9__gnu_cxx17__normal_iteratorIP2PTSt6vectorIS2_SaIS2_EEEElS2_NS0_5__ops14_Iter_comp_valIPFbRKS2_SB_EEEEvT_T0_SG_T1_RT2_+0x218>
  40c6ac:	a9425bf5 	ldp	x21, x22, [sp, #32]
  40c6b0:	a94363f7 	ldp	x23, x24, [sp, #48]
  40c6b4:	8b140680 	add	x0, x20, x20, lsl #1
  40c6b8:	d37ef400 	lsl	x0, x0, #2
  40c6bc:	cb140000 	sub	x0, x0, x20
  40c6c0:	f9403be1 	ldr	x1, [sp, #112]
  40c6c4:	8b000f40 	add	x0, x26, x0, lsl #3
  40c6c8:	97fffaff 	bl	40b2c4 <_ZN2PTaSEOS_>
  40c6cc:	a94153f3 	ldp	x19, x20, [sp, #16]
  40c6d0:	a9446bf9 	ldp	x25, x26, [sp, #64]
  40c6d4:	a94573fb 	ldp	x27, x28, [sp, #80]
  40c6d8:	a8c87bfd 	ldp	x29, x30, [sp], #128
  40c6dc:	d65f03c0 	ret

000000000040c6e0 <_ZSt13__adjust_heapIN9__gnu_cxx17__normal_iteratorIP2PTSt6vectorIS2_SaIS2_EEEElS2_NS0_5__ops15_Iter_comp_iterIPFbRKS2_SB_EEEEvT_T0_SG_T1_T2_>:
  40c6e0:	a9b17bfd 	stp	x29, x30, [sp, #-240]!
  40c6e4:	910003fd 	mov	x29, sp
  40c6e8:	a90153f3 	stp	x19, x20, [sp, #16]
  40c6ec:	a9025bf5 	stp	x21, x22, [sp, #32]
  40c6f0:	a90363f7 	stp	x23, x24, [sp, #48]
  40c6f4:	a9046bf9 	stp	x25, x26, [sp, #64]
  40c6f8:	a90573fb 	stp	x27, x28, [sp, #80]
  40c6fc:	aa0003fa 	mov	x26, x0
  40c700:	f9003fe1 	str	x1, [sp, #120]
  40c704:	f90043e2 	str	x2, [sp, #128]
  40c708:	aa0303fc 	mov	x28, x3
  40c70c:	f90047e4 	str	x4, [sp, #136]
  40c710:	f90037e4 	str	x4, [sp, #104]
  40c714:	d1000440 	sub	x0, x2, #0x1
  40c718:	8b40fc00 	add	x0, x0, x0, lsr #63
  40c71c:	9341fc00 	asr	x0, x0, #1
  40c720:	f9003be0 	str	x0, [sp, #112]
  40c724:	eb00003f 	cmp	x1, x0
  40c728:	54000eea 	b.ge	40c904 <_ZSt13__adjust_heapIN9__gnu_cxx17__normal_iteratorIP2PTSt6vectorIS2_SaIS2_EEEElS2_NS0_5__ops15_Iter_comp_iterIPFbRKS2_SB_EEEEvT_T0_SG_T1_T2_+0x224>  // b.tcont
  40c72c:	aa0103f4 	mov	x20, x1
  40c730:	1400004d 	b	40c864 <_ZSt13__adjust_heapIN9__gnu_cxx17__normal_iteratorIP2PTSt6vectorIS2_SaIS2_EEEElS2_NS0_5__ops15_Iter_comp_iterIPFbRKS2_SB_EEEEvT_T0_SG_T1_T2_+0x184>
  40c734:	91008273 	add	x19, x19, #0x20
  40c738:	eb1302bf 	cmp	x21, x19
  40c73c:	54000120 	b.eq	40c760 <_ZSt13__adjust_heapIN9__gnu_cxx17__normal_iteratorIP2PTSt6vectorIS2_SaIS2_EEEElS2_NS0_5__ops15_Iter_comp_iterIPFbRKS2_SB_EEEEvT_T0_SG_T1_T2_+0x80>  // b.none
  40c740:	aa1303e1 	mov	x1, x19
  40c744:	f8410420 	ldr	x0, [x1], #16
  40c748:	eb01001f 	cmp	x0, x1
  40c74c:	54ffff40 	b.eq	40c734 <_ZSt13__adjust_heapIN9__gnu_cxx17__normal_iteratorIP2PTSt6vectorIS2_SaIS2_EEEElS2_NS0_5__ops15_Iter_comp_iterIPFbRKS2_SB_EEEEvT_T0_SG_T1_T2_+0x54>  // b.none
  40c750:	f9400a61 	ldr	x1, [x19, #16]
  40c754:	91000421 	add	x1, x1, #0x1
  40c758:	97ffd65a 	bl	4020c0 <_ZdlPvm@plt>
  40c75c:	17fffff6 	b	40c734 <_ZSt13__adjust_heapIN9__gnu_cxx17__normal_iteratorIP2PTSt6vectorIS2_SaIS2_EEEElS2_NS0_5__ops15_Iter_comp_iterIPFbRKS2_SB_EEEEvT_T0_SG_T1_T2_+0x54>
  40c760:	f9400680 	ldr	x0, [x20, #8]
  40c764:	b4000080 	cbz	x0, 40c774 <_ZSt13__adjust_heapIN9__gnu_cxx17__normal_iteratorIP2PTSt6vectorIS2_SaIS2_EEEElS2_NS0_5__ops15_Iter_comp_iterIPFbRKS2_SB_EEEEvT_T0_SG_T1_T2_+0x94>
  40c768:	f9400e81 	ldr	x1, [x20, #24]
  40c76c:	cb000021 	sub	x1, x1, x0
  40c770:	97ffd654 	bl	4020c0 <_ZdlPvm@plt>
  40c774:	9102c294 	add	x20, x20, #0xb0
  40c778:	eb14033f 	cmp	x25, x20
  40c77c:	540001e0 	b.eq	40c7b8 <_ZSt13__adjust_heapIN9__gnu_cxx17__normal_iteratorIP2PTSt6vectorIS2_SaIS2_EEEElS2_NS0_5__ops15_Iter_comp_iterIPFbRKS2_SB_EEEEvT_T0_SG_T1_T2_+0xd8>  // b.none
  40c780:	9101e280 	add	x0, x20, #0x78
  40c784:	97ffdc3e 	bl	40387c <_ZNSt10_HashtableIiSt4pairIKiiESaIS2_ENSt8__detail10_Select1stESt8equal_toIiESt4hashIiENS4_18_Mod_range_hashingENS4_20_Default_ranged_hashENS4_20_Prime_rehash_policyENS4_17_Hashtable_traitsILb0ELb0ELb1EEEED1Ev>
  40c788:	91010280 	add	x0, x20, #0x40
  40c78c:	97ffdc13 	bl	4037d8 <_ZNSt10_HashtableINSt7__cxx1112basic_stringIcSt11char_traitsIcESaIcEEESt4pairIKS5_iESaIS8_ENSt8__detail10_Select1stESt8equal_toIS5_ESt4hashIS5_ENSA_18_Mod_range_hashingENSA_20_Default_ranged_hashENSA_20_Prime_rehash_policyENSA_17_Hashtable_traitsILb1ELb0ELb1EEEED1Ev>
  40c790:	f9401280 	ldr	x0, [x20, #32]
  40c794:	b4000080 	cbz	x0, 40c7a4 <_ZSt13__adjust_heapIN9__gnu_cxx17__normal_iteratorIP2PTSt6vectorIS2_SaIS2_EEEElS2_NS0_5__ops15_Iter_comp_iterIPFbRKS2_SB_EEEEvT_T0_SG_T1_T2_+0xc4>
  40c798:	f9401a81 	ldr	x1, [x20, #48]
  40c79c:	cb000021 	sub	x1, x1, x0
  40c7a0:	97ffd648 	bl	4020c0 <_ZdlPvm@plt>
  40c7a4:	f9400693 	ldr	x19, [x20, #8]
  40c7a8:	f9400a95 	ldr	x21, [x20, #16]
  40c7ac:	eb15027f 	cmp	x19, x21
  40c7b0:	54fffc81 	b.ne	40c740 <_ZSt13__adjust_heapIN9__gnu_cxx17__normal_iteratorIP2PTSt6vectorIS2_SaIS2_EEEElS2_NS0_5__ops15_Iter_comp_iterIPFbRKS2_SB_EEEEvT_T0_SG_T1_T2_+0x60>  // b.any
  40c7b4:	17ffffeb 	b	40c760 <_ZSt13__adjust_heapIN9__gnu_cxx17__normal_iteratorIP2PTSt6vectorIS2_SaIS2_EEEElS2_NS0_5__ops15_Iter_comp_iterIPFbRKS2_SB_EEEEvT_T0_SG_T1_T2_+0x80>
  40c7b8:	b40000bb 	cbz	x27, 40c7cc <_ZSt13__adjust_heapIN9__gnu_cxx17__normal_iteratorIP2PTSt6vectorIS2_SaIS2_EEEElS2_NS0_5__ops15_Iter_comp_iterIPFbRKS2_SB_EEEEvT_T0_SG_T1_T2_+0xec>
  40c7bc:	f94033e0 	ldr	x0, [sp, #96]
  40c7c0:	cb1b0001 	sub	x1, x0, x27
  40c7c4:	aa1b03e0 	mov	x0, x27
  40c7c8:	97ffd63e 	bl	4020c0 <_ZdlPvm@plt>
  40c7cc:	b9401ae0 	ldr	w0, [x23, #24]
  40c7d0:	b9001ac0 	str	w0, [x22, #24]
  40c7d4:	f94012c0 	ldr	x0, [x22, #32]
  40c7d8:	f9401ac1 	ldr	x1, [x22, #48]
  40c7dc:	f94012e4 	ldr	x4, [x23, #32]
  40c7e0:	f90012c4 	str	x4, [x22, #32]
  40c7e4:	f94016e4 	ldr	x4, [x23, #40]
  40c7e8:	f90016c4 	str	x4, [x22, #40]
  40c7ec:	f9401ae4 	ldr	x4, [x23, #48]
  40c7f0:	f9001ac4 	str	x4, [x22, #48]
  40c7f4:	f90012ff 	str	xzr, [x23, #32]
  40c7f8:	f90016ff 	str	xzr, [x23, #40]
  40c7fc:	f9001aff 	str	xzr, [x23, #48]
  40c800:	b4000060 	cbz	x0, 40c80c <_ZSt13__adjust_heapIN9__gnu_cxx17__normal_iteratorIP2PTSt6vectorIS2_SaIS2_EEEElS2_NS0_5__ops15_Iter_comp_iterIPFbRKS2_SB_EEEEvT_T0_SG_T1_T2_+0x12c>
  40c804:	cb000021 	sub	x1, x1, x0
  40c808:	97ffd62e 	bl	4020c0 <_ZdlPvm@plt>
  40c80c:	f9401ec0 	ldr	x0, [x22, #56]
  40c810:	f94026c1 	ldr	x1, [x22, #72]
  40c814:	f9401ee4 	ldr	x4, [x23, #56]
  40c818:	f9001ec4 	str	x4, [x22, #56]
  40c81c:	f94022e4 	ldr	x4, [x23, #64]
  40c820:	f90022c4 	str	x4, [x22, #64]
  40c824:	f94026e4 	ldr	x4, [x23, #72]
  40c828:	f90026c4 	str	x4, [x22, #72]
  40c82c:	f9001eff 	str	xzr, [x23, #56]
  40c830:	f90022ff 	str	xzr, [x23, #64]
  40c834:	f90026ff 	str	xzr, [x23, #72]
  40c838:	b4000060 	cbz	x0, 40c844 <_ZSt13__adjust_heapIN9__gnu_cxx17__normal_iteratorIP2PTSt6vectorIS2_SaIS2_EEEElS2_NS0_5__ops15_Iter_comp_iterIPFbRKS2_SB_EEEEvT_T0_SG_T1_T2_+0x164>
  40c83c:	cb000021 	sub	x1, x1, x0
  40c840:	97ffd620 	bl	4020c0 <_ZdlPvm@plt>
  40c844:	bd4052e0 	ldr	s0, [x23, #80]
  40c848:	bd0052c0 	str	s0, [x22, #80]
  40c84c:	bd4056e0 	ldr	s0, [x23, #84]
  40c850:	bd0056c0 	str	s0, [x22, #84]
  40c854:	f9403be0 	ldr	x0, [sp, #112]
  40c858:	eb00031f 	cmp	x24, x0
  40c85c:	5400056a 	b.ge	40c908 <_ZSt13__adjust_heapIN9__gnu_cxx17__normal_iteratorIP2PTSt6vectorIS2_SaIS2_EEEElS2_NS0_5__ops15_Iter_comp_iterIPFbRKS2_SB_EEEEvT_T0_SG_T1_T2_+0x228>  // b.tcont
  40c860:	aa1803f4 	mov	x20, x24
  40c864:	91000693 	add	x19, x20, #0x1
  40c868:	d37ffa78 	lsl	x24, x19, #1
  40c86c:	d1000715 	sub	x21, x24, #0x1
  40c870:	8b1506a1 	add	x1, x21, x21, lsl #1
  40c874:	d37ef421 	lsl	x1, x1, #2
  40c878:	cb150021 	sub	x1, x1, x21
  40c87c:	8b130b00 	add	x0, x24, x19, lsl #2
  40c880:	d37ef400 	lsl	x0, x0, #2
  40c884:	cb180000 	sub	x0, x0, x24
  40c888:	8b010f41 	add	x1, x26, x1, lsl #3
  40c88c:	8b000f40 	add	x0, x26, x0, lsl #3
  40c890:	f94037e2 	ldr	x2, [sp, #104]
  40c894:	d63f0040 	blr	x2
  40c898:	72001c00 	ands	w0, w0, #0xff
  40c89c:	9a950318 	csel	x24, x24, x21, eq  // eq = none
  40c8a0:	8b140681 	add	x1, x20, x20, lsl #1
  40c8a4:	d37ef421 	lsl	x1, x1, #2
  40c8a8:	cb140021 	sub	x1, x1, x20
  40c8ac:	8b010f56 	add	x22, x26, x1, lsl #3
  40c8b0:	8b180700 	add	x0, x24, x24, lsl #1
  40c8b4:	d37ef400 	lsl	x0, x0, #2
  40c8b8:	cb180000 	sub	x0, x0, x24
  40c8bc:	8b000f57 	add	x23, x26, x0, lsl #3
  40c8c0:	f8617b5b 	ldr	x27, [x26, x1, lsl #3]
  40c8c4:	f94006d9 	ldr	x25, [x22, #8]
  40c8c8:	f9400ac2 	ldr	x2, [x22, #16]
  40c8cc:	f90033e2 	str	x2, [sp, #96]
  40c8d0:	f8607b42 	ldr	x2, [x26, x0, lsl #3]
  40c8d4:	f8217b42 	str	x2, [x26, x1, lsl #3]
  40c8d8:	f94006e1 	ldr	x1, [x23, #8]
  40c8dc:	f90006c1 	str	x1, [x22, #8]
  40c8e0:	f9400ae1 	ldr	x1, [x23, #16]
  40c8e4:	f9000ac1 	str	x1, [x22, #16]
  40c8e8:	f8207b5f 	str	xzr, [x26, x0, lsl #3]
  40c8ec:	f90006ff 	str	xzr, [x23, #8]
  40c8f0:	f9000aff 	str	xzr, [x23, #16]
  40c8f4:	eb19037f 	cmp	x27, x25
  40c8f8:	54fff600 	b.eq	40c7b8 <_ZSt13__adjust_heapIN9__gnu_cxx17__normal_iteratorIP2PTSt6vectorIS2_SaIS2_EEEElS2_NS0_5__ops15_Iter_comp_iterIPFbRKS2_SB_EEEEvT_T0_SG_T1_T2_+0xd8>  // b.none
  40c8fc:	aa1b03f4 	mov	x20, x27
  40c900:	17ffffa0 	b	40c780 <_ZSt13__adjust_heapIN9__gnu_cxx17__normal_iteratorIP2PTSt6vectorIS2_SaIS2_EEEElS2_NS0_5__ops15_Iter_comp_iterIPFbRKS2_SB_EEEEvT_T0_SG_T1_T2_+0xa0>
  40c904:	f9403ff8 	ldr	x24, [sp, #120]
  40c908:	f94043e0 	ldr	x0, [sp, #128]
  40c90c:	370000a0 	tbnz	w0, #0, 40c920 <_ZSt13__adjust_heapIN9__gnu_cxx17__normal_iteratorIP2PTSt6vectorIS2_SaIS2_EEEElS2_NS0_5__ops15_Iter_comp_iterIPFbRKS2_SB_EEEEvT_T0_SG_T1_T2_+0x240>
  40c910:	d1000800 	sub	x0, x0, #0x2
  40c914:	8b40fc00 	add	x0, x0, x0, lsr #63
  40c918:	eb80071f 	cmp	x24, x0, asr #1
  40c91c:	54000560 	b.eq	40c9c8 <_ZSt13__adjust_heapIN9__gnu_cxx17__normal_iteratorIP2PTSt6vectorIS2_SaIS2_EEEElS2_NS0_5__ops15_Iter_comp_iterIPFbRKS2_SB_EEEEvT_T0_SG_T1_T2_+0x2e8>  // b.none
  40c920:	f94047e0 	ldr	x0, [sp, #136]
  40c924:	f90077e0 	str	x0, [sp, #232]
  40c928:	f9400380 	ldr	x0, [x28]
  40c92c:	f9004be0 	str	x0, [sp, #144]
  40c930:	f9400780 	ldr	x0, [x28, #8]
  40c934:	f9004fe0 	str	x0, [sp, #152]
  40c938:	f9400b80 	ldr	x0, [x28, #16]
  40c93c:	f90053e0 	str	x0, [sp, #160]
  40c940:	f9000b9f 	str	xzr, [x28, #16]
  40c944:	f900079f 	str	xzr, [x28, #8]
  40c948:	f900039f 	str	xzr, [x28]
  40c94c:	b9401b80 	ldr	w0, [x28, #24]
  40c950:	b900abe0 	str	w0, [sp, #168]
  40c954:	f9401381 	ldr	x1, [x28, #32]
  40c958:	f9005be1 	str	x1, [sp, #176]
  40c95c:	f9401781 	ldr	x1, [x28, #40]
  40c960:	f9005fe1 	str	x1, [sp, #184]
  40c964:	f9401b81 	ldr	x1, [x28, #48]
  40c968:	f90063e1 	str	x1, [sp, #192]
  40c96c:	f9001b9f 	str	xzr, [x28, #48]
  40c970:	f900179f 	str	xzr, [x28, #40]
  40c974:	f900139f 	str	xzr, [x28, #32]
  40c978:	f9401f81 	ldr	x1, [x28, #56]
  40c97c:	f90067e1 	str	x1, [sp, #200]
  40c980:	f9402381 	ldr	x1, [x28, #64]
  40c984:	f9006be1 	str	x1, [sp, #208]
  40c988:	f9402781 	ldr	x1, [x28, #72]
  40c98c:	f9006fe1 	str	x1, [sp, #216]
  40c990:	f900279f 	str	xzr, [x28, #72]
  40c994:	f900239f 	str	xzr, [x28, #64]
  40c998:	f9001f9f 	str	xzr, [x28, #56]
  40c99c:	bd405380 	ldr	s0, [x28, #80]
  40c9a0:	bd00e3e0 	str	s0, [sp, #224]
  40c9a4:	bd405780 	ldr	s0, [x28, #84]
  40c9a8:	bd00e7e0 	str	s0, [sp, #228]
  40c9ac:	9103a3e4 	add	x4, sp, #0xe8
  40c9b0:	910243e3 	add	x3, sp, #0x90
  40c9b4:	f9403fe2 	ldr	x2, [sp, #120]
  40c9b8:	aa1803e1 	mov	x1, x24
  40c9bc:	aa1a03e0 	mov	x0, x26
  40c9c0:	97fffeb7 	bl	40c49c <_ZSt11__push_heapIN9__gnu_cxx17__normal_iteratorIP2PTSt6vectorIS2_SaIS2_EEEElS2_NS0_5__ops14_Iter_comp_valIPFbRKS2_SB_EEEEvT_T0_SG_T1_RT2_>
  40c9c4:	1400000d 	b	40c9f8 <_ZSt13__adjust_heapIN9__gnu_cxx17__normal_iteratorIP2PTSt6vectorIS2_SaIS2_EEEElS2_NS0_5__ops15_Iter_comp_iterIPFbRKS2_SB_EEEEvT_T0_SG_T1_T2_+0x318>
  40c9c8:	8b180700 	add	x0, x24, x24, lsl #1
  40c9cc:	d37ef400 	lsl	x0, x0, #2
  40c9d0:	cb180000 	sub	x0, x0, x24
  40c9d4:	d37ffb18 	lsl	x24, x24, #1
  40c9d8:	91000718 	add	x24, x24, #0x1
  40c9dc:	8b180701 	add	x1, x24, x24, lsl #1
  40c9e0:	d37ef421 	lsl	x1, x1, #2
  40c9e4:	cb180021 	sub	x1, x1, x24
  40c9e8:	8b010f41 	add	x1, x26, x1, lsl #3
  40c9ec:	8b000f40 	add	x0, x26, x0, lsl #3
  40c9f0:	97fffa35 	bl	40b2c4 <_ZN2PTaSEOS_>
  40c9f4:	17ffffcb 	b	40c920 <_ZSt13__adjust_heapIN9__gnu_cxx17__normal_iteratorIP2PTSt6vectorIS2_SaIS2_EEEElS2_NS0_5__ops15_Iter_comp_iterIPFbRKS2_SB_EEEEvT_T0_SG_T1_T2_+0x240>
  40c9f8:	f94067e0 	ldr	x0, [sp, #200]
  40c9fc:	b4000080 	cbz	x0, 40ca0c <_ZSt13__adjust_heapIN9__gnu_cxx17__normal_iteratorIP2PTSt6vectorIS2_SaIS2_EEEElS2_NS0_5__ops15_Iter_comp_iterIPFbRKS2_SB_EEEEvT_T0_SG_T1_T2_+0x32c>
  40ca00:	f9406fe1 	ldr	x1, [sp, #216]
  40ca04:	cb000021 	sub	x1, x1, x0
  40ca08:	97ffd5ae 	bl	4020c0 <_ZdlPvm@plt>
  40ca0c:	f9405be0 	ldr	x0, [sp, #176]
  40ca10:	b4000080 	cbz	x0, 40ca20 <_ZSt13__adjust_heapIN9__gnu_cxx17__normal_iteratorIP2PTSt6vectorIS2_SaIS2_EEEElS2_NS0_5__ops15_Iter_comp_iterIPFbRKS2_SB_EEEEvT_T0_SG_T1_T2_+0x340>
  40ca14:	f94063e1 	ldr	x1, [sp, #192]
  40ca18:	cb000021 	sub	x1, x1, x0
  40ca1c:	97ffd5a9 	bl	4020c0 <_ZdlPvm@plt>
  40ca20:	f9404bf5 	ldr	x21, [sp, #144]
  40ca24:	f9404ff6 	ldr	x22, [sp, #152]
  40ca28:	eb1602bf 	cmp	x21, x22
  40ca2c:	54000401 	b.ne	40caac <_ZSt13__adjust_heapIN9__gnu_cxx17__normal_iteratorIP2PTSt6vectorIS2_SaIS2_EEEElS2_NS0_5__ops15_Iter_comp_iterIPFbRKS2_SB_EEEEvT_T0_SG_T1_T2_+0x3cc>  // b.any
  40ca30:	f9404be0 	ldr	x0, [sp, #144]
  40ca34:	b4000080 	cbz	x0, 40ca44 <_ZSt13__adjust_heapIN9__gnu_cxx17__normal_iteratorIP2PTSt6vectorIS2_SaIS2_EEEElS2_NS0_5__ops15_Iter_comp_iterIPFbRKS2_SB_EEEEvT_T0_SG_T1_T2_+0x364>
  40ca38:	f94053e1 	ldr	x1, [sp, #160]
  40ca3c:	cb000021 	sub	x1, x1, x0
  40ca40:	97ffd5a0 	bl	4020c0 <_ZdlPvm@plt>
  40ca44:	a94153f3 	ldp	x19, x20, [sp, #16]
  40ca48:	a9425bf5 	ldp	x21, x22, [sp, #32]
  40ca4c:	a94363f7 	ldp	x23, x24, [sp, #48]
  40ca50:	a9446bf9 	ldp	x25, x26, [sp, #64]
  40ca54:	a94573fb 	ldp	x27, x28, [sp, #80]
  40ca58:	a8cf7bfd 	ldp	x29, x30, [sp], #240
  40ca5c:	d65f03c0 	ret
  40ca60:	91008273 	add	x19, x19, #0x20
  40ca64:	eb13029f 	cmp	x20, x19
  40ca68:	54000120 	b.eq	40ca8c <_ZSt13__adjust_heapIN9__gnu_cxx17__normal_iteratorIP2PTSt6vectorIS2_SaIS2_EEEElS2_NS0_5__ops15_Iter_comp_iterIPFbRKS2_SB_EEEEvT_T0_SG_T1_T2_+0x3ac>  // b.none
  40ca6c:	aa1303e1 	mov	x1, x19
  40ca70:	f8410420 	ldr	x0, [x1], #16
  40ca74:	eb01001f 	cmp	x0, x1
  40ca78:	54ffff40 	b.eq	40ca60 <_ZSt13__adjust_heapIN9__gnu_cxx17__normal_iteratorIP2PTSt6vectorIS2_SaIS2_EEEElS2_NS0_5__ops15_Iter_comp_iterIPFbRKS2_SB_EEEEvT_T0_SG_T1_T2_+0x380>  // b.none
  40ca7c:	f9400a61 	ldr	x1, [x19, #16]
  40ca80:	91000421 	add	x1, x1, #0x1
  40ca84:	97ffd58f 	bl	4020c0 <_ZdlPvm@plt>
  40ca88:	17fffff6 	b	40ca60 <_ZSt13__adjust_heapIN9__gnu_cxx17__normal_iteratorIP2PTSt6vectorIS2_SaIS2_EEEElS2_NS0_5__ops15_Iter_comp_iterIPFbRKS2_SB_EEEEvT_T0_SG_T1_T2_+0x380>
  40ca8c:	f94006a0 	ldr	x0, [x21, #8]
  40ca90:	b4000080 	cbz	x0, 40caa0 <_ZSt13__adjust_heapIN9__gnu_cxx17__normal_iteratorIP2PTSt6vectorIS2_SaIS2_EEEElS2_NS0_5__ops15_Iter_comp_iterIPFbRKS2_SB_EEEEvT_T0_SG_T1_T2_+0x3c0>
  40ca94:	f9400ea1 	ldr	x1, [x21, #24]
  40ca98:	cb000021 	sub	x1, x1, x0
  40ca9c:	97ffd589 	bl	4020c0 <_ZdlPvm@plt>
  40caa0:	9102c2b5 	add	x21, x21, #0xb0
  40caa4:	eb1502df 	cmp	x22, x21
  40caa8:	54fffc40 	b.eq	40ca30 <_ZSt13__adjust_heapIN9__gnu_cxx17__normal_iteratorIP2PTSt6vectorIS2_SaIS2_EEEElS2_NS0_5__ops15_Iter_comp_iterIPFbRKS2_SB_EEEEvT_T0_SG_T1_T2_+0x350>  // b.none
  40caac:	9101e2a0 	add	x0, x21, #0x78
  40cab0:	97ffdb73 	bl	40387c <_ZNSt10_HashtableIiSt4pairIKiiESaIS2_ENSt8__detail10_Select1stESt8equal_toIiESt4hashIiENS4_18_Mod_range_hashingENS4_20_Default_ranged_hashENS4_20_Prime_rehash_policyENS4_17_Hashtable_traitsILb0ELb0ELb1EEEED1Ev>
  40cab4:	910102a0 	add	x0, x21, #0x40
  40cab8:	97ffdb48 	bl	4037d8 <_ZNSt10_HashtableINSt7__cxx1112basic_stringIcSt11char_traitsIcESaIcEEESt4pairIKS5_iESaIS8_ENSt8__detail10_Select1stESt8equal_toIS5_ESt4hashIS5_ENSA_18_Mod_range_hashingENSA_20_Default_ranged_hashENSA_20_Prime_rehash_policyENSA_17_Hashtable_traitsILb1ELb0ELb1EEEED1Ev>
  40cabc:	f94012a0 	ldr	x0, [x21, #32]
  40cac0:	b4000080 	cbz	x0, 40cad0 <_ZSt13__adjust_heapIN9__gnu_cxx17__normal_iteratorIP2PTSt6vectorIS2_SaIS2_EEEElS2_NS0_5__ops15_Iter_comp_iterIPFbRKS2_SB_EEEEvT_T0_SG_T1_T2_+0x3f0>
  40cac4:	f9401aa1 	ldr	x1, [x21, #48]
  40cac8:	cb000021 	sub	x1, x1, x0
  40cacc:	97ffd57d 	bl	4020c0 <_ZdlPvm@plt>
  40cad0:	f94006b3 	ldr	x19, [x21, #8]
  40cad4:	f9400ab4 	ldr	x20, [x21, #16]
  40cad8:	eb14027f 	cmp	x19, x20
  40cadc:	54fffc81 	b.ne	40ca6c <_ZSt13__adjust_heapIN9__gnu_cxx17__normal_iteratorIP2PTSt6vectorIS2_SaIS2_EEEElS2_NS0_5__ops15_Iter_comp_iterIPFbRKS2_SB_EEEEvT_T0_SG_T1_T2_+0x38c>  // b.any
  40cae0:	17ffffeb 	b	40ca8c <_ZSt13__adjust_heapIN9__gnu_cxx17__normal_iteratorIP2PTSt6vectorIS2_SaIS2_EEEElS2_NS0_5__ops15_Iter_comp_iterIPFbRKS2_SB_EEEEvT_T0_SG_T1_T2_+0x3ac>
  40cae4:	aa0003f3 	mov	x19, x0
  40cae8:	910243e0 	add	x0, sp, #0x90
  40caec:	97fff41b 	bl	409b58 <_ZN2PTD1Ev>
  40caf0:	aa1303e0 	mov	x0, x19
  40caf4:	97ffd5db 	bl	402260 <_Unwind_Resume@plt>

000000000040caf8 <_ZSt11__make_heapIN9__gnu_cxx17__normal_iteratorIP2PTSt6vectorIS2_SaIS2_EEEENS0_5__ops15_Iter_comp_iterIPFbRKS2_SB_EEEEvT_SF_RT0_>:
  40caf8:	a9af7bfd 	stp	x29, x30, [sp, #-272]!
  40cafc:	910003fd 	mov	x29, sp
  40cb00:	a90363f7 	stp	x23, x24, [sp, #48]
  40cb04:	aa0003f8 	mov	x24, x0
  40cb08:	cb000020 	sub	x0, x1, x0
  40cb0c:	f101601f 	cmp	x0, #0x58
  40cb10:	5400154d 	b.le	40cdb8 <_ZSt11__make_heapIN9__gnu_cxx17__normal_iteratorIP2PTSt6vectorIS2_SaIS2_EEEENS0_5__ops15_Iter_comp_iterIPFbRKS2_SB_EEEEvT_SF_RT0_+0x2c0>
  40cb14:	a90153f3 	stp	x19, x20, [sp, #16]
  40cb18:	a9025bf5 	stp	x21, x22, [sp, #32]
  40cb1c:	a9046bf9 	stp	x25, x26, [sp, #64]
  40cb20:	f9002bfb 	str	x27, [sp, #80]
  40cb24:	aa0203f9 	mov	x25, x2
  40cb28:	9343fc00 	asr	x0, x0, #3
  40cb2c:	d2917461 	mov	x1, #0x8ba3                	// #35747
  40cb30:	f2b745c1 	movk	x1, #0xba2e, lsl #16
  40cb34:	f2d45d01 	movk	x1, #0xa2e8, lsl #32
  40cb38:	f2e5d161 	movk	x1, #0x2e8b, lsl #48
  40cb3c:	9b017c17 	mul	x23, x0, x1
  40cb40:	d1000ae0 	sub	x0, x23, #0x2
  40cb44:	8b40fc00 	add	x0, x0, x0, lsr #63
  40cb48:	9341fc16 	asr	x22, x0, #1
  40cb4c:	927ff815 	and	x21, x0, #0xfffffffffffffffe
  40cb50:	8b1602b5 	add	x21, x21, x22
  40cb54:	d37ef6b5 	lsl	x21, x21, #2
  40cb58:	cb1602b5 	sub	x21, x21, x22
  40cb5c:	8b150f15 	add	x21, x24, x21, lsl #3
  40cb60:	1400002a 	b	40cc08 <_ZSt11__make_heapIN9__gnu_cxx17__normal_iteratorIP2PTSt6vectorIS2_SaIS2_EEEENS0_5__ops15_Iter_comp_iterIPFbRKS2_SB_EEEEvT_SF_RT0_+0x110>
  40cb64:	f9407be0 	ldr	x0, [sp, #240]
  40cb68:	b4000080 	cbz	x0, 40cb78 <_ZSt11__make_heapIN9__gnu_cxx17__normal_iteratorIP2PTSt6vectorIS2_SaIS2_EEEENS0_5__ops15_Iter_comp_iterIPFbRKS2_SB_EEEEvT_SF_RT0_+0x80>
  40cb6c:	f94083e1 	ldr	x1, [sp, #256]
  40cb70:	cb000021 	sub	x1, x1, x0
  40cb74:	97ffd553 	bl	4020c0 <_ZdlPvm@plt>
  40cb78:	f9406fe0 	ldr	x0, [sp, #216]
  40cb7c:	b4000080 	cbz	x0, 40cb8c <_ZSt11__make_heapIN9__gnu_cxx17__normal_iteratorIP2PTSt6vectorIS2_SaIS2_EEEENS0_5__ops15_Iter_comp_iterIPFbRKS2_SB_EEEEvT_SF_RT0_+0x94>
  40cb80:	f94077e1 	ldr	x1, [sp, #232]
  40cb84:	cb000021 	sub	x1, x1, x0
  40cb88:	97ffd54e 	bl	4020c0 <_ZdlPvm@plt>
  40cb8c:	f9405ff4 	ldr	x20, [sp, #184]
  40cb90:	f94063fb 	ldr	x27, [sp, #192]
  40cb94:	eb1b029f 	cmp	x20, x27
  40cb98:	54000c61 	b.ne	40cd24 <_ZSt11__make_heapIN9__gnu_cxx17__normal_iteratorIP2PTSt6vectorIS2_SaIS2_EEEENS0_5__ops15_Iter_comp_iterIPFbRKS2_SB_EEEEvT_SF_RT0_+0x22c>  // b.any
  40cb9c:	f9405fe0 	ldr	x0, [sp, #184]
  40cba0:	b4000080 	cbz	x0, 40cbb0 <_ZSt11__make_heapIN9__gnu_cxx17__normal_iteratorIP2PTSt6vectorIS2_SaIS2_EEEENS0_5__ops15_Iter_comp_iterIPFbRKS2_SB_EEEEvT_SF_RT0_+0xb8>
  40cba4:	f94067e1 	ldr	x1, [sp, #200]
  40cba8:	cb000021 	sub	x1, x1, x0
  40cbac:	97ffd545 	bl	4020c0 <_ZdlPvm@plt>
  40cbb0:	b4000d76 	cbz	x22, 40cd5c <_ZSt11__make_heapIN9__gnu_cxx17__normal_iteratorIP2PTSt6vectorIS2_SaIS2_EEEENS0_5__ops15_Iter_comp_iterIPFbRKS2_SB_EEEEvT_SF_RT0_+0x264>
  40cbb4:	d10006d6 	sub	x22, x22, #0x1
  40cbb8:	f9404fe0 	ldr	x0, [sp, #152]
  40cbbc:	b4000080 	cbz	x0, 40cbcc <_ZSt11__make_heapIN9__gnu_cxx17__normal_iteratorIP2PTSt6vectorIS2_SaIS2_EEEENS0_5__ops15_Iter_comp_iterIPFbRKS2_SB_EEEEvT_SF_RT0_+0xd4>
  40cbc0:	f94057e1 	ldr	x1, [sp, #168]
  40cbc4:	cb000021 	sub	x1, x1, x0
  40cbc8:	97ffd53e 	bl	4020c0 <_ZdlPvm@plt>
  40cbcc:	f94043e0 	ldr	x0, [sp, #128]
  40cbd0:	b4000080 	cbz	x0, 40cbe0 <_ZSt11__make_heapIN9__gnu_cxx17__normal_iteratorIP2PTSt6vectorIS2_SaIS2_EEEENS0_5__ops15_Iter_comp_iterIPFbRKS2_SB_EEEEvT_SF_RT0_+0xe8>
  40cbd4:	f9404be1 	ldr	x1, [sp, #144]
  40cbd8:	cb000021 	sub	x1, x1, x0
  40cbdc:	97ffd539 	bl	4020c0 <_ZdlPvm@plt>
  40cbe0:	f94033f4 	ldr	x20, [sp, #96]
  40cbe4:	f94037fb 	ldr	x27, [sp, #104]
  40cbe8:	eb1b029f 	cmp	x20, x27
  40cbec:	54001541 	b.ne	40ce94 <_ZSt11__make_heapIN9__gnu_cxx17__normal_iteratorIP2PTSt6vectorIS2_SaIS2_EEEENS0_5__ops15_Iter_comp_iterIPFbRKS2_SB_EEEEvT_SF_RT0_+0x39c>  // b.any
  40cbf0:	f94033e0 	ldr	x0, [sp, #96]
  40cbf4:	b4000080 	cbz	x0, 40cc04 <_ZSt11__make_heapIN9__gnu_cxx17__normal_iteratorIP2PTSt6vectorIS2_SaIS2_EEEENS0_5__ops15_Iter_comp_iterIPFbRKS2_SB_EEEEvT_SF_RT0_+0x10c>
  40cbf8:	f9403be1 	ldr	x1, [sp, #112]
  40cbfc:	cb000021 	sub	x1, x1, x0
  40cc00:	97ffd530 	bl	4020c0 <_ZdlPvm@plt>
  40cc04:	d10162b5 	sub	x21, x21, #0x58
  40cc08:	f94002a9 	ldr	x9, [x21]
  40cc0c:	f94006a8 	ldr	x8, [x21, #8]
  40cc10:	f9400aa7 	ldr	x7, [x21, #16]
  40cc14:	f9000abf 	str	xzr, [x21, #16]
  40cc18:	f90006bf 	str	xzr, [x21, #8]
  40cc1c:	f90002bf 	str	xzr, [x21]
  40cc20:	b9401aa0 	ldr	w0, [x21, #24]
  40cc24:	b9007be0 	str	w0, [sp, #120]
  40cc28:	f94012a6 	ldr	x6, [x21, #32]
  40cc2c:	f94016a5 	ldr	x5, [x21, #40]
  40cc30:	f9401aa4 	ldr	x4, [x21, #48]
  40cc34:	f9001abf 	str	xzr, [x21, #48]
  40cc38:	f90016bf 	str	xzr, [x21, #40]
  40cc3c:	f90012bf 	str	xzr, [x21, #32]
  40cc40:	f9401ea3 	ldr	x3, [x21, #56]
  40cc44:	f94022a2 	ldr	x2, [x21, #64]
  40cc48:	f94026a1 	ldr	x1, [x21, #72]
  40cc4c:	f90026bf 	str	xzr, [x21, #72]
  40cc50:	f90022bf 	str	xzr, [x21, #64]
  40cc54:	f9001ebf 	str	xzr, [x21, #56]
  40cc58:	bd4052a1 	ldr	s1, [x21, #80]
  40cc5c:	bd00b3e1 	str	s1, [sp, #176]
  40cc60:	bd4056a0 	ldr	s0, [x21, #84]
  40cc64:	bd00b7e0 	str	s0, [sp, #180]
  40cc68:	f9005fe9 	str	x9, [sp, #184]
  40cc6c:	f90063e8 	str	x8, [sp, #192]
  40cc70:	f90067e7 	str	x7, [sp, #200]
  40cc74:	f9003bff 	str	xzr, [sp, #112]
  40cc78:	f90037ff 	str	xzr, [sp, #104]
  40cc7c:	f90033ff 	str	xzr, [sp, #96]
  40cc80:	b900d3e0 	str	w0, [sp, #208]
  40cc84:	f9006fe6 	str	x6, [sp, #216]
  40cc88:	f90073e5 	str	x5, [sp, #224]
  40cc8c:	f90077e4 	str	x4, [sp, #232]
  40cc90:	f9004bff 	str	xzr, [sp, #144]
  40cc94:	f90047ff 	str	xzr, [sp, #136]
  40cc98:	f90043ff 	str	xzr, [sp, #128]
  40cc9c:	f9007be3 	str	x3, [sp, #240]
  40cca0:	f9007fe2 	str	x2, [sp, #248]
  40cca4:	f90083e1 	str	x1, [sp, #256]
  40cca8:	f90057ff 	str	xzr, [sp, #168]
  40ccac:	f90053ff 	str	xzr, [sp, #160]
  40ccb0:	f9004fff 	str	xzr, [sp, #152]
  40ccb4:	bd010be1 	str	s1, [sp, #264]
  40ccb8:	bd010fe0 	str	s0, [sp, #268]
  40ccbc:	f9400324 	ldr	x4, [x25]
  40ccc0:	9102e3e3 	add	x3, sp, #0xb8
  40ccc4:	aa1703e2 	mov	x2, x23
  40ccc8:	aa1603e1 	mov	x1, x22
  40cccc:	aa1803e0 	mov	x0, x24
  40ccd0:	97fffe84 	bl	40c6e0 <_ZSt13__adjust_heapIN9__gnu_cxx17__normal_iteratorIP2PTSt6vectorIS2_SaIS2_EEEElS2_NS0_5__ops15_Iter_comp_iterIPFbRKS2_SB_EEEEvT_T0_SG_T1_T2_>
  40ccd4:	17ffffa4 	b	40cb64 <_ZSt11__make_heapIN9__gnu_cxx17__normal_iteratorIP2PTSt6vectorIS2_SaIS2_EEEENS0_5__ops15_Iter_comp_iterIPFbRKS2_SB_EEEEvT_SF_RT0_+0x6c>
  40ccd8:	91008273 	add	x19, x19, #0x20
  40ccdc:	eb13035f 	cmp	x26, x19
  40cce0:	54000120 	b.eq	40cd04 <_ZSt11__make_heapIN9__gnu_cxx17__normal_iteratorIP2PTSt6vectorIS2_SaIS2_EEEENS0_5__ops15_Iter_comp_iterIPFbRKS2_SB_EEEEvT_SF_RT0_+0x20c>  // b.none
  40cce4:	aa1303e1 	mov	x1, x19
  40cce8:	f8410420 	ldr	x0, [x1], #16
  40ccec:	eb01001f 	cmp	x0, x1
  40ccf0:	54ffff40 	b.eq	40ccd8 <_ZSt11__make_heapIN9__gnu_cxx17__normal_iteratorIP2PTSt6vectorIS2_SaIS2_EEEENS0_5__ops15_Iter_comp_iterIPFbRKS2_SB_EEEEvT_SF_RT0_+0x1e0>  // b.none
  40ccf4:	f9400a61 	ldr	x1, [x19, #16]
  40ccf8:	91000421 	add	x1, x1, #0x1
  40ccfc:	97ffd4f1 	bl	4020c0 <_ZdlPvm@plt>
  40cd00:	17fffff6 	b	40ccd8 <_ZSt11__make_heapIN9__gnu_cxx17__normal_iteratorIP2PTSt6vectorIS2_SaIS2_EEEENS0_5__ops15_Iter_comp_iterIPFbRKS2_SB_EEEEvT_SF_RT0_+0x1e0>
  40cd04:	f9400680 	ldr	x0, [x20, #8]
  40cd08:	b4000080 	cbz	x0, 40cd18 <_ZSt11__make_heapIN9__gnu_cxx17__normal_iteratorIP2PTSt6vectorIS2_SaIS2_EEEENS0_5__ops15_Iter_comp_iterIPFbRKS2_SB_EEEEvT_SF_RT0_+0x220>
  40cd0c:	f9400e81 	ldr	x1, [x20, #24]
  40cd10:	cb000021 	sub	x1, x1, x0
  40cd14:	97ffd4eb 	bl	4020c0 <_ZdlPvm@plt>
  40cd18:	9102c294 	add	x20, x20, #0xb0
  40cd1c:	eb14037f 	cmp	x27, x20
  40cd20:	54fff3e0 	b.eq	40cb9c <_ZSt11__make_heapIN9__gnu_cxx17__normal_iteratorIP2PTSt6vectorIS2_SaIS2_EEEENS0_5__ops15_Iter_comp_iterIPFbRKS2_SB_EEEEvT_SF_RT0_+0xa4>  // b.none
  40cd24:	9101e280 	add	x0, x20, #0x78
  40cd28:	97ffdad5 	bl	40387c <_ZNSt10_HashtableIiSt4pairIKiiESaIS2_ENSt8__detail10_Select1stESt8equal_toIiESt4hashIiENS4_18_Mod_range_hashingENS4_20_Default_ranged_hashENS4_20_Prime_rehash_policyENS4_17_Hashtable_traitsILb0ELb0ELb1EEEED1Ev>
  40cd2c:	91010280 	add	x0, x20, #0x40
  40cd30:	97ffdaaa 	bl	4037d8 <_ZNSt10_HashtableINSt7__cxx1112basic_stringIcSt11char_traitsIcESaIcEEESt4pairIKS5_iESaIS8_ENSt8__detail10_Select1stESt8equal_toIS5_ESt4hashIS5_ENSA_18_Mod_range_hashingENSA_20_Default_ranged_hashENSA_20_Prime_rehash_policyENSA_17_Hashtable_traitsILb1ELb0ELb1EEEED1Ev>
  40cd34:	f9401280 	ldr	x0, [x20, #32]
  40cd38:	b4000080 	cbz	x0, 40cd48 <_ZSt11__make_heapIN9__gnu_cxx17__normal_iteratorIP2PTSt6vectorIS2_SaIS2_EEEENS0_5__ops15_Iter_comp_iterIPFbRKS2_SB_EEEEvT_SF_RT0_+0x250>
  40cd3c:	f9401a81 	ldr	x1, [x20, #48]
  40cd40:	cb000021 	sub	x1, x1, x0
  40cd44:	97ffd4df 	bl	4020c0 <_ZdlPvm@plt>
  40cd48:	f9400693 	ldr	x19, [x20, #8]
  40cd4c:	f9400a9a 	ldr	x26, [x20, #16]
  40cd50:	eb1a027f 	cmp	x19, x26
  40cd54:	54fffc81 	b.ne	40cce4 <_ZSt11__make_heapIN9__gnu_cxx17__normal_iteratorIP2PTSt6vectorIS2_SaIS2_EEEENS0_5__ops15_Iter_comp_iterIPFbRKS2_SB_EEEEvT_SF_RT0_+0x1ec>  // b.any
  40cd58:	17ffffeb 	b	40cd04 <_ZSt11__make_heapIN9__gnu_cxx17__normal_iteratorIP2PTSt6vectorIS2_SaIS2_EEEENS0_5__ops15_Iter_comp_iterIPFbRKS2_SB_EEEEvT_SF_RT0_+0x20c>
  40cd5c:	f9404fe0 	ldr	x0, [sp, #152]
  40cd60:	b4000080 	cbz	x0, 40cd70 <_ZSt11__make_heapIN9__gnu_cxx17__normal_iteratorIP2PTSt6vectorIS2_SaIS2_EEEENS0_5__ops15_Iter_comp_iterIPFbRKS2_SB_EEEEvT_SF_RT0_+0x278>
  40cd64:	f94057e1 	ldr	x1, [sp, #168]
  40cd68:	cb000021 	sub	x1, x1, x0
  40cd6c:	97ffd4d5 	bl	4020c0 <_ZdlPvm@plt>
  40cd70:	f94043e0 	ldr	x0, [sp, #128]
  40cd74:	b4000080 	cbz	x0, 40cd84 <_ZSt11__make_heapIN9__gnu_cxx17__normal_iteratorIP2PTSt6vectorIS2_SaIS2_EEEENS0_5__ops15_Iter_comp_iterIPFbRKS2_SB_EEEEvT_SF_RT0_+0x28c>
  40cd78:	f9404be1 	ldr	x1, [sp, #144]
  40cd7c:	cb000021 	sub	x1, x1, x0
  40cd80:	97ffd4d0 	bl	4020c0 <_ZdlPvm@plt>
  40cd84:	f94033f4 	ldr	x20, [sp, #96]
  40cd88:	f94037f6 	ldr	x22, [sp, #104]
  40cd8c:	eb16029f 	cmp	x20, x22
  40cd90:	54000401 	b.ne	40ce10 <_ZSt11__make_heapIN9__gnu_cxx17__normal_iteratorIP2PTSt6vectorIS2_SaIS2_EEEENS0_5__ops15_Iter_comp_iterIPFbRKS2_SB_EEEEvT_SF_RT0_+0x318>  // b.any
  40cd94:	f94033e0 	ldr	x0, [sp, #96]
  40cd98:	b4000a80 	cbz	x0, 40cee8 <_ZSt11__make_heapIN9__gnu_cxx17__normal_iteratorIP2PTSt6vectorIS2_SaIS2_EEEENS0_5__ops15_Iter_comp_iterIPFbRKS2_SB_EEEEvT_SF_RT0_+0x3f0>
  40cd9c:	f9403be1 	ldr	x1, [sp, #112]
  40cda0:	cb000021 	sub	x1, x1, x0
  40cda4:	97ffd4c7 	bl	4020c0 <_ZdlPvm@plt>
  40cda8:	a94153f3 	ldp	x19, x20, [sp, #16]
  40cdac:	a9425bf5 	ldp	x21, x22, [sp, #32]
  40cdb0:	a9446bf9 	ldp	x25, x26, [sp, #64]
  40cdb4:	f9402bfb 	ldr	x27, [sp, #80]
  40cdb8:	a94363f7 	ldp	x23, x24, [sp, #48]
  40cdbc:	a8d17bfd 	ldp	x29, x30, [sp], #272
  40cdc0:	d65f03c0 	ret
  40cdc4:	91008273 	add	x19, x19, #0x20
  40cdc8:	eb1302bf 	cmp	x21, x19
  40cdcc:	54000120 	b.eq	40cdf0 <_ZSt11__make_heapIN9__gnu_cxx17__normal_iteratorIP2PTSt6vectorIS2_SaIS2_EEEENS0_5__ops15_Iter_comp_iterIPFbRKS2_SB_EEEEvT_SF_RT0_+0x2f8>  // b.none
  40cdd0:	aa1303e1 	mov	x1, x19
  40cdd4:	f8410420 	ldr	x0, [x1], #16
  40cdd8:	eb01001f 	cmp	x0, x1
  40cddc:	54ffff40 	b.eq	40cdc4 <_ZSt11__make_heapIN9__gnu_cxx17__normal_iteratorIP2PTSt6vectorIS2_SaIS2_EEEENS0_5__ops15_Iter_comp_iterIPFbRKS2_SB_EEEEvT_SF_RT0_+0x2cc>  // b.none
  40cde0:	f9400a61 	ldr	x1, [x19, #16]
  40cde4:	91000421 	add	x1, x1, #0x1
  40cde8:	97ffd4b6 	bl	4020c0 <_ZdlPvm@plt>
  40cdec:	17fffff6 	b	40cdc4 <_ZSt11__make_heapIN9__gnu_cxx17__normal_iteratorIP2PTSt6vectorIS2_SaIS2_EEEENS0_5__ops15_Iter_comp_iterIPFbRKS2_SB_EEEEvT_SF_RT0_+0x2cc>
  40cdf0:	f9400680 	ldr	x0, [x20, #8]
  40cdf4:	b4000080 	cbz	x0, 40ce04 <_ZSt11__make_heapIN9__gnu_cxx17__normal_iteratorIP2PTSt6vectorIS2_SaIS2_EEEENS0_5__ops15_Iter_comp_iterIPFbRKS2_SB_EEEEvT_SF_RT0_+0x30c>
  40cdf8:	f9400e81 	ldr	x1, [x20, #24]
  40cdfc:	cb000021 	sub	x1, x1, x0
  40ce00:	97ffd4b0 	bl	4020c0 <_ZdlPvm@plt>
  40ce04:	9102c294 	add	x20, x20, #0xb0
  40ce08:	eb1402df 	cmp	x22, x20
  40ce0c:	54fffc40 	b.eq	40cd94 <_ZSt11__make_heapIN9__gnu_cxx17__normal_iteratorIP2PTSt6vectorIS2_SaIS2_EEEENS0_5__ops15_Iter_comp_iterIPFbRKS2_SB_EEEEvT_SF_RT0_+0x29c>  // b.none
  40ce10:	9101e280 	add	x0, x20, #0x78
  40ce14:	97ffda9a 	bl	40387c <_ZNSt10_HashtableIiSt4pairIKiiESaIS2_ENSt8__detail10_Select1stESt8equal_toIiESt4hashIiENS4_18_Mod_range_hashingENS4_20_Default_ranged_hashENS4_20_Prime_rehash_policyENS4_17_Hashtable_traitsILb0ELb0ELb1EEEED1Ev>
  40ce18:	91010280 	add	x0, x20, #0x40
  40ce1c:	97ffda6f 	bl	4037d8 <_ZNSt10_HashtableINSt7__cxx1112basic_stringIcSt11char_traitsIcESaIcEEESt4pairIKS5_iESaIS8_ENSt8__detail10_Select1stESt8equal_toIS5_ESt4hashIS5_ENSA_18_Mod_range_hashingENSA_20_Default_ranged_hashENSA_20_Prime_rehash_policyENSA_17_Hashtable_traitsILb1ELb0ELb1EEEED1Ev>
  40ce20:	f9401280 	ldr	x0, [x20, #32]
  40ce24:	b4000080 	cbz	x0, 40ce34 <_ZSt11__make_heapIN9__gnu_cxx17__normal_iteratorIP2PTSt6vectorIS2_SaIS2_EEEENS0_5__ops15_Iter_comp_iterIPFbRKS2_SB_EEEEvT_SF_RT0_+0x33c>
  40ce28:	f9401a81 	ldr	x1, [x20, #48]
  40ce2c:	cb000021 	sub	x1, x1, x0
  40ce30:	97ffd4a4 	bl	4020c0 <_ZdlPvm@plt>
  40ce34:	f9400693 	ldr	x19, [x20, #8]
  40ce38:	f9400a95 	ldr	x21, [x20, #16]
  40ce3c:	eb15027f 	cmp	x19, x21
  40ce40:	54fffc81 	b.ne	40cdd0 <_ZSt11__make_heapIN9__gnu_cxx17__normal_iteratorIP2PTSt6vectorIS2_SaIS2_EEEENS0_5__ops15_Iter_comp_iterIPFbRKS2_SB_EEEEvT_SF_RT0_+0x2d8>  // b.any
  40ce44:	17ffffeb 	b	40cdf0 <_ZSt11__make_heapIN9__gnu_cxx17__normal_iteratorIP2PTSt6vectorIS2_SaIS2_EEEENS0_5__ops15_Iter_comp_iterIPFbRKS2_SB_EEEEvT_SF_RT0_+0x2f8>
  40ce48:	91008273 	add	x19, x19, #0x20
  40ce4c:	eb13035f 	cmp	x26, x19
  40ce50:	54000120 	b.eq	40ce74 <_ZSt11__make_heapIN9__gnu_cxx17__normal_iteratorIP2PTSt6vectorIS2_SaIS2_EEEENS0_5__ops15_Iter_comp_iterIPFbRKS2_SB_EEEEvT_SF_RT0_+0x37c>  // b.none
  40ce54:	aa1303e1 	mov	x1, x19
  40ce58:	f8410420 	ldr	x0, [x1], #16
  40ce5c:	eb01001f 	cmp	x0, x1
  40ce60:	54ffff40 	b.eq	40ce48 <_ZSt11__make_heapIN9__gnu_cxx17__normal_iteratorIP2PTSt6vectorIS2_SaIS2_EEEENS0_5__ops15_Iter_comp_iterIPFbRKS2_SB_EEEEvT_SF_RT0_+0x350>  // b.none
  40ce64:	f9400a61 	ldr	x1, [x19, #16]
  40ce68:	91000421 	add	x1, x1, #0x1
  40ce6c:	97ffd495 	bl	4020c0 <_ZdlPvm@plt>
  40ce70:	17fffff6 	b	40ce48 <_ZSt11__make_heapIN9__gnu_cxx17__normal_iteratorIP2PTSt6vectorIS2_SaIS2_EEEENS0_5__ops15_Iter_comp_iterIPFbRKS2_SB_EEEEvT_SF_RT0_+0x350>
  40ce74:	f9400680 	ldr	x0, [x20, #8]
  40ce78:	b4000080 	cbz	x0, 40ce88 <_ZSt11__make_heapIN9__gnu_cxx17__normal_iteratorIP2PTSt6vectorIS2_SaIS2_EEEENS0_5__ops15_Iter_comp_iterIPFbRKS2_SB_EEEEvT_SF_RT0_+0x390>
  40ce7c:	f9400e81 	ldr	x1, [x20, #24]
  40ce80:	cb000021 	sub	x1, x1, x0
  40ce84:	97ffd48f 	bl	4020c0 <_ZdlPvm@plt>
  40ce88:	9102c294 	add	x20, x20, #0xb0
  40ce8c:	eb14037f 	cmp	x27, x20
  40ce90:	54ffeb00 	b.eq	40cbf0 <_ZSt11__make_heapIN9__gnu_cxx17__normal_iteratorIP2PTSt6vectorIS2_SaIS2_EEEENS0_5__ops15_Iter_comp_iterIPFbRKS2_SB_EEEEvT_SF_RT0_+0xf8>  // b.none
  40ce94:	9101e280 	add	x0, x20, #0x78
  40ce98:	97ffda79 	bl	40387c <_ZNSt10_HashtableIiSt4pairIKiiESaIS2_ENSt8__detail10_Select1stESt8equal_toIiESt4hashIiENS4_18_Mod_range_hashingENS4_20_Default_ranged_hashENS4_20_Prime_rehash_policyENS4_17_Hashtable_traitsILb0ELb0ELb1EEEED1Ev>
  40ce9c:	91010280 	add	x0, x20, #0x40
  40cea0:	97ffda4e 	bl	4037d8 <_ZNSt10_HashtableINSt7__cxx1112basic_stringIcSt11char_traitsIcESaIcEEESt4pairIKS5_iESaIS8_ENSt8__detail10_Select1stESt8equal_toIS5_ESt4hashIS5_ENSA_18_Mod_range_hashingENSA_20_Default_ranged_hashENSA_20_Prime_rehash_policyENSA_17_Hashtable_traitsILb1ELb0ELb1EEEED1Ev>
  40cea4:	f9401280 	ldr	x0, [x20, #32]
  40cea8:	b4000080 	cbz	x0, 40ceb8 <_ZSt11__make_heapIN9__gnu_cxx17__normal_iteratorIP2PTSt6vectorIS2_SaIS2_EEEENS0_5__ops15_Iter_comp_iterIPFbRKS2_SB_EEEEvT_SF_RT0_+0x3c0>
  40ceac:	f9401a81 	ldr	x1, [x20, #48]
  40ceb0:	cb000021 	sub	x1, x1, x0
  40ceb4:	97ffd483 	bl	4020c0 <_ZdlPvm@plt>
  40ceb8:	f9400693 	ldr	x19, [x20, #8]
  40cebc:	f9400a9a 	ldr	x26, [x20, #16]
  40cec0:	eb1a027f 	cmp	x19, x26
  40cec4:	54fffc81 	b.ne	40ce54 <_ZSt11__make_heapIN9__gnu_cxx17__normal_iteratorIP2PTSt6vectorIS2_SaIS2_EEEENS0_5__ops15_Iter_comp_iterIPFbRKS2_SB_EEEEvT_SF_RT0_+0x35c>  // b.any
  40cec8:	17ffffeb 	b	40ce74 <_ZSt11__make_heapIN9__gnu_cxx17__normal_iteratorIP2PTSt6vectorIS2_SaIS2_EEEENS0_5__ops15_Iter_comp_iterIPFbRKS2_SB_EEEEvT_SF_RT0_+0x37c>
  40cecc:	aa0003f3 	mov	x19, x0
  40ced0:	9102e3e0 	add	x0, sp, #0xb8
  40ced4:	97fff321 	bl	409b58 <_ZN2PTD1Ev>
  40ced8:	910183e0 	add	x0, sp, #0x60
  40cedc:	97fff31f 	bl	409b58 <_ZN2PTD1Ev>
  40cee0:	aa1303e0 	mov	x0, x19
  40cee4:	97ffd4df 	bl	402260 <_Unwind_Resume@plt>
  40cee8:	a94153f3 	ldp	x19, x20, [sp, #16]
  40ceec:	a9425bf5 	ldp	x21, x22, [sp, #32]
  40cef0:	a9446bf9 	ldp	x25, x26, [sp, #64]
  40cef4:	f9402bfb 	ldr	x27, [sp, #80]
  40cef8:	17ffffb0 	b	40cdb8 <_ZSt11__make_heapIN9__gnu_cxx17__normal_iteratorIP2PTSt6vectorIS2_SaIS2_EEEENS0_5__ops15_Iter_comp_iterIPFbRKS2_SB_EEEEvT_SF_RT0_+0x2c0>

000000000040cefc <_ZSt13__heap_selectIN9__gnu_cxx17__normal_iteratorIP2PTSt6vectorIS2_SaIS2_EEEENS0_5__ops15_Iter_comp_iterIPFbRKS2_SB_EEEEvT_SF_SF_T0_>:
  40cefc:	a9af7bfd 	stp	x29, x30, [sp, #-272]!
  40cf00:	910003fd 	mov	x29, sp
  40cf04:	a9025bf5 	stp	x21, x22, [sp, #32]
  40cf08:	a90363f7 	stp	x23, x24, [sp, #48]
  40cf0c:	aa0003f5 	mov	x21, x0
  40cf10:	aa0103f6 	mov	x22, x1
  40cf14:	aa0203f7 	mov	x23, x2
  40cf18:	f9002fe3 	str	x3, [sp, #88]
  40cf1c:	910163e2 	add	x2, sp, #0x58
  40cf20:	97fffef6 	bl	40caf8 <_ZSt11__make_heapIN9__gnu_cxx17__normal_iteratorIP2PTSt6vectorIS2_SaIS2_EEEENS0_5__ops15_Iter_comp_iterIPFbRKS2_SB_EEEEvT_SF_RT0_>
  40cf24:	eb1602ff 	cmp	x23, x22
  40cf28:	54001a49 	b.ls	40d270 <_ZSt13__heap_selectIN9__gnu_cxx17__normal_iteratorIP2PTSt6vectorIS2_SaIS2_EEEENS0_5__ops15_Iter_comp_iterIPFbRKS2_SB_EEEEvT_SF_SF_T0_+0x374>  // b.plast
  40cf2c:	a90153f3 	stp	x19, x20, [sp, #16]
  40cf30:	a9046bf9 	stp	x25, x26, [sp, #64]
  40cf34:	aa1603f4 	mov	x20, x22
  40cf38:	cb1502d6 	sub	x22, x22, x21
  40cf3c:	9343fed6 	asr	x22, x22, #3
  40cf40:	d2917460 	mov	x0, #0x8ba3                	// #35747
  40cf44:	f2b745c0 	movk	x0, #0xba2e, lsl #16
  40cf48:	f2d45d00 	movk	x0, #0xa2e8, lsl #32
  40cf4c:	f2e5d160 	movk	x0, #0x2e8b, lsl #48
  40cf50:	9b007ed6 	mul	x22, x22, x0
  40cf54:	1400002a 	b	40cffc <_ZSt13__heap_selectIN9__gnu_cxx17__normal_iteratorIP2PTSt6vectorIS2_SaIS2_EEEENS0_5__ops15_Iter_comp_iterIPFbRKS2_SB_EEEEvT_SF_SF_T0_+0x100>
  40cf58:	f9407be0 	ldr	x0, [sp, #240]
  40cf5c:	b4000080 	cbz	x0, 40cf6c <_ZSt13__heap_selectIN9__gnu_cxx17__normal_iteratorIP2PTSt6vectorIS2_SaIS2_EEEENS0_5__ops15_Iter_comp_iterIPFbRKS2_SB_EEEEvT_SF_SF_T0_+0x70>
  40cf60:	f94083e1 	ldr	x1, [sp, #256]
  40cf64:	cb000021 	sub	x1, x1, x0
  40cf68:	97ffd456 	bl	4020c0 <_ZdlPvm@plt>
  40cf6c:	f9406fe0 	ldr	x0, [sp, #216]
  40cf70:	b4000080 	cbz	x0, 40cf80 <_ZSt13__heap_selectIN9__gnu_cxx17__normal_iteratorIP2PTSt6vectorIS2_SaIS2_EEEENS0_5__ops15_Iter_comp_iterIPFbRKS2_SB_EEEEvT_SF_SF_T0_+0x84>
  40cf74:	f94077e1 	ldr	x1, [sp, #232]
  40cf78:	cb000021 	sub	x1, x1, x0
  40cf7c:	97ffd451 	bl	4020c0 <_ZdlPvm@plt>
  40cf80:	f9405ff8 	ldr	x24, [sp, #184]
  40cf84:	f94063fa 	ldr	x26, [sp, #192]
  40cf88:	eb1a031f 	cmp	x24, x26
  40cf8c:	54001021 	b.ne	40d190 <_ZSt13__heap_selectIN9__gnu_cxx17__normal_iteratorIP2PTSt6vectorIS2_SaIS2_EEEENS0_5__ops15_Iter_comp_iterIPFbRKS2_SB_EEEEvT_SF_SF_T0_+0x294>  // b.any
  40cf90:	f9405fe0 	ldr	x0, [sp, #184]
  40cf94:	b4000080 	cbz	x0, 40cfa4 <_ZSt13__heap_selectIN9__gnu_cxx17__normal_iteratorIP2PTSt6vectorIS2_SaIS2_EEEENS0_5__ops15_Iter_comp_iterIPFbRKS2_SB_EEEEvT_SF_SF_T0_+0xa8>
  40cf98:	f94067e1 	ldr	x1, [sp, #200]
  40cf9c:	cb000021 	sub	x1, x1, x0
  40cfa0:	97ffd448 	bl	4020c0 <_ZdlPvm@plt>
  40cfa4:	f9404fe0 	ldr	x0, [sp, #152]
  40cfa8:	b4000080 	cbz	x0, 40cfb8 <_ZSt13__heap_selectIN9__gnu_cxx17__normal_iteratorIP2PTSt6vectorIS2_SaIS2_EEEENS0_5__ops15_Iter_comp_iterIPFbRKS2_SB_EEEEvT_SF_SF_T0_+0xbc>
  40cfac:	f94057e1 	ldr	x1, [sp, #168]
  40cfb0:	cb000021 	sub	x1, x1, x0
  40cfb4:	97ffd443 	bl	4020c0 <_ZdlPvm@plt>
  40cfb8:	f94043e0 	ldr	x0, [sp, #128]
  40cfbc:	b4000080 	cbz	x0, 40cfcc <_ZSt13__heap_selectIN9__gnu_cxx17__normal_iteratorIP2PTSt6vectorIS2_SaIS2_EEEENS0_5__ops15_Iter_comp_iterIPFbRKS2_SB_EEEEvT_SF_SF_T0_+0xd0>
  40cfc0:	f9404be1 	ldr	x1, [sp, #144]
  40cfc4:	cb000021 	sub	x1, x1, x0
  40cfc8:	97ffd43e 	bl	4020c0 <_ZdlPvm@plt>
  40cfcc:	f94033f8 	ldr	x24, [sp, #96]
  40cfd0:	f94037fa 	ldr	x26, [sp, #104]
  40cfd4:	eb1a031f 	cmp	x24, x26
  40cfd8:	540011e1 	b.ne	40d214 <_ZSt13__heap_selectIN9__gnu_cxx17__normal_iteratorIP2PTSt6vectorIS2_SaIS2_EEEENS0_5__ops15_Iter_comp_iterIPFbRKS2_SB_EEEEvT_SF_SF_T0_+0x318>  // b.any
  40cfdc:	f94033e0 	ldr	x0, [sp, #96]
  40cfe0:	b4000080 	cbz	x0, 40cff0 <_ZSt13__heap_selectIN9__gnu_cxx17__normal_iteratorIP2PTSt6vectorIS2_SaIS2_EEEENS0_5__ops15_Iter_comp_iterIPFbRKS2_SB_EEEEvT_SF_SF_T0_+0xf4>
  40cfe4:	f9403be1 	ldr	x1, [sp, #112]
  40cfe8:	cb000021 	sub	x1, x1, x0
  40cfec:	97ffd435 	bl	4020c0 <_ZdlPvm@plt>
  40cff0:	91016294 	add	x20, x20, #0x58
  40cff4:	eb1402ff 	cmp	x23, x20
  40cff8:	54001389 	b.ls	40d268 <_ZSt13__heap_selectIN9__gnu_cxx17__normal_iteratorIP2PTSt6vectorIS2_SaIS2_EEEENS0_5__ops15_Iter_comp_iterIPFbRKS2_SB_EEEEvT_SF_SF_T0_+0x36c>  // b.plast
  40cffc:	aa1503e1 	mov	x1, x21
  40d000:	aa1403e0 	mov	x0, x20
  40d004:	f9402fe2 	ldr	x2, [sp, #88]
  40d008:	d63f0040 	blr	x2
  40d00c:	12001c00 	and	w0, w0, #0xff
  40d010:	34ffff00 	cbz	w0, 40cff0 <_ZSt13__heap_selectIN9__gnu_cxx17__normal_iteratorIP2PTSt6vectorIS2_SaIS2_EEEENS0_5__ops15_Iter_comp_iterIPFbRKS2_SB_EEEEvT_SF_SF_T0_+0xf4>
  40d014:	f9400280 	ldr	x0, [x20]
  40d018:	f90033e0 	str	x0, [sp, #96]
  40d01c:	f9400680 	ldr	x0, [x20, #8]
  40d020:	f90037e0 	str	x0, [sp, #104]
  40d024:	f9400a80 	ldr	x0, [x20, #16]
  40d028:	f9003be0 	str	x0, [sp, #112]
  40d02c:	f9000a9f 	str	xzr, [x20, #16]
  40d030:	f900069f 	str	xzr, [x20, #8]
  40d034:	f900029f 	str	xzr, [x20]
  40d038:	b9401a80 	ldr	w0, [x20, #24]
  40d03c:	b9007be0 	str	w0, [sp, #120]
  40d040:	f9401280 	ldr	x0, [x20, #32]
  40d044:	f90043e0 	str	x0, [sp, #128]
  40d048:	f9401680 	ldr	x0, [x20, #40]
  40d04c:	f90047e0 	str	x0, [sp, #136]
  40d050:	f9401a80 	ldr	x0, [x20, #48]
  40d054:	f9004be0 	str	x0, [sp, #144]
  40d058:	f9001a9f 	str	xzr, [x20, #48]
  40d05c:	f900169f 	str	xzr, [x20, #40]
  40d060:	f900129f 	str	xzr, [x20, #32]
  40d064:	f9401e80 	ldr	x0, [x20, #56]
  40d068:	f9004fe0 	str	x0, [sp, #152]
  40d06c:	f9402280 	ldr	x0, [x20, #64]
  40d070:	f90053e0 	str	x0, [sp, #160]
  40d074:	f9402680 	ldr	x0, [x20, #72]
  40d078:	f90057e0 	str	x0, [sp, #168]
  40d07c:	f900269f 	str	xzr, [x20, #72]
  40d080:	f900229f 	str	xzr, [x20, #64]
  40d084:	f9001e9f 	str	xzr, [x20, #56]
  40d088:	bd405280 	ldr	s0, [x20, #80]
  40d08c:	bd00b3e0 	str	s0, [sp, #176]
  40d090:	bd405680 	ldr	s0, [x20, #84]
  40d094:	bd00b7e0 	str	s0, [sp, #180]
  40d098:	aa1503e1 	mov	x1, x21
  40d09c:	aa1403e0 	mov	x0, x20
  40d0a0:	97fff889 	bl	40b2c4 <_ZN2PTaSEOS_>
  40d0a4:	f94033e0 	ldr	x0, [sp, #96]
  40d0a8:	f9005fe0 	str	x0, [sp, #184]
  40d0ac:	f94037e0 	ldr	x0, [sp, #104]
  40d0b0:	f90063e0 	str	x0, [sp, #192]
  40d0b4:	f9403be0 	ldr	x0, [sp, #112]
  40d0b8:	f90067e0 	str	x0, [sp, #200]
  40d0bc:	f9003bff 	str	xzr, [sp, #112]
  40d0c0:	f90037ff 	str	xzr, [sp, #104]
  40d0c4:	f90033ff 	str	xzr, [sp, #96]
  40d0c8:	b9407be0 	ldr	w0, [sp, #120]
  40d0cc:	b900d3e0 	str	w0, [sp, #208]
  40d0d0:	f94043e0 	ldr	x0, [sp, #128]
  40d0d4:	f9006fe0 	str	x0, [sp, #216]
  40d0d8:	f94047e0 	ldr	x0, [sp, #136]
  40d0dc:	f90073e0 	str	x0, [sp, #224]
  40d0e0:	f9404be0 	ldr	x0, [sp, #144]
  40d0e4:	f90077e0 	str	x0, [sp, #232]
  40d0e8:	f9004bff 	str	xzr, [sp, #144]
  40d0ec:	f90047ff 	str	xzr, [sp, #136]
  40d0f0:	f90043ff 	str	xzr, [sp, #128]
  40d0f4:	f9404fe0 	ldr	x0, [sp, #152]
  40d0f8:	f9007be0 	str	x0, [sp, #240]
  40d0fc:	f94053e0 	ldr	x0, [sp, #160]
  40d100:	f9007fe0 	str	x0, [sp, #248]
  40d104:	f94057e0 	ldr	x0, [sp, #168]
  40d108:	f90083e0 	str	x0, [sp, #256]
  40d10c:	f90057ff 	str	xzr, [sp, #168]
  40d110:	f90053ff 	str	xzr, [sp, #160]
  40d114:	f9004fff 	str	xzr, [sp, #152]
  40d118:	bd40b3e0 	ldr	s0, [sp, #176]
  40d11c:	bd010be0 	str	s0, [sp, #264]
  40d120:	bd40b7e0 	ldr	s0, [sp, #180]
  40d124:	bd010fe0 	str	s0, [sp, #268]
  40d128:	f9402fe4 	ldr	x4, [sp, #88]
  40d12c:	9102e3e3 	add	x3, sp, #0xb8
  40d130:	aa1603e2 	mov	x2, x22
  40d134:	d2800001 	mov	x1, #0x0                   	// #0
  40d138:	aa1503e0 	mov	x0, x21
  40d13c:	97fffd69 	bl	40c6e0 <_ZSt13__adjust_heapIN9__gnu_cxx17__normal_iteratorIP2PTSt6vectorIS2_SaIS2_EEEElS2_NS0_5__ops15_Iter_comp_iterIPFbRKS2_SB_EEEEvT_T0_SG_T1_T2_>
  40d140:	17ffff86 	b	40cf58 <_ZSt13__heap_selectIN9__gnu_cxx17__normal_iteratorIP2PTSt6vectorIS2_SaIS2_EEEENS0_5__ops15_Iter_comp_iterIPFbRKS2_SB_EEEEvT_SF_SF_T0_+0x5c>
  40d144:	91008273 	add	x19, x19, #0x20
  40d148:	eb13033f 	cmp	x25, x19
  40d14c:	54000120 	b.eq	40d170 <_ZSt13__heap_selectIN9__gnu_cxx17__normal_iteratorIP2PTSt6vectorIS2_SaIS2_EEEENS0_5__ops15_Iter_comp_iterIPFbRKS2_SB_EEEEvT_SF_SF_T0_+0x274>  // b.none
  40d150:	aa1303e1 	mov	x1, x19
  40d154:	f8410420 	ldr	x0, [x1], #16
  40d158:	eb01001f 	cmp	x0, x1
  40d15c:	54ffff40 	b.eq	40d144 <_ZSt13__heap_selectIN9__gnu_cxx17__normal_iteratorIP2PTSt6vectorIS2_SaIS2_EEEENS0_5__ops15_Iter_comp_iterIPFbRKS2_SB_EEEEvT_SF_SF_T0_+0x248>  // b.none
  40d160:	f9400a61 	ldr	x1, [x19, #16]
  40d164:	91000421 	add	x1, x1, #0x1
  40d168:	97ffd3d6 	bl	4020c0 <_ZdlPvm@plt>
  40d16c:	17fffff6 	b	40d144 <_ZSt13__heap_selectIN9__gnu_cxx17__normal_iteratorIP2PTSt6vectorIS2_SaIS2_EEEENS0_5__ops15_Iter_comp_iterIPFbRKS2_SB_EEEEvT_SF_SF_T0_+0x248>
  40d170:	f9400700 	ldr	x0, [x24, #8]
  40d174:	b4000080 	cbz	x0, 40d184 <_ZSt13__heap_selectIN9__gnu_cxx17__normal_iteratorIP2PTSt6vectorIS2_SaIS2_EEEENS0_5__ops15_Iter_comp_iterIPFbRKS2_SB_EEEEvT_SF_SF_T0_+0x288>
  40d178:	f9400f01 	ldr	x1, [x24, #24]
  40d17c:	cb000021 	sub	x1, x1, x0
  40d180:	97ffd3d0 	bl	4020c0 <_ZdlPvm@plt>
  40d184:	9102c318 	add	x24, x24, #0xb0
  40d188:	eb18035f 	cmp	x26, x24
  40d18c:	54fff020 	b.eq	40cf90 <_ZSt13__heap_selectIN9__gnu_cxx17__normal_iteratorIP2PTSt6vectorIS2_SaIS2_EEEENS0_5__ops15_Iter_comp_iterIPFbRKS2_SB_EEEEvT_SF_SF_T0_+0x94>  // b.none
  40d190:	9101e300 	add	x0, x24, #0x78
  40d194:	97ffd9ba 	bl	40387c <_ZNSt10_HashtableIiSt4pairIKiiESaIS2_ENSt8__detail10_Select1stESt8equal_toIiESt4hashIiENS4_18_Mod_range_hashingENS4_20_Default_ranged_hashENS4_20_Prime_rehash_policyENS4_17_Hashtable_traitsILb0ELb0ELb1EEEED1Ev>
  40d198:	91010300 	add	x0, x24, #0x40
  40d19c:	97ffd98f 	bl	4037d8 <_ZNSt10_HashtableINSt7__cxx1112basic_stringIcSt11char_traitsIcESaIcEEESt4pairIKS5_iESaIS8_ENSt8__detail10_Select1stESt8equal_toIS5_ESt4hashIS5_ENSA_18_Mod_range_hashingENSA_20_Default_ranged_hashENSA_20_Prime_rehash_policyENSA_17_Hashtable_traitsILb1ELb0ELb1EEEED1Ev>
  40d1a0:	f9401300 	ldr	x0, [x24, #32]
  40d1a4:	b4000080 	cbz	x0, 40d1b4 <_ZSt13__heap_selectIN9__gnu_cxx17__normal_iteratorIP2PTSt6vectorIS2_SaIS2_EEEENS0_5__ops15_Iter_comp_iterIPFbRKS2_SB_EEEEvT_SF_SF_T0_+0x2b8>
  40d1a8:	f9401b01 	ldr	x1, [x24, #48]
  40d1ac:	cb000021 	sub	x1, x1, x0
  40d1b0:	97ffd3c4 	bl	4020c0 <_ZdlPvm@plt>
  40d1b4:	f9400713 	ldr	x19, [x24, #8]
  40d1b8:	f9400b19 	ldr	x25, [x24, #16]
  40d1bc:	eb19027f 	cmp	x19, x25
  40d1c0:	54fffc81 	b.ne	40d150 <_ZSt13__heap_selectIN9__gnu_cxx17__normal_iteratorIP2PTSt6vectorIS2_SaIS2_EEEENS0_5__ops15_Iter_comp_iterIPFbRKS2_SB_EEEEvT_SF_SF_T0_+0x254>  // b.any
  40d1c4:	17ffffeb 	b	40d170 <_ZSt13__heap_selectIN9__gnu_cxx17__normal_iteratorIP2PTSt6vectorIS2_SaIS2_EEEENS0_5__ops15_Iter_comp_iterIPFbRKS2_SB_EEEEvT_SF_SF_T0_+0x274>
  40d1c8:	91008273 	add	x19, x19, #0x20
  40d1cc:	eb13033f 	cmp	x25, x19
  40d1d0:	54000120 	b.eq	40d1f4 <_ZSt13__heap_selectIN9__gnu_cxx17__normal_iteratorIP2PTSt6vectorIS2_SaIS2_EEEENS0_5__ops15_Iter_comp_iterIPFbRKS2_SB_EEEEvT_SF_SF_T0_+0x2f8>  // b.none
  40d1d4:	aa1303e1 	mov	x1, x19
  40d1d8:	f8410420 	ldr	x0, [x1], #16
  40d1dc:	eb01001f 	cmp	x0, x1
  40d1e0:	54ffff40 	b.eq	40d1c8 <_ZSt13__heap_selectIN9__gnu_cxx17__normal_iteratorIP2PTSt6vectorIS2_SaIS2_EEEENS0_5__ops15_Iter_comp_iterIPFbRKS2_SB_EEEEvT_SF_SF_T0_+0x2cc>  // b.none
  40d1e4:	f9400a61 	ldr	x1, [x19, #16]
  40d1e8:	91000421 	add	x1, x1, #0x1
  40d1ec:	97ffd3b5 	bl	4020c0 <_ZdlPvm@plt>
  40d1f0:	17fffff6 	b	40d1c8 <_ZSt13__heap_selectIN9__gnu_cxx17__normal_iteratorIP2PTSt6vectorIS2_SaIS2_EEEENS0_5__ops15_Iter_comp_iterIPFbRKS2_SB_EEEEvT_SF_SF_T0_+0x2cc>
  40d1f4:	f9400700 	ldr	x0, [x24, #8]
  40d1f8:	b4000080 	cbz	x0, 40d208 <_ZSt13__heap_selectIN9__gnu_cxx17__normal_iteratorIP2PTSt6vectorIS2_SaIS2_EEEENS0_5__ops15_Iter_comp_iterIPFbRKS2_SB_EEEEvT_SF_SF_T0_+0x30c>
  40d1fc:	f9400f01 	ldr	x1, [x24, #24]
  40d200:	cb000021 	sub	x1, x1, x0
  40d204:	97ffd3af 	bl	4020c0 <_ZdlPvm@plt>
  40d208:	9102c318 	add	x24, x24, #0xb0
  40d20c:	eb18035f 	cmp	x26, x24
  40d210:	54ffee60 	b.eq	40cfdc <_ZSt13__heap_selectIN9__gnu_cxx17__normal_iteratorIP2PTSt6vectorIS2_SaIS2_EEEENS0_5__ops15_Iter_comp_iterIPFbRKS2_SB_EEEEvT_SF_SF_T0_+0xe0>  // b.none
  40d214:	9101e300 	add	x0, x24, #0x78
  40d218:	97ffd999 	bl	40387c <_ZNSt10_HashtableIiSt4pairIKiiESaIS2_ENSt8__detail10_Select1stESt8equal_toIiESt4hashIiENS4_18_Mod_range_hashingENS4_20_Default_ranged_hashENS4_20_Prime_rehash_policyENS4_17_Hashtable_traitsILb0ELb0ELb1EEEED1Ev>
  40d21c:	91010300 	add	x0, x24, #0x40
  40d220:	97ffd96e 	bl	4037d8 <_ZNSt10_HashtableINSt7__cxx1112basic_stringIcSt11char_traitsIcESaIcEEESt4pairIKS5_iESaIS8_ENSt8__detail10_Select1stESt8equal_toIS5_ESt4hashIS5_ENSA_18_Mod_range_hashingENSA_20_Default_ranged_hashENSA_20_Prime_rehash_policyENSA_17_Hashtable_traitsILb1ELb0ELb1EEEED1Ev>
  40d224:	f9401300 	ldr	x0, [x24, #32]
  40d228:	b4000080 	cbz	x0, 40d238 <_ZSt13__heap_selectIN9__gnu_cxx17__normal_iteratorIP2PTSt6vectorIS2_SaIS2_EEEENS0_5__ops15_Iter_comp_iterIPFbRKS2_SB_EEEEvT_SF_SF_T0_+0x33c>
  40d22c:	f9401b01 	ldr	x1, [x24, #48]
  40d230:	cb000021 	sub	x1, x1, x0
  40d234:	97ffd3a3 	bl	4020c0 <_ZdlPvm@plt>
  40d238:	f9400713 	ldr	x19, [x24, #8]
  40d23c:	f9400b19 	ldr	x25, [x24, #16]
  40d240:	eb19027f 	cmp	x19, x25
  40d244:	54fffc81 	b.ne	40d1d4 <_ZSt13__heap_selectIN9__gnu_cxx17__normal_iteratorIP2PTSt6vectorIS2_SaIS2_EEEENS0_5__ops15_Iter_comp_iterIPFbRKS2_SB_EEEEvT_SF_SF_T0_+0x2d8>  // b.any
  40d248:	17ffffeb 	b	40d1f4 <_ZSt13__heap_selectIN9__gnu_cxx17__normal_iteratorIP2PTSt6vectorIS2_SaIS2_EEEENS0_5__ops15_Iter_comp_iterIPFbRKS2_SB_EEEEvT_SF_SF_T0_+0x2f8>
  40d24c:	aa0003f3 	mov	x19, x0
  40d250:	9102e3e0 	add	x0, sp, #0xb8
  40d254:	97fff241 	bl	409b58 <_ZN2PTD1Ev>
  40d258:	910183e0 	add	x0, sp, #0x60
  40d25c:	97fff23f 	bl	409b58 <_ZN2PTD1Ev>
  40d260:	aa1303e0 	mov	x0, x19
  40d264:	97ffd3ff 	bl	402260 <_Unwind_Resume@plt>
  40d268:	a94153f3 	ldp	x19, x20, [sp, #16]
  40d26c:	a9446bf9 	ldp	x25, x26, [sp, #64]
  40d270:	a9425bf5 	ldp	x21, x22, [sp, #32]
  40d274:	a94363f7 	ldp	x23, x24, [sp, #48]
  40d278:	a8d17bfd 	ldp	x29, x30, [sp], #272
  40d27c:	d65f03c0 	ret

000000000040d280 <_ZSt11__sort_heapIN9__gnu_cxx17__normal_iteratorIP2PTSt6vectorIS2_SaIS2_EEEENS0_5__ops15_Iter_comp_iterIPFbRKS2_SB_EEEEvT_SF_RT0_>:
  40d280:	a9af7bfd 	stp	x29, x30, [sp, #-272]!
  40d284:	910003fd 	mov	x29, sp
  40d288:	a9025bf5 	stp	x21, x22, [sp, #32]
  40d28c:	aa0003f6 	mov	x22, x0
  40d290:	cb000020 	sub	x0, x1, x0
  40d294:	f101601f 	cmp	x0, #0x58
  40d298:	54001e4d 	b.le	40d660 <_ZSt11__sort_heapIN9__gnu_cxx17__normal_iteratorIP2PTSt6vectorIS2_SaIS2_EEEENS0_5__ops15_Iter_comp_iterIPFbRKS2_SB_EEEEvT_SF_RT0_+0x3e0>
  40d29c:	a90153f3 	stp	x19, x20, [sp, #16]
  40d2a0:	a90363f7 	stp	x23, x24, [sp, #48]
  40d2a4:	a9046bf9 	stp	x25, x26, [sp, #64]
  40d2a8:	f9002bfb 	str	x27, [sp, #80]
  40d2ac:	aa0203f8 	mov	x24, x2
  40d2b0:	d1016035 	sub	x21, x1, #0x58
  40d2b4:	d2917479 	mov	x25, #0x8ba3                	// #35747
  40d2b8:	f2b745d9 	movk	x25, #0xba2e, lsl #16
  40d2bc:	f2d45d19 	movk	x25, #0xa2e8, lsl #32
  40d2c0:	f2e5d179 	movk	x25, #0x2e8b, lsl #48
  40d2c4:	1400002a 	b	40d36c <_ZSt11__sort_heapIN9__gnu_cxx17__normal_iteratorIP2PTSt6vectorIS2_SaIS2_EEEENS0_5__ops15_Iter_comp_iterIPFbRKS2_SB_EEEEvT_SF_RT0_+0xec>
  40d2c8:	f9407be0 	ldr	x0, [sp, #240]
  40d2cc:	b4000080 	cbz	x0, 40d2dc <_ZSt11__sort_heapIN9__gnu_cxx17__normal_iteratorIP2PTSt6vectorIS2_SaIS2_EEEENS0_5__ops15_Iter_comp_iterIPFbRKS2_SB_EEEEvT_SF_RT0_+0x5c>
  40d2d0:	f94083e1 	ldr	x1, [sp, #256]
  40d2d4:	cb000021 	sub	x1, x1, x0
  40d2d8:	97ffd37a 	bl	4020c0 <_ZdlPvm@plt>
  40d2dc:	f9406fe0 	ldr	x0, [sp, #216]
  40d2e0:	b4000080 	cbz	x0, 40d2f0 <_ZSt11__sort_heapIN9__gnu_cxx17__normal_iteratorIP2PTSt6vectorIS2_SaIS2_EEEENS0_5__ops15_Iter_comp_iterIPFbRKS2_SB_EEEEvT_SF_RT0_+0x70>
  40d2e4:	f94077e1 	ldr	x1, [sp, #232]
  40d2e8:	cb000021 	sub	x1, x1, x0
  40d2ec:	97ffd375 	bl	4020c0 <_ZdlPvm@plt>
  40d2f0:	f9405ff4 	ldr	x20, [sp, #184]
  40d2f4:	f94063fb 	ldr	x27, [sp, #192]
  40d2f8:	eb1b029f 	cmp	x20, x27
  40d2fc:	540014c1 	b.ne	40d594 <_ZSt11__sort_heapIN9__gnu_cxx17__normal_iteratorIP2PTSt6vectorIS2_SaIS2_EEEENS0_5__ops15_Iter_comp_iterIPFbRKS2_SB_EEEEvT_SF_RT0_+0x314>  // b.any
  40d300:	f9405fe0 	ldr	x0, [sp, #184]
  40d304:	b4000080 	cbz	x0, 40d314 <_ZSt11__sort_heapIN9__gnu_cxx17__normal_iteratorIP2PTSt6vectorIS2_SaIS2_EEEENS0_5__ops15_Iter_comp_iterIPFbRKS2_SB_EEEEvT_SF_RT0_+0x94>
  40d308:	f94067e1 	ldr	x1, [sp, #200]
  40d30c:	cb000021 	sub	x1, x1, x0
  40d310:	97ffd36c 	bl	4020c0 <_ZdlPvm@plt>
  40d314:	f9404fe0 	ldr	x0, [sp, #152]
  40d318:	b4000080 	cbz	x0, 40d328 <_ZSt11__sort_heapIN9__gnu_cxx17__normal_iteratorIP2PTSt6vectorIS2_SaIS2_EEEENS0_5__ops15_Iter_comp_iterIPFbRKS2_SB_EEEEvT_SF_RT0_+0xa8>
  40d31c:	f94057e1 	ldr	x1, [sp, #168]
  40d320:	cb000021 	sub	x1, x1, x0
  40d324:	97ffd367 	bl	4020c0 <_ZdlPvm@plt>
  40d328:	f94043e0 	ldr	x0, [sp, #128]
  40d32c:	b4000080 	cbz	x0, 40d33c <_ZSt11__sort_heapIN9__gnu_cxx17__normal_iteratorIP2PTSt6vectorIS2_SaIS2_EEEENS0_5__ops15_Iter_comp_iterIPFbRKS2_SB_EEEEvT_SF_RT0_+0xbc>
  40d330:	f9404be1 	ldr	x1, [sp, #144]
  40d334:	cb000021 	sub	x1, x1, x0
  40d338:	97ffd362 	bl	4020c0 <_ZdlPvm@plt>
  40d33c:	f94033f4 	ldr	x20, [sp, #96]
  40d340:	f94037fb 	ldr	x27, [sp, #104]
  40d344:	eb1b029f 	cmp	x20, x27
  40d348:	54001681 	b.ne	40d618 <_ZSt11__sort_heapIN9__gnu_cxx17__normal_iteratorIP2PTSt6vectorIS2_SaIS2_EEEENS0_5__ops15_Iter_comp_iterIPFbRKS2_SB_EEEEvT_SF_RT0_+0x398>  // b.any
  40d34c:	f94033e0 	ldr	x0, [sp, #96]
  40d350:	b4000080 	cbz	x0, 40d360 <_ZSt11__sort_heapIN9__gnu_cxx17__normal_iteratorIP2PTSt6vectorIS2_SaIS2_EEEENS0_5__ops15_Iter_comp_iterIPFbRKS2_SB_EEEEvT_SF_RT0_+0xe0>
  40d354:	f9403be1 	ldr	x1, [sp, #112]
  40d358:	cb000021 	sub	x1, x1, x0
  40d35c:	97ffd359 	bl	4020c0 <_ZdlPvm@plt>
  40d360:	d10162b5 	sub	x21, x21, #0x58
  40d364:	f10162ff 	cmp	x23, #0x58
  40d368:	5400174d 	b.le	40d650 <_ZSt11__sort_heapIN9__gnu_cxx17__normal_iteratorIP2PTSt6vectorIS2_SaIS2_EEEENS0_5__ops15_Iter_comp_iterIPFbRKS2_SB_EEEEvT_SF_RT0_+0x3d0>
  40d36c:	aa1503f7 	mov	x23, x21
  40d370:	f94002a0 	ldr	x0, [x21]
  40d374:	f90033e0 	str	x0, [sp, #96]
  40d378:	f94006a0 	ldr	x0, [x21, #8]
  40d37c:	f90037e0 	str	x0, [sp, #104]
  40d380:	f9400aa0 	ldr	x0, [x21, #16]
  40d384:	f9003be0 	str	x0, [sp, #112]
  40d388:	f9000abf 	str	xzr, [x21, #16]
  40d38c:	f90006bf 	str	xzr, [x21, #8]
  40d390:	f90002bf 	str	xzr, [x21]
  40d394:	b9401aa0 	ldr	w0, [x21, #24]
  40d398:	b9007be0 	str	w0, [sp, #120]
  40d39c:	f94012a0 	ldr	x0, [x21, #32]
  40d3a0:	f90043e0 	str	x0, [sp, #128]
  40d3a4:	f94016a0 	ldr	x0, [x21, #40]
  40d3a8:	f90047e0 	str	x0, [sp, #136]
  40d3ac:	f9401aa0 	ldr	x0, [x21, #48]
  40d3b0:	f9004be0 	str	x0, [sp, #144]
  40d3b4:	f9001abf 	str	xzr, [x21, #48]
  40d3b8:	f90016bf 	str	xzr, [x21, #40]
  40d3bc:	f90012bf 	str	xzr, [x21, #32]
  40d3c0:	f9401ea0 	ldr	x0, [x21, #56]
  40d3c4:	f9004fe0 	str	x0, [sp, #152]
  40d3c8:	f94022a0 	ldr	x0, [x21, #64]
  40d3cc:	f90053e0 	str	x0, [sp, #160]
  40d3d0:	f94026a0 	ldr	x0, [x21, #72]
  40d3d4:	f90057e0 	str	x0, [sp, #168]
  40d3d8:	f90026bf 	str	xzr, [x21, #72]
  40d3dc:	f90022bf 	str	xzr, [x21, #64]
  40d3e0:	f9001ebf 	str	xzr, [x21, #56]
  40d3e4:	bd4052a0 	ldr	s0, [x21, #80]
  40d3e8:	bd00b3e0 	str	s0, [sp, #176]
  40d3ec:	bd4056a0 	ldr	s0, [x21, #84]
  40d3f0:	bd00b7e0 	str	s0, [sp, #180]
  40d3f4:	f94002c0 	ldr	x0, [x22]
  40d3f8:	f90002a0 	str	x0, [x21]
  40d3fc:	f94006c0 	ldr	x0, [x22, #8]
  40d400:	f90006a0 	str	x0, [x21, #8]
  40d404:	f9400ac0 	ldr	x0, [x22, #16]
  40d408:	f9000aa0 	str	x0, [x21, #16]
  40d40c:	f90002df 	str	xzr, [x22]
  40d410:	f90006df 	str	xzr, [x22, #8]
  40d414:	f9000adf 	str	xzr, [x22, #16]
  40d418:	b9401ac0 	ldr	w0, [x22, #24]
  40d41c:	b9001aa0 	str	w0, [x21, #24]
  40d420:	f94012a0 	ldr	x0, [x21, #32]
  40d424:	f9401aa1 	ldr	x1, [x21, #48]
  40d428:	f94012c3 	ldr	x3, [x22, #32]
  40d42c:	f90012a3 	str	x3, [x21, #32]
  40d430:	f94016c3 	ldr	x3, [x22, #40]
  40d434:	f90016a3 	str	x3, [x21, #40]
  40d438:	f9401ac3 	ldr	x3, [x22, #48]
  40d43c:	f9001aa3 	str	x3, [x21, #48]
  40d440:	f90012df 	str	xzr, [x22, #32]
  40d444:	f90016df 	str	xzr, [x22, #40]
  40d448:	f9001adf 	str	xzr, [x22, #48]
  40d44c:	b4000060 	cbz	x0, 40d458 <_ZSt11__sort_heapIN9__gnu_cxx17__normal_iteratorIP2PTSt6vectorIS2_SaIS2_EEEENS0_5__ops15_Iter_comp_iterIPFbRKS2_SB_EEEEvT_SF_RT0_+0x1d8>
  40d450:	cb000021 	sub	x1, x1, x0
  40d454:	97ffd31b 	bl	4020c0 <_ZdlPvm@plt>
  40d458:	f9401ee0 	ldr	x0, [x23, #56]
  40d45c:	f94026e1 	ldr	x1, [x23, #72]
  40d460:	f9401ec3 	ldr	x3, [x22, #56]
  40d464:	f9001ee3 	str	x3, [x23, #56]
  40d468:	f94022c3 	ldr	x3, [x22, #64]
  40d46c:	f90022e3 	str	x3, [x23, #64]
  40d470:	f94026c3 	ldr	x3, [x22, #72]
  40d474:	f90026e3 	str	x3, [x23, #72]
  40d478:	f9001edf 	str	xzr, [x22, #56]
  40d47c:	f90022df 	str	xzr, [x22, #64]
  40d480:	f90026df 	str	xzr, [x22, #72]
  40d484:	b4000060 	cbz	x0, 40d490 <_ZSt11__sort_heapIN9__gnu_cxx17__normal_iteratorIP2PTSt6vectorIS2_SaIS2_EEEENS0_5__ops15_Iter_comp_iterIPFbRKS2_SB_EEEEvT_SF_RT0_+0x210>
  40d488:	cb000021 	sub	x1, x1, x0
  40d48c:	97ffd30d 	bl	4020c0 <_ZdlPvm@plt>
  40d490:	bd4052c0 	ldr	s0, [x22, #80]
  40d494:	bd0052e0 	str	s0, [x23, #80]
  40d498:	bd4056c0 	ldr	s0, [x22, #84]
  40d49c:	bd0056e0 	str	s0, [x23, #84]
  40d4a0:	cb1602f7 	sub	x23, x23, x22
  40d4a4:	f94033e0 	ldr	x0, [sp, #96]
  40d4a8:	f9005fe0 	str	x0, [sp, #184]
  40d4ac:	f94037e0 	ldr	x0, [sp, #104]
  40d4b0:	f90063e0 	str	x0, [sp, #192]
  40d4b4:	f9403be0 	ldr	x0, [sp, #112]
  40d4b8:	f90067e0 	str	x0, [sp, #200]
  40d4bc:	f9003bff 	str	xzr, [sp, #112]
  40d4c0:	f90037ff 	str	xzr, [sp, #104]
  40d4c4:	f90033ff 	str	xzr, [sp, #96]
  40d4c8:	b9407be0 	ldr	w0, [sp, #120]
  40d4cc:	b900d3e0 	str	w0, [sp, #208]
  40d4d0:	f94043e0 	ldr	x0, [sp, #128]
  40d4d4:	f9006fe0 	str	x0, [sp, #216]
  40d4d8:	f94047e0 	ldr	x0, [sp, #136]
  40d4dc:	f90073e0 	str	x0, [sp, #224]
  40d4e0:	f9404be0 	ldr	x0, [sp, #144]
  40d4e4:	f90077e0 	str	x0, [sp, #232]
  40d4e8:	f9004bff 	str	xzr, [sp, #144]
  40d4ec:	f90047ff 	str	xzr, [sp, #136]
  40d4f0:	f90043ff 	str	xzr, [sp, #128]
  40d4f4:	f9404fe0 	ldr	x0, [sp, #152]
  40d4f8:	f9007be0 	str	x0, [sp, #240]
  40d4fc:	f94053e0 	ldr	x0, [sp, #160]
  40d500:	f9007fe0 	str	x0, [sp, #248]
  40d504:	f94057e0 	ldr	x0, [sp, #168]
  40d508:	f90083e0 	str	x0, [sp, #256]
  40d50c:	f90057ff 	str	xzr, [sp, #168]
  40d510:	f90053ff 	str	xzr, [sp, #160]
  40d514:	f9004fff 	str	xzr, [sp, #152]
  40d518:	bd40b3e0 	ldr	s0, [sp, #176]
  40d51c:	bd010be0 	str	s0, [sp, #264]
  40d520:	bd40b7e0 	ldr	s0, [sp, #180]
  40d524:	bd010fe0 	str	s0, [sp, #268]
  40d528:	9343fee2 	asr	x2, x23, #3
  40d52c:	f9400304 	ldr	x4, [x24]
  40d530:	9102e3e3 	add	x3, sp, #0xb8
  40d534:	9b197c42 	mul	x2, x2, x25
  40d538:	d2800001 	mov	x1, #0x0                   	// #0
  40d53c:	aa1603e0 	mov	x0, x22
  40d540:	97fffc68 	bl	40c6e0 <_ZSt13__adjust_heapIN9__gnu_cxx17__normal_iteratorIP2PTSt6vectorIS2_SaIS2_EEEElS2_NS0_5__ops15_Iter_comp_iterIPFbRKS2_SB_EEEEvT_T0_SG_T1_T2_>
  40d544:	17ffff61 	b	40d2c8 <_ZSt11__sort_heapIN9__gnu_cxx17__normal_iteratorIP2PTSt6vectorIS2_SaIS2_EEEENS0_5__ops15_Iter_comp_iterIPFbRKS2_SB_EEEEvT_SF_RT0_+0x48>
  40d548:	91008273 	add	x19, x19, #0x20
  40d54c:	eb13035f 	cmp	x26, x19
  40d550:	54000120 	b.eq	40d574 <_ZSt11__sort_heapIN9__gnu_cxx17__normal_iteratorIP2PTSt6vectorIS2_SaIS2_EEEENS0_5__ops15_Iter_comp_iterIPFbRKS2_SB_EEEEvT_SF_RT0_+0x2f4>  // b.none
  40d554:	aa1303e1 	mov	x1, x19
  40d558:	f8410420 	ldr	x0, [x1], #16
  40d55c:	eb01001f 	cmp	x0, x1
  40d560:	54ffff40 	b.eq	40d548 <_ZSt11__sort_heapIN9__gnu_cxx17__normal_iteratorIP2PTSt6vectorIS2_SaIS2_EEEENS0_5__ops15_Iter_comp_iterIPFbRKS2_SB_EEEEvT_SF_RT0_+0x2c8>  // b.none
  40d564:	f9400a61 	ldr	x1, [x19, #16]
  40d568:	91000421 	add	x1, x1, #0x1
  40d56c:	97ffd2d5 	bl	4020c0 <_ZdlPvm@plt>
  40d570:	17fffff6 	b	40d548 <_ZSt11__sort_heapIN9__gnu_cxx17__normal_iteratorIP2PTSt6vectorIS2_SaIS2_EEEENS0_5__ops15_Iter_comp_iterIPFbRKS2_SB_EEEEvT_SF_RT0_+0x2c8>
  40d574:	f9400680 	ldr	x0, [x20, #8]
  40d578:	b4000080 	cbz	x0, 40d588 <_ZSt11__sort_heapIN9__gnu_cxx17__normal_iteratorIP2PTSt6vectorIS2_SaIS2_EEEENS0_5__ops15_Iter_comp_iterIPFbRKS2_SB_EEEEvT_SF_RT0_+0x308>
  40d57c:	f9400e81 	ldr	x1, [x20, #24]
  40d580:	cb000021 	sub	x1, x1, x0
  40d584:	97ffd2cf 	bl	4020c0 <_ZdlPvm@plt>
  40d588:	9102c294 	add	x20, x20, #0xb0
  40d58c:	eb14037f 	cmp	x27, x20
  40d590:	54ffeb80 	b.eq	40d300 <_ZSt11__sort_heapIN9__gnu_cxx17__normal_iteratorIP2PTSt6vectorIS2_SaIS2_EEEENS0_5__ops15_Iter_comp_iterIPFbRKS2_SB_EEEEvT_SF_RT0_+0x80>  // b.none
  40d594:	9101e280 	add	x0, x20, #0x78
  40d598:	97ffd8b9 	bl	40387c <_ZNSt10_HashtableIiSt4pairIKiiESaIS2_ENSt8__detail10_Select1stESt8equal_toIiESt4hashIiENS4_18_Mod_range_hashingENS4_20_Default_ranged_hashENS4_20_Prime_rehash_policyENS4_17_Hashtable_traitsILb0ELb0ELb1EEEED1Ev>
  40d59c:	91010280 	add	x0, x20, #0x40
  40d5a0:	97ffd88e 	bl	4037d8 <_ZNSt10_HashtableINSt7__cxx1112basic_stringIcSt11char_traitsIcESaIcEEESt4pairIKS5_iESaIS8_ENSt8__detail10_Select1stESt8equal_toIS5_ESt4hashIS5_ENSA_18_Mod_range_hashingENSA_20_Default_ranged_hashENSA_20_Prime_rehash_policyENSA_17_Hashtable_traitsILb1ELb0ELb1EEEED1Ev>
  40d5a4:	f9401280 	ldr	x0, [x20, #32]
  40d5a8:	b4000080 	cbz	x0, 40d5b8 <_ZSt11__sort_heapIN9__gnu_cxx17__normal_iteratorIP2PTSt6vectorIS2_SaIS2_EEEENS0_5__ops15_Iter_comp_iterIPFbRKS2_SB_EEEEvT_SF_RT0_+0x338>
  40d5ac:	f9401a81 	ldr	x1, [x20, #48]
  40d5b0:	cb000021 	sub	x1, x1, x0
  40d5b4:	97ffd2c3 	bl	4020c0 <_ZdlPvm@plt>
  40d5b8:	f9400693 	ldr	x19, [x20, #8]
  40d5bc:	f9400a9a 	ldr	x26, [x20, #16]
  40d5c0:	eb1a027f 	cmp	x19, x26
  40d5c4:	54fffc81 	b.ne	40d554 <_ZSt11__sort_heapIN9__gnu_cxx17__normal_iteratorIP2PTSt6vectorIS2_SaIS2_EEEENS0_5__ops15_Iter_comp_iterIPFbRKS2_SB_EEEEvT_SF_RT0_+0x2d4>  // b.any
  40d5c8:	17ffffeb 	b	40d574 <_ZSt11__sort_heapIN9__gnu_cxx17__normal_iteratorIP2PTSt6vectorIS2_SaIS2_EEEENS0_5__ops15_Iter_comp_iterIPFbRKS2_SB_EEEEvT_SF_RT0_+0x2f4>
  40d5cc:	91008273 	add	x19, x19, #0x20
  40d5d0:	eb13035f 	cmp	x26, x19
  40d5d4:	54000120 	b.eq	40d5f8 <_ZSt11__sort_heapIN9__gnu_cxx17__normal_iteratorIP2PTSt6vectorIS2_SaIS2_EEEENS0_5__ops15_Iter_comp_iterIPFbRKS2_SB_EEEEvT_SF_RT0_+0x378>  // b.none
  40d5d8:	aa1303e1 	mov	x1, x19
  40d5dc:	f8410420 	ldr	x0, [x1], #16
  40d5e0:	eb01001f 	cmp	x0, x1
  40d5e4:	54ffff40 	b.eq	40d5cc <_ZSt11__sort_heapIN9__gnu_cxx17__normal_iteratorIP2PTSt6vectorIS2_SaIS2_EEEENS0_5__ops15_Iter_comp_iterIPFbRKS2_SB_EEEEvT_SF_RT0_+0x34c>  // b.none
  40d5e8:	f9400a61 	ldr	x1, [x19, #16]
  40d5ec:	91000421 	add	x1, x1, #0x1
  40d5f0:	97ffd2b4 	bl	4020c0 <_ZdlPvm@plt>
  40d5f4:	17fffff6 	b	40d5cc <_ZSt11__sort_heapIN9__gnu_cxx17__normal_iteratorIP2PTSt6vectorIS2_SaIS2_EEEENS0_5__ops15_Iter_comp_iterIPFbRKS2_SB_EEEEvT_SF_RT0_+0x34c>
  40d5f8:	f9400680 	ldr	x0, [x20, #8]
  40d5fc:	b4000080 	cbz	x0, 40d60c <_ZSt11__sort_heapIN9__gnu_cxx17__normal_iteratorIP2PTSt6vectorIS2_SaIS2_EEEENS0_5__ops15_Iter_comp_iterIPFbRKS2_SB_EEEEvT_SF_RT0_+0x38c>
  40d600:	f9400e81 	ldr	x1, [x20, #24]
  40d604:	cb000021 	sub	x1, x1, x0
  40d608:	97ffd2ae 	bl	4020c0 <_ZdlPvm@plt>
  40d60c:	9102c294 	add	x20, x20, #0xb0
  40d610:	eb14037f 	cmp	x27, x20
  40d614:	54ffe9c0 	b.eq	40d34c <_ZSt11__sort_heapIN9__gnu_cxx17__normal_iteratorIP2PTSt6vectorIS2_SaIS2_EEEENS0_5__ops15_Iter_comp_iterIPFbRKS2_SB_EEEEvT_SF_RT0_+0xcc>  // b.none
  40d618:	9101e280 	add	x0, x20, #0x78
  40d61c:	97ffd898 	bl	40387c <_ZNSt10_HashtableIiSt4pairIKiiESaIS2_ENSt8__detail10_Select1stESt8equal_toIiESt4hashIiENS4_18_Mod_range_hashingENS4_20_Default_ranged_hashENS4_20_Prime_rehash_policyENS4_17_Hashtable_traitsILb0ELb0ELb1EEEED1Ev>
  40d620:	91010280 	add	x0, x20, #0x40
  40d624:	97ffd86d 	bl	4037d8 <_ZNSt10_HashtableINSt7__cxx1112basic_stringIcSt11char_traitsIcESaIcEEESt4pairIKS5_iESaIS8_ENSt8__detail10_Select1stESt8equal_toIS5_ESt4hashIS5_ENSA_18_Mod_range_hashingENSA_20_Default_ranged_hashENSA_20_Prime_rehash_policyENSA_17_Hashtable_traitsILb1ELb0ELb1EEEED1Ev>
  40d628:	f9401280 	ldr	x0, [x20, #32]
  40d62c:	b4000080 	cbz	x0, 40d63c <_ZSt11__sort_heapIN9__gnu_cxx17__normal_iteratorIP2PTSt6vectorIS2_SaIS2_EEEENS0_5__ops15_Iter_comp_iterIPFbRKS2_SB_EEEEvT_SF_RT0_+0x3bc>
  40d630:	f9401a81 	ldr	x1, [x20, #48]
  40d634:	cb000021 	sub	x1, x1, x0
  40d638:	97ffd2a2 	bl	4020c0 <_ZdlPvm@plt>
  40d63c:	f9400693 	ldr	x19, [x20, #8]
  40d640:	f9400a9a 	ldr	x26, [x20, #16]
  40d644:	eb1a027f 	cmp	x19, x26
  40d648:	54fffc81 	b.ne	40d5d8 <_ZSt11__sort_heapIN9__gnu_cxx17__normal_iteratorIP2PTSt6vectorIS2_SaIS2_EEEENS0_5__ops15_Iter_comp_iterIPFbRKS2_SB_EEEEvT_SF_RT0_+0x358>  // b.any
  40d64c:	17ffffeb 	b	40d5f8 <_ZSt11__sort_heapIN9__gnu_cxx17__normal_iteratorIP2PTSt6vectorIS2_SaIS2_EEEENS0_5__ops15_Iter_comp_iterIPFbRKS2_SB_EEEEvT_SF_RT0_+0x378>
  40d650:	a94153f3 	ldp	x19, x20, [sp, #16]
  40d654:	a94363f7 	ldp	x23, x24, [sp, #48]
  40d658:	a9446bf9 	ldp	x25, x26, [sp, #64]
  40d65c:	f9402bfb 	ldr	x27, [sp, #80]
  40d660:	a9425bf5 	ldp	x21, x22, [sp, #32]
  40d664:	a8d17bfd 	ldp	x29, x30, [sp], #272
  40d668:	d65f03c0 	ret
  40d66c:	aa0003f3 	mov	x19, x0
  40d670:	9102e3e0 	add	x0, sp, #0xb8
  40d674:	97fff139 	bl	409b58 <_ZN2PTD1Ev>
  40d678:	910183e0 	add	x0, sp, #0x60
  40d67c:	97fff137 	bl	409b58 <_ZN2PTD1Ev>
  40d680:	aa1303e0 	mov	x0, x19
  40d684:	97ffd2f7 	bl	402260 <_Unwind_Resume@plt>

000000000040d688 <_ZSt16__introsort_loopIN9__gnu_cxx17__normal_iteratorIP2PTSt6vectorIS2_SaIS2_EEEElNS0_5__ops15_Iter_comp_iterIPFbRKS2_SB_EEEEvT_SF_T0_T1_>:
  40d688:	a9b97bfd 	stp	x29, x30, [sp, #-112]!
  40d68c:	910003fd 	mov	x29, sp
  40d690:	a9025bf5 	stp	x21, x22, [sp, #32]
  40d694:	aa0103f5 	mov	x21, x1
  40d698:	cb000021 	sub	x1, x1, x0
  40d69c:	f116003f 	cmp	x1, #0x580
  40d6a0:	540003ad 	b.le	40d714 <_ZSt16__introsort_loopIN9__gnu_cxx17__normal_iteratorIP2PTSt6vectorIS2_SaIS2_EEEElNS0_5__ops15_Iter_comp_iterIPFbRKS2_SB_EEEEvT_SF_T0_T1_+0x8c>
  40d6a4:	a90153f3 	stp	x19, x20, [sp, #16]
  40d6a8:	a90363f7 	stp	x23, x24, [sp, #48]
  40d6ac:	aa0003f4 	mov	x20, x0
  40d6b0:	aa0203f7 	mov	x23, x2
  40d6b4:	aa0303f6 	mov	x22, x3
  40d6b8:	b4000342 	cbz	x2, 40d720 <_ZSt16__introsort_loopIN9__gnu_cxx17__normal_iteratorIP2PTSt6vectorIS2_SaIS2_EEEElNS0_5__ops15_Iter_comp_iterIPFbRKS2_SB_EEEEvT_SF_T0_T1_+0x98>
  40d6bc:	a9046bf9 	stp	x25, x26, [sp, #64]
  40d6c0:	a90573fb 	stp	x27, x28, [sp, #80]
  40d6c4:	d291747a 	mov	x26, #0x8ba3                	// #35747
  40d6c8:	f2b745da 	movk	x26, #0xba2e, lsl #16
  40d6cc:	f2d45d1a 	movk	x26, #0xa2e8, lsl #32
  40d6d0:	f2e5d17a 	movk	x26, #0x2e8b, lsl #48
  40d6d4:	91016018 	add	x24, x0, #0x58
  40d6d8:	1400002a 	b	40d780 <_ZSt16__introsort_loopIN9__gnu_cxx17__normal_iteratorIP2PTSt6vectorIS2_SaIS2_EEEElNS0_5__ops15_Iter_comp_iterIPFbRKS2_SB_EEEEvT_SF_T0_T1_+0xf8>
  40d6dc:	a9446bf9 	ldp	x25, x26, [sp, #64]
  40d6e0:	a94573fb 	ldp	x27, x28, [sp, #80]
  40d6e4:	f90037f6 	str	x22, [sp, #104]
  40d6e8:	aa1603e3 	mov	x3, x22
  40d6ec:	aa1303e2 	mov	x2, x19
  40d6f0:	aa1303e1 	mov	x1, x19
  40d6f4:	aa1403e0 	mov	x0, x20
  40d6f8:	97fffe01 	bl	40cefc <_ZSt13__heap_selectIN9__gnu_cxx17__normal_iteratorIP2PTSt6vectorIS2_SaIS2_EEEENS0_5__ops15_Iter_comp_iterIPFbRKS2_SB_EEEEvT_SF_SF_T0_>
  40d6fc:	9101a3e2 	add	x2, sp, #0x68
  40d700:	aa1303e1 	mov	x1, x19
  40d704:	aa1403e0 	mov	x0, x20
  40d708:	97fffede 	bl	40d280 <_ZSt11__sort_heapIN9__gnu_cxx17__normal_iteratorIP2PTSt6vectorIS2_SaIS2_EEEENS0_5__ops15_Iter_comp_iterIPFbRKS2_SB_EEEEvT_SF_RT0_>
  40d70c:	a94153f3 	ldp	x19, x20, [sp, #16]
  40d710:	a94363f7 	ldp	x23, x24, [sp, #48]
  40d714:	a9425bf5 	ldp	x21, x22, [sp, #32]
  40d718:	a8c77bfd 	ldp	x29, x30, [sp], #112
  40d71c:	d65f03c0 	ret
  40d720:	aa1503f3 	mov	x19, x21
  40d724:	17fffff0 	b	40d6e4 <_ZSt16__introsort_loopIN9__gnu_cxx17__normal_iteratorIP2PTSt6vectorIS2_SaIS2_EEEElNS0_5__ops15_Iter_comp_iterIPFbRKS2_SB_EEEEvT_SF_T0_T1_+0x5c>
  40d728:	aa1303e1 	mov	x1, x19
  40d72c:	aa1403e0 	mov	x0, x20
  40d730:	97fff9b4 	bl	40be00 <_ZSt4swapI2PTENSt9enable_ifIXsrSt6__and_IJSt6__not_ISt15__is_tuple_likeIT_EESt21is_move_constructibleIS5_ESt18is_move_assignableIS5_EEE5valueEvE4typeERS5_SF_>
  40d734:	14000004 	b	40d744 <_ZSt16__introsort_loopIN9__gnu_cxx17__normal_iteratorIP2PTSt6vectorIS2_SaIS2_EEEElNS0_5__ops15_Iter_comp_iterIPFbRKS2_SB_EEEEvT_SF_T0_T1_+0xbc>
  40d738:	aa1803e1 	mov	x1, x24
  40d73c:	aa1403e0 	mov	x0, x20
  40d740:	97fff9b0 	bl	40be00 <_ZSt4swapI2PTENSt9enable_ifIXsrSt6__and_IJSt6__not_ISt15__is_tuple_likeIT_EESt21is_move_constructibleIS5_ESt18is_move_assignableIS5_EEE5valueEvE4typeERS5_SF_>
  40d744:	aa1603e3 	mov	x3, x22
  40d748:	aa1403e2 	mov	x2, x20
  40d74c:	aa1903e1 	mov	x1, x25
  40d750:	aa1803e0 	mov	x0, x24
  40d754:	97fff742 	bl	40b45c <_ZSt21__unguarded_partitionIN9__gnu_cxx17__normal_iteratorIP2PTSt6vectorIS2_SaIS2_EEEENS0_5__ops15_Iter_comp_iterIPFbRKS2_SB_EEEET_SF_SF_SF_T0_>
  40d758:	aa0003f3 	mov	x19, x0
  40d75c:	aa1603e3 	mov	x3, x22
  40d760:	aa1703e2 	mov	x2, x23
  40d764:	aa1503e1 	mov	x1, x21
  40d768:	97ffffc8 	bl	40d688 <_ZSt16__introsort_loopIN9__gnu_cxx17__normal_iteratorIP2PTSt6vectorIS2_SaIS2_EEEElNS0_5__ops15_Iter_comp_iterIPFbRKS2_SB_EEEEvT_SF_T0_T1_>
  40d76c:	cb140260 	sub	x0, x19, x20
  40d770:	f116001f 	cmp	x0, #0x580
  40d774:	5400072d 	b.le	40d858 <_ZSt16__introsort_loopIN9__gnu_cxx17__normal_iteratorIP2PTSt6vectorIS2_SaIS2_EEEElNS0_5__ops15_Iter_comp_iterIPFbRKS2_SB_EEEEvT_SF_T0_T1_+0x1d0>
  40d778:	b4fffb37 	cbz	x23, 40d6dc <_ZSt16__introsort_loopIN9__gnu_cxx17__normal_iteratorIP2PTSt6vectorIS2_SaIS2_EEEElNS0_5__ops15_Iter_comp_iterIPFbRKS2_SB_EEEEvT_SF_T0_T1_+0x54>
  40d77c:	aa1303f5 	mov	x21, x19
  40d780:	d10006f7 	sub	x23, x23, #0x1
  40d784:	aa1503f9 	mov	x25, x21
  40d788:	cb1402a1 	sub	x1, x21, x20
  40d78c:	9343fc21 	asr	x1, x1, #3
  40d790:	9b1a7c21 	mul	x1, x1, x26
  40d794:	8b41fc21 	add	x1, x1, x1, lsr #63
  40d798:	9341fc20 	asr	x0, x1, #1
  40d79c:	927ff833 	and	x19, x1, #0xfffffffffffffffe
  40d7a0:	8b000273 	add	x19, x19, x0
  40d7a4:	d37ef673 	lsl	x19, x19, #2
  40d7a8:	cb000273 	sub	x19, x19, x0
  40d7ac:	8b130e93 	add	x19, x20, x19, lsl #3
  40d7b0:	d10162bb 	sub	x27, x21, #0x58
  40d7b4:	aa1303e1 	mov	x1, x19
  40d7b8:	aa1803e0 	mov	x0, x24
  40d7bc:	d63f02c0 	blr	x22
  40d7c0:	12001c00 	and	w0, w0, #0xff
  40d7c4:	340001e0 	cbz	w0, 40d800 <_ZSt16__introsort_loopIN9__gnu_cxx17__normal_iteratorIP2PTSt6vectorIS2_SaIS2_EEEElNS0_5__ops15_Iter_comp_iterIPFbRKS2_SB_EEEEvT_SF_T0_T1_+0x178>
  40d7c8:	aa1b03e1 	mov	x1, x27
  40d7cc:	aa1303e0 	mov	x0, x19
  40d7d0:	d63f02c0 	blr	x22
  40d7d4:	12001c00 	and	w0, w0, #0xff
  40d7d8:	35fffa80 	cbnz	w0, 40d728 <_ZSt16__introsort_loopIN9__gnu_cxx17__normal_iteratorIP2PTSt6vectorIS2_SaIS2_EEEElNS0_5__ops15_Iter_comp_iterIPFbRKS2_SB_EEEEvT_SF_T0_T1_+0xa0>
  40d7dc:	aa1b03e1 	mov	x1, x27
  40d7e0:	aa1803e0 	mov	x0, x24
  40d7e4:	d63f02c0 	blr	x22
  40d7e8:	12001c00 	and	w0, w0, #0xff
  40d7ec:	34fffa60 	cbz	w0, 40d738 <_ZSt16__introsort_loopIN9__gnu_cxx17__normal_iteratorIP2PTSt6vectorIS2_SaIS2_EEEElNS0_5__ops15_Iter_comp_iterIPFbRKS2_SB_EEEEvT_SF_T0_T1_+0xb0>
  40d7f0:	aa1b03e1 	mov	x1, x27
  40d7f4:	aa1403e0 	mov	x0, x20
  40d7f8:	97fff982 	bl	40be00 <_ZSt4swapI2PTENSt9enable_ifIXsrSt6__and_IJSt6__not_ISt15__is_tuple_likeIT_EESt21is_move_constructibleIS5_ESt18is_move_assignableIS5_EEE5valueEvE4typeERS5_SF_>
  40d7fc:	17ffffd2 	b	40d744 <_ZSt16__introsort_loopIN9__gnu_cxx17__normal_iteratorIP2PTSt6vectorIS2_SaIS2_EEEElNS0_5__ops15_Iter_comp_iterIPFbRKS2_SB_EEEEvT_SF_T0_T1_+0xbc>
  40d800:	aa1b03e1 	mov	x1, x27
  40d804:	aa1803e0 	mov	x0, x24
  40d808:	d63f02c0 	blr	x22
  40d80c:	12001c00 	and	w0, w0, #0xff
  40d810:	35000140 	cbnz	w0, 40d838 <_ZSt16__introsort_loopIN9__gnu_cxx17__normal_iteratorIP2PTSt6vectorIS2_SaIS2_EEEElNS0_5__ops15_Iter_comp_iterIPFbRKS2_SB_EEEEvT_SF_T0_T1_+0x1b0>
  40d814:	aa1b03e1 	mov	x1, x27
  40d818:	aa1303e0 	mov	x0, x19
  40d81c:	d63f02c0 	blr	x22
  40d820:	12001c00 	and	w0, w0, #0xff
  40d824:	34000120 	cbz	w0, 40d848 <_ZSt16__introsort_loopIN9__gnu_cxx17__normal_iteratorIP2PTSt6vectorIS2_SaIS2_EEEElNS0_5__ops15_Iter_comp_iterIPFbRKS2_SB_EEEEvT_SF_T0_T1_+0x1c0>
  40d828:	aa1b03e1 	mov	x1, x27
  40d82c:	aa1403e0 	mov	x0, x20
  40d830:	97fff974 	bl	40be00 <_ZSt4swapI2PTENSt9enable_ifIXsrSt6__and_IJSt6__not_ISt15__is_tuple_likeIT_EESt21is_move_constructibleIS5_ESt18is_move_assignableIS5_EEE5valueEvE4typeERS5_SF_>
  40d834:	17ffffc4 	b	40d744 <_ZSt16__introsort_loopIN9__gnu_cxx17__normal_iteratorIP2PTSt6vectorIS2_SaIS2_EEEElNS0_5__ops15_Iter_comp_iterIPFbRKS2_SB_EEEEvT_SF_T0_T1_+0xbc>
  40d838:	aa1803e1 	mov	x1, x24
  40d83c:	aa1403e0 	mov	x0, x20
  40d840:	97fff970 	bl	40be00 <_ZSt4swapI2PTENSt9enable_ifIXsrSt6__and_IJSt6__not_ISt15__is_tuple_likeIT_EESt21is_move_constructibleIS5_ESt18is_move_assignableIS5_EEE5valueEvE4typeERS5_SF_>
  40d844:	17ffffc0 	b	40d744 <_ZSt16__introsort_loopIN9__gnu_cxx17__normal_iteratorIP2PTSt6vectorIS2_SaIS2_EEEElNS0_5__ops15_Iter_comp_iterIPFbRKS2_SB_EEEEvT_SF_T0_T1_+0xbc>
  40d848:	aa1303e1 	mov	x1, x19
  40d84c:	aa1403e0 	mov	x0, x20
  40d850:	97fff96c 	bl	40be00 <_ZSt4swapI2PTENSt9enable_ifIXsrSt6__and_IJSt6__not_ISt15__is_tuple_likeIT_EESt21is_move_constructibleIS5_ESt18is_move_assignableIS5_EEE5valueEvE4typeERS5_SF_>
  40d854:	17ffffbc 	b	40d744 <_ZSt16__introsort_loopIN9__gnu_cxx17__normal_iteratorIP2PTSt6vectorIS2_SaIS2_EEEElNS0_5__ops15_Iter_comp_iterIPFbRKS2_SB_EEEEvT_SF_T0_T1_+0xbc>
  40d858:	a94153f3 	ldp	x19, x20, [sp, #16]
  40d85c:	a94363f7 	ldp	x23, x24, [sp, #48]
  40d860:	a9446bf9 	ldp	x25, x26, [sp, #64]
  40d864:	a94573fb 	ldp	x27, x28, [sp, #80]
  40d868:	17ffffab 	b	40d714 <_ZSt16__introsort_loopIN9__gnu_cxx17__normal_iteratorIP2PTSt6vectorIS2_SaIS2_EEEElNS0_5__ops15_Iter_comp_iterIPFbRKS2_SB_EEEEvT_SF_T0_T1_+0x8c>

000000000040d86c <_ZN13PriorityQueue7CalProbER2PT>:
  40d86c:	a9ae7bfd 	stp	x29, x30, [sp, #-288]!
  40d870:	910003fd 	mov	x29, sp
  40d874:	a9025bf5 	stp	x21, x22, [sp, #32]
  40d878:	a90573fb 	stp	x27, x28, [sp, #80]
  40d87c:	bd405020 	ldr	s0, [x1, #80]
  40d880:	bd005420 	str	s0, [x1, #84]
  40d884:	f9401036 	ldr	x22, [x1, #32]
  40d888:	f940143b 	ldr	x27, [x1, #40]
  40d88c:	eb1b02df 	cmp	x22, x27
  40d890:	54002820 	b.eq	40dd94 <_ZN13PriorityQueue7CalProbER2PT+0x528>  // b.none
  40d894:	a90153f3 	stp	x19, x20, [sp, #16]
  40d898:	a90363f7 	stp	x23, x24, [sp, #48]
  40d89c:	a9046bf9 	stp	x25, x26, [sp, #64]
  40d8a0:	aa0003f7 	mov	x23, x0
  40d8a4:	aa0103f5 	mov	x21, x1
  40d8a8:	d2800013 	mov	x19, #0x0                   	// #0
  40d8ac:	9100601a 	add	x26, x0, #0x18
  40d8b0:	9101c3e0 	add	x0, sp, #0x70
  40d8b4:	9103a3f9 	add	x25, sp, #0xe8
  40d8b8:	91010000 	add	x0, x0, #0x40
  40d8bc:	f90037e0 	str	x0, [sp, #104]
  40d8c0:	1400005d 	b	40da34 <_ZN13PriorityQueue7CalProbER2PT+0x1c8>
  40d8c4:	93407c01 	sxtw	x1, w0
  40d8c8:	f94026e2 	ldr	x2, [x23, #72]
  40d8cc:	8b20c420 	add	x0, x1, w0, sxtw #1
  40d8d0:	d37ef400 	lsl	x0, x0, #2
  40d8d4:	cb010000 	sub	x0, x0, x1
  40d8d8:	8b001040 	add	x0, x2, x0, lsl #4
  40d8dc:	f9401000 	ldr	x0, [x0, #32]
  40d8e0:	bc78d801 	ldr	s1, [x0, w24, sxtw #2]
  40d8e4:	5e21d821 	scvtf	s1, s1
  40d8e8:	bd4056a0 	ldr	s0, [x21, #84]
  40d8ec:	1e210800 	fmul	s0, s0, s1
  40d8f0:	bd0056a0 	str	s0, [x21, #84]
  40d8f4:	aa1903e0 	mov	x0, x25
  40d8f8:	97ffd7e1 	bl	40387c <_ZNSt10_HashtableIiSt4pairIKiiESaIS2_ENSt8__detail10_Select1stESt8equal_toIiESt4hashIiENS4_18_Mod_range_hashingENS4_20_Default_ranged_hashENS4_20_Prime_rehash_policyENS4_17_Hashtable_traitsILb0ELb0ELb1EEEED1Ev>
  40d8fc:	f94037e0 	ldr	x0, [sp, #104]
  40d900:	97ffd7b6 	bl	4037d8 <_ZNSt10_HashtableINSt7__cxx1112basic_stringIcSt11char_traitsIcESaIcEEESt4pairIKS5_iESaIS8_ENSt8__detail10_Select1stESt8equal_toIS5_ESt4hashIS5_ENSA_18_Mod_range_hashingENSA_20_Default_ranged_hashENSA_20_Prime_rehash_policyENSA_17_Hashtable_traitsILb1ELb0ELb1EEEED1Ev>
  40d904:	f9404be0 	ldr	x0, [sp, #144]
  40d908:	b4000080 	cbz	x0, 40d918 <_ZN13PriorityQueue7CalProbER2PT+0xac>
  40d90c:	f94053e1 	ldr	x1, [sp, #160]
  40d910:	cb000021 	sub	x1, x1, x0
  40d914:	97ffd1eb 	bl	4020c0 <_ZdlPvm@plt>
  40d918:	f9403ff4 	ldr	x20, [sp, #120]
  40d91c:	f94043fc 	ldr	x28, [sp, #128]
  40d920:	eb1c029f 	cmp	x20, x28
  40d924:	54000221 	b.ne	40d968 <_ZN13PriorityQueue7CalProbER2PT+0xfc>  // b.any
  40d928:	f9403fe0 	ldr	x0, [sp, #120]
  40d92c:	b4000080 	cbz	x0, 40d93c <_ZN13PriorityQueue7CalProbER2PT+0xd0>
  40d930:	f94047e1 	ldr	x1, [sp, #136]
  40d934:	cb000021 	sub	x1, x1, x0
  40d938:	97ffd1e2 	bl	4020c0 <_ZdlPvm@plt>
  40d93c:	f94002a1 	ldr	x1, [x21]
  40d940:	8b130021 	add	x1, x1, x19
  40d944:	9101c3e0 	add	x0, sp, #0x70
  40d948:	97fff34f 	bl	40a684 <_ZN7segmentC1ERKS_>
  40d94c:	9101c3e1 	add	x1, sp, #0x70
  40d950:	aa1a03e0 	mov	x0, x26
  40d954:	97ffda1d 	bl	4041c8 <_ZN5model10FindLetterE7segment>
  40d958:	1400000c 	b	40d988 <_ZN13PriorityQueue7CalProbER2PT+0x11c>
  40d95c:	91008294 	add	x20, x20, #0x20
  40d960:	eb14039f 	cmp	x28, x20
  40d964:	54fffe20 	b.eq	40d928 <_ZN13PriorityQueue7CalProbER2PT+0xbc>  // b.none
  40d968:	aa1403e1 	mov	x1, x20
  40d96c:	f8410420 	ldr	x0, [x1], #16
  40d970:	eb01001f 	cmp	x0, x1
  40d974:	54ffff40 	b.eq	40d95c <_ZN13PriorityQueue7CalProbER2PT+0xf0>  // b.none
  40d978:	f9400a81 	ldr	x1, [x20, #16]
  40d97c:	91000421 	add	x1, x1, #0x1
  40d980:	97ffd1d0 	bl	4020c0 <_ZdlPvm@plt>
  40d984:	17fffff6 	b	40d95c <_ZN13PriorityQueue7CalProbER2PT+0xf0>
  40d988:	93407c01 	sxtw	x1, w0
  40d98c:	f94026e2 	ldr	x2, [x23, #72]
  40d990:	8b20c420 	add	x0, x1, w0, sxtw #1
  40d994:	d37ef400 	lsl	x0, x0, #2
  40d998:	cb010000 	sub	x0, x0, x1
  40d99c:	8b001040 	add	x0, x2, x0, lsl #4
  40d9a0:	bd403801 	ldr	s1, [x0, #56]
  40d9a4:	5e21d821 	scvtf	s1, s1
  40d9a8:	bd4056a0 	ldr	s0, [x21, #84]
  40d9ac:	1e211800 	fdiv	s0, s0, s1
  40d9b0:	bd0056a0 	str	s0, [x21, #84]
  40d9b4:	aa1903e0 	mov	x0, x25
  40d9b8:	97ffd7b1 	bl	40387c <_ZNSt10_HashtableIiSt4pairIKiiESaIS2_ENSt8__detail10_Select1stESt8equal_toIiESt4hashIiENS4_18_Mod_range_hashingENS4_20_Default_ranged_hashENS4_20_Prime_rehash_policyENS4_17_Hashtable_traitsILb0ELb0ELb1EEEED1Ev>
  40d9bc:	f94037e0 	ldr	x0, [sp, #104]
  40d9c0:	97ffd786 	bl	4037d8 <_ZNSt10_HashtableINSt7__cxx1112basic_stringIcSt11char_traitsIcESaIcEEESt4pairIKS5_iESaIS8_ENSt8__detail10_Select1stESt8equal_toIS5_ESt4hashIS5_ENSA_18_Mod_range_hashingENSA_20_Default_ranged_hashENSA_20_Prime_rehash_policyENSA_17_Hashtable_traitsILb1ELb0ELb1EEEED1Ev>
  40d9c4:	f9404be0 	ldr	x0, [sp, #144]
  40d9c8:	b4000080 	cbz	x0, 40d9d8 <_ZN13PriorityQueue7CalProbER2PT+0x16c>
  40d9cc:	f94053e1 	ldr	x1, [sp, #160]
  40d9d0:	cb000021 	sub	x1, x1, x0
  40d9d4:	97ffd1bb 	bl	4020c0 <_ZdlPvm@plt>
  40d9d8:	f9403ff4 	ldr	x20, [sp, #120]
  40d9dc:	f94043fc 	ldr	x28, [sp, #128]
  40d9e0:	eb1c029f 	cmp	x20, x28
  40d9e4:	54000461 	b.ne	40da70 <_ZN13PriorityQueue7CalProbER2PT+0x204>  // b.any
  40d9e8:	f9403fe0 	ldr	x0, [sp, #120]
  40d9ec:	b4000080 	cbz	x0, 40d9fc <_ZN13PriorityQueue7CalProbER2PT+0x190>
  40d9f0:	f94047e1 	ldr	x1, [sp, #136]
  40d9f4:	cb000021 	sub	x1, x1, x0
  40d9f8:	97ffd1b2 	bl	4020c0 <_ZdlPvm@plt>
  40d9fc:	f94002a0 	ldr	x0, [x21]
  40da00:	8b130001 	add	x1, x0, x19
  40da04:	b8736800 	ldr	w0, [x0, x19]
  40da08:	7100081f 	cmp	w0, #0x2
  40da0c:	54000420 	b.eq	40da90 <_ZN13PriorityQueue7CalProbER2PT+0x224>  // b.none
  40da10:	f94002a0 	ldr	x0, [x21]
  40da14:	8b130001 	add	x1, x0, x19
  40da18:	b8736800 	ldr	w0, [x0, x19]
  40da1c:	71000c1f 	cmp	w0, #0x3
  40da20:	54000f60 	b.eq	40dc0c <_ZN13PriorityQueue7CalProbER2PT+0x3a0>  // b.none
  40da24:	910012d6 	add	x22, x22, #0x4
  40da28:	9102c273 	add	x19, x19, #0xb0
  40da2c:	eb16037f 	cmp	x27, x22
  40da30:	54001ac0 	b.eq	40dd88 <_ZN13PriorityQueue7CalProbER2PT+0x51c>  // b.none
  40da34:	b94002d8 	ldr	w24, [x22]
  40da38:	f94002a0 	ldr	x0, [x21]
  40da3c:	8b130001 	add	x1, x0, x19
  40da40:	b8736800 	ldr	w0, [x0, x19]
  40da44:	7100041f 	cmp	w0, #0x1
  40da48:	54fffda1 	b.ne	40d9fc <_ZN13PriorityQueue7CalProbER2PT+0x190>  // b.any
  40da4c:	9101c3e0 	add	x0, sp, #0x70
  40da50:	97fff30d 	bl	40a684 <_ZN7segmentC1ERKS_>
  40da54:	9101c3e1 	add	x1, sp, #0x70
  40da58:	aa1a03e0 	mov	x0, x26
  40da5c:	97ffd9db 	bl	4041c8 <_ZN5model10FindLetterE7segment>
  40da60:	17ffff99 	b	40d8c4 <_ZN13PriorityQueue7CalProbER2PT+0x58>
  40da64:	91008294 	add	x20, x20, #0x20
  40da68:	eb14039f 	cmp	x28, x20
  40da6c:	54fffbe0 	b.eq	40d9e8 <_ZN13PriorityQueue7CalProbER2PT+0x17c>  // b.none
  40da70:	aa1403e1 	mov	x1, x20
  40da74:	f8410420 	ldr	x0, [x1], #16
  40da78:	eb01001f 	cmp	x0, x1
  40da7c:	54ffff40 	b.eq	40da64 <_ZN13PriorityQueue7CalProbER2PT+0x1f8>  // b.none
  40da80:	f9400a81 	ldr	x1, [x20, #16]
  40da84:	91000421 	add	x1, x1, #0x1
  40da88:	97ffd18e 	bl	4020c0 <_ZdlPvm@plt>
  40da8c:	17fffff6 	b	40da64 <_ZN13PriorityQueue7CalProbER2PT+0x1f8>
  40da90:	9101c3e0 	add	x0, sp, #0x70
  40da94:	97fff2fc 	bl	40a684 <_ZN7segmentC1ERKS_>
  40da98:	9101c3e1 	add	x1, sp, #0x70
  40da9c:	aa1a03e0 	mov	x0, x26
  40daa0:	97ffd9e3 	bl	40422c <_ZN5model9FindDigitE7segment>
  40daa4:	93407c01 	sxtw	x1, w0
  40daa8:	f94032e2 	ldr	x2, [x23, #96]
  40daac:	8b20c420 	add	x0, x1, w0, sxtw #1
  40dab0:	d37ef400 	lsl	x0, x0, #2
  40dab4:	cb010000 	sub	x0, x0, x1
  40dab8:	8b001040 	add	x0, x2, x0, lsl #4
  40dabc:	f9401000 	ldr	x0, [x0, #32]
  40dac0:	bc78d801 	ldr	s1, [x0, w24, sxtw #2]
  40dac4:	5e21d821 	scvtf	s1, s1
  40dac8:	bd4056a0 	ldr	s0, [x21, #84]
  40dacc:	1e210800 	fmul	s0, s0, s1
  40dad0:	bd0056a0 	str	s0, [x21, #84]
  40dad4:	aa1903e0 	mov	x0, x25
  40dad8:	97ffd769 	bl	40387c <_ZNSt10_HashtableIiSt4pairIKiiESaIS2_ENSt8__detail10_Select1stESt8equal_toIiESt4hashIiENS4_18_Mod_range_hashingENS4_20_Default_ranged_hashENS4_20_Prime_rehash_policyENS4_17_Hashtable_traitsILb0ELb0ELb1EEEED1Ev>
  40dadc:	f94037e0 	ldr	x0, [sp, #104]
  40dae0:	97ffd73e 	bl	4037d8 <_ZNSt10_HashtableINSt7__cxx1112basic_stringIcSt11char_traitsIcESaIcEEESt4pairIKS5_iESaIS8_ENSt8__detail10_Select1stESt8equal_toIS5_ESt4hashIS5_ENSA_18_Mod_range_hashingENSA_20_Default_ranged_hashENSA_20_Prime_rehash_policyENSA_17_Hashtable_traitsILb1ELb0ELb1EEEED1Ev>
  40dae4:	f9404be0 	ldr	x0, [sp, #144]
  40dae8:	b4000080 	cbz	x0, 40daf8 <_ZN13PriorityQueue7CalProbER2PT+0x28c>
  40daec:	f94053e1 	ldr	x1, [sp, #160]
  40daf0:	cb000021 	sub	x1, x1, x0
  40daf4:	97ffd173 	bl	4020c0 <_ZdlPvm@plt>
  40daf8:	f9403ff4 	ldr	x20, [sp, #120]
  40dafc:	f94043fc 	ldr	x28, [sp, #128]
  40db00:	eb1c029f 	cmp	x20, x28
  40db04:	54000221 	b.ne	40db48 <_ZN13PriorityQueue7CalProbER2PT+0x2dc>  // b.any
  40db08:	f9403fe0 	ldr	x0, [sp, #120]
  40db0c:	b4000080 	cbz	x0, 40db1c <_ZN13PriorityQueue7CalProbER2PT+0x2b0>
  40db10:	f94047e1 	ldr	x1, [sp, #136]
  40db14:	cb000021 	sub	x1, x1, x0
  40db18:	97ffd16a 	bl	4020c0 <_ZdlPvm@plt>
  40db1c:	f94002a1 	ldr	x1, [x21]
  40db20:	8b130021 	add	x1, x1, x19
  40db24:	9101c3e0 	add	x0, sp, #0x70
  40db28:	97fff2d7 	bl	40a684 <_ZN7segmentC1ERKS_>
  40db2c:	9101c3e1 	add	x1, sp, #0x70
  40db30:	aa1a03e0 	mov	x0, x26
  40db34:	97ffd9be 	bl	40422c <_ZN5model9FindDigitE7segment>
  40db38:	1400000c 	b	40db68 <_ZN13PriorityQueue7CalProbER2PT+0x2fc>
  40db3c:	91008294 	add	x20, x20, #0x20
  40db40:	eb14039f 	cmp	x28, x20
  40db44:	54fffe20 	b.eq	40db08 <_ZN13PriorityQueue7CalProbER2PT+0x29c>  // b.none
  40db48:	aa1403e1 	mov	x1, x20
  40db4c:	f8410420 	ldr	x0, [x1], #16
  40db50:	eb01001f 	cmp	x0, x1
  40db54:	54ffff40 	b.eq	40db3c <_ZN13PriorityQueue7CalProbER2PT+0x2d0>  // b.none
  40db58:	f9400a81 	ldr	x1, [x20, #16]
  40db5c:	91000421 	add	x1, x1, #0x1
  40db60:	97ffd158 	bl	4020c0 <_ZdlPvm@plt>
  40db64:	17fffff6 	b	40db3c <_ZN13PriorityQueue7CalProbER2PT+0x2d0>
  40db68:	93407c01 	sxtw	x1, w0
  40db6c:	f94032e2 	ldr	x2, [x23, #96]
  40db70:	8b20c420 	add	x0, x1, w0, sxtw #1
  40db74:	d37ef400 	lsl	x0, x0, #2
  40db78:	cb010000 	sub	x0, x0, x1
  40db7c:	8b001040 	add	x0, x2, x0, lsl #4
  40db80:	bd403801 	ldr	s1, [x0, #56]
  40db84:	5e21d821 	scvtf	s1, s1
  40db88:	bd4056a0 	ldr	s0, [x21, #84]
  40db8c:	1e211800 	fdiv	s0, s0, s1
  40db90:	bd0056a0 	str	s0, [x21, #84]
  40db94:	aa1903e0 	mov	x0, x25
  40db98:	97ffd739 	bl	40387c <_ZNSt10_HashtableIiSt4pairIKiiESaIS2_ENSt8__detail10_Select1stESt8equal_toIiESt4hashIiENS4_18_Mod_range_hashingENS4_20_Default_ranged_hashENS4_20_Prime_rehash_policyENS4_17_Hashtable_traitsILb0ELb0ELb1EEEED1Ev>
  40db9c:	f94037e0 	ldr	x0, [sp, #104]
  40dba0:	97ffd70e 	bl	4037d8 <_ZNSt10_HashtableINSt7__cxx1112basic_stringIcSt11char_traitsIcESaIcEEESt4pairIKS5_iESaIS8_ENSt8__detail10_Select1stESt8equal_toIS5_ESt4hashIS5_ENSA_18_Mod_range_hashingENSA_20_Default_ranged_hashENSA_20_Prime_rehash_policyENSA_17_Hashtable_traitsILb1ELb0ELb1EEEED1Ev>
  40dba4:	f9404be0 	ldr	x0, [sp, #144]
  40dba8:	b4000080 	cbz	x0, 40dbb8 <_ZN13PriorityQueue7CalProbER2PT+0x34c>
  40dbac:	f94053e1 	ldr	x1, [sp, #160]
  40dbb0:	cb000021 	sub	x1, x1, x0
  40dbb4:	97ffd143 	bl	4020c0 <_ZdlPvm@plt>
  40dbb8:	f9403ff4 	ldr	x20, [sp, #120]
  40dbbc:	f94043fc 	ldr	x28, [sp, #128]
  40dbc0:	eb1c029f 	cmp	x20, x28
  40dbc4:	54000141 	b.ne	40dbec <_ZN13PriorityQueue7CalProbER2PT+0x380>  // b.any
  40dbc8:	f9403fe0 	ldr	x0, [sp, #120]
  40dbcc:	b4fff220 	cbz	x0, 40da10 <_ZN13PriorityQueue7CalProbER2PT+0x1a4>
  40dbd0:	f94047e1 	ldr	x1, [sp, #136]
  40dbd4:	cb000021 	sub	x1, x1, x0
  40dbd8:	97ffd13a 	bl	4020c0 <_ZdlPvm@plt>
  40dbdc:	17ffff8d 	b	40da10 <_ZN13PriorityQueue7CalProbER2PT+0x1a4>
  40dbe0:	91008294 	add	x20, x20, #0x20
  40dbe4:	eb14039f 	cmp	x28, x20
  40dbe8:	54ffff00 	b.eq	40dbc8 <_ZN13PriorityQueue7CalProbER2PT+0x35c>  // b.none
  40dbec:	aa1403e1 	mov	x1, x20
  40dbf0:	f8410420 	ldr	x0, [x1], #16
  40dbf4:	eb01001f 	cmp	x0, x1
  40dbf8:	54ffff40 	b.eq	40dbe0 <_ZN13PriorityQueue7CalProbER2PT+0x374>  // b.none
  40dbfc:	f9400a81 	ldr	x1, [x20, #16]
  40dc00:	91000421 	add	x1, x1, #0x1
  40dc04:	97ffd12f 	bl	4020c0 <_ZdlPvm@plt>
  40dc08:	17fffff6 	b	40dbe0 <_ZN13PriorityQueue7CalProbER2PT+0x374>
  40dc0c:	9101c3e0 	add	x0, sp, #0x70
  40dc10:	97fff29d 	bl	40a684 <_ZN7segmentC1ERKS_>
  40dc14:	9101c3e1 	add	x1, sp, #0x70
  40dc18:	aa1a03e0 	mov	x0, x26
  40dc1c:	97ffd99d 	bl	404290 <_ZN5model10FindSymbolE7segment>
  40dc20:	93407c01 	sxtw	x1, w0
  40dc24:	f9403ee2 	ldr	x2, [x23, #120]
  40dc28:	8b20c420 	add	x0, x1, w0, sxtw #1
  40dc2c:	d37ef400 	lsl	x0, x0, #2
  40dc30:	cb010000 	sub	x0, x0, x1
  40dc34:	8b001040 	add	x0, x2, x0, lsl #4
  40dc38:	f9401000 	ldr	x0, [x0, #32]
  40dc3c:	bc78d801 	ldr	s1, [x0, w24, sxtw #2]
  40dc40:	5e21d821 	scvtf	s1, s1
  40dc44:	bd4056a0 	ldr	s0, [x21, #84]
  40dc48:	1e210800 	fmul	s0, s0, s1
  40dc4c:	bd0056a0 	str	s0, [x21, #84]
  40dc50:	aa1903e0 	mov	x0, x25
  40dc54:	97ffd70a 	bl	40387c <_ZNSt10_HashtableIiSt4pairIKiiESaIS2_ENSt8__detail10_Select1stESt8equal_toIiESt4hashIiENS4_18_Mod_range_hashingENS4_20_Default_ranged_hashENS4_20_Prime_rehash_policyENS4_17_Hashtable_traitsILb0ELb0ELb1EEEED1Ev>
  40dc58:	f94037e0 	ldr	x0, [sp, #104]
  40dc5c:	97ffd6df 	bl	4037d8 <_ZNSt10_HashtableINSt7__cxx1112basic_stringIcSt11char_traitsIcESaIcEEESt4pairIKS5_iESaIS8_ENSt8__detail10_Select1stESt8equal_toIS5_ESt4hashIS5_ENSA_18_Mod_range_hashingENSA_20_Default_ranged_hashENSA_20_Prime_rehash_policyENSA_17_Hashtable_traitsILb1ELb0ELb1EEEED1Ev>
  40dc60:	f9404be0 	ldr	x0, [sp, #144]
  40dc64:	b4000080 	cbz	x0, 40dc74 <_ZN13PriorityQueue7CalProbER2PT+0x408>
  40dc68:	f94053e1 	ldr	x1, [sp, #160]
  40dc6c:	cb000021 	sub	x1, x1, x0
  40dc70:	97ffd114 	bl	4020c0 <_ZdlPvm@plt>
  40dc74:	f9403ff4 	ldr	x20, [sp, #120]
  40dc78:	f94043f8 	ldr	x24, [sp, #128]
  40dc7c:	eb18029f 	cmp	x20, x24
  40dc80:	54000221 	b.ne	40dcc4 <_ZN13PriorityQueue7CalProbER2PT+0x458>  // b.any
  40dc84:	f9403fe0 	ldr	x0, [sp, #120]
  40dc88:	b4000080 	cbz	x0, 40dc98 <_ZN13PriorityQueue7CalProbER2PT+0x42c>
  40dc8c:	f94047e1 	ldr	x1, [sp, #136]
  40dc90:	cb000021 	sub	x1, x1, x0
  40dc94:	97ffd10b 	bl	4020c0 <_ZdlPvm@plt>
  40dc98:	f94002a1 	ldr	x1, [x21]
  40dc9c:	8b130021 	add	x1, x1, x19
  40dca0:	9101c3e0 	add	x0, sp, #0x70
  40dca4:	97fff278 	bl	40a684 <_ZN7segmentC1ERKS_>
  40dca8:	9101c3e1 	add	x1, sp, #0x70
  40dcac:	aa1a03e0 	mov	x0, x26
  40dcb0:	97ffd978 	bl	404290 <_ZN5model10FindSymbolE7segment>
  40dcb4:	1400000c 	b	40dce4 <_ZN13PriorityQueue7CalProbER2PT+0x478>
  40dcb8:	91008294 	add	x20, x20, #0x20
  40dcbc:	eb14031f 	cmp	x24, x20
  40dcc0:	54fffe20 	b.eq	40dc84 <_ZN13PriorityQueue7CalProbER2PT+0x418>  // b.none
  40dcc4:	aa1403e1 	mov	x1, x20
  40dcc8:	f8410420 	ldr	x0, [x1], #16
  40dccc:	eb01001f 	cmp	x0, x1
  40dcd0:	54ffff40 	b.eq	40dcb8 <_ZN13PriorityQueue7CalProbER2PT+0x44c>  // b.none
  40dcd4:	f9400a81 	ldr	x1, [x20, #16]
  40dcd8:	91000421 	add	x1, x1, #0x1
  40dcdc:	97ffd0f9 	bl	4020c0 <_ZdlPvm@plt>
  40dce0:	17fffff6 	b	40dcb8 <_ZN13PriorityQueue7CalProbER2PT+0x44c>
  40dce4:	93407c01 	sxtw	x1, w0
  40dce8:	f9403ee2 	ldr	x2, [x23, #120]
  40dcec:	8b20c420 	add	x0, x1, w0, sxtw #1
  40dcf0:	d37ef400 	lsl	x0, x0, #2
  40dcf4:	cb010000 	sub	x0, x0, x1
  40dcf8:	8b001040 	add	x0, x2, x0, lsl #4
  40dcfc:	bd403801 	ldr	s1, [x0, #56]
  40dd00:	5e21d821 	scvtf	s1, s1
  40dd04:	bd4056a0 	ldr	s0, [x21, #84]
  40dd08:	1e211800 	fdiv	s0, s0, s1
  40dd0c:	bd0056a0 	str	s0, [x21, #84]
  40dd10:	aa1903e0 	mov	x0, x25
  40dd14:	97ffd6da 	bl	40387c <_ZNSt10_HashtableIiSt4pairIKiiESaIS2_ENSt8__detail10_Select1stESt8equal_toIiESt4hashIiENS4_18_Mod_range_hashingENS4_20_Default_ranged_hashENS4_20_Prime_rehash_policyENS4_17_Hashtable_traitsILb0ELb0ELb1EEEED1Ev>
  40dd18:	f94037e0 	ldr	x0, [sp, #104]
  40dd1c:	97ffd6af 	bl	4037d8 <_ZNSt10_HashtableINSt7__cxx1112basic_stringIcSt11char_traitsIcESaIcEEESt4pairIKS5_iESaIS8_ENSt8__detail10_Select1stESt8equal_toIS5_ESt4hashIS5_ENSA_18_Mod_range_hashingENSA_20_Default_ranged_hashENSA_20_Prime_rehash_policyENSA_17_Hashtable_traitsILb1ELb0ELb1EEEED1Ev>
  40dd20:	f9404be0 	ldr	x0, [sp, #144]
  40dd24:	b4000080 	cbz	x0, 40dd34 <_ZN13PriorityQueue7CalProbER2PT+0x4c8>
  40dd28:	f94053e1 	ldr	x1, [sp, #160]
  40dd2c:	cb000021 	sub	x1, x1, x0
  40dd30:	97ffd0e4 	bl	4020c0 <_ZdlPvm@plt>
  40dd34:	f9403ff4 	ldr	x20, [sp, #120]
  40dd38:	f94043f8 	ldr	x24, [sp, #128]
  40dd3c:	eb18029f 	cmp	x20, x24
  40dd40:	54000141 	b.ne	40dd68 <_ZN13PriorityQueue7CalProbER2PT+0x4fc>  // b.any
  40dd44:	f9403fe0 	ldr	x0, [sp, #120]
  40dd48:	b4ffe6e0 	cbz	x0, 40da24 <_ZN13PriorityQueue7CalProbER2PT+0x1b8>
  40dd4c:	f94047e1 	ldr	x1, [sp, #136]
  40dd50:	cb000021 	sub	x1, x1, x0
  40dd54:	97ffd0db 	bl	4020c0 <_ZdlPvm@plt>
  40dd58:	17ffff33 	b	40da24 <_ZN13PriorityQueue7CalProbER2PT+0x1b8>
  40dd5c:	91008294 	add	x20, x20, #0x20
  40dd60:	eb14031f 	cmp	x24, x20
  40dd64:	54ffff00 	b.eq	40dd44 <_ZN13PriorityQueue7CalProbER2PT+0x4d8>  // b.none
  40dd68:	aa1403e1 	mov	x1, x20
  40dd6c:	f8410420 	ldr	x0, [x1], #16
  40dd70:	eb01001f 	cmp	x0, x1
  40dd74:	54ffff40 	b.eq	40dd5c <_ZN13PriorityQueue7CalProbER2PT+0x4f0>  // b.none
  40dd78:	f9400a81 	ldr	x1, [x20, #16]
  40dd7c:	91000421 	add	x1, x1, #0x1
  40dd80:	97ffd0d0 	bl	4020c0 <_ZdlPvm@plt>
  40dd84:	17fffff6 	b	40dd5c <_ZN13PriorityQueue7CalProbER2PT+0x4f0>
  40dd88:	a94153f3 	ldp	x19, x20, [sp, #16]
  40dd8c:	a94363f7 	ldp	x23, x24, [sp, #48]
  40dd90:	a9446bf9 	ldp	x25, x26, [sp, #64]
  40dd94:	a9425bf5 	ldp	x21, x22, [sp, #32]
  40dd98:	a94573fb 	ldp	x27, x28, [sp, #80]
  40dd9c:	a8d27bfd 	ldp	x29, x30, [sp], #288
  40dda0:	d65f03c0 	ret
  40dda4:	aa0003f3 	mov	x19, x0
  40dda8:	9101c3e0 	add	x0, sp, #0x70
  40ddac:	97ffef10 	bl	4099ec <_ZN7segmentD1Ev>
  40ddb0:	aa1303e0 	mov	x0, x19
  40ddb4:	97ffd12b 	bl	402260 <_Unwind_Resume@plt>
  40ddb8:	aa0003f3 	mov	x19, x0
  40ddbc:	9101c3e0 	add	x0, sp, #0x70
  40ddc0:	97ffef0b 	bl	4099ec <_ZN7segmentD1Ev>
  40ddc4:	aa1303e0 	mov	x0, x19
  40ddc8:	97ffd126 	bl	402260 <_Unwind_Resume@plt>
  40ddcc:	aa0003f3 	mov	x19, x0
  40ddd0:	9101c3e0 	add	x0, sp, #0x70
  40ddd4:	97ffef06 	bl	4099ec <_ZN7segmentD1Ev>
  40ddd8:	aa1303e0 	mov	x0, x19
  40dddc:	97ffd121 	bl	402260 <_Unwind_Resume@plt>
  40dde0:	aa0003f3 	mov	x19, x0
  40dde4:	9101c3e0 	add	x0, sp, #0x70
  40dde8:	97ffef01 	bl	4099ec <_ZN7segmentD1Ev>
  40ddec:	aa1303e0 	mov	x0, x19
  40ddf0:	97ffd11c 	bl	402260 <_Unwind_Resume@plt>
  40ddf4:	aa0003f3 	mov	x19, x0
  40ddf8:	9101c3e0 	add	x0, sp, #0x70
  40ddfc:	97ffeefc 	bl	4099ec <_ZN7segmentD1Ev>
  40de00:	aa1303e0 	mov	x0, x19
  40de04:	97ffd117 	bl	402260 <_Unwind_Resume@plt>
  40de08:	aa0003f3 	mov	x19, x0
  40de0c:	9101c3e0 	add	x0, sp, #0x70
  40de10:	97ffeef7 	bl	4099ec <_ZN7segmentD1Ev>
  40de14:	aa1303e0 	mov	x0, x19
  40de18:	97ffd112 	bl	402260 <_Unwind_Resume@plt>

000000000040de1c <_ZN2PT6NewPTsEv>:
  40de1c:	a9bc7bfd 	stp	x29, x30, [sp, #-64]!
  40de20:	910003fd 	mov	x29, sp
  40de24:	a90153f3 	stp	x19, x20, [sp, #16]
  40de28:	a9025bf5 	stp	x21, x22, [sp, #32]
  40de2c:	aa0803f5 	mov	x21, x8
  40de30:	aa0003f4 	mov	x20, x0
  40de34:	f900011f 	str	xzr, [x8]
  40de38:	f900051f 	str	xzr, [x8, #8]
  40de3c:	f900091f 	str	xzr, [x8, #16]
  40de40:	f9400400 	ldr	x0, [x0, #8]
  40de44:	f9400281 	ldr	x1, [x20]
  40de48:	cb010000 	sub	x0, x0, x1
  40de4c:	f102c01f 	cmp	x0, #0xb0
  40de50:	54000580 	b.eq	40df00 <_ZN2PT6NewPTsEv+0xe4>  // b.none
  40de54:	a90363f7 	stp	x23, x24, [sp, #48]
  40de58:	b9401a97 	ldr	w23, [x20, #24]
  40de5c:	93407ef6 	sxtw	x22, w23
  40de60:	f9401282 	ldr	x2, [x20, #32]
  40de64:	f9401680 	ldr	x0, [x20, #40]
  40de68:	cb020000 	sub	x0, x0, x2
  40de6c:	9342fc00 	asr	x0, x0, #2
  40de70:	d1000400 	sub	x0, x0, #0x1
  40de74:	eb0002df 	cmp	x22, x0
  40de78:	54000402 	b.cs	40def8 <_ZN2PT6NewPTsEv+0xdc>  // b.hs, b.nlast
  40de7c:	aa1603f3 	mov	x19, x22
  40de80:	4b1602f6 	sub	w22, w23, w22
  40de84:	1400000d 	b	40deb8 <_ZN2PT6NewPTsEv+0x9c>
  40de88:	f9401281 	ldr	x1, [x20, #32]
  40de8c:	b8786820 	ldr	w0, [x1, x24]
  40de90:	51000400 	sub	w0, w0, #0x1
  40de94:	b8386820 	str	w0, [x1, x24]
  40de98:	f9401282 	ldr	x2, [x20, #32]
  40de9c:	91000673 	add	x19, x19, #0x1
  40dea0:	f9401681 	ldr	x1, [x20, #40]
  40dea4:	cb020021 	sub	x1, x1, x2
  40dea8:	9342fc21 	asr	x1, x1, #2
  40deac:	d1000421 	sub	x1, x1, #0x1
  40deb0:	eb13003f 	cmp	x1, x19
  40deb4:	54000229 	b.ls	40def8 <_ZN2PT6NewPTsEv+0xdc>  // b.plast
  40deb8:	0b1302c3 	add	w3, w22, w19
  40debc:	d37ef678 	lsl	x24, x19, #2
  40dec0:	b8737840 	ldr	w0, [x2, x19, lsl #2]
  40dec4:	11000400 	add	w0, w0, #0x1
  40dec8:	b8337840 	str	w0, [x2, x19, lsl #2]
  40decc:	f9401281 	ldr	x1, [x20, #32]
  40ded0:	f9401e80 	ldr	x0, [x20, #56]
  40ded4:	b8737821 	ldr	w1, [x1, x19, lsl #2]
  40ded8:	b8737800 	ldr	w0, [x0, x19, lsl #2]
  40dedc:	6b00003f 	cmp	w1, w0
  40dee0:	54fffd4a 	b.ge	40de88 <_ZN2PT6NewPTsEv+0x6c>  // b.tcont
  40dee4:	b9001a83 	str	w3, [x20, #24]
  40dee8:	aa1403e1 	mov	x1, x20
  40deec:	aa1503e0 	mov	x0, x21
  40def0:	97fff40c 	bl	40af20 <_ZNSt6vectorI2PTSaIS0_EE12emplace_backIJRS0_EEEvDpOT_>
  40def4:	17ffffe5 	b	40de88 <_ZN2PT6NewPTsEv+0x6c>
  40def8:	b9001a97 	str	w23, [x20, #24]
  40defc:	a94363f7 	ldp	x23, x24, [sp, #48]
  40df00:	aa1503e0 	mov	x0, x21
  40df04:	a94153f3 	ldp	x19, x20, [sp, #16]
  40df08:	a9425bf5 	ldp	x21, x22, [sp, #32]
  40df0c:	a8c47bfd 	ldp	x29, x30, [sp], #64
  40df10:	d65f03c0 	ret
  40df14:	aa0003f3 	mov	x19, x0
  40df18:	aa1503e0 	mov	x0, x21
  40df1c:	94000544 	bl	40f42c <_ZNSt6vectorI2PTSaIS0_EED1Ev>
  40df20:	aa1303e0 	mov	x0, x19
  40df24:	97ffd0cf 	bl	402260 <_Unwind_Resume@plt>

000000000040df28 <_ZN13PriorityQueue4initEv>:
  40df28:	d10903ff 	sub	sp, sp, #0x240
  40df2c:	a9007bfd 	stp	x29, x30, [sp]
  40df30:	910003fd 	mov	x29, sp
  40df34:	a90363f7 	stp	x23, x24, [sp, #48]
  40df38:	f940b817 	ldr	x23, [x0, #368]
  40df3c:	f940bc18 	ldr	x24, [x0, #376]
  40df40:	eb1802ff 	cmp	x23, x24
  40df44:	54002bc0 	b.eq	40e4bc <_ZN13PriorityQueue4initEv+0x594>  // b.none
  40df48:	a90153f3 	stp	x19, x20, [sp, #16]
  40df4c:	a9025bf5 	stp	x21, x22, [sp, #32]
  40df50:	a9046bf9 	stp	x25, x26, [sp, #64]
  40df54:	f9002bfb 	str	x27, [sp, #80]
  40df58:	aa0003f4 	mov	x20, x0
  40df5c:	910283f5 	add	x21, sp, #0xa0
  40df60:	9107a3f6 	add	x22, sp, #0x1e8
  40df64:	14000125 	b	40e3f8 <_ZN13PriorityQueue4initEv+0x4d0>
  40df68:	b940c3e0 	ldr	w0, [sp, #192]
  40df6c:	7100041f 	cmp	w0, #0x1
  40df70:	54000400 	b.eq	40dff0 <_ZN13PriorityQueue4initEv+0xc8>  // b.none
  40df74:	b940c3e0 	ldr	w0, [sp, #192]
  40df78:	7100081f 	cmp	w0, #0x2
  40df7c:	54000a00 	b.eq	40e0bc <_ZN13PriorityQueue4initEv+0x194>  // b.none
  40df80:	b940c3e0 	ldr	w0, [sp, #192]
  40df84:	71000c1f 	cmp	w0, #0x3
  40df88:	54001000 	b.eq	40e188 <_ZN13PriorityQueue4initEv+0x260>  // b.none
  40df8c:	9104e3e0 	add	x0, sp, #0x138
  40df90:	97ffd63b 	bl	40387c <_ZNSt10_HashtableIiSt4pairIKiiESaIS2_ENSt8__detail10_Select1stESt8equal_toIiESt4hashIiENS4_18_Mod_range_hashingENS4_20_Default_ranged_hashENS4_20_Prime_rehash_policyENS4_17_Hashtable_traitsILb0ELb0ELb1EEEED1Ev>
  40df94:	910403e0 	add	x0, sp, #0x100
  40df98:	97ffd610 	bl	4037d8 <_ZNSt10_HashtableINSt7__cxx1112basic_stringIcSt11char_traitsIcESaIcEEESt4pairIKS5_iESaIS8_ENSt8__detail10_Select1stESt8equal_toIS5_ESt4hashIS5_ENSA_18_Mod_range_hashingENSA_20_Default_ranged_hashENSA_20_Prime_rehash_policyENSA_17_Hashtable_traitsILb1ELb0ELb1EEEED1Ev>
  40df9c:	f94073e0 	ldr	x0, [sp, #224]
  40dfa0:	b4000080 	cbz	x0, 40dfb0 <_ZN13PriorityQueue4initEv+0x88>
  40dfa4:	f9407be1 	ldr	x1, [sp, #240]
  40dfa8:	cb000021 	sub	x1, x1, x0
  40dfac:	97ffd045 	bl	4020c0 <_ZdlPvm@plt>
  40dfb0:	f94067f3 	ldr	x19, [sp, #200]
  40dfb4:	f9406bf9 	ldr	x25, [sp, #208]
  40dfb8:	eb19027f 	cmp	x19, x25
  40dfbc:	54001521 	b.ne	40e260 <_ZN13PriorityQueue4initEv+0x338>  // b.any
  40dfc0:	f94067e0 	ldr	x0, [sp, #200]
  40dfc4:	b4000080 	cbz	x0, 40dfd4 <_ZN13PriorityQueue4initEv+0xac>
  40dfc8:	f9406fe1 	ldr	x1, [sp, #216]
  40dfcc:	cb000021 	sub	x1, x1, x0
  40dfd0:	97ffd03c 	bl	4020c0 <_ZdlPvm@plt>
  40dfd4:	9102c35a 	add	x26, x26, #0xb0
  40dfd8:	eb1a037f 	cmp	x27, x26
  40dfdc:	540021c0 	b.eq	40e414 <_ZN13PriorityQueue4initEv+0x4ec>  // b.none
  40dfe0:	aa1a03e1 	mov	x1, x26
  40dfe4:	910303e0 	add	x0, sp, #0xc0
  40dfe8:	97fff1a7 	bl	40a684 <_ZN7segmentC1ERKS_>
  40dfec:	17ffffdf 	b	40df68 <_ZN13PriorityQueue4initEv+0x40>
  40dff0:	91006293 	add	x19, x20, #0x18
  40dff4:	910303e1 	add	x1, sp, #0xc0
  40dff8:	9105c3e0 	add	x0, sp, #0x170
  40dffc:	97fff1a2 	bl	40a684 <_ZN7segmentC1ERKS_>
  40e000:	9105c3e1 	add	x1, sp, #0x170
  40e004:	aa1303e0 	mov	x0, x19
  40e008:	97ffd870 	bl	4041c8 <_ZN5model10FindLetterE7segment>
  40e00c:	93407c01 	sxtw	x1, w0
  40e010:	8b20c420 	add	x0, x1, w0, sxtw #1
  40e014:	d37ef400 	lsl	x0, x0, #2
  40e018:	cb010000 	sub	x0, x0, x1
  40e01c:	f9402681 	ldr	x1, [x20, #72]
  40e020:	8b001020 	add	x0, x1, x0, lsl #4
  40e024:	f9400801 	ldr	x1, [x0, #16]
  40e028:	f9400400 	ldr	x0, [x0, #8]
  40e02c:	cb000020 	sub	x0, x1, x0
  40e030:	9345fc00 	asr	x0, x0, #5
  40e034:	f90113e0 	str	x0, [sp, #544]
  40e038:	910883e1 	add	x1, sp, #0x220
  40e03c:	aa1503e0 	mov	x0, x21
  40e040:	94000597 	bl	40f69c <_ZNSt6vectorIiSaIiEE12emplace_backIJmEEEvDpOT_>
  40e044:	aa1603e0 	mov	x0, x22
  40e048:	97ffd60d 	bl	40387c <_ZNSt10_HashtableIiSt4pairIKiiESaIS2_ENSt8__detail10_Select1stESt8equal_toIiESt4hashIiENS4_18_Mod_range_hashingENS4_20_Default_ranged_hashENS4_20_Prime_rehash_policyENS4_17_Hashtable_traitsILb0ELb0ELb1EEEED1Ev>
  40e04c:	9106c3e0 	add	x0, sp, #0x1b0
  40e050:	97ffd5e2 	bl	4037d8 <_ZNSt10_HashtableINSt7__cxx1112basic_stringIcSt11char_traitsIcESaIcEEESt4pairIKS5_iESaIS8_ENSt8__detail10_Select1stESt8equal_toIS5_ESt4hashIS5_ENSA_18_Mod_range_hashingENSA_20_Default_ranged_hashENSA_20_Prime_rehash_policyENSA_17_Hashtable_traitsILb1ELb0ELb1EEEED1Ev>
  40e054:	f940cbe0 	ldr	x0, [sp, #400]
  40e058:	b4000080 	cbz	x0, 40e068 <_ZN13PriorityQueue4initEv+0x140>
  40e05c:	f940d3e1 	ldr	x1, [sp, #416]
  40e060:	cb000021 	sub	x1, x1, x0
  40e064:	97ffd017 	bl	4020c0 <_ZdlPvm@plt>
  40e068:	f940bff3 	ldr	x19, [sp, #376]
  40e06c:	f940c3f9 	ldr	x25, [sp, #384]
  40e070:	eb19027f 	cmp	x19, x25
  40e074:	54000141 	b.ne	40e09c <_ZN13PriorityQueue4initEv+0x174>  // b.any
  40e078:	f940bfe0 	ldr	x0, [sp, #376]
  40e07c:	b4fff7c0 	cbz	x0, 40df74 <_ZN13PriorityQueue4initEv+0x4c>
  40e080:	f940c7e1 	ldr	x1, [sp, #392]
  40e084:	cb000021 	sub	x1, x1, x0
  40e088:	97ffd00e 	bl	4020c0 <_ZdlPvm@plt>
  40e08c:	17ffffba 	b	40df74 <_ZN13PriorityQueue4initEv+0x4c>
  40e090:	91008273 	add	x19, x19, #0x20
  40e094:	eb13033f 	cmp	x25, x19
  40e098:	54ffff00 	b.eq	40e078 <_ZN13PriorityQueue4initEv+0x150>  // b.none
  40e09c:	aa1303e1 	mov	x1, x19
  40e0a0:	f8410420 	ldr	x0, [x1], #16
  40e0a4:	eb01001f 	cmp	x0, x1
  40e0a8:	54ffff40 	b.eq	40e090 <_ZN13PriorityQueue4initEv+0x168>  // b.none
  40e0ac:	f9400a61 	ldr	x1, [x19, #16]
  40e0b0:	91000421 	add	x1, x1, #0x1
  40e0b4:	97ffd003 	bl	4020c0 <_ZdlPvm@plt>
  40e0b8:	17fffff6 	b	40e090 <_ZN13PriorityQueue4initEv+0x168>
  40e0bc:	91006293 	add	x19, x20, #0x18
  40e0c0:	910303e1 	add	x1, sp, #0xc0
  40e0c4:	9105c3e0 	add	x0, sp, #0x170
  40e0c8:	97fff16f 	bl	40a684 <_ZN7segmentC1ERKS_>
  40e0cc:	9105c3e1 	add	x1, sp, #0x170
  40e0d0:	aa1303e0 	mov	x0, x19
  40e0d4:	97ffd856 	bl	40422c <_ZN5model9FindDigitE7segment>
  40e0d8:	93407c01 	sxtw	x1, w0
  40e0dc:	8b20c420 	add	x0, x1, w0, sxtw #1
  40e0e0:	d37ef400 	lsl	x0, x0, #2
  40e0e4:	cb010000 	sub	x0, x0, x1
  40e0e8:	f9403281 	ldr	x1, [x20, #96]
  40e0ec:	8b001020 	add	x0, x1, x0, lsl #4
  40e0f0:	f9400801 	ldr	x1, [x0, #16]
  40e0f4:	f9400400 	ldr	x0, [x0, #8]
  40e0f8:	cb000020 	sub	x0, x1, x0
  40e0fc:	9345fc00 	asr	x0, x0, #5
  40e100:	f90117e0 	str	x0, [sp, #552]
  40e104:	9108a3e1 	add	x1, sp, #0x228
  40e108:	aa1503e0 	mov	x0, x21
  40e10c:	94000564 	bl	40f69c <_ZNSt6vectorIiSaIiEE12emplace_backIJmEEEvDpOT_>
  40e110:	aa1603e0 	mov	x0, x22
  40e114:	97ffd5da 	bl	40387c <_ZNSt10_HashtableIiSt4pairIKiiESaIS2_ENSt8__detail10_Select1stESt8equal_toIiESt4hashIiENS4_18_Mod_range_hashingENS4_20_Default_ranged_hashENS4_20_Prime_rehash_policyENS4_17_Hashtable_traitsILb0ELb0ELb1EEEED1Ev>
  40e118:	9106c3e0 	add	x0, sp, #0x1b0
  40e11c:	97ffd5af 	bl	4037d8 <_ZNSt10_HashtableINSt7__cxx1112basic_stringIcSt11char_traitsIcESaIcEEESt4pairIKS5_iESaIS8_ENSt8__detail10_Select1stESt8equal_toIS5_ESt4hashIS5_ENSA_18_Mod_range_hashingENSA_20_Default_ranged_hashENSA_20_Prime_rehash_policyENSA_17_Hashtable_traitsILb1ELb0ELb1EEEED1Ev>
  40e120:	f940cbe0 	ldr	x0, [sp, #400]
  40e124:	b4000080 	cbz	x0, 40e134 <_ZN13PriorityQueue4initEv+0x20c>
  40e128:	f940d3e1 	ldr	x1, [sp, #416]
  40e12c:	cb000021 	sub	x1, x1, x0
  40e130:	97ffcfe4 	bl	4020c0 <_ZdlPvm@plt>
  40e134:	f940bff3 	ldr	x19, [sp, #376]
  40e138:	f940c3f9 	ldr	x25, [sp, #384]
  40e13c:	eb19027f 	cmp	x19, x25
  40e140:	54000141 	b.ne	40e168 <_ZN13PriorityQueue4initEv+0x240>  // b.any
  40e144:	f940bfe0 	ldr	x0, [sp, #376]
  40e148:	b4fff1c0 	cbz	x0, 40df80 <_ZN13PriorityQueue4initEv+0x58>
  40e14c:	f940c7e1 	ldr	x1, [sp, #392]
  40e150:	cb000021 	sub	x1, x1, x0
  40e154:	97ffcfdb 	bl	4020c0 <_ZdlPvm@plt>
  40e158:	17ffff8a 	b	40df80 <_ZN13PriorityQueue4initEv+0x58>
  40e15c:	91008273 	add	x19, x19, #0x20
  40e160:	eb13033f 	cmp	x25, x19
  40e164:	54ffff00 	b.eq	40e144 <_ZN13PriorityQueue4initEv+0x21c>  // b.none
  40e168:	aa1303e1 	mov	x1, x19
  40e16c:	f8410420 	ldr	x0, [x1], #16
  40e170:	eb01001f 	cmp	x0, x1
  40e174:	54ffff40 	b.eq	40e15c <_ZN13PriorityQueue4initEv+0x234>  // b.none
  40e178:	f9400a61 	ldr	x1, [x19, #16]
  40e17c:	91000421 	add	x1, x1, #0x1
  40e180:	97ffcfd0 	bl	4020c0 <_ZdlPvm@plt>
  40e184:	17fffff6 	b	40e15c <_ZN13PriorityQueue4initEv+0x234>
  40e188:	91006293 	add	x19, x20, #0x18
  40e18c:	910303e1 	add	x1, sp, #0xc0
  40e190:	9105c3e0 	add	x0, sp, #0x170
  40e194:	97fff13c 	bl	40a684 <_ZN7segmentC1ERKS_>
  40e198:	9105c3e1 	add	x1, sp, #0x170
  40e19c:	aa1303e0 	mov	x0, x19
  40e1a0:	97ffd83c 	bl	404290 <_ZN5model10FindSymbolE7segment>
  40e1a4:	93407c01 	sxtw	x1, w0
  40e1a8:	8b20c420 	add	x0, x1, w0, sxtw #1
  40e1ac:	d37ef400 	lsl	x0, x0, #2
  40e1b0:	cb010000 	sub	x0, x0, x1
  40e1b4:	f9403e81 	ldr	x1, [x20, #120]
  40e1b8:	8b001020 	add	x0, x1, x0, lsl #4
  40e1bc:	f9400801 	ldr	x1, [x0, #16]
  40e1c0:	f9400400 	ldr	x0, [x0, #8]
  40e1c4:	cb000020 	sub	x0, x1, x0
  40e1c8:	9345fc00 	asr	x0, x0, #5
  40e1cc:	f9011be0 	str	x0, [sp, #560]
  40e1d0:	9108c3e1 	add	x1, sp, #0x230
  40e1d4:	aa1503e0 	mov	x0, x21
  40e1d8:	94000531 	bl	40f69c <_ZNSt6vectorIiSaIiEE12emplace_backIJmEEEvDpOT_>
  40e1dc:	aa1603e0 	mov	x0, x22
  40e1e0:	97ffd5a7 	bl	40387c <_ZNSt10_HashtableIiSt4pairIKiiESaIS2_ENSt8__detail10_Select1stESt8equal_toIiESt4hashIiENS4_18_Mod_range_hashingENS4_20_Default_ranged_hashENS4_20_Prime_rehash_policyENS4_17_Hashtable_traitsILb0ELb0ELb1EEEED1Ev>
  40e1e4:	9106c3e0 	add	x0, sp, #0x1b0
  40e1e8:	97ffd57c 	bl	4037d8 <_ZNSt10_HashtableINSt7__cxx1112basic_stringIcSt11char_traitsIcESaIcEEESt4pairIKS5_iESaIS8_ENSt8__detail10_Select1stESt8equal_toIS5_ESt4hashIS5_ENSA_18_Mod_range_hashingENSA_20_Default_ranged_hashENSA_20_Prime_rehash_policyENSA_17_Hashtable_traitsILb1ELb0ELb1EEEED1Ev>
  40e1ec:	f940cbe0 	ldr	x0, [sp, #400]
  40e1f0:	b4000080 	cbz	x0, 40e200 <_ZN13PriorityQueue4initEv+0x2d8>
  40e1f4:	f940d3e1 	ldr	x1, [sp, #416]
  40e1f8:	cb000021 	sub	x1, x1, x0
  40e1fc:	97ffcfb1 	bl	4020c0 <_ZdlPvm@plt>
  40e200:	f940bff3 	ldr	x19, [sp, #376]
  40e204:	f940c3f9 	ldr	x25, [sp, #384]
  40e208:	eb19027f 	cmp	x19, x25
  40e20c:	540001a1 	b.ne	40e240 <_ZN13PriorityQueue4initEv+0x318>  // b.any
  40e210:	f940bfe0 	ldr	x0, [sp, #376]
  40e214:	b4ffebc0 	cbz	x0, 40df8c <_ZN13PriorityQueue4initEv+0x64>
  40e218:	f940c7e1 	ldr	x1, [sp, #392]
  40e21c:	cb000021 	sub	x1, x1, x0
  40e220:	97ffcfa8 	bl	4020c0 <_ZdlPvm@plt>
  40e224:	17ffff5a 	b	40df8c <_ZN13PriorityQueue4initEv+0x64>
  40e228:	f9400a61 	ldr	x1, [x19, #16]
  40e22c:	91000421 	add	x1, x1, #0x1
  40e230:	97ffcfa4 	bl	4020c0 <_ZdlPvm@plt>
  40e234:	91008273 	add	x19, x19, #0x20
  40e238:	eb13033f 	cmp	x25, x19
  40e23c:	54fffea0 	b.eq	40e210 <_ZN13PriorityQueue4initEv+0x2e8>  // b.none
  40e240:	aa1303e1 	mov	x1, x19
  40e244:	f8410420 	ldr	x0, [x1], #16
  40e248:	eb01001f 	cmp	x0, x1
  40e24c:	54fffee1 	b.ne	40e228 <_ZN13PriorityQueue4initEv+0x300>  // b.any
  40e250:	17fffff9 	b	40e234 <_ZN13PriorityQueue4initEv+0x30c>
  40e254:	91008273 	add	x19, x19, #0x20
  40e258:	eb13033f 	cmp	x25, x19
  40e25c:	54ffeb20 	b.eq	40dfc0 <_ZN13PriorityQueue4initEv+0x98>  // b.none
  40e260:	aa1303e1 	mov	x1, x19
  40e264:	f8410420 	ldr	x0, [x1], #16
  40e268:	eb01001f 	cmp	x0, x1
  40e26c:	54ffff40 	b.eq	40e254 <_ZN13PriorityQueue4initEv+0x32c>  // b.none
  40e270:	f9400a61 	ldr	x1, [x19, #16]
  40e274:	91000421 	add	x1, x1, #0x1
  40e278:	97ffcf92 	bl	4020c0 <_ZdlPvm@plt>
  40e27c:	17fffff6 	b	40e254 <_ZN13PriorityQueue4initEv+0x32c>
  40e280:	9105c3e1 	add	x1, sp, #0x170
  40e284:	aa1303e0 	mov	x0, x19
  40e288:	97ffd79e 	bl	404100 <_ZN5model6FindPTE2PT>
  40e28c:	b9023fe0 	str	w0, [sp, #572]
  40e290:	9108f3e1 	add	x1, sp, #0x23c
  40e294:	91024280 	add	x0, x20, #0x90
  40e298:	97fff3dd 	bl	40b20c <_ZNSt8__detail9_Map_baseIiSt4pairIKiiESaIS3_ENS_10_Select1stESt8equal_toIiESt4hashIiENS_18_Mod_range_hashingENS_20_Default_ranged_hashENS_20_Prime_rehash_policyENS_17_Hashtable_traitsILb0ELb0ELb1EEELb1EEixEOi>
  40e29c:	bd400000 	ldr	s0, [x0]
  40e2a0:	5e21d800 	scvtf	s0, s0
  40e2a4:	bd402a81 	ldr	s1, [x20, #40]
  40e2a8:	5e21d821 	scvtf	s1, s1
  40e2ac:	1e211800 	fdiv	s0, s0, s1
  40e2b0:	bd00bbe0 	str	s0, [sp, #184]
  40e2b4:	f940d7e0 	ldr	x0, [sp, #424]
  40e2b8:	b4000080 	cbz	x0, 40e2c8 <_ZN13PriorityQueue4initEv+0x3a0>
  40e2bc:	f940dfe1 	ldr	x1, [sp, #440]
  40e2c0:	cb000021 	sub	x1, x1, x0
  40e2c4:	97ffcf7f 	bl	4020c0 <_ZdlPvm@plt>
  40e2c8:	f940cbe0 	ldr	x0, [sp, #400]
  40e2cc:	b4000080 	cbz	x0, 40e2dc <_ZN13PriorityQueue4initEv+0x3b4>
  40e2d0:	f940d3e1 	ldr	x1, [sp, #416]
  40e2d4:	cb000021 	sub	x1, x1, x0
  40e2d8:	97ffcf7a 	bl	4020c0 <_ZdlPvm@plt>
  40e2dc:	f940bbf9 	ldr	x25, [sp, #368]
  40e2e0:	f940bffb 	ldr	x27, [sp, #376]
  40e2e4:	eb1b033f 	cmp	x25, x27
  40e2e8:	540003a1 	b.ne	40e35c <_ZN13PriorityQueue4initEv+0x434>  // b.any
  40e2ec:	f940bbe0 	ldr	x0, [sp, #368]
  40e2f0:	b4000080 	cbz	x0, 40e300 <_ZN13PriorityQueue4initEv+0x3d8>
  40e2f4:	f940c3e1 	ldr	x1, [sp, #384]
  40e2f8:	cb000021 	sub	x1, x1, x0
  40e2fc:	97ffcf71 	bl	4020c0 <_ZdlPvm@plt>
  40e300:	9101a3e1 	add	x1, sp, #0x68
  40e304:	aa1403e0 	mov	x0, x20
  40e308:	97fffd59 	bl	40d86c <_ZN13PriorityQueue7CalProbER2PT>
  40e30c:	14000022 	b	40e394 <_ZN13PriorityQueue4initEv+0x46c>
  40e310:	91008273 	add	x19, x19, #0x20
  40e314:	eb13035f 	cmp	x26, x19
  40e318:	54000120 	b.eq	40e33c <_ZN13PriorityQueue4initEv+0x414>  // b.none
  40e31c:	aa1303e1 	mov	x1, x19
  40e320:	f8410420 	ldr	x0, [x1], #16
  40e324:	eb01001f 	cmp	x0, x1
  40e328:	54ffff40 	b.eq	40e310 <_ZN13PriorityQueue4initEv+0x3e8>  // b.none
  40e32c:	f9400a61 	ldr	x1, [x19, #16]
  40e330:	91000421 	add	x1, x1, #0x1
  40e334:	97ffcf63 	bl	4020c0 <_ZdlPvm@plt>
  40e338:	17fffff6 	b	40e310 <_ZN13PriorityQueue4initEv+0x3e8>
  40e33c:	f9400720 	ldr	x0, [x25, #8]
  40e340:	b4000080 	cbz	x0, 40e350 <_ZN13PriorityQueue4initEv+0x428>
  40e344:	f9400f21 	ldr	x1, [x25, #24]
  40e348:	cb000021 	sub	x1, x1, x0
  40e34c:	97ffcf5d 	bl	4020c0 <_ZdlPvm@plt>
  40e350:	9102c339 	add	x25, x25, #0xb0
  40e354:	eb19037f 	cmp	x27, x25
  40e358:	54fffca0 	b.eq	40e2ec <_ZN13PriorityQueue4initEv+0x3c4>  // b.none
  40e35c:	9101e320 	add	x0, x25, #0x78
  40e360:	97ffd547 	bl	40387c <_ZNSt10_HashtableIiSt4pairIKiiESaIS2_ENSt8__detail10_Select1stESt8equal_toIiESt4hashIiENS4_18_Mod_range_hashingENS4_20_Default_ranged_hashENS4_20_Prime_rehash_policyENS4_17_Hashtable_traitsILb0ELb0ELb1EEEED1Ev>
  40e364:	91010320 	add	x0, x25, #0x40
  40e368:	97ffd51c 	bl	4037d8 <_ZNSt10_HashtableINSt7__cxx1112basic_stringIcSt11char_traitsIcESaIcEEESt4pairIKS5_iESaIS8_ENSt8__detail10_Select1stESt8equal_toIS5_ESt4hashIS5_ENSA_18_Mod_range_hashingENSA_20_Default_ranged_hashENSA_20_Prime_rehash_policyENSA_17_Hashtable_traitsILb1ELb0ELb1EEEED1Ev>
  40e36c:	f9401320 	ldr	x0, [x25, #32]
  40e370:	b4000080 	cbz	x0, 40e380 <_ZN13PriorityQueue4initEv+0x458>
  40e374:	f9401b21 	ldr	x1, [x25, #48]
  40e378:	cb000021 	sub	x1, x1, x0
  40e37c:	97ffcf51 	bl	4020c0 <_ZdlPvm@plt>
  40e380:	f9400733 	ldr	x19, [x25, #8]
  40e384:	f9400b3a 	ldr	x26, [x25, #16]
  40e388:	eb1a027f 	cmp	x19, x26
  40e38c:	54fffc81 	b.ne	40e31c <_ZN13PriorityQueue4initEv+0x3f4>  // b.any
  40e390:	17ffffeb 	b	40e33c <_ZN13PriorityQueue4initEv+0x414>
  40e394:	9101a3e1 	add	x1, sp, #0x68
  40e398:	aa1403e0 	mov	x0, x20
  40e39c:	97fff2e1 	bl	40af20 <_ZNSt6vectorI2PTSaIS0_EE12emplace_backIJRS0_EEEvDpOT_>
  40e3a0:	f94053e0 	ldr	x0, [sp, #160]
  40e3a4:	b4000080 	cbz	x0, 40e3b4 <_ZN13PriorityQueue4initEv+0x48c>
  40e3a8:	f9405be1 	ldr	x1, [sp, #176]
  40e3ac:	cb000021 	sub	x1, x1, x0
  40e3b0:	97ffcf44 	bl	4020c0 <_ZdlPvm@plt>
  40e3b4:	f94047e0 	ldr	x0, [sp, #136]
  40e3b8:	b4000080 	cbz	x0, 40e3c8 <_ZN13PriorityQueue4initEv+0x4a0>
  40e3bc:	f9404fe1 	ldr	x1, [sp, #152]
  40e3c0:	cb000021 	sub	x1, x1, x0
  40e3c4:	97ffcf3f 	bl	4020c0 <_ZdlPvm@plt>
  40e3c8:	f94037f9 	ldr	x25, [sp, #104]
  40e3cc:	f9403bfb 	ldr	x27, [sp, #112]
  40e3d0:	eb1b033f 	cmp	x25, x27
  40e3d4:	54000501 	b.ne	40e474 <_ZN13PriorityQueue4initEv+0x54c>  // b.any
  40e3d8:	f94037e0 	ldr	x0, [sp, #104]
  40e3dc:	b4000080 	cbz	x0, 40e3ec <_ZN13PriorityQueue4initEv+0x4c4>
  40e3e0:	f9403fe1 	ldr	x1, [sp, #120]
  40e3e4:	cb000021 	sub	x1, x1, x0
  40e3e8:	97ffcf36 	bl	4020c0 <_ZdlPvm@plt>
  40e3ec:	910162f7 	add	x23, x23, #0x58
  40e3f0:	eb17031f 	cmp	x24, x23
  40e3f4:	540005c0 	b.eq	40e4ac <_ZN13PriorityQueue4initEv+0x584>  // b.none
  40e3f8:	aa1703e1 	mov	x1, x23
  40e3fc:	9101a3e0 	add	x0, sp, #0x68
  40e400:	97fff147 	bl	40a91c <_ZN2PTC1ERKS_>
  40e404:	f94037fa 	ldr	x26, [sp, #104]
  40e408:	f9403bfb 	ldr	x27, [sp, #112]
  40e40c:	eb1b035f 	cmp	x26, x27
  40e410:	54ffde81 	b.ne	40dfe0 <_ZN13PriorityQueue4initEv+0xb8>  // b.any
  40e414:	91006293 	add	x19, x20, #0x18
  40e418:	9101a3e1 	add	x1, sp, #0x68
  40e41c:	9105c3e0 	add	x0, sp, #0x170
  40e420:	97fff13f 	bl	40a91c <_ZN2PTC1ERKS_>
  40e424:	17ffff97 	b	40e280 <_ZN13PriorityQueue4initEv+0x358>
  40e428:	91008273 	add	x19, x19, #0x20
  40e42c:	eb13035f 	cmp	x26, x19
  40e430:	54000120 	b.eq	40e454 <_ZN13PriorityQueue4initEv+0x52c>  // b.none
  40e434:	aa1303e1 	mov	x1, x19
  40e438:	f8410420 	ldr	x0, [x1], #16
  40e43c:	eb01001f 	cmp	x0, x1
  40e440:	54ffff40 	b.eq	40e428 <_ZN13PriorityQueue4initEv+0x500>  // b.none
  40e444:	f9400a61 	ldr	x1, [x19, #16]
  40e448:	91000421 	add	x1, x1, #0x1
  40e44c:	97ffcf1d 	bl	4020c0 <_ZdlPvm@plt>
  40e450:	17fffff6 	b	40e428 <_ZN13PriorityQueue4initEv+0x500>
  40e454:	f9400720 	ldr	x0, [x25, #8]
  40e458:	b4000080 	cbz	x0, 40e468 <_ZN13PriorityQueue4initEv+0x540>
  40e45c:	f9400f21 	ldr	x1, [x25, #24]
  40e460:	cb000021 	sub	x1, x1, x0
  40e464:	97ffcf17 	bl	4020c0 <_ZdlPvm@plt>
  40e468:	9102c339 	add	x25, x25, #0xb0
  40e46c:	eb19037f 	cmp	x27, x25
  40e470:	54fffb40 	b.eq	40e3d8 <_ZN13PriorityQueue4initEv+0x4b0>  // b.none
  40e474:	9101e320 	add	x0, x25, #0x78
  40e478:	97ffd501 	bl	40387c <_ZNSt10_HashtableIiSt4pairIKiiESaIS2_ENSt8__detail10_Select1stESt8equal_toIiESt4hashIiENS4_18_Mod_range_hashingENS4_20_Default_ranged_hashENS4_20_Prime_rehash_policyENS4_17_Hashtable_traitsILb0ELb0ELb1EEEED1Ev>
  40e47c:	91010320 	add	x0, x25, #0x40
  40e480:	97ffd4d6 	bl	4037d8 <_ZNSt10_HashtableINSt7__cxx1112basic_stringIcSt11char_traitsIcESaIcEEESt4pairIKS5_iESaIS8_ENSt8__detail10_Select1stESt8equal_toIS5_ESt4hashIS5_ENSA_18_Mod_range_hashingENSA_20_Default_ranged_hashENSA_20_Prime_rehash_policyENSA_17_Hashtable_traitsILb1ELb0ELb1EEEED1Ev>
  40e484:	f9401320 	ldr	x0, [x25, #32]
  40e488:	b4000080 	cbz	x0, 40e498 <_ZN13PriorityQueue4initEv+0x570>
  40e48c:	f9401b21 	ldr	x1, [x25, #48]
  40e490:	cb000021 	sub	x1, x1, x0
  40e494:	97ffcf0b 	bl	4020c0 <_ZdlPvm@plt>
  40e498:	f9400733 	ldr	x19, [x25, #8]
  40e49c:	f9400b3a 	ldr	x26, [x25, #16]
  40e4a0:	eb1a027f 	cmp	x19, x26
  40e4a4:	54fffc81 	b.ne	40e434 <_ZN13PriorityQueue4initEv+0x50c>  // b.any
  40e4a8:	17ffffeb 	b	40e454 <_ZN13PriorityQueue4initEv+0x52c>
  40e4ac:	a94153f3 	ldp	x19, x20, [sp, #16]
  40e4b0:	a9425bf5 	ldp	x21, x22, [sp, #32]
  40e4b4:	a9446bf9 	ldp	x25, x26, [sp, #64]
  40e4b8:	f9402bfb 	ldr	x27, [sp, #80]
  40e4bc:	a94363f7 	ldp	x23, x24, [sp, #48]
  40e4c0:	a9407bfd 	ldp	x29, x30, [sp]
  40e4c4:	910903ff 	add	sp, sp, #0x240
  40e4c8:	d65f03c0 	ret
  40e4cc:	aa0003f3 	mov	x19, x0
  40e4d0:	9105c3e0 	add	x0, sp, #0x170
  40e4d4:	97ffed46 	bl	4099ec <_ZN7segmentD1Ev>
  40e4d8:	910303e0 	add	x0, sp, #0xc0
  40e4dc:	97ffed44 	bl	4099ec <_ZN7segmentD1Ev>
  40e4e0:	9101a3e0 	add	x0, sp, #0x68
  40e4e4:	97ffed9d 	bl	409b58 <_ZN2PTD1Ev>
  40e4e8:	aa1303e0 	mov	x0, x19
  40e4ec:	97ffcf5d 	bl	402260 <_Unwind_Resume@plt>
  40e4f0:	aa0003f3 	mov	x19, x0
  40e4f4:	9105c3e0 	add	x0, sp, #0x170
  40e4f8:	97ffed3d 	bl	4099ec <_ZN7segmentD1Ev>
  40e4fc:	17fffff7 	b	40e4d8 <_ZN13PriorityQueue4initEv+0x5b0>
  40e500:	aa0003f3 	mov	x19, x0
  40e504:	9105c3e0 	add	x0, sp, #0x170
  40e508:	97ffed39 	bl	4099ec <_ZN7segmentD1Ev>
  40e50c:	17fffff3 	b	40e4d8 <_ZN13PriorityQueue4initEv+0x5b0>
  40e510:	aa0003f3 	mov	x19, x0
  40e514:	17fffff1 	b	40e4d8 <_ZN13PriorityQueue4initEv+0x5b0>
  40e518:	aa0003f3 	mov	x19, x0
  40e51c:	9105c3e0 	add	x0, sp, #0x170
  40e520:	97ffed8e 	bl	409b58 <_ZN2PTD1Ev>
  40e524:	17ffffef 	b	40e4e0 <_ZN13PriorityQueue4initEv+0x5b8>
  40e528:	aa0003f3 	mov	x19, x0
  40e52c:	17ffffed 	b	40e4e0 <_ZN13PriorityQueue4initEv+0x5b8>

000000000040e530 <_ZN13PriorityQueue8GenerateE2PT>:
  40e530:	a9ab7bfd 	stp	x29, x30, [sp, #-336]!
  40e534:	910003fd 	mov	x29, sp
  40e538:	a90153f3 	stp	x19, x20, [sp, #16]
  40e53c:	a9025bf5 	stp	x21, x22, [sp, #32]
  40e540:	a90363f7 	stp	x23, x24, [sp, #48]
  40e544:	aa0003f6 	mov	x22, x0
  40e548:	aa0103f3 	mov	x19, x1
  40e54c:	97fffcc8 	bl	40d86c <_ZN13PriorityQueue7CalProbER2PT>
  40e550:	f9400261 	ldr	x1, [x19]
  40e554:	f9400660 	ldr	x0, [x19, #8]
  40e558:	cb010000 	sub	x0, x0, x1
  40e55c:	f102c01f 	cmp	x0, #0xb0
  40e560:	540002c0 	b.eq	40e5b8 <_ZN13PriorityQueue8GenerateE2PT+0x88>  // b.none
  40e564:	a9046bf9 	stp	x25, x26, [sp, #64]
  40e568:	a90573fb 	stp	x27, x28, [sp, #80]
  40e56c:	910243e0 	add	x0, sp, #0x90
  40e570:	f90043e0 	str	x0, [sp, #128]
  40e574:	f90047ff 	str	xzr, [sp, #136]
  40e578:	390243ff 	strb	wzr, [sp, #144]
  40e57c:	f9401277 	ldr	x23, [x19, #32]
  40e580:	f940167a 	ldr	x26, [x19, #40]
  40e584:	eb1a02ff 	cmp	x23, x26
  40e588:	54002ca0 	b.eq	40eb1c <_ZN13PriorityQueue8GenerateE2PT+0x5ec>  // b.none
  40e58c:	d2800038 	mov	x24, #0x1                   	// #1
  40e590:	d2800014 	mov	x20, #0x0                   	// #0
  40e594:	910062c0 	add	x0, x22, #0x18
  40e598:	f9003be0 	str	x0, [sp, #112]
  40e59c:	910463e0 	add	x0, sp, #0x118
  40e5a0:	f9003fe0 	str	x0, [sp, #120]
  40e5a4:	d291747b 	mov	x27, #0x8ba3                	// #35747
  40e5a8:	f2b745db 	movk	x27, #0xba2e, lsl #16
  40e5ac:	f2d45d1b 	movk	x27, #0xa2e8, lsl #32
  40e5b0:	f2e5d17b 	movk	x27, #0x2e8b, lsl #48
  40e5b4:	140000e5 	b	40e948 <_ZN13PriorityQueue8GenerateE2PT+0x418>
  40e5b8:	b9400020 	ldr	w0, [x1]
  40e5bc:	7100041f 	cmp	w0, #0x1
  40e5c0:	54000220 	b.eq	40e604 <_ZN13PriorityQueue8GenerateE2PT+0xd4>  // b.none
  40e5c4:	f9400261 	ldr	x1, [x19]
  40e5c8:	b9400020 	ldr	w0, [x1]
  40e5cc:	7100081f 	cmp	w0, #0x2
  40e5d0:	540006c0 	b.eq	40e6a8 <_ZN13PriorityQueue8GenerateE2PT+0x178>  // b.none
  40e5d4:	f9400261 	ldr	x1, [x19]
  40e5d8:	b9400020 	ldr	w0, [x1]
  40e5dc:	71000c1f 	cmp	w0, #0x3
  40e5e0:	54000b60 	b.eq	40e74c <_ZN13PriorityQueue8GenerateE2PT+0x21c>  // b.none
  40e5e4:	f9401e60 	ldr	x0, [x19, #56]
  40e5e8:	b9400000 	ldr	w0, [x0]
  40e5ec:	7100001f 	cmp	w0, #0x0
  40e5f0:	5400464d 	b.le	40eeb8 <_ZN13PriorityQueue8GenerateE2PT+0x988>
  40e5f4:	d2800014 	mov	x20, #0x0                   	// #0
  40e5f8:	9102c3f5 	add	x21, sp, #0xb0
  40e5fc:	910642d8 	add	x24, x22, #0x190
  40e600:	1400008a 	b	40e828 <_ZN13PriorityQueue8GenerateE2PT+0x2f8>
  40e604:	910283e0 	add	x0, sp, #0xa0
  40e608:	97fff01f 	bl	40a684 <_ZN7segmentC1ERKS_>
  40e60c:	910283e1 	add	x1, sp, #0xa0
  40e610:	910062c0 	add	x0, x22, #0x18
  40e614:	97ffd6ed 	bl	4041c8 <_ZN5model10FindLetterE7segment>
  40e618:	93407c01 	sxtw	x1, w0
  40e61c:	8b20c437 	add	x23, x1, w0, sxtw #1
  40e620:	d37ef6f7 	lsl	x23, x23, #2
  40e624:	cb0102f7 	sub	x23, x23, x1
  40e628:	f94026c0 	ldr	x0, [x22, #72]
  40e62c:	8b171017 	add	x23, x0, x23, lsl #4
  40e630:	910463e0 	add	x0, sp, #0x118
  40e634:	97ffd492 	bl	40387c <_ZNSt10_HashtableIiSt4pairIKiiESaIS2_ENSt8__detail10_Select1stESt8equal_toIiESt4hashIiENS4_18_Mod_range_hashingENS4_20_Default_ranged_hashENS4_20_Prime_rehash_policyENS4_17_Hashtable_traitsILb0ELb0ELb1EEEED1Ev>
  40e638:	910383e0 	add	x0, sp, #0xe0
  40e63c:	97ffd467 	bl	4037d8 <_ZNSt10_HashtableINSt7__cxx1112basic_stringIcSt11char_traitsIcESaIcEEESt4pairIKS5_iESaIS8_ENSt8__detail10_Select1stESt8equal_toIS5_ESt4hashIS5_ENSA_18_Mod_range_hashingENSA_20_Default_ranged_hashENSA_20_Prime_rehash_policyENSA_17_Hashtable_traitsILb1ELb0ELb1EEEED1Ev>
  40e640:	f94063e0 	ldr	x0, [sp, #192]
  40e644:	b4000080 	cbz	x0, 40e654 <_ZN13PriorityQueue8GenerateE2PT+0x124>
  40e648:	f9406be1 	ldr	x1, [sp, #208]
  40e64c:	cb000021 	sub	x1, x1, x0
  40e650:	97ffce9c 	bl	4020c0 <_ZdlPvm@plt>
  40e654:	f94057f4 	ldr	x20, [sp, #168]
  40e658:	f9405bf5 	ldr	x21, [sp, #176]
  40e65c:	eb15029f 	cmp	x20, x21
  40e660:	54000141 	b.ne	40e688 <_ZN13PriorityQueue8GenerateE2PT+0x158>  // b.any
  40e664:	f94057e0 	ldr	x0, [sp, #168]
  40e668:	b4fffae0 	cbz	x0, 40e5c4 <_ZN13PriorityQueue8GenerateE2PT+0x94>
  40e66c:	f9405fe1 	ldr	x1, [sp, #184]
  40e670:	cb000021 	sub	x1, x1, x0
  40e674:	97ffce93 	bl	4020c0 <_ZdlPvm@plt>
  40e678:	17ffffd3 	b	40e5c4 <_ZN13PriorityQueue8GenerateE2PT+0x94>
  40e67c:	91008294 	add	x20, x20, #0x20
  40e680:	eb1402bf 	cmp	x21, x20
  40e684:	54ffff00 	b.eq	40e664 <_ZN13PriorityQueue8GenerateE2PT+0x134>  // b.none
  40e688:	aa1403e1 	mov	x1, x20
  40e68c:	f8410420 	ldr	x0, [x1], #16
  40e690:	eb01001f 	cmp	x0, x1
  40e694:	54ffff40 	b.eq	40e67c <_ZN13PriorityQueue8GenerateE2PT+0x14c>  // b.none
  40e698:	f9400a81 	ldr	x1, [x20, #16]
  40e69c:	91000421 	add	x1, x1, #0x1
  40e6a0:	97ffce88 	bl	4020c0 <_ZdlPvm@plt>
  40e6a4:	17fffff6 	b	40e67c <_ZN13PriorityQueue8GenerateE2PT+0x14c>
  40e6a8:	910283e0 	add	x0, sp, #0xa0
  40e6ac:	97ffeff6 	bl	40a684 <_ZN7segmentC1ERKS_>
  40e6b0:	910283e1 	add	x1, sp, #0xa0
  40e6b4:	910062c0 	add	x0, x22, #0x18
  40e6b8:	97ffd6dd 	bl	40422c <_ZN5model9FindDigitE7segment>
  40e6bc:	93407c01 	sxtw	x1, w0
  40e6c0:	8b20c437 	add	x23, x1, w0, sxtw #1
  40e6c4:	d37ef6f7 	lsl	x23, x23, #2
  40e6c8:	cb0102f7 	sub	x23, x23, x1
  40e6cc:	f94032c0 	ldr	x0, [x22, #96]
  40e6d0:	8b171017 	add	x23, x0, x23, lsl #4
  40e6d4:	910463e0 	add	x0, sp, #0x118
  40e6d8:	97ffd469 	bl	40387c <_ZNSt10_HashtableIiSt4pairIKiiESaIS2_ENSt8__detail10_Select1stESt8equal_toIiESt4hashIiENS4_18_Mod_range_hashingENS4_20_Default_ranged_hashENS4_20_Prime_rehash_policyENS4_17_Hashtable_traitsILb0ELb0ELb1EEEED1Ev>
  40e6dc:	910383e0 	add	x0, sp, #0xe0
  40e6e0:	97ffd43e 	bl	4037d8 <_ZNSt10_HashtableINSt7__cxx1112basic_stringIcSt11char_traitsIcESaIcEEESt4pairIKS5_iESaIS8_ENSt8__detail10_Select1stESt8equal_toIS5_ESt4hashIS5_ENSA_18_Mod_range_hashingENSA_20_Default_ranged_hashENSA_20_Prime_rehash_policyENSA_17_Hashtable_traitsILb1ELb0ELb1EEEED1Ev>
  40e6e4:	f94063e0 	ldr	x0, [sp, #192]
  40e6e8:	b4000080 	cbz	x0, 40e6f8 <_ZN13PriorityQueue8GenerateE2PT+0x1c8>
  40e6ec:	f9406be1 	ldr	x1, [sp, #208]
  40e6f0:	cb000021 	sub	x1, x1, x0
  40e6f4:	97ffce73 	bl	4020c0 <_ZdlPvm@plt>
  40e6f8:	f94057f4 	ldr	x20, [sp, #168]
  40e6fc:	f9405bf5 	ldr	x21, [sp, #176]
  40e700:	eb15029f 	cmp	x20, x21
  40e704:	54000141 	b.ne	40e72c <_ZN13PriorityQueue8GenerateE2PT+0x1fc>  // b.any
  40e708:	f94057e0 	ldr	x0, [sp, #168]
  40e70c:	b4fff640 	cbz	x0, 40e5d4 <_ZN13PriorityQueue8GenerateE2PT+0xa4>
  40e710:	f9405fe1 	ldr	x1, [sp, #184]
  40e714:	cb000021 	sub	x1, x1, x0
  40e718:	97ffce6a 	bl	4020c0 <_ZdlPvm@plt>
  40e71c:	17ffffae 	b	40e5d4 <_ZN13PriorityQueue8GenerateE2PT+0xa4>
  40e720:	91008294 	add	x20, x20, #0x20
  40e724:	eb1402bf 	cmp	x21, x20
  40e728:	54ffff00 	b.eq	40e708 <_ZN13PriorityQueue8GenerateE2PT+0x1d8>  // b.none
  40e72c:	aa1403e1 	mov	x1, x20
  40e730:	f8410420 	ldr	x0, [x1], #16
  40e734:	eb01001f 	cmp	x0, x1
  40e738:	54ffff40 	b.eq	40e720 <_ZN13PriorityQueue8GenerateE2PT+0x1f0>  // b.none
  40e73c:	f9400a81 	ldr	x1, [x20, #16]
  40e740:	91000421 	add	x1, x1, #0x1
  40e744:	97ffce5f 	bl	4020c0 <_ZdlPvm@plt>
  40e748:	17fffff6 	b	40e720 <_ZN13PriorityQueue8GenerateE2PT+0x1f0>
  40e74c:	910283e0 	add	x0, sp, #0xa0
  40e750:	97ffefcd 	bl	40a684 <_ZN7segmentC1ERKS_>
  40e754:	910283e1 	add	x1, sp, #0xa0
  40e758:	910062c0 	add	x0, x22, #0x18
  40e75c:	97ffd6cd 	bl	404290 <_ZN5model10FindSymbolE7segment>
  40e760:	93407c01 	sxtw	x1, w0
  40e764:	8b20c437 	add	x23, x1, w0, sxtw #1
  40e768:	d37ef6f7 	lsl	x23, x23, #2
  40e76c:	cb0102f7 	sub	x23, x23, x1
  40e770:	f9403ec0 	ldr	x0, [x22, #120]
  40e774:	8b171017 	add	x23, x0, x23, lsl #4
  40e778:	910463e0 	add	x0, sp, #0x118
  40e77c:	97ffd440 	bl	40387c <_ZNSt10_HashtableIiSt4pairIKiiESaIS2_ENSt8__detail10_Select1stESt8equal_toIiESt4hashIiENS4_18_Mod_range_hashingENS4_20_Default_ranged_hashENS4_20_Prime_rehash_policyENS4_17_Hashtable_traitsILb0ELb0ELb1EEEED1Ev>
  40e780:	910383e0 	add	x0, sp, #0xe0
  40e784:	97ffd415 	bl	4037d8 <_ZNSt10_HashtableINSt7__cxx1112basic_stringIcSt11char_traitsIcESaIcEEESt4pairIKS5_iESaIS8_ENSt8__detail10_Select1stESt8equal_toIS5_ESt4hashIS5_ENSA_18_Mod_range_hashingENSA_20_Default_ranged_hashENSA_20_Prime_rehash_policyENSA_17_Hashtable_traitsILb1ELb0ELb1EEEED1Ev>
  40e788:	f94063e0 	ldr	x0, [sp, #192]
  40e78c:	b4000080 	cbz	x0, 40e79c <_ZN13PriorityQueue8GenerateE2PT+0x26c>
  40e790:	f9406be1 	ldr	x1, [sp, #208]
  40e794:	cb000021 	sub	x1, x1, x0
  40e798:	97ffce4a 	bl	4020c0 <_ZdlPvm@plt>
  40e79c:	f94057f4 	ldr	x20, [sp, #168]
  40e7a0:	f9405bf5 	ldr	x21, [sp, #176]
  40e7a4:	eb15029f 	cmp	x20, x21
  40e7a8:	54000141 	b.ne	40e7d0 <_ZN13PriorityQueue8GenerateE2PT+0x2a0>  // b.any
  40e7ac:	f94057e0 	ldr	x0, [sp, #168]
  40e7b0:	b4fff1a0 	cbz	x0, 40e5e4 <_ZN13PriorityQueue8GenerateE2PT+0xb4>
  40e7b4:	f9405fe1 	ldr	x1, [sp, #184]
  40e7b8:	cb000021 	sub	x1, x1, x0
  40e7bc:	97ffce41 	bl	4020c0 <_ZdlPvm@plt>
  40e7c0:	17ffff89 	b	40e5e4 <_ZN13PriorityQueue8GenerateE2PT+0xb4>
  40e7c4:	91008294 	add	x20, x20, #0x20
  40e7c8:	eb1402bf 	cmp	x21, x20
  40e7cc:	54ffff00 	b.eq	40e7ac <_ZN13PriorityQueue8GenerateE2PT+0x27c>  // b.none
  40e7d0:	aa1403e1 	mov	x1, x20
  40e7d4:	f8410420 	ldr	x0, [x1], #16
  40e7d8:	eb01001f 	cmp	x0, x1
  40e7dc:	54ffff40 	b.eq	40e7c4 <_ZN13PriorityQueue8GenerateE2PT+0x294>  // b.none
  40e7e0:	f9400a81 	ldr	x1, [x20, #16]
  40e7e4:	91000421 	add	x1, x1, #0x1
  40e7e8:	97ffce36 	bl	4020c0 <_ZdlPvm@plt>
  40e7ec:	17fffff6 	b	40e7c4 <_ZN13PriorityQueue8GenerateE2PT+0x294>
  40e7f0:	b9418ac0 	ldr	w0, [x22, #392]
  40e7f4:	11000400 	add	w0, w0, #0x1
  40e7f8:	b9018ac0 	str	w0, [x22, #392]
  40e7fc:	f94053e0 	ldr	x0, [sp, #160]
  40e800:	eb15001f 	cmp	x0, x21
  40e804:	54000080 	b.eq	40e814 <_ZN13PriorityQueue8GenerateE2PT+0x2e4>  // b.none
  40e808:	f9405be1 	ldr	x1, [sp, #176]
  40e80c:	91000421 	add	x1, x1, #0x1
  40e810:	97ffce2c 	bl	4020c0 <_ZdlPvm@plt>
  40e814:	91000694 	add	x20, x20, #0x1
  40e818:	f9401e60 	ldr	x0, [x19, #56]
  40e81c:	b9400000 	ldr	w0, [x0]
  40e820:	6b14001f 	cmp	w0, w20
  40e824:	540034ad 	b.le	40eeb8 <_ZN13PriorityQueue8GenerateE2PT+0x988>
  40e828:	d37bea80 	lsl	x0, x20, #5
  40e82c:	f94006e1 	ldr	x1, [x23, #8]
  40e830:	8b000022 	add	x2, x1, x0
  40e834:	f90053f5 	str	x21, [sp, #160]
  40e838:	f8606821 	ldr	x1, [x1, x0]
  40e83c:	f9400442 	ldr	x2, [x2, #8]
  40e840:	52800003 	mov	w3, #0x0                   	// #0
  40e844:	8b020022 	add	x2, x1, x2
  40e848:	910283e0 	add	x0, sp, #0xa0
  40e84c:	97ffed02 	bl	409c54 <_ZNSt7__cxx1112basic_stringIcSt11char_traitsIcESaIcEE12_M_constructIPcEEvT_S7_St20forward_iterator_tag>
  40e850:	910283e1 	add	x1, sp, #0xa0
  40e854:	aa1803e0 	mov	x0, x24
  40e858:	94000544 	bl	40fd68 <_ZNSt6vectorINSt7__cxx1112basic_stringIcSt11char_traitsIcESaIcEEESaIS5_EE12emplace_backIJRS5_EEEvDpOT_>
  40e85c:	17ffffe5 	b	40e7f0 <_ZN13PriorityQueue8GenerateE2PT+0x2c0>
  40e860:	910283e1 	add	x1, sp, #0xa0
  40e864:	f9403be0 	ldr	x0, [sp, #112]
  40e868:	97ffd658 	bl	4041c8 <_ZN5model10FindLetterE7segment>
  40e86c:	93407c01 	sxtw	x1, w0
  40e870:	f94026c2 	ldr	x2, [x22, #72]
  40e874:	8b20c420 	add	x0, x1, w0, sxtw #1
  40e878:	d37ef400 	lsl	x0, x0, #2
  40e87c:	cb010000 	sub	x0, x0, x1
  40e880:	8b001040 	add	x0, x2, x0, lsl #4
  40e884:	937b7f21 	sbfiz	x1, x25, #5, #32
  40e888:	f9400403 	ldr	x3, [x0, #8]
  40e88c:	aa0103e0 	mov	x0, x1
  40e890:	8b010061 	add	x1, x3, x1
  40e894:	f9400422 	ldr	x2, [x1, #8]
  40e898:	f8606861 	ldr	x1, [x3, x0]
  40e89c:	910203e0 	add	x0, sp, #0x80
  40e8a0:	97ffcdc0 	bl	401fa0 <_ZNSt7__cxx1112basic_stringIcSt11char_traitsIcESaIcEE9_M_appendEPKcm@plt>
  40e8a4:	f9403fe0 	ldr	x0, [sp, #120]
  40e8a8:	97ffd3f5 	bl	40387c <_ZNSt10_HashtableIiSt4pairIKiiESaIS2_ENSt8__detail10_Select1stESt8equal_toIiESt4hashIiENS4_18_Mod_range_hashingENS4_20_Default_ranged_hashENS4_20_Prime_rehash_policyENS4_17_Hashtable_traitsILb0ELb0ELb1EEEED1Ev>
  40e8ac:	910383e0 	add	x0, sp, #0xe0
  40e8b0:	97ffd3ca 	bl	4037d8 <_ZNSt10_HashtableINSt7__cxx1112basic_stringIcSt11char_traitsIcESaIcEEESt4pairIKS5_iESaIS8_ENSt8__detail10_Select1stESt8equal_toIS5_ESt4hashIS5_ENSA_18_Mod_range_hashingENSA_20_Default_ranged_hashENSA_20_Prime_rehash_policyENSA_17_Hashtable_traitsILb1ELb0ELb1EEEED1Ev>
  40e8b4:	f94063e0 	ldr	x0, [sp, #192]
  40e8b8:	b4000080 	cbz	x0, 40e8c8 <_ZN13PriorityQueue8GenerateE2PT+0x398>
  40e8bc:	f9406be1 	ldr	x1, [sp, #208]
  40e8c0:	cb000021 	sub	x1, x1, x0
  40e8c4:	97ffcdff 	bl	4020c0 <_ZdlPvm@plt>
  40e8c8:	f94057f5 	ldr	x21, [sp, #168]
  40e8cc:	f9405bfc 	ldr	x28, [sp, #176]
  40e8d0:	eb1c02bf 	cmp	x21, x28
  40e8d4:	54000521 	b.ne	40e978 <_ZN13PriorityQueue8GenerateE2PT+0x448>  // b.any
  40e8d8:	f94057e0 	ldr	x0, [sp, #168]
  40e8dc:	b4000080 	cbz	x0, 40e8ec <_ZN13PriorityQueue8GenerateE2PT+0x3bc>
  40e8e0:	f9405fe1 	ldr	x1, [sp, #184]
  40e8e4:	cb000021 	sub	x1, x1, x0
  40e8e8:	97ffcdf6 	bl	4020c0 <_ZdlPvm@plt>
  40e8ec:	f9400260 	ldr	x0, [x19]
  40e8f0:	8b140001 	add	x1, x0, x20
  40e8f4:	b8746800 	ldr	w0, [x0, x20]
  40e8f8:	7100081f 	cmp	w0, #0x2
  40e8fc:	540004e0 	b.eq	40e998 <_ZN13PriorityQueue8GenerateE2PT+0x468>  // b.none
  40e900:	f9400260 	ldr	x0, [x19]
  40e904:	8b140001 	add	x1, x0, x20
  40e908:	b8746800 	ldr	w0, [x0, x20]
  40e90c:	71000c1f 	cmp	w0, #0x3
  40e910:	54000a60 	b.eq	40ea5c <_ZN13PriorityQueue8GenerateE2PT+0x52c>  // b.none
  40e914:	f9400660 	ldr	x0, [x19, #8]
  40e918:	f9400261 	ldr	x1, [x19]
  40e91c:	cb010000 	sub	x0, x0, x1
  40e920:	9344fc00 	asr	x0, x0, #4
  40e924:	9b1b7c00 	mul	x0, x0, x27
  40e928:	d1000400 	sub	x0, x0, #0x1
  40e92c:	eb18001f 	cmp	x0, x24
  40e930:	54000f60 	b.eq	40eb1c <_ZN13PriorityQueue8GenerateE2PT+0x5ec>  // b.none
  40e934:	910012f7 	add	x23, x23, #0x4
  40e938:	9102c294 	add	x20, x20, #0xb0
  40e93c:	91000718 	add	x24, x24, #0x1
  40e940:	eb17035f 	cmp	x26, x23
  40e944:	54000ec0 	b.eq	40eb1c <_ZN13PriorityQueue8GenerateE2PT+0x5ec>  // b.none
  40e948:	b94002f9 	ldr	w25, [x23]
  40e94c:	f9400260 	ldr	x0, [x19]
  40e950:	8b140001 	add	x1, x0, x20
  40e954:	b8746800 	ldr	w0, [x0, x20]
  40e958:	7100041f 	cmp	w0, #0x1
  40e95c:	54fffc81 	b.ne	40e8ec <_ZN13PriorityQueue8GenerateE2PT+0x3bc>  // b.any
  40e960:	910283e0 	add	x0, sp, #0xa0
  40e964:	97ffef48 	bl	40a684 <_ZN7segmentC1ERKS_>
  40e968:	17ffffbe 	b	40e860 <_ZN13PriorityQueue8GenerateE2PT+0x330>
  40e96c:	910082b5 	add	x21, x21, #0x20
  40e970:	eb15039f 	cmp	x28, x21
  40e974:	54fffb20 	b.eq	40e8d8 <_ZN13PriorityQueue8GenerateE2PT+0x3a8>  // b.none
  40e978:	aa1503e1 	mov	x1, x21
  40e97c:	f8410420 	ldr	x0, [x1], #16
  40e980:	eb01001f 	cmp	x0, x1
  40e984:	54ffff40 	b.eq	40e96c <_ZN13PriorityQueue8GenerateE2PT+0x43c>  // b.none
  40e988:	f9400aa1 	ldr	x1, [x21, #16]
  40e98c:	91000421 	add	x1, x1, #0x1
  40e990:	97ffcdcc 	bl	4020c0 <_ZdlPvm@plt>
  40e994:	17fffff6 	b	40e96c <_ZN13PriorityQueue8GenerateE2PT+0x43c>
  40e998:	910283e0 	add	x0, sp, #0xa0
  40e99c:	97ffef3a 	bl	40a684 <_ZN7segmentC1ERKS_>
  40e9a0:	910283e1 	add	x1, sp, #0xa0
  40e9a4:	f9403be0 	ldr	x0, [sp, #112]
  40e9a8:	97ffd621 	bl	40422c <_ZN5model9FindDigitE7segment>
  40e9ac:	93407c01 	sxtw	x1, w0
  40e9b0:	f94032c2 	ldr	x2, [x22, #96]
  40e9b4:	8b20c420 	add	x0, x1, w0, sxtw #1
  40e9b8:	d37ef400 	lsl	x0, x0, #2
  40e9bc:	cb010000 	sub	x0, x0, x1
  40e9c0:	8b001040 	add	x0, x2, x0, lsl #4
  40e9c4:	937b7f21 	sbfiz	x1, x25, #5, #32
  40e9c8:	f9400403 	ldr	x3, [x0, #8]
  40e9cc:	aa0103e0 	mov	x0, x1
  40e9d0:	8b010061 	add	x1, x3, x1
  40e9d4:	f9400422 	ldr	x2, [x1, #8]
  40e9d8:	f8606861 	ldr	x1, [x3, x0]
  40e9dc:	910203e0 	add	x0, sp, #0x80
  40e9e0:	97ffcd70 	bl	401fa0 <_ZNSt7__cxx1112basic_stringIcSt11char_traitsIcESaIcEE9_M_appendEPKcm@plt>
  40e9e4:	f9403fe0 	ldr	x0, [sp, #120]
  40e9e8:	97ffd3a5 	bl	40387c <_ZNSt10_HashtableIiSt4pairIKiiESaIS2_ENSt8__detail10_Select1stESt8equal_toIiESt4hashIiENS4_18_Mod_range_hashingENS4_20_Default_ranged_hashENS4_20_Prime_rehash_policyENS4_17_Hashtable_traitsILb0ELb0ELb1EEEED1Ev>
  40e9ec:	910383e0 	add	x0, sp, #0xe0
  40e9f0:	97ffd37a 	bl	4037d8 <_ZNSt10_HashtableINSt7__cxx1112basic_stringIcSt11char_traitsIcESaIcEEESt4pairIKS5_iESaIS8_ENSt8__detail10_Select1stESt8equal_toIS5_ESt4hashIS5_ENSA_18_Mod_range_hashingENSA_20_Default_ranged_hashENSA_20_Prime_rehash_policyENSA_17_Hashtable_traitsILb1ELb0ELb1EEEED1Ev>
  40e9f4:	f94063e0 	ldr	x0, [sp, #192]
  40e9f8:	b4000080 	cbz	x0, 40ea08 <_ZN13PriorityQueue8GenerateE2PT+0x4d8>
  40e9fc:	f9406be1 	ldr	x1, [sp, #208]
  40ea00:	cb000021 	sub	x1, x1, x0
  40ea04:	97ffcdaf 	bl	4020c0 <_ZdlPvm@plt>
  40ea08:	f94057f5 	ldr	x21, [sp, #168]
  40ea0c:	f9405bfc 	ldr	x28, [sp, #176]
  40ea10:	eb1c02bf 	cmp	x21, x28
  40ea14:	54000141 	b.ne	40ea3c <_ZN13PriorityQueue8GenerateE2PT+0x50c>  // b.any
  40ea18:	f94057e0 	ldr	x0, [sp, #168]
  40ea1c:	b4fff720 	cbz	x0, 40e900 <_ZN13PriorityQueue8GenerateE2PT+0x3d0>
  40ea20:	f9405fe1 	ldr	x1, [sp, #184]
  40ea24:	cb000021 	sub	x1, x1, x0
  40ea28:	97ffcda6 	bl	4020c0 <_ZdlPvm@plt>
  40ea2c:	17ffffb5 	b	40e900 <_ZN13PriorityQueue8GenerateE2PT+0x3d0>
  40ea30:	910082b5 	add	x21, x21, #0x20
  40ea34:	eb15039f 	cmp	x28, x21
  40ea38:	54ffff00 	b.eq	40ea18 <_ZN13PriorityQueue8GenerateE2PT+0x4e8>  // b.none
  40ea3c:	aa1503e1 	mov	x1, x21
  40ea40:	f8410420 	ldr	x0, [x1], #16
  40ea44:	eb01001f 	cmp	x0, x1
  40ea48:	54ffff40 	b.eq	40ea30 <_ZN13PriorityQueue8GenerateE2PT+0x500>  // b.none
  40ea4c:	f9400aa1 	ldr	x1, [x21, #16]
  40ea50:	91000421 	add	x1, x1, #0x1
  40ea54:	97ffcd9b 	bl	4020c0 <_ZdlPvm@plt>
  40ea58:	17fffff6 	b	40ea30 <_ZN13PriorityQueue8GenerateE2PT+0x500>
  40ea5c:	910283e0 	add	x0, sp, #0xa0
  40ea60:	97ffef09 	bl	40a684 <_ZN7segmentC1ERKS_>
  40ea64:	910283e1 	add	x1, sp, #0xa0
  40ea68:	f9403be0 	ldr	x0, [sp, #112]
  40ea6c:	97ffd609 	bl	404290 <_ZN5model10FindSymbolE7segment>
  40ea70:	93407c01 	sxtw	x1, w0
  40ea74:	f9403ec2 	ldr	x2, [x22, #120]
  40ea78:	8b20c420 	add	x0, x1, w0, sxtw #1
  40ea7c:	d37ef400 	lsl	x0, x0, #2
  40ea80:	cb010000 	sub	x0, x0, x1
  40ea84:	8b001040 	add	x0, x2, x0, lsl #4
  40ea88:	937b7f39 	sbfiz	x25, x25, #5, #32
  40ea8c:	f9400400 	ldr	x0, [x0, #8]
  40ea90:	8b190001 	add	x1, x0, x25
  40ea94:	f9400422 	ldr	x2, [x1, #8]
  40ea98:	f8796801 	ldr	x1, [x0, x25]
  40ea9c:	910203e0 	add	x0, sp, #0x80
  40eaa0:	97ffcd40 	bl	401fa0 <_ZNSt7__cxx1112basic_stringIcSt11char_traitsIcESaIcEE9_M_appendEPKcm@plt>
  40eaa4:	f9403fe0 	ldr	x0, [sp, #120]
  40eaa8:	97ffd375 	bl	40387c <_ZNSt10_HashtableIiSt4pairIKiiESaIS2_ENSt8__detail10_Select1stESt8equal_toIiESt4hashIiENS4_18_Mod_range_hashingENS4_20_Default_ranged_hashENS4_20_Prime_rehash_policyENS4_17_Hashtable_traitsILb0ELb0ELb1EEEED1Ev>
  40eaac:	910383e0 	add	x0, sp, #0xe0
  40eab0:	97ffd34a 	bl	4037d8 <_ZNSt10_HashtableINSt7__cxx1112basic_stringIcSt11char_traitsIcESaIcEEESt4pairIKS5_iESaIS8_ENSt8__detail10_Select1stESt8equal_toIS5_ESt4hashIS5_ENSA_18_Mod_range_hashingENSA_20_Default_ranged_hashENSA_20_Prime_rehash_policyENSA_17_Hashtable_traitsILb1ELb0ELb1EEEED1Ev>
  40eab4:	f94063e0 	ldr	x0, [sp, #192]
  40eab8:	b4000080 	cbz	x0, 40eac8 <_ZN13PriorityQueue8GenerateE2PT+0x598>
  40eabc:	f9406be1 	ldr	x1, [sp, #208]
  40eac0:	cb000021 	sub	x1, x1, x0
  40eac4:	97ffcd7f 	bl	4020c0 <_ZdlPvm@plt>
  40eac8:	f94057f5 	ldr	x21, [sp, #168]
  40eacc:	f9405bf9 	ldr	x25, [sp, #176]
  40ead0:	eb1902bf 	cmp	x21, x25
  40ead4:	54000141 	b.ne	40eafc <_ZN13PriorityQueue8GenerateE2PT+0x5cc>  // b.any
  40ead8:	f94057e0 	ldr	x0, [sp, #168]
  40eadc:	b4fff1c0 	cbz	x0, 40e914 <_ZN13PriorityQueue8GenerateE2PT+0x3e4>
  40eae0:	f9405fe1 	ldr	x1, [sp, #184]
  40eae4:	cb000021 	sub	x1, x1, x0
  40eae8:	97ffcd76 	bl	4020c0 <_ZdlPvm@plt>
  40eaec:	17ffff8a 	b	40e914 <_ZN13PriorityQueue8GenerateE2PT+0x3e4>
  40eaf0:	910082b5 	add	x21, x21, #0x20
  40eaf4:	eb15033f 	cmp	x25, x21
  40eaf8:	54ffff00 	b.eq	40ead8 <_ZN13PriorityQueue8GenerateE2PT+0x5a8>  // b.none
  40eafc:	aa1503e1 	mov	x1, x21
  40eb00:	f8410420 	ldr	x0, [x1], #16
  40eb04:	eb01001f 	cmp	x0, x1
  40eb08:	54ffff40 	b.eq	40eaf0 <_ZN13PriorityQueue8GenerateE2PT+0x5c0>  // b.none
  40eb0c:	f9400aa1 	ldr	x1, [x21, #16]
  40eb10:	91000421 	add	x1, x1, #0x1
  40eb14:	97ffcd6b 	bl	4020c0 <_ZdlPvm@plt>
  40eb18:	17fffff6 	b	40eaf0 <_ZN13PriorityQueue8GenerateE2PT+0x5c0>
  40eb1c:	f9400262 	ldr	x2, [x19]
  40eb20:	f9400660 	ldr	x0, [x19, #8]
  40eb24:	cb020000 	sub	x0, x0, x2
  40eb28:	d102c000 	sub	x0, x0, #0xb0
  40eb2c:	8b000041 	add	x1, x2, x0
  40eb30:	b8606840 	ldr	w0, [x2, x0]
  40eb34:	7100041f 	cmp	w0, #0x1
  40eb38:	540004e0 	b.eq	40ebd4 <_ZN13PriorityQueue8GenerateE2PT+0x6a4>  // b.none
  40eb3c:	f9400262 	ldr	x2, [x19]
  40eb40:	f9400660 	ldr	x0, [x19, #8]
  40eb44:	cb020000 	sub	x0, x0, x2
  40eb48:	d102c000 	sub	x0, x0, #0xb0
  40eb4c:	8b000041 	add	x1, x2, x0
  40eb50:	b8606840 	ldr	w0, [x2, x0]
  40eb54:	7100081f 	cmp	w0, #0x2
  40eb58:	54000940 	b.eq	40ec80 <_ZN13PriorityQueue8GenerateE2PT+0x750>  // b.none
  40eb5c:	f9400262 	ldr	x2, [x19]
  40eb60:	f9400660 	ldr	x0, [x19, #8]
  40eb64:	cb020000 	sub	x0, x0, x2
  40eb68:	d102c000 	sub	x0, x0, #0xb0
  40eb6c:	8b000041 	add	x1, x2, x0
  40eb70:	b8606840 	ldr	w0, [x2, x0]
  40eb74:	71000c1f 	cmp	w0, #0x3
  40eb78:	54000da0 	b.eq	40ed2c <_ZN13PriorityQueue8GenerateE2PT+0x7fc>  // b.none
  40eb7c:	f9400660 	ldr	x0, [x19, #8]
  40eb80:	f9400261 	ldr	x1, [x19]
  40eb84:	cb010000 	sub	x0, x0, x1
  40eb88:	9344fc00 	asr	x0, x0, #4
  40eb8c:	d2917461 	mov	x1, #0x8ba3                	// #35747
  40eb90:	f2b745c1 	movk	x1, #0xba2e, lsl #16
  40eb94:	f2d45d01 	movk	x1, #0xa2e8, lsl #32
  40eb98:	f2e5d161 	movk	x1, #0x2e8b, lsl #48
  40eb9c:	9b017c00 	mul	x0, x0, x1
  40eba0:	d1000400 	sub	x0, x0, #0x1
  40eba4:	f9401e61 	ldr	x1, [x19, #56]
  40eba8:	b8607820 	ldr	w0, [x1, x0, lsl #2]
  40ebac:	7100001f 	cmp	w0, #0x0
  40ebb0:	5400172d 	b.le	40ee94 <_ZN13PriorityQueue8GenerateE2PT+0x964>
  40ebb4:	d2800014 	mov	x20, #0x0                   	// #0
  40ebb8:	9102c3f5 	add	x21, sp, #0xb0
  40ebbc:	910642d8 	add	x24, x22, #0x190
  40ebc0:	d2917477 	mov	x23, #0x8ba3                	// #35747
  40ebc4:	f2b745d7 	movk	x23, #0xba2e, lsl #16
  40ebc8:	f2d45d17 	movk	x23, #0xa2e8, lsl #32
  40ebcc:	f2e5d177 	movk	x23, #0x2e8b, lsl #48
  40ebd0:	140000a5 	b	40ee64 <_ZN13PriorityQueue8GenerateE2PT+0x934>
  40ebd4:	910062d4 	add	x20, x22, #0x18
  40ebd8:	910283e0 	add	x0, sp, #0xa0
  40ebdc:	97ffeeaa 	bl	40a684 <_ZN7segmentC1ERKS_>
  40ebe0:	910283e1 	add	x1, sp, #0xa0
  40ebe4:	aa1403e0 	mov	x0, x20
  40ebe8:	97ffd578 	bl	4041c8 <_ZN5model10FindLetterE7segment>
  40ebec:	93407c01 	sxtw	x1, w0
  40ebf0:	8b20c420 	add	x0, x1, w0, sxtw #1
  40ebf4:	d37ef400 	lsl	x0, x0, #2
  40ebf8:	cb010000 	sub	x0, x0, x1
  40ebfc:	f94026c1 	ldr	x1, [x22, #72]
  40ec00:	8b001020 	add	x0, x1, x0, lsl #4
  40ec04:	f90037e0 	str	x0, [sp, #104]
  40ec08:	910463e0 	add	x0, sp, #0x118
  40ec0c:	97ffd31c 	bl	40387c <_ZNSt10_HashtableIiSt4pairIKiiESaIS2_ENSt8__detail10_Select1stESt8equal_toIiESt4hashIiENS4_18_Mod_range_hashingENS4_20_Default_ranged_hashENS4_20_Prime_rehash_policyENS4_17_Hashtable_traitsILb0ELb0ELb1EEEED1Ev>
  40ec10:	910383e0 	add	x0, sp, #0xe0
  40ec14:	97ffd2f1 	bl	4037d8 <_ZNSt10_HashtableINSt7__cxx1112basic_stringIcSt11char_traitsIcESaIcEEESt4pairIKS5_iESaIS8_ENSt8__detail10_Select1stESt8equal_toIS5_ESt4hashIS5_ENSA_18_Mod_range_hashingENSA_20_Default_ranged_hashENSA_20_Prime_rehash_policyENSA_17_Hashtable_traitsILb1ELb0ELb1EEEED1Ev>
  40ec18:	f94063e0 	ldr	x0, [sp, #192]
  40ec1c:	b4000080 	cbz	x0, 40ec2c <_ZN13PriorityQueue8GenerateE2PT+0x6fc>
  40ec20:	f9406be1 	ldr	x1, [sp, #208]
  40ec24:	cb000021 	sub	x1, x1, x0
  40ec28:	97ffcd26 	bl	4020c0 <_ZdlPvm@plt>
  40ec2c:	f94057f4 	ldr	x20, [sp, #168]
  40ec30:	f9405bf5 	ldr	x21, [sp, #176]
  40ec34:	eb15029f 	cmp	x20, x21
  40ec38:	540001a1 	b.ne	40ec6c <_ZN13PriorityQueue8GenerateE2PT+0x73c>  // b.any
  40ec3c:	f94057e0 	ldr	x0, [sp, #168]
  40ec40:	b4fff7e0 	cbz	x0, 40eb3c <_ZN13PriorityQueue8GenerateE2PT+0x60c>
  40ec44:	f9405fe1 	ldr	x1, [sp, #184]
  40ec48:	cb000021 	sub	x1, x1, x0
  40ec4c:	97ffcd1d 	bl	4020c0 <_ZdlPvm@plt>
  40ec50:	17ffffbb 	b	40eb3c <_ZN13PriorityQueue8GenerateE2PT+0x60c>
  40ec54:	f9400a81 	ldr	x1, [x20, #16]
  40ec58:	91000421 	add	x1, x1, #0x1
  40ec5c:	97ffcd19 	bl	4020c0 <_ZdlPvm@plt>
  40ec60:	91008294 	add	x20, x20, #0x20
  40ec64:	eb1402bf 	cmp	x21, x20
  40ec68:	54fffea0 	b.eq	40ec3c <_ZN13PriorityQueue8GenerateE2PT+0x70c>  // b.none
  40ec6c:	aa1403e1 	mov	x1, x20
  40ec70:	f8410420 	ldr	x0, [x1], #16
  40ec74:	eb01001f 	cmp	x0, x1
  40ec78:	54fffee1 	b.ne	40ec54 <_ZN13PriorityQueue8GenerateE2PT+0x724>  // b.any
  40ec7c:	17fffff9 	b	40ec60 <_ZN13PriorityQueue8GenerateE2PT+0x730>
  40ec80:	910062d4 	add	x20, x22, #0x18
  40ec84:	910283e0 	add	x0, sp, #0xa0
  40ec88:	97ffee7f 	bl	40a684 <_ZN7segmentC1ERKS_>
  40ec8c:	910283e1 	add	x1, sp, #0xa0
  40ec90:	aa1403e0 	mov	x0, x20
  40ec94:	97ffd566 	bl	40422c <_ZN5model9FindDigitE7segment>
  40ec98:	93407c01 	sxtw	x1, w0
  40ec9c:	8b20c420 	add	x0, x1, w0, sxtw #1
  40eca0:	d37ef400 	lsl	x0, x0, #2
  40eca4:	cb010000 	sub	x0, x0, x1
  40eca8:	f94032c1 	ldr	x1, [x22, #96]
  40ecac:	8b001020 	add	x0, x1, x0, lsl #4
  40ecb0:	f90037e0 	str	x0, [sp, #104]
  40ecb4:	910463e0 	add	x0, sp, #0x118
  40ecb8:	97ffd2f1 	bl	40387c <_ZNSt10_HashtableIiSt4pairIKiiESaIS2_ENSt8__detail10_Select1stESt8equal_toIiESt4hashIiENS4_18_Mod_range_hashingENS4_20_Default_ranged_hashENS4_20_Prime_rehash_policyENS4_17_Hashtable_traitsILb0ELb0ELb1EEEED1Ev>
  40ecbc:	910383e0 	add	x0, sp, #0xe0
  40ecc0:	97ffd2c6 	bl	4037d8 <_ZNSt10_HashtableINSt7__cxx1112basic_stringIcSt11char_traitsIcESaIcEEESt4pairIKS5_iESaIS8_ENSt8__detail10_Select1stESt8equal_toIS5_ESt4hashIS5_ENSA_18_Mod_range_hashingENSA_20_Default_ranged_hashENSA_20_Prime_rehash_policyENSA_17_Hashtable_traitsILb1ELb0ELb1EEEED1Ev>
  40ecc4:	f94063e0 	ldr	x0, [sp, #192]
  40ecc8:	b4000080 	cbz	x0, 40ecd8 <_ZN13PriorityQueue8GenerateE2PT+0x7a8>
  40eccc:	f9406be1 	ldr	x1, [sp, #208]
  40ecd0:	cb000021 	sub	x1, x1, x0
  40ecd4:	97ffccfb 	bl	4020c0 <_ZdlPvm@plt>
  40ecd8:	f94057f4 	ldr	x20, [sp, #168]
  40ecdc:	f9405bf5 	ldr	x21, [sp, #176]
  40ece0:	eb15029f 	cmp	x20, x21
  40ece4:	540001a1 	b.ne	40ed18 <_ZN13PriorityQueue8GenerateE2PT+0x7e8>  // b.any
  40ece8:	f94057e0 	ldr	x0, [sp, #168]
  40ecec:	b4fff380 	cbz	x0, 40eb5c <_ZN13PriorityQueue8GenerateE2PT+0x62c>
  40ecf0:	f9405fe1 	ldr	x1, [sp, #184]
  40ecf4:	cb000021 	sub	x1, x1, x0
  40ecf8:	97ffccf2 	bl	4020c0 <_ZdlPvm@plt>
  40ecfc:	17ffff98 	b	40eb5c <_ZN13PriorityQueue8GenerateE2PT+0x62c>
  40ed00:	f9400a81 	ldr	x1, [x20, #16]
  40ed04:	91000421 	add	x1, x1, #0x1
  40ed08:	97ffccee 	bl	4020c0 <_ZdlPvm@plt>
  40ed0c:	91008294 	add	x20, x20, #0x20
  40ed10:	eb1402bf 	cmp	x21, x20
  40ed14:	54fffea0 	b.eq	40ece8 <_ZN13PriorityQueue8GenerateE2PT+0x7b8>  // b.none
  40ed18:	aa1403e1 	mov	x1, x20
  40ed1c:	f8410420 	ldr	x0, [x1], #16
  40ed20:	eb01001f 	cmp	x0, x1
  40ed24:	54fffee1 	b.ne	40ed00 <_ZN13PriorityQueue8GenerateE2PT+0x7d0>  // b.any
  40ed28:	17fffff9 	b	40ed0c <_ZN13PriorityQueue8GenerateE2PT+0x7dc>
  40ed2c:	910062d4 	add	x20, x22, #0x18
  40ed30:	910283e0 	add	x0, sp, #0xa0
  40ed34:	97ffee54 	bl	40a684 <_ZN7segmentC1ERKS_>
  40ed38:	910283e1 	add	x1, sp, #0xa0
  40ed3c:	aa1403e0 	mov	x0, x20
  40ed40:	97ffd554 	bl	404290 <_ZN5model10FindSymbolE7segment>
  40ed44:	93407c01 	sxtw	x1, w0
  40ed48:	8b20c420 	add	x0, x1, w0, sxtw #1
  40ed4c:	d37ef400 	lsl	x0, x0, #2
  40ed50:	cb010000 	sub	x0, x0, x1
  40ed54:	f9403ec1 	ldr	x1, [x22, #120]
  40ed58:	8b001020 	add	x0, x1, x0, lsl #4
  40ed5c:	f90037e0 	str	x0, [sp, #104]
  40ed60:	910463e0 	add	x0, sp, #0x118
  40ed64:	97ffd2c6 	bl	40387c <_ZNSt10_HashtableIiSt4pairIKiiESaIS2_ENSt8__detail10_Select1stESt8equal_toIiESt4hashIiENS4_18_Mod_range_hashingENS4_20_Default_ranged_hashENS4_20_Prime_rehash_policyENS4_17_Hashtable_traitsILb0ELb0ELb1EEEED1Ev>
  40ed68:	910383e0 	add	x0, sp, #0xe0
  40ed6c:	97ffd29b 	bl	4037d8 <_ZNSt10_HashtableINSt7__cxx1112basic_stringIcSt11char_traitsIcESaIcEEESt4pairIKS5_iESaIS8_ENSt8__detail10_Select1stESt8equal_toIS5_ESt4hashIS5_ENSA_18_Mod_range_hashingENSA_20_Default_ranged_hashENSA_20_Prime_rehash_policyENSA_17_Hashtable_traitsILb1ELb0ELb1EEEED1Ev>
  40ed70:	f94063e0 	ldr	x0, [sp, #192]
  40ed74:	b4000080 	cbz	x0, 40ed84 <_ZN13PriorityQueue8GenerateE2PT+0x854>
  40ed78:	f9406be1 	ldr	x1, [sp, #208]
  40ed7c:	cb000021 	sub	x1, x1, x0
  40ed80:	97ffccd0 	bl	4020c0 <_ZdlPvm@plt>
  40ed84:	f94057f4 	ldr	x20, [sp, #168]
  40ed88:	f9405bf5 	ldr	x21, [sp, #176]
  40ed8c:	eb15029f 	cmp	x20, x21
  40ed90:	540001a1 	b.ne	40edc4 <_ZN13PriorityQueue8GenerateE2PT+0x894>  // b.any
  40ed94:	f94057e0 	ldr	x0, [sp, #168]
  40ed98:	b4ffef20 	cbz	x0, 40eb7c <_ZN13PriorityQueue8GenerateE2PT+0x64c>
  40ed9c:	f9405fe1 	ldr	x1, [sp, #184]
  40eda0:	cb000021 	sub	x1, x1, x0
  40eda4:	97ffccc7 	bl	4020c0 <_ZdlPvm@plt>
  40eda8:	17ffff75 	b	40eb7c <_ZN13PriorityQueue8GenerateE2PT+0x64c>
  40edac:	f9400a81 	ldr	x1, [x20, #16]
  40edb0:	91000421 	add	x1, x1, #0x1
  40edb4:	97ffccc3 	bl	4020c0 <_ZdlPvm@plt>
  40edb8:	91008294 	add	x20, x20, #0x20
  40edbc:	eb1402bf 	cmp	x21, x20
  40edc0:	54fffea0 	b.eq	40ed94 <_ZN13PriorityQueue8GenerateE2PT+0x864>  // b.none
  40edc4:	aa1403e1 	mov	x1, x20
  40edc8:	f8410420 	ldr	x0, [x1], #16
  40edcc:	eb01001f 	cmp	x0, x1
  40edd0:	54fffee1 	b.ne	40edac <_ZN13PriorityQueue8GenerateE2PT+0x87c>  // b.any
  40edd4:	17fffff9 	b	40edb8 <_ZN13PriorityQueue8GenerateE2PT+0x888>
  40edd8:	f9400762 	ldr	x2, [x27, #8]
  40eddc:	f8796b41 	ldr	x1, [x26, x25]
  40ede0:	910283e0 	add	x0, sp, #0xa0
  40ede4:	97ffcc6f 	bl	401fa0 <_ZNSt7__cxx1112basic_stringIcSt11char_traitsIcESaIcEE9_M_appendEPKcm@plt>
  40ede8:	14000008 	b	40ee08 <_ZN13PriorityQueue8GenerateE2PT+0x8d8>
  40edec:	aa0003f3 	mov	x19, x0
  40edf0:	910283e0 	add	x0, sp, #0xa0
  40edf4:	97ffccc7 	bl	402110 <_ZNSt7__cxx1112basic_stringIcSt11char_traitsIcESaIcEE10_M_disposeEv@plt>
  40edf8:	910203e0 	add	x0, sp, #0x80
  40edfc:	97ffccc5 	bl	402110 <_ZNSt7__cxx1112basic_stringIcSt11char_traitsIcESaIcEE10_M_disposeEv@plt>
  40ee00:	aa1303e0 	mov	x0, x19
  40ee04:	97ffcd17 	bl	402260 <_Unwind_Resume@plt>
  40ee08:	910283e1 	add	x1, sp, #0xa0
  40ee0c:	aa1803e0 	mov	x0, x24
  40ee10:	940003d6 	bl	40fd68 <_ZNSt6vectorINSt7__cxx1112basic_stringIcSt11char_traitsIcESaIcEEESaIS5_EE12emplace_backIJRS5_EEEvDpOT_>
  40ee14:	b9418ac0 	ldr	w0, [x22, #392]
  40ee18:	11000400 	add	w0, w0, #0x1
  40ee1c:	b9018ac0 	str	w0, [x22, #392]
  40ee20:	f94053e0 	ldr	x0, [sp, #160]
  40ee24:	eb15001f 	cmp	x0, x21
  40ee28:	54000080 	b.eq	40ee38 <_ZN13PriorityQueue8GenerateE2PT+0x908>  // b.none
  40ee2c:	f9405be1 	ldr	x1, [sp, #176]
  40ee30:	91000421 	add	x1, x1, #0x1
  40ee34:	97ffcca3 	bl	4020c0 <_ZdlPvm@plt>
  40ee38:	91000694 	add	x20, x20, #0x1
  40ee3c:	f9400660 	ldr	x0, [x19, #8]
  40ee40:	f9400261 	ldr	x1, [x19]
  40ee44:	cb010000 	sub	x0, x0, x1
  40ee48:	9344fc00 	asr	x0, x0, #4
  40ee4c:	9b177c00 	mul	x0, x0, x23
  40ee50:	d1000400 	sub	x0, x0, #0x1
  40ee54:	f9401e61 	ldr	x1, [x19, #56]
  40ee58:	b8607820 	ldr	w0, [x1, x0, lsl #2]
  40ee5c:	6b14001f 	cmp	w0, w20
  40ee60:	540001ad 	b.le	40ee94 <_ZN13PriorityQueue8GenerateE2PT+0x964>
  40ee64:	d37bea99 	lsl	x25, x20, #5
  40ee68:	f94037e0 	ldr	x0, [sp, #104]
  40ee6c:	f940041a 	ldr	x26, [x0, #8]
  40ee70:	8b19035b 	add	x27, x26, x25
  40ee74:	f90053f5 	str	x21, [sp, #160]
  40ee78:	f94043e1 	ldr	x1, [sp, #128]
  40ee7c:	52800003 	mov	w3, #0x0                   	// #0
  40ee80:	f94047e2 	ldr	x2, [sp, #136]
  40ee84:	8b020022 	add	x2, x1, x2
  40ee88:	910283e0 	add	x0, sp, #0xa0
  40ee8c:	97ffeb72 	bl	409c54 <_ZNSt7__cxx1112basic_stringIcSt11char_traitsIcESaIcEE12_M_constructIPcEEvT_S7_St20forward_iterator_tag>
  40ee90:	17ffffd2 	b	40edd8 <_ZN13PriorityQueue8GenerateE2PT+0x8a8>
  40ee94:	f94043e0 	ldr	x0, [sp, #128]
  40ee98:	910243e1 	add	x1, sp, #0x90
  40ee9c:	eb01001f 	cmp	x0, x1
  40eea0:	540008a0 	b.eq	40efb4 <_ZN13PriorityQueue8GenerateE2PT+0xa84>  // b.none
  40eea4:	f9404be1 	ldr	x1, [sp, #144]
  40eea8:	91000421 	add	x1, x1, #0x1
  40eeac:	97ffcc85 	bl	4020c0 <_ZdlPvm@plt>
  40eeb0:	a9446bf9 	ldp	x25, x26, [sp, #64]
  40eeb4:	a94573fb 	ldp	x27, x28, [sp, #80]
  40eeb8:	a94153f3 	ldp	x19, x20, [sp, #16]
  40eebc:	a9425bf5 	ldp	x21, x22, [sp, #32]
  40eec0:	a94363f7 	ldp	x23, x24, [sp, #48]
  40eec4:	a8d57bfd 	ldp	x29, x30, [sp], #336
  40eec8:	d65f03c0 	ret
  40eecc:	a9046bf9 	stp	x25, x26, [sp, #64]
  40eed0:	a90573fb 	stp	x27, x28, [sp, #80]
  40eed4:	aa0003f3 	mov	x19, x0
  40eed8:	910283e0 	add	x0, sp, #0xa0
  40eedc:	97ffeac4 	bl	4099ec <_ZN7segmentD1Ev>
  40eee0:	aa1303e0 	mov	x0, x19
  40eee4:	97ffccdf 	bl	402260 <_Unwind_Resume@plt>
  40eee8:	a9046bf9 	stp	x25, x26, [sp, #64]
  40eeec:	a90573fb 	stp	x27, x28, [sp, #80]
  40eef0:	aa0003f3 	mov	x19, x0
  40eef4:	910283e0 	add	x0, sp, #0xa0
  40eef8:	97ffeabd 	bl	4099ec <_ZN7segmentD1Ev>
  40eefc:	aa1303e0 	mov	x0, x19
  40ef00:	97ffccd8 	bl	402260 <_Unwind_Resume@plt>
  40ef04:	a9046bf9 	stp	x25, x26, [sp, #64]
  40ef08:	a90573fb 	stp	x27, x28, [sp, #80]
  40ef0c:	aa0003f3 	mov	x19, x0
  40ef10:	910283e0 	add	x0, sp, #0xa0
  40ef14:	97ffeab6 	bl	4099ec <_ZN7segmentD1Ev>
  40ef18:	aa1303e0 	mov	x0, x19
  40ef1c:	97ffccd1 	bl	402260 <_Unwind_Resume@plt>
  40ef20:	a9046bf9 	stp	x25, x26, [sp, #64]
  40ef24:	a90573fb 	stp	x27, x28, [sp, #80]
  40ef28:	aa0003f3 	mov	x19, x0
  40ef2c:	910283e0 	add	x0, sp, #0xa0
  40ef30:	97ffcc78 	bl	402110 <_ZNSt7__cxx1112basic_stringIcSt11char_traitsIcESaIcEE10_M_disposeEv@plt>
  40ef34:	aa1303e0 	mov	x0, x19
  40ef38:	97ffccca 	bl	402260 <_Unwind_Resume@plt>
  40ef3c:	aa0003f3 	mov	x19, x0
  40ef40:	910283e0 	add	x0, sp, #0xa0
  40ef44:	97ffeaaa 	bl	4099ec <_ZN7segmentD1Ev>
  40ef48:	17ffffac 	b	40edf8 <_ZN13PriorityQueue8GenerateE2PT+0x8c8>
  40ef4c:	aa0003f3 	mov	x19, x0
  40ef50:	910283e0 	add	x0, sp, #0xa0
  40ef54:	97ffeaa6 	bl	4099ec <_ZN7segmentD1Ev>
  40ef58:	17ffffa8 	b	40edf8 <_ZN13PriorityQueue8GenerateE2PT+0x8c8>
  40ef5c:	aa0003f3 	mov	x19, x0
  40ef60:	910283e0 	add	x0, sp, #0xa0
  40ef64:	97ffeaa2 	bl	4099ec <_ZN7segmentD1Ev>
  40ef68:	17ffffa4 	b	40edf8 <_ZN13PriorityQueue8GenerateE2PT+0x8c8>
  40ef6c:	aa0003f3 	mov	x19, x0
  40ef70:	910283e0 	add	x0, sp, #0xa0
  40ef74:	97ffea9e 	bl	4099ec <_ZN7segmentD1Ev>
  40ef78:	17ffffa0 	b	40edf8 <_ZN13PriorityQueue8GenerateE2PT+0x8c8>
  40ef7c:	aa0003f3 	mov	x19, x0
  40ef80:	910283e0 	add	x0, sp, #0xa0
  40ef84:	97ffea9a 	bl	4099ec <_ZN7segmentD1Ev>
  40ef88:	17ffff9c 	b	40edf8 <_ZN13PriorityQueue8GenerateE2PT+0x8c8>
  40ef8c:	aa0003f3 	mov	x19, x0
  40ef90:	910283e0 	add	x0, sp, #0xa0
  40ef94:	97ffea96 	bl	4099ec <_ZN7segmentD1Ev>
  40ef98:	17ffff98 	b	40edf8 <_ZN13PriorityQueue8GenerateE2PT+0x8c8>
  40ef9c:	aa0003f3 	mov	x19, x0
  40efa0:	910283e0 	add	x0, sp, #0xa0
  40efa4:	97ffcc5b 	bl	402110 <_ZNSt7__cxx1112basic_stringIcSt11char_traitsIcESaIcEE10_M_disposeEv@plt>
  40efa8:	17ffff94 	b	40edf8 <_ZN13PriorityQueue8GenerateE2PT+0x8c8>
  40efac:	aa0003f3 	mov	x19, x0
  40efb0:	17ffff92 	b	40edf8 <_ZN13PriorityQueue8GenerateE2PT+0x8c8>
  40efb4:	a9446bf9 	ldp	x25, x26, [sp, #64]
  40efb8:	a94573fb 	ldp	x27, x28, [sp, #80]
  40efbc:	17ffffbf 	b	40eeb8 <_ZN13PriorityQueue8GenerateE2PT+0x988>

000000000040efc0 <_ZN13PriorityQueue7PopNextEv>:
  40efc0:	a9b47bfd 	stp	x29, x30, [sp, #-192]!
  40efc4:	910003fd 	mov	x29, sp
  40efc8:	a9025bf5 	stp	x21, x22, [sp, #32]
  40efcc:	aa0003f6 	mov	x22, x0
  40efd0:	f9400001 	ldr	x1, [x0]
  40efd4:	910143e0 	add	x0, sp, #0x50
  40efd8:	97ffee51 	bl	40a91c <_ZN2PTC1ERKS_>
  40efdc:	910143e1 	add	x1, sp, #0x50
  40efe0:	aa1603e0 	mov	x0, x22
  40efe4:	97fffd53 	bl	40e530 <_ZN13PriorityQueue8GenerateE2PT>
  40efe8:	a90153f3 	stp	x19, x20, [sp, #16]
  40efec:	a90363f7 	stp	x23, x24, [sp, #48]
  40eff0:	f94047e0 	ldr	x0, [sp, #136]
  40eff4:	b4000080 	cbz	x0, 40f004 <_ZN13PriorityQueue7PopNextEv+0x44>
  40eff8:	f9404fe1 	ldr	x1, [sp, #152]
  40effc:	cb000021 	sub	x1, x1, x0
  40f000:	97ffcc30 	bl	4020c0 <_ZdlPvm@plt>
  40f004:	f9403be0 	ldr	x0, [sp, #112]
  40f008:	b4000080 	cbz	x0, 40f018 <_ZN13PriorityQueue7PopNextEv+0x58>
  40f00c:	f94043e1 	ldr	x1, [sp, #128]
  40f010:	cb000021 	sub	x1, x1, x0
  40f014:	97ffcc2b 	bl	4020c0 <_ZdlPvm@plt>
  40f018:	f9402bf5 	ldr	x21, [sp, #80]
  40f01c:	f9402ff7 	ldr	x23, [sp, #88]
  40f020:	eb1702bf 	cmp	x21, x23
  40f024:	54000441 	b.ne	40f0ac <_ZN13PriorityQueue7PopNextEv+0xec>  // b.any
  40f028:	f9402be0 	ldr	x0, [sp, #80]
  40f02c:	b4000080 	cbz	x0, 40f03c <_ZN13PriorityQueue7PopNextEv+0x7c>
  40f030:	f94033e1 	ldr	x1, [sp, #96]
  40f034:	cb000021 	sub	x1, x1, x0
  40f038:	97ffcc22 	bl	4020c0 <_ZdlPvm@plt>
  40f03c:	9102a3e8 	add	x8, sp, #0xa8
  40f040:	f94002c0 	ldr	x0, [x22]
  40f044:	97fffb76 	bl	40de1c <_ZN2PT6NewPTsEv>
  40f048:	f94057f7 	ldr	x23, [sp, #168]
  40f04c:	f9405bf8 	ldr	x24, [sp, #176]
  40f050:	eb1802ff 	cmp	x23, x24
  40f054:	54001180 	b.eq	40f284 <_ZN13PriorityQueue7PopNextEv+0x2c4>  // b.none
  40f058:	f90023f9 	str	x25, [sp, #64]
  40f05c:	14000064 	b	40f1ec <_ZN13PriorityQueue7PopNextEv+0x22c>
  40f060:	f9400a61 	ldr	x1, [x19, #16]
  40f064:	91000421 	add	x1, x1, #0x1
  40f068:	97ffcc16 	bl	4020c0 <_ZdlPvm@plt>
  40f06c:	91008273 	add	x19, x19, #0x20
  40f070:	eb13029f 	cmp	x20, x19
  40f074:	540000c0 	b.eq	40f08c <_ZN13PriorityQueue7PopNextEv+0xcc>  // b.none
  40f078:	aa1303e1 	mov	x1, x19
  40f07c:	f8410420 	ldr	x0, [x1], #16
  40f080:	eb01001f 	cmp	x0, x1
  40f084:	54fffee1 	b.ne	40f060 <_ZN13PriorityQueue7PopNextEv+0xa0>  // b.any
  40f088:	17fffff9 	b	40f06c <_ZN13PriorityQueue7PopNextEv+0xac>
  40f08c:	f94006a0 	ldr	x0, [x21, #8]
  40f090:	b4000080 	cbz	x0, 40f0a0 <_ZN13PriorityQueue7PopNextEv+0xe0>
  40f094:	f9400ea1 	ldr	x1, [x21, #24]
  40f098:	cb000021 	sub	x1, x1, x0
  40f09c:	97ffcc09 	bl	4020c0 <_ZdlPvm@plt>
  40f0a0:	9102c2b5 	add	x21, x21, #0xb0
  40f0a4:	eb1502ff 	cmp	x23, x21
  40f0a8:	54fffc00 	b.eq	40f028 <_ZN13PriorityQueue7PopNextEv+0x68>  // b.none
  40f0ac:	9101e2a0 	add	x0, x21, #0x78
  40f0b0:	97ffd1f3 	bl	40387c <_ZNSt10_HashtableIiSt4pairIKiiESaIS2_ENSt8__detail10_Select1stESt8equal_toIiESt4hashIiENS4_18_Mod_range_hashingENS4_20_Default_ranged_hashENS4_20_Prime_rehash_policyENS4_17_Hashtable_traitsILb0ELb0ELb1EEEED1Ev>
  40f0b4:	910102a0 	add	x0, x21, #0x40
  40f0b8:	97ffd1c8 	bl	4037d8 <_ZNSt10_HashtableINSt7__cxx1112basic_stringIcSt11char_traitsIcESaIcEEESt4pairIKS5_iESaIS8_ENSt8__detail10_Select1stESt8equal_toIS5_ESt4hashIS5_ENSA_18_Mod_range_hashingENSA_20_Default_ranged_hashENSA_20_Prime_rehash_policyENSA_17_Hashtable_traitsILb1ELb0ELb1EEEED1Ev>
  40f0bc:	f94012a0 	ldr	x0, [x21, #32]
  40f0c0:	b4000080 	cbz	x0, 40f0d0 <_ZN13PriorityQueue7PopNextEv+0x110>
  40f0c4:	f9401aa1 	ldr	x1, [x21, #48]
  40f0c8:	cb000021 	sub	x1, x1, x0
  40f0cc:	97ffcbfd 	bl	4020c0 <_ZdlPvm@plt>
  40f0d0:	f94006b3 	ldr	x19, [x21, #8]
  40f0d4:	f9400ab4 	ldr	x20, [x21, #16]
  40f0d8:	eb14027f 	cmp	x19, x20
  40f0dc:	54fffce1 	b.ne	40f078 <_ZN13PriorityQueue7PopNextEv+0xb8>  // b.any
  40f0e0:	17ffffeb 	b	40f08c <_ZN13PriorityQueue7PopNextEv+0xcc>
  40f0e4:	910143e1 	add	x1, sp, #0x50
  40f0e8:	aa1603e0 	mov	x0, x22
  40f0ec:	97fff9e0 	bl	40d86c <_ZN13PriorityQueue7CalProbER2PT>
  40f0f0:	f94002c1 	ldr	x1, [x22]
  40f0f4:	f94006c4 	ldr	x4, [x22, #8]
  40f0f8:	eb04003f 	cmp	x1, x4
  40f0fc:	540004c0 	b.eq	40f194 <_ZN13PriorityQueue7PopNextEv+0x1d4>  // b.none
  40f100:	bd40a7e0 	ldr	s0, [sp, #164]
  40f104:	aa0103e0 	mov	x0, x1
  40f108:	d1016082 	sub	x2, x4, #0x58
  40f10c:	14000007 	b	40f128 <_ZN13PriorityQueue7PopNextEv+0x168>
  40f110:	bd405401 	ldr	s1, [x0, #84]
  40f114:	1e202030 	fcmpe	s1, s0
  40f118:	5400026a 	b.ge	40f164 <_ZN13PriorityQueue7PopNextEv+0x1a4>  // b.tcont
  40f11c:	91016000 	add	x0, x0, #0x58
  40f120:	eb00009f 	cmp	x4, x0
  40f124:	54000380 	b.eq	40f194 <_ZN13PriorityQueue7PopNextEv+0x1d4>  // b.none
  40f128:	eb01001f 	cmp	x0, x1
  40f12c:	fa421004 	ccmp	x0, x2, #0x4, ne  // ne = any
  40f130:	54ffff01 	b.ne	40f110 <_ZN13PriorityQueue7PopNextEv+0x150>  // b.any
  40f134:	eb02001f 	cmp	x0, x2
  40f138:	54000280 	b.eq	40f188 <_ZN13PriorityQueue7PopNextEv+0x1c8>  // b.none
  40f13c:	eb01001f 	cmp	x0, x1
  40f140:	54fffee1 	b.ne	40f11c <_ZN13PriorityQueue7PopNextEv+0x15c>  // b.any
  40f144:	bd405421 	ldr	s1, [x1, #84]
  40f148:	1e202030 	fcmpe	s1, s0
  40f14c:	54000044 	b.mi	40f154 <_ZN13PriorityQueue7PopNextEv+0x194>  // b.first
  40f150:	17fffff3 	b	40f11c <_ZN13PriorityQueue7PopNextEv+0x15c>
  40f154:	910143e2 	add	x2, sp, #0x50
  40f158:	aa1603e0 	mov	x0, x22
  40f15c:	9400031d 	bl	40fdd0 <_ZNSt6vectorI2PTSaIS0_EE14_M_emplace_auxIJRS0_EEEN9__gnu_cxx17__normal_iteratorIPS0_S2_EENS6_IPKS0_S2_EEDpOT_>
  40f160:	1400000d 	b	40f194 <_ZN13PriorityQueue7PopNextEv+0x1d4>
  40f164:	bd40ac01 	ldr	s1, [x0, #172]
  40f168:	1e202030 	fcmpe	s1, s0
  40f16c:	54000044 	b.mi	40f174 <_ZN13PriorityQueue7PopNextEv+0x1b4>  // b.first
  40f170:	17ffffeb 	b	40f11c <_ZN13PriorityQueue7PopNextEv+0x15c>
  40f174:	910143e2 	add	x2, sp, #0x50
  40f178:	91016001 	add	x1, x0, #0x58
  40f17c:	aa1603e0 	mov	x0, x22
  40f180:	94000314 	bl	40fdd0 <_ZNSt6vectorI2PTSaIS0_EE14_M_emplace_auxIJRS0_EEEN9__gnu_cxx17__normal_iteratorIPS0_S2_EENS6_IPKS0_S2_EEDpOT_>
  40f184:	14000004 	b	40f194 <_ZN13PriorityQueue7PopNextEv+0x1d4>
  40f188:	910143e1 	add	x1, sp, #0x50
  40f18c:	aa1603e0 	mov	x0, x22
  40f190:	97ffef64 	bl	40af20 <_ZNSt6vectorI2PTSaIS0_EE12emplace_backIJRS0_EEEvDpOT_>
  40f194:	f94047e0 	ldr	x0, [sp, #136]
  40f198:	b4000080 	cbz	x0, 40f1a8 <_ZN13PriorityQueue7PopNextEv+0x1e8>
  40f19c:	f9404fe1 	ldr	x1, [sp, #152]
  40f1a0:	cb000021 	sub	x1, x1, x0
  40f1a4:	97ffcbc7 	bl	4020c0 <_ZdlPvm@plt>
  40f1a8:	f9403be0 	ldr	x0, [sp, #112]
  40f1ac:	b4000080 	cbz	x0, 40f1bc <_ZN13PriorityQueue7PopNextEv+0x1fc>
  40f1b0:	f94043e1 	ldr	x1, [sp, #128]
  40f1b4:	cb000021 	sub	x1, x1, x0
  40f1b8:	97ffcbc2 	bl	4020c0 <_ZdlPvm@plt>
  40f1bc:	f9402bf4 	ldr	x20, [sp, #80]
  40f1c0:	f9402ff9 	ldr	x25, [sp, #88]
  40f1c4:	eb19029f 	cmp	x20, x25
  40f1c8:	54000401 	b.ne	40f248 <_ZN13PriorityQueue7PopNextEv+0x288>  // b.any
  40f1cc:	f9402be0 	ldr	x0, [sp, #80]
  40f1d0:	b4000080 	cbz	x0, 40f1e0 <_ZN13PriorityQueue7PopNextEv+0x220>
  40f1d4:	f94033e1 	ldr	x1, [sp, #96]
  40f1d8:	cb000021 	sub	x1, x1, x0
  40f1dc:	97ffcbb9 	bl	4020c0 <_ZdlPvm@plt>
  40f1e0:	910162f7 	add	x23, x23, #0x58
  40f1e4:	eb17031f 	cmp	x24, x23
  40f1e8:	540004c0 	b.eq	40f280 <_ZN13PriorityQueue7PopNextEv+0x2c0>  // b.none
  40f1ec:	aa1703e1 	mov	x1, x23
  40f1f0:	910143e0 	add	x0, sp, #0x50
  40f1f4:	97ffedca 	bl	40a91c <_ZN2PTC1ERKS_>
  40f1f8:	17ffffbb 	b	40f0e4 <_ZN13PriorityQueue7PopNextEv+0x124>
  40f1fc:	91008273 	add	x19, x19, #0x20
  40f200:	eb1302bf 	cmp	x21, x19
  40f204:	54000120 	b.eq	40f228 <_ZN13PriorityQueue7PopNextEv+0x268>  // b.none
  40f208:	aa1303e1 	mov	x1, x19
  40f20c:	f8410420 	ldr	x0, [x1], #16
  40f210:	eb01001f 	cmp	x0, x1
  40f214:	54ffff40 	b.eq	40f1fc <_ZN13PriorityQueue7PopNextEv+0x23c>  // b.none
  40f218:	f9400a61 	ldr	x1, [x19, #16]
  40f21c:	91000421 	add	x1, x1, #0x1
  40f220:	97ffcba8 	bl	4020c0 <_ZdlPvm@plt>
  40f224:	17fffff6 	b	40f1fc <_ZN13PriorityQueue7PopNextEv+0x23c>
  40f228:	f9400680 	ldr	x0, [x20, #8]
  40f22c:	b4000080 	cbz	x0, 40f23c <_ZN13PriorityQueue7PopNextEv+0x27c>
  40f230:	f9400e81 	ldr	x1, [x20, #24]
  40f234:	cb000021 	sub	x1, x1, x0
  40f238:	97ffcba2 	bl	4020c0 <_ZdlPvm@plt>
  40f23c:	9102c294 	add	x20, x20, #0xb0
  40f240:	eb14033f 	cmp	x25, x20
  40f244:	54fffc40 	b.eq	40f1cc <_ZN13PriorityQueue7PopNextEv+0x20c>  // b.none
  40f248:	9101e280 	add	x0, x20, #0x78
  40f24c:	97ffd18c 	bl	40387c <_ZNSt10_HashtableIiSt4pairIKiiESaIS2_ENSt8__detail10_Select1stESt8equal_toIiESt4hashIiENS4_18_Mod_range_hashingENS4_20_Default_ranged_hashENS4_20_Prime_rehash_policyENS4_17_Hashtable_traitsILb0ELb0ELb1EEEED1Ev>
  40f250:	91010280 	add	x0, x20, #0x40
  40f254:	97ffd161 	bl	4037d8 <_ZNSt10_HashtableINSt7__cxx1112basic_stringIcSt11char_traitsIcESaIcEEESt4pairIKS5_iESaIS8_ENSt8__detail10_Select1stESt8equal_toIS5_ESt4hashIS5_ENSA_18_Mod_range_hashingENSA_20_Default_ranged_hashENSA_20_Prime_rehash_policyENSA_17_Hashtable_traitsILb1ELb0ELb1EEEED1Ev>
  40f258:	f9401280 	ldr	x0, [x20, #32]
  40f25c:	b4000080 	cbz	x0, 40f26c <_ZN13PriorityQueue7PopNextEv+0x2ac>
  40f260:	f9401a81 	ldr	x1, [x20, #48]
  40f264:	cb000021 	sub	x1, x1, x0
  40f268:	97ffcb96 	bl	4020c0 <_ZdlPvm@plt>
  40f26c:	f9400693 	ldr	x19, [x20, #8]
  40f270:	f9400a95 	ldr	x21, [x20, #16]
  40f274:	eb15027f 	cmp	x19, x21
  40f278:	54fffc81 	b.ne	40f208 <_ZN13PriorityQueue7PopNextEv+0x248>  // b.any
  40f27c:	17ffffeb 	b	40f228 <_ZN13PriorityQueue7PopNextEv+0x268>
  40f280:	f94023f9 	ldr	x25, [sp, #64]
  40f284:	f94002c1 	ldr	x1, [x22]
  40f288:	aa1603e0 	mov	x0, x22
  40f28c:	94000115 	bl	40f6e0 <_ZNSt6vectorI2PTSaIS0_EE8_M_eraseEN9__gnu_cxx17__normal_iteratorIPS0_S2_EE>
  40f290:	f94057f7 	ldr	x23, [sp, #168]
  40f294:	f9405bf8 	ldr	x24, [sp, #176]
  40f298:	eb1802ff 	cmp	x23, x24
  40f29c:	54000681 	b.ne	40f36c <_ZN13PriorityQueue7PopNextEv+0x3ac>  // b.any
  40f2a0:	f94057e0 	ldr	x0, [sp, #168]
  40f2a4:	b4000080 	cbz	x0, 40f2b4 <_ZN13PriorityQueue7PopNextEv+0x2f4>
  40f2a8:	f9405fe1 	ldr	x1, [sp, #184]
  40f2ac:	cb000021 	sub	x1, x1, x0
  40f2b0:	97ffcb84 	bl	4020c0 <_ZdlPvm@plt>
  40f2b4:	a94153f3 	ldp	x19, x20, [sp, #16]
  40f2b8:	a94363f7 	ldp	x23, x24, [sp, #48]
  40f2bc:	a9425bf5 	ldp	x21, x22, [sp, #32]
  40f2c0:	a8cc7bfd 	ldp	x29, x30, [sp], #192
  40f2c4:	d65f03c0 	ret
  40f2c8:	91008273 	add	x19, x19, #0x20
  40f2cc:	eb1302bf 	cmp	x21, x19
  40f2d0:	54000120 	b.eq	40f2f4 <_ZN13PriorityQueue7PopNextEv+0x334>  // b.none
  40f2d4:	aa1303e1 	mov	x1, x19
  40f2d8:	f8410420 	ldr	x0, [x1], #16
  40f2dc:	eb01001f 	cmp	x0, x1
  40f2e0:	54ffff40 	b.eq	40f2c8 <_ZN13PriorityQueue7PopNextEv+0x308>  // b.none
  40f2e4:	f9400a61 	ldr	x1, [x19, #16]
  40f2e8:	91000421 	add	x1, x1, #0x1
  40f2ec:	97ffcb75 	bl	4020c0 <_ZdlPvm@plt>
  40f2f0:	17fffff6 	b	40f2c8 <_ZN13PriorityQueue7PopNextEv+0x308>
  40f2f4:	f9400680 	ldr	x0, [x20, #8]
  40f2f8:	b4000080 	cbz	x0, 40f308 <_ZN13PriorityQueue7PopNextEv+0x348>
  40f2fc:	f9400e81 	ldr	x1, [x20, #24]
  40f300:	cb000021 	sub	x1, x1, x0
  40f304:	97ffcb6f 	bl	4020c0 <_ZdlPvm@plt>
  40f308:	9102c294 	add	x20, x20, #0xb0
  40f30c:	eb1402df 	cmp	x22, x20
  40f310:	540001e0 	b.eq	40f34c <_ZN13PriorityQueue7PopNextEv+0x38c>  // b.none
  40f314:	9101e280 	add	x0, x20, #0x78
  40f318:	97ffd159 	bl	40387c <_ZNSt10_HashtableIiSt4pairIKiiESaIS2_ENSt8__detail10_Select1stESt8equal_toIiESt4hashIiENS4_18_Mod_range_hashingENS4_20_Default_ranged_hashENS4_20_Prime_rehash_policyENS4_17_Hashtable_traitsILb0ELb0ELb1EEEED1Ev>
  40f31c:	91010280 	add	x0, x20, #0x40
  40f320:	97ffd12e 	bl	4037d8 <_ZNSt10_HashtableINSt7__cxx1112basic_stringIcSt11char_traitsIcESaIcEEESt4pairIKS5_iESaIS8_ENSt8__detail10_Select1stESt8equal_toIS5_ESt4hashIS5_ENSA_18_Mod_range_hashingENSA_20_Default_ranged_hashENSA_20_Prime_rehash_policyENSA_17_Hashtable_traitsILb1ELb0ELb1EEEED1Ev>
  40f324:	f9401280 	ldr	x0, [x20, #32]
  40f328:	b4000080 	cbz	x0, 40f338 <_ZN13PriorityQueue7PopNextEv+0x378>
  40f32c:	f9401a81 	ldr	x1, [x20, #48]
  40f330:	cb000021 	sub	x1, x1, x0
  40f334:	97ffcb63 	bl	4020c0 <_ZdlPvm@plt>
  40f338:	f9400693 	ldr	x19, [x20, #8]
  40f33c:	f9400a95 	ldr	x21, [x20, #16]
  40f340:	eb15027f 	cmp	x19, x21
  40f344:	54fffc81 	b.ne	40f2d4 <_ZN13PriorityQueue7PopNextEv+0x314>  // b.any
  40f348:	17ffffeb 	b	40f2f4 <_ZN13PriorityQueue7PopNextEv+0x334>
  40f34c:	f94002e0 	ldr	x0, [x23]
  40f350:	b4000080 	cbz	x0, 40f360 <_ZN13PriorityQueue7PopNextEv+0x3a0>
  40f354:	f9400ae1 	ldr	x1, [x23, #16]
  40f358:	cb000021 	sub	x1, x1, x0
  40f35c:	97ffcb59 	bl	4020c0 <_ZdlPvm@plt>
  40f360:	910162f7 	add	x23, x23, #0x58
  40f364:	eb17031f 	cmp	x24, x23
  40f368:	54fff9c0 	b.eq	40f2a0 <_ZN13PriorityQueue7PopNextEv+0x2e0>  // b.none
  40f36c:	f9401ee0 	ldr	x0, [x23, #56]
  40f370:	b4000080 	cbz	x0, 40f380 <_ZN13PriorityQueue7PopNextEv+0x3c0>
  40f374:	f94026e1 	ldr	x1, [x23, #72]
  40f378:	cb000021 	sub	x1, x1, x0
  40f37c:	97ffcb51 	bl	4020c0 <_ZdlPvm@plt>
  40f380:	f94012e0 	ldr	x0, [x23, #32]
  40f384:	b4000080 	cbz	x0, 40f394 <_ZN13PriorityQueue7PopNextEv+0x3d4>
  40f388:	f9401ae1 	ldr	x1, [x23, #48]
  40f38c:	cb000021 	sub	x1, x1, x0
  40f390:	97ffcb4c 	bl	4020c0 <_ZdlPvm@plt>
  40f394:	f94002f4 	ldr	x20, [x23]
  40f398:	f94006f6 	ldr	x22, [x23, #8]
  40f39c:	eb16029f 	cmp	x20, x22
  40f3a0:	54fffba1 	b.ne	40f314 <_ZN13PriorityQueue7PopNextEv+0x354>  // b.any
  40f3a4:	17ffffea 	b	40f34c <_ZN13PriorityQueue7PopNextEv+0x38c>
  40f3a8:	a90153f3 	stp	x19, x20, [sp, #16]
  40f3ac:	a90363f7 	stp	x23, x24, [sp, #48]
  40f3b0:	f90023f9 	str	x25, [sp, #64]
  40f3b4:	aa0003f3 	mov	x19, x0
  40f3b8:	910143e0 	add	x0, sp, #0x50
  40f3bc:	97ffe9e7 	bl	409b58 <_ZN2PTD1Ev>
  40f3c0:	aa1303e0 	mov	x0, x19
  40f3c4:	97ffcba7 	bl	402260 <_Unwind_Resume@plt>
  40f3c8:	aa0003f3 	mov	x19, x0
  40f3cc:	910143e0 	add	x0, sp, #0x50
  40f3d0:	97ffe9e2 	bl	409b58 <_ZN2PTD1Ev>
  40f3d4:	9102a3e0 	add	x0, sp, #0xa8
  40f3d8:	94000015 	bl	40f42c <_ZNSt6vectorI2PTSaIS0_EED1Ev>
  40f3dc:	aa1303e0 	mov	x0, x19
  40f3e0:	97ffcba0 	bl	402260 <_Unwind_Resume@plt>
  40f3e4:	aa0003f3 	mov	x19, x0
  40f3e8:	17fffffb 	b	40f3d4 <_ZN13PriorityQueue7PopNextEv+0x414>

000000000040f3ec <_GLOBAL__sub_I__ZN13PriorityQueue7CalProbER2PT>:
  40f3ec:	a9be7bfd 	stp	x29, x30, [sp, #-32]!
  40f3f0:	910003fd 	mov	x29, sp
  40f3f4:	f9000bf3 	str	x19, [sp, #16]
  40f3f8:	b0000113 	adrp	x19, 430000 <_Znam@GLIBCXX_3.4>
  40f3fc:	910ce273 	add	x19, x19, #0x338
  40f400:	aa1303e0 	mov	x0, x19
  40f404:	97ffcb73 	bl	4021d0 <_ZNSt8ios_base4InitC1Ev@plt>
  40f408:	b0000102 	adrp	x2, 430000 <_Znam@GLIBCXX_3.4>
  40f40c:	9107e042 	add	x2, x2, #0x1f8
  40f410:	aa1303e1 	mov	x1, x19
  40f414:	f0ffff80 	adrp	x0, 402000 <_ZSt20__throw_length_errorPKc@plt>
  40f418:	910b0000 	add	x0, x0, #0x2c0
  40f41c:	97ffcb31 	bl	4020e0 <__cxa_atexit@plt>
  40f420:	f9400bf3 	ldr	x19, [sp, #16]
  40f424:	a8c27bfd 	ldp	x29, x30, [sp], #32
  40f428:	d65f03c0 	ret

000000000040f42c <_ZNSt6vectorI2PTSaIS0_EED1Ev>:
  40f42c:	a9bb7bfd 	stp	x29, x30, [sp, #-80]!
  40f430:	910003fd 	mov	x29, sp
  40f434:	a90363f7 	stp	x23, x24, [sp, #48]
  40f438:	f90023f9 	str	x25, [sp, #64]
  40f43c:	aa0003f9 	mov	x25, x0
  40f440:	f9400017 	ldr	x23, [x0]
  40f444:	f9400418 	ldr	x24, [x0, #8]
  40f448:	eb1802ff 	cmp	x23, x24
  40f44c:	540007c0 	b.eq	40f544 <_ZNSt6vectorI2PTSaIS0_EED1Ev+0x118>  // b.none
  40f450:	a90153f3 	stp	x19, x20, [sp, #16]
  40f454:	a9025bf5 	stp	x21, x22, [sp, #32]
  40f458:	1400002a 	b	40f500 <_ZNSt6vectorI2PTSaIS0_EED1Ev+0xd4>
  40f45c:	91008273 	add	x19, x19, #0x20
  40f460:	eb1302bf 	cmp	x21, x19
  40f464:	54000120 	b.eq	40f488 <_ZNSt6vectorI2PTSaIS0_EED1Ev+0x5c>  // b.none
  40f468:	aa1303e1 	mov	x1, x19
  40f46c:	f8410420 	ldr	x0, [x1], #16
  40f470:	eb01001f 	cmp	x0, x1
  40f474:	54ffff40 	b.eq	40f45c <_ZNSt6vectorI2PTSaIS0_EED1Ev+0x30>  // b.none
  40f478:	f9400a61 	ldr	x1, [x19, #16]
  40f47c:	91000421 	add	x1, x1, #0x1
  40f480:	97ffcb10 	bl	4020c0 <_ZdlPvm@plt>
  40f484:	17fffff6 	b	40f45c <_ZNSt6vectorI2PTSaIS0_EED1Ev+0x30>
  40f488:	f9400680 	ldr	x0, [x20, #8]
  40f48c:	b4000080 	cbz	x0, 40f49c <_ZNSt6vectorI2PTSaIS0_EED1Ev+0x70>
  40f490:	f9400e81 	ldr	x1, [x20, #24]
  40f494:	cb000021 	sub	x1, x1, x0
  40f498:	97ffcb0a 	bl	4020c0 <_ZdlPvm@plt>
  40f49c:	9102c294 	add	x20, x20, #0xb0
  40f4a0:	eb1402df 	cmp	x22, x20
  40f4a4:	540001e0 	b.eq	40f4e0 <_ZNSt6vectorI2PTSaIS0_EED1Ev+0xb4>  // b.none
  40f4a8:	9101e280 	add	x0, x20, #0x78
  40f4ac:	97ffd0f4 	bl	40387c <_ZNSt10_HashtableIiSt4pairIKiiESaIS2_ENSt8__detail10_Select1stESt8equal_toIiESt4hashIiENS4_18_Mod_range_hashingENS4_20_Default_ranged_hashENS4_20_Prime_rehash_policyENS4_17_Hashtable_traitsILb0ELb0ELb1EEEED1Ev>
  40f4b0:	91010280 	add	x0, x20, #0x40
  40f4b4:	97ffd0c9 	bl	4037d8 <_ZNSt10_HashtableINSt7__cxx1112basic_stringIcSt11char_traitsIcESaIcEEESt4pairIKS5_iESaIS8_ENSt8__detail10_Select1stESt8equal_toIS5_ESt4hashIS5_ENSA_18_Mod_range_hashingENSA_20_Default_ranged_hashENSA_20_Prime_rehash_policyENSA_17_Hashtable_traitsILb1ELb0ELb1EEEED1Ev>
  40f4b8:	f9401280 	ldr	x0, [x20, #32]
  40f4bc:	b4000080 	cbz	x0, 40f4cc <_ZNSt6vectorI2PTSaIS0_EED1Ev+0xa0>
  40f4c0:	f9401a81 	ldr	x1, [x20, #48]
  40f4c4:	cb000021 	sub	x1, x1, x0
  40f4c8:	97ffcafe 	bl	4020c0 <_ZdlPvm@plt>
  40f4cc:	f9400693 	ldr	x19, [x20, #8]
  40f4d0:	f9400a95 	ldr	x21, [x20, #16]
  40f4d4:	eb15027f 	cmp	x19, x21
  40f4d8:	54fffc81 	b.ne	40f468 <_ZNSt6vectorI2PTSaIS0_EED1Ev+0x3c>  // b.any
  40f4dc:	17ffffeb 	b	40f488 <_ZNSt6vectorI2PTSaIS0_EED1Ev+0x5c>
  40f4e0:	f94002e0 	ldr	x0, [x23]
  40f4e4:	b4000080 	cbz	x0, 40f4f4 <_ZNSt6vectorI2PTSaIS0_EED1Ev+0xc8>
  40f4e8:	f9400ae1 	ldr	x1, [x23, #16]
  40f4ec:	cb000021 	sub	x1, x1, x0
  40f4f0:	97ffcaf4 	bl	4020c0 <_ZdlPvm@plt>
  40f4f4:	910162f7 	add	x23, x23, #0x58
  40f4f8:	eb17031f 	cmp	x24, x23
  40f4fc:	54000200 	b.eq	40f53c <_ZNSt6vectorI2PTSaIS0_EED1Ev+0x110>  // b.none
  40f500:	f9401ee0 	ldr	x0, [x23, #56]
  40f504:	b4000080 	cbz	x0, 40f514 <_ZNSt6vectorI2PTSaIS0_EED1Ev+0xe8>
  40f508:	f94026e1 	ldr	x1, [x23, #72]
  40f50c:	cb000021 	sub	x1, x1, x0
  40f510:	97ffcaec 	bl	4020c0 <_ZdlPvm@plt>
  40f514:	f94012e0 	ldr	x0, [x23, #32]
  40f518:	b4000080 	cbz	x0, 40f528 <_ZNSt6vectorI2PTSaIS0_EED1Ev+0xfc>
  40f51c:	f9401ae1 	ldr	x1, [x23, #48]
  40f520:	cb000021 	sub	x1, x1, x0
  40f524:	97ffcae7 	bl	4020c0 <_ZdlPvm@plt>
  40f528:	f94002f4 	ldr	x20, [x23]
  40f52c:	f94006f6 	ldr	x22, [x23, #8]
  40f530:	eb16029f 	cmp	x20, x22
  40f534:	54fffba1 	b.ne	40f4a8 <_ZNSt6vectorI2PTSaIS0_EED1Ev+0x7c>  // b.any
  40f538:	17ffffea 	b	40f4e0 <_ZNSt6vectorI2PTSaIS0_EED1Ev+0xb4>
  40f53c:	a94153f3 	ldp	x19, x20, [sp, #16]
  40f540:	a9425bf5 	ldp	x21, x22, [sp, #32]
  40f544:	f9400320 	ldr	x0, [x25]
  40f548:	b4000080 	cbz	x0, 40f558 <_ZNSt6vectorI2PTSaIS0_EED1Ev+0x12c>
  40f54c:	f9400b21 	ldr	x1, [x25, #16]
  40f550:	cb000021 	sub	x1, x1, x0
  40f554:	97ffcadb 	bl	4020c0 <_ZdlPvm@plt>
  40f558:	a94363f7 	ldp	x23, x24, [sp, #48]
  40f55c:	f94023f9 	ldr	x25, [sp, #64]
  40f560:	a8c57bfd 	ldp	x29, x30, [sp], #80
  40f564:	d65f03c0 	ret

000000000040f568 <_ZNSt6vectorIiSaIiEE17_M_realloc_insertIJmEEEvN9__gnu_cxx17__normal_iteratorIPiS1_EEDpOT_>:
  40f568:	a9bb7bfd 	stp	x29, x30, [sp, #-80]!
  40f56c:	910003fd 	mov	x29, sp
  40f570:	a90153f3 	stp	x19, x20, [sp, #16]
  40f574:	a9025bf5 	stp	x21, x22, [sp, #32]
  40f578:	a90363f7 	stp	x23, x24, [sp, #48]
  40f57c:	a9046bf9 	stp	x25, x26, [sp, #64]
  40f580:	aa0003f4 	mov	x20, x0
  40f584:	f9400415 	ldr	x21, [x0, #8]
  40f588:	f9400017 	ldr	x23, [x0]
  40f58c:	cb1702a3 	sub	x3, x21, x23
  40f590:	9342fc63 	asr	x3, x3, #2
  40f594:	92fc0000 	mov	x0, #0x1fffffffffffffff    	// #2305843009213693951
  40f598:	eb00007f 	cmp	x3, x0
  40f59c:	540001c0 	b.eq	40f5d4 <_ZNSt6vectorIiSaIiEE17_M_realloc_insertIJmEEEvN9__gnu_cxx17__normal_iteratorIPiS1_EEDpOT_+0x6c>  // b.none
  40f5a0:	aa0103f6 	mov	x22, x1
  40f5a4:	aa0203f8 	mov	x24, x2
  40f5a8:	f100007f 	cmp	x3, #0x0
  40f5ac:	9a9f1464 	csinc	x4, x3, xzr, ne  // ne = any
  40f5b0:	ab030084 	adds	x4, x4, x3
  40f5b4:	54000302 	b.cs	40f614 <_ZNSt6vectorIiSaIiEE17_M_realloc_insertIJmEEEvN9__gnu_cxx17__normal_iteratorIPiS1_EEDpOT_+0xac>  // b.hs, b.nlast
  40f5b8:	92fc001a 	mov	x26, #0x1fffffffffffffff    	// #2305843009213693951
  40f5bc:	eb1a009f 	cmp	x4, x26
  40f5c0:	9a9a909a 	csel	x26, x4, x26, ls  // ls = plast
  40f5c4:	cb170033 	sub	x19, x1, x23
  40f5c8:	d2800019 	mov	x25, #0x0                   	// #0
  40f5cc:	b40002e4 	cbz	x4, 40f628 <_ZNSt6vectorIiSaIiEE17_M_realloc_insertIJmEEEvN9__gnu_cxx17__normal_iteratorIPiS1_EEDpOT_+0xc0>
  40f5d0:	14000013 	b	40f61c <_ZNSt6vectorIiSaIiEE17_M_realloc_insertIJmEEEvN9__gnu_cxx17__normal_iteratorIPiS1_EEDpOT_+0xb4>
  40f5d4:	f0000000 	adrp	x0, 412000 <_Z19MD5Hash_simdversionPKNSt7__cxx1112basic_stringIcSt11char_traitsIcESaIcEEEP12__Uint32x4_t+0x1480>
  40f5d8:	912d8000 	add	x0, x0, #0xb60
  40f5dc:	97ffca89 	bl	402000 <_ZSt20__throw_length_errorPKc@plt>
  40f5e0:	aa1303e2 	mov	x2, x19
  40f5e4:	aa1703e1 	mov	x1, x23
  40f5e8:	aa1903e0 	mov	x0, x25
  40f5ec:	97ffcacd 	bl	402120 <memmove@plt>
  40f5f0:	91001273 	add	x19, x19, #0x4
  40f5f4:	8b130333 	add	x19, x25, x19
  40f5f8:	cb1602b5 	sub	x21, x21, x22
  40f5fc:	f10002bf 	cmp	x21, #0x0
  40f600:	5400026c 	b.gt	40f64c <_ZNSt6vectorIiSaIiEE17_M_realloc_insertIJmEEEvN9__gnu_cxx17__normal_iteratorIPiS1_EEDpOT_+0xe4>
  40f604:	8b150273 	add	x19, x19, x21
  40f608:	f9400a81 	ldr	x1, [x20, #16]
  40f60c:	cb170021 	sub	x1, x1, x23
  40f610:	14000017 	b	40f66c <_ZNSt6vectorIiSaIiEE17_M_realloc_insertIJmEEEvN9__gnu_cxx17__normal_iteratorIPiS1_EEDpOT_+0x104>
  40f614:	cb170033 	sub	x19, x1, x23
  40f618:	92fc001a 	mov	x26, #0x1fffffffffffffff    	// #2305843009213693951
  40f61c:	d37ef740 	lsl	x0, x26, #2
  40f620:	97ffcaa4 	bl	4020b0 <_Znwm@plt>
  40f624:	aa0003f9 	mov	x25, x0
  40f628:	f9400300 	ldr	x0, [x24]
  40f62c:	b8336b20 	str	w0, [x25, x19]
  40f630:	f100027f 	cmp	x19, #0x0
  40f634:	54fffd6c 	b.gt	40f5e0 <_ZNSt6vectorIiSaIiEE17_M_realloc_insertIJmEEEvN9__gnu_cxx17__normal_iteratorIPiS1_EEDpOT_+0x78>
  40f638:	91001273 	add	x19, x19, #0x4
  40f63c:	8b130333 	add	x19, x25, x19
  40f640:	cb1602b5 	sub	x21, x21, x22
  40f644:	f10002bf 	cmp	x21, #0x0
  40f648:	540000ad 	b.le	40f65c <_ZNSt6vectorIiSaIiEE17_M_realloc_insertIJmEEEvN9__gnu_cxx17__normal_iteratorIPiS1_EEDpOT_+0xf4>
  40f64c:	aa1503e2 	mov	x2, x21
  40f650:	aa1603e1 	mov	x1, x22
  40f654:	aa1303e0 	mov	x0, x19
  40f658:	97ffca32 	bl	401f20 <memcpy@plt>
  40f65c:	8b150273 	add	x19, x19, x21
  40f660:	b40000b7 	cbz	x23, 40f674 <_ZNSt6vectorIiSaIiEE17_M_realloc_insertIJmEEEvN9__gnu_cxx17__normal_iteratorIPiS1_EEDpOT_+0x10c>
  40f664:	f9400a81 	ldr	x1, [x20, #16]
  40f668:	cb170021 	sub	x1, x1, x23
  40f66c:	aa1703e0 	mov	x0, x23
  40f670:	97ffca94 	bl	4020c0 <_ZdlPvm@plt>
  40f674:	f9000299 	str	x25, [x20]
  40f678:	f9000693 	str	x19, [x20, #8]
  40f67c:	8b1a0b3a 	add	x26, x25, x26, lsl #2
  40f680:	f9000a9a 	str	x26, [x20, #16]
  40f684:	a94153f3 	ldp	x19, x20, [sp, #16]
  40f688:	a9425bf5 	ldp	x21, x22, [sp, #32]
  40f68c:	a94363f7 	ldp	x23, x24, [sp, #48]
  40f690:	a9446bf9 	ldp	x25, x26, [sp, #64]
  40f694:	a8c57bfd 	ldp	x29, x30, [sp], #80
  40f698:	d65f03c0 	ret

000000000040f69c <_ZNSt6vectorIiSaIiEE12emplace_backIJmEEEvDpOT_>:
  40f69c:	f9400403 	ldr	x3, [x0, #8]
  40f6a0:	f9400802 	ldr	x2, [x0, #16]
  40f6a4:	eb02007f 	cmp	x3, x2
  40f6a8:	540000e0 	b.eq	40f6c4 <_ZNSt6vectorIiSaIiEE12emplace_backIJmEEEvDpOT_+0x28>  // b.none
  40f6ac:	f9400021 	ldr	x1, [x1]
  40f6b0:	b9000061 	str	w1, [x3]
  40f6b4:	f9400401 	ldr	x1, [x0, #8]
  40f6b8:	91001021 	add	x1, x1, #0x4
  40f6bc:	f9000401 	str	x1, [x0, #8]
  40f6c0:	d65f03c0 	ret
  40f6c4:	a9bf7bfd 	stp	x29, x30, [sp, #-16]!
  40f6c8:	910003fd 	mov	x29, sp
  40f6cc:	aa0103e2 	mov	x2, x1
  40f6d0:	aa0303e1 	mov	x1, x3
  40f6d4:	97ffffa5 	bl	40f568 <_ZNSt6vectorIiSaIiEE17_M_realloc_insertIJmEEEvN9__gnu_cxx17__normal_iteratorIPiS1_EEDpOT_>
  40f6d8:	a8c17bfd 	ldp	x29, x30, [sp], #16
  40f6dc:	d65f03c0 	ret

000000000040f6e0 <_ZNSt6vectorI2PTSaIS0_EE8_M_eraseEN9__gnu_cxx17__normal_iteratorIPS0_S2_EE>:
  40f6e0:	a9ba7bfd 	stp	x29, x30, [sp, #-96]!
  40f6e4:	910003fd 	mov	x29, sp
  40f6e8:	a90153f3 	stp	x19, x20, [sp, #16]
  40f6ec:	a9025bf5 	stp	x21, x22, [sp, #32]
  40f6f0:	a90363f7 	stp	x23, x24, [sp, #48]
  40f6f4:	a9046bf9 	stp	x25, x26, [sp, #64]
  40f6f8:	a90573fb 	stp	x27, x28, [sp, #80]
  40f6fc:	aa0003fc 	mov	x28, x0
  40f700:	aa0103f9 	mov	x25, x1
  40f704:	91016035 	add	x21, x1, #0x58
  40f708:	f9400400 	ldr	x0, [x0, #8]
  40f70c:	eb15001f 	cmp	x0, x21
  40f710:	54000140 	b.eq	40f738 <_ZNSt6vectorI2PTSaIS0_EE8_M_eraseEN9__gnu_cxx17__normal_iteratorIPS0_S2_EE+0x58>  // b.none
  40f714:	cb150000 	sub	x0, x0, x21
  40f718:	9343fc1a 	asr	x26, x0, #3
  40f71c:	d2917461 	mov	x1, #0x8ba3                	// #35747
  40f720:	f2b745c1 	movk	x1, #0xba2e, lsl #16
  40f724:	f2d45d01 	movk	x1, #0xa2e8, lsl #32
  40f728:	f2e5d161 	movk	x1, #0x2e8b, lsl #48
  40f72c:	9b017f5a 	mul	x26, x26, x1
  40f730:	f100001f 	cmp	x0, #0x0
  40f734:	54000d4c 	b.gt	40f8dc <_ZNSt6vectorI2PTSaIS0_EE8_M_eraseEN9__gnu_cxx17__normal_iteratorIPS0_S2_EE+0x1fc>
  40f738:	f9400796 	ldr	x22, [x28, #8]
  40f73c:	d10162c0 	sub	x0, x22, #0x58
  40f740:	f9000780 	str	x0, [x28, #8]
  40f744:	f85e02c0 	ldur	x0, [x22, #-32]
  40f748:	b4000080 	cbz	x0, 40f758 <_ZNSt6vectorI2PTSaIS0_EE8_M_eraseEN9__gnu_cxx17__normal_iteratorIPS0_S2_EE+0x78>
  40f74c:	f85f02c1 	ldur	x1, [x22, #-16]
  40f750:	cb000021 	sub	x1, x1, x0
  40f754:	97ffca5b 	bl	4020c0 <_ZdlPvm@plt>
  40f758:	f85c82c0 	ldur	x0, [x22, #-56]
  40f75c:	b4000080 	cbz	x0, 40f76c <_ZNSt6vectorI2PTSaIS0_EE8_M_eraseEN9__gnu_cxx17__normal_iteratorIPS0_S2_EE+0x8c>
  40f760:	f85d82c1 	ldur	x1, [x22, #-40]
  40f764:	cb000021 	sub	x1, x1, x0
  40f768:	97ffca56 	bl	4020c0 <_ZdlPvm@plt>
  40f76c:	f85a82d4 	ldur	x20, [x22, #-88]
  40f770:	f85b02d7 	ldur	x23, [x22, #-80]
  40f774:	eb17029f 	cmp	x20, x23
  40f778:	54000f81 	b.ne	40f968 <_ZNSt6vectorI2PTSaIS0_EE8_M_eraseEN9__gnu_cxx17__normal_iteratorIPS0_S2_EE+0x288>  // b.any
  40f77c:	f85a82c0 	ldur	x0, [x22, #-88]
  40f780:	b4000080 	cbz	x0, 40f790 <_ZNSt6vectorI2PTSaIS0_EE8_M_eraseEN9__gnu_cxx17__normal_iteratorIPS0_S2_EE+0xb0>
  40f784:	f85b82c1 	ldur	x1, [x22, #-72]
  40f788:	cb000021 	sub	x1, x1, x0
  40f78c:	97ffca4d 	bl	4020c0 <_ZdlPvm@plt>
  40f790:	aa1903e0 	mov	x0, x25
  40f794:	a94153f3 	ldp	x19, x20, [sp, #16]
  40f798:	a9425bf5 	ldp	x21, x22, [sp, #32]
  40f79c:	a94363f7 	ldp	x23, x24, [sp, #48]
  40f7a0:	a9446bf9 	ldp	x25, x26, [sp, #64]
  40f7a4:	a94573fb 	ldp	x27, x28, [sp, #80]
  40f7a8:	a8c67bfd 	ldp	x29, x30, [sp], #96
  40f7ac:	d65f03c0 	ret
  40f7b0:	91008294 	add	x20, x20, #0x20
  40f7b4:	eb1402df 	cmp	x22, x20
  40f7b8:	54000120 	b.eq	40f7dc <_ZNSt6vectorI2PTSaIS0_EE8_M_eraseEN9__gnu_cxx17__normal_iteratorIPS0_S2_EE+0xfc>  // b.none
  40f7bc:	aa1403e1 	mov	x1, x20
  40f7c0:	f8410420 	ldr	x0, [x1], #16
  40f7c4:	eb01001f 	cmp	x0, x1
  40f7c8:	54ffff40 	b.eq	40f7b0 <_ZNSt6vectorI2PTSaIS0_EE8_M_eraseEN9__gnu_cxx17__normal_iteratorIPS0_S2_EE+0xd0>  // b.none
  40f7cc:	f9400a81 	ldr	x1, [x20, #16]
  40f7d0:	91000421 	add	x1, x1, #0x1
  40f7d4:	97ffca3b 	bl	4020c0 <_ZdlPvm@plt>
  40f7d8:	17fffff6 	b	40f7b0 <_ZNSt6vectorI2PTSaIS0_EE8_M_eraseEN9__gnu_cxx17__normal_iteratorIPS0_S2_EE+0xd0>
  40f7dc:	f9400660 	ldr	x0, [x19, #8]
  40f7e0:	b4000080 	cbz	x0, 40f7f0 <_ZNSt6vectorI2PTSaIS0_EE8_M_eraseEN9__gnu_cxx17__normal_iteratorIPS0_S2_EE+0x110>
  40f7e4:	f9400e61 	ldr	x1, [x19, #24]
  40f7e8:	cb000021 	sub	x1, x1, x0
  40f7ec:	97ffca35 	bl	4020c0 <_ZdlPvm@plt>
  40f7f0:	9102c273 	add	x19, x19, #0xb0
  40f7f4:	eb1302ff 	cmp	x23, x19
  40f7f8:	540001e0 	b.eq	40f834 <_ZNSt6vectorI2PTSaIS0_EE8_M_eraseEN9__gnu_cxx17__normal_iteratorIPS0_S2_EE+0x154>  // b.none
  40f7fc:	9101e260 	add	x0, x19, #0x78
  40f800:	97ffd01f 	bl	40387c <_ZNSt10_HashtableIiSt4pairIKiiESaIS2_ENSt8__detail10_Select1stESt8equal_toIiESt4hashIiENS4_18_Mod_range_hashingENS4_20_Default_ranged_hashENS4_20_Prime_rehash_policyENS4_17_Hashtable_traitsILb0ELb0ELb1EEEED1Ev>
  40f804:	91010260 	add	x0, x19, #0x40
  40f808:	97ffcff4 	bl	4037d8 <_ZNSt10_HashtableINSt7__cxx1112basic_stringIcSt11char_traitsIcESaIcEEESt4pairIKS5_iESaIS8_ENSt8__detail10_Select1stESt8equal_toIS5_ESt4hashIS5_ENSA_18_Mod_range_hashingENSA_20_Default_ranged_hashENSA_20_Prime_rehash_policyENSA_17_Hashtable_traitsILb1ELb0ELb1EEEED1Ev>
  40f80c:	f9401260 	ldr	x0, [x19, #32]
  40f810:	b4000080 	cbz	x0, 40f820 <_ZNSt6vectorI2PTSaIS0_EE8_M_eraseEN9__gnu_cxx17__normal_iteratorIPS0_S2_EE+0x140>
  40f814:	f9401a61 	ldr	x1, [x19, #48]
  40f818:	cb000021 	sub	x1, x1, x0
  40f81c:	97ffca29 	bl	4020c0 <_ZdlPvm@plt>
  40f820:	f9400674 	ldr	x20, [x19, #8]
  40f824:	f9400a76 	ldr	x22, [x19, #16]
  40f828:	eb16029f 	cmp	x20, x22
  40f82c:	54fffc81 	b.ne	40f7bc <_ZNSt6vectorI2PTSaIS0_EE8_M_eraseEN9__gnu_cxx17__normal_iteratorIPS0_S2_EE+0xdc>  // b.any
  40f830:	17ffffeb 	b	40f7dc <_ZNSt6vectorI2PTSaIS0_EE8_M_eraseEN9__gnu_cxx17__normal_iteratorIPS0_S2_EE+0xfc>
  40f834:	b4000098 	cbz	x24, 40f844 <_ZNSt6vectorI2PTSaIS0_EE8_M_eraseEN9__gnu_cxx17__normal_iteratorIPS0_S2_EE+0x164>
  40f838:	cb180361 	sub	x1, x27, x24
  40f83c:	aa1803e0 	mov	x0, x24
  40f840:	97ffca20 	bl	4020c0 <_ZdlPvm@plt>
  40f844:	b9401aa0 	ldr	w0, [x21, #24]
  40f848:	b81c02a0 	stur	w0, [x21, #-64]
  40f84c:	f85c82a0 	ldur	x0, [x21, #-56]
  40f850:	f85d82a1 	ldur	x1, [x21, #-40]
  40f854:	f94012a2 	ldr	x2, [x21, #32]
  40f858:	f81c82a2 	stur	x2, [x21, #-56]
  40f85c:	f94016a2 	ldr	x2, [x21, #40]
  40f860:	f81d02a2 	stur	x2, [x21, #-48]
  40f864:	f9401aa2 	ldr	x2, [x21, #48]
  40f868:	f81d82a2 	stur	x2, [x21, #-40]
  40f86c:	f90012bf 	str	xzr, [x21, #32]
  40f870:	f90016bf 	str	xzr, [x21, #40]
  40f874:	f9001abf 	str	xzr, [x21, #48]
  40f878:	b4000060 	cbz	x0, 40f884 <_ZNSt6vectorI2PTSaIS0_EE8_M_eraseEN9__gnu_cxx17__normal_iteratorIPS0_S2_EE+0x1a4>
  40f87c:	cb000021 	sub	x1, x1, x0
  40f880:	97ffca10 	bl	4020c0 <_ZdlPvm@plt>
  40f884:	f85e02a0 	ldur	x0, [x21, #-32]
  40f888:	f85f02a1 	ldur	x1, [x21, #-16]
  40f88c:	f9401ea2 	ldr	x2, [x21, #56]
  40f890:	f81e02a2 	stur	x2, [x21, #-32]
  40f894:	f94022a2 	ldr	x2, [x21, #64]
  40f898:	f81e82a2 	stur	x2, [x21, #-24]
  40f89c:	f94026a2 	ldr	x2, [x21, #72]
  40f8a0:	f81f02a2 	stur	x2, [x21, #-16]
  40f8a4:	f9001ebf 	str	xzr, [x21, #56]
  40f8a8:	f90022bf 	str	xzr, [x21, #64]
  40f8ac:	f90026bf 	str	xzr, [x21, #72]
  40f8b0:	b4000060 	cbz	x0, 40f8bc <_ZNSt6vectorI2PTSaIS0_EE8_M_eraseEN9__gnu_cxx17__normal_iteratorIPS0_S2_EE+0x1dc>
  40f8b4:	cb000021 	sub	x1, x1, x0
  40f8b8:	97ffca02 	bl	4020c0 <_ZdlPvm@plt>
  40f8bc:	bd4052a0 	ldr	s0, [x21, #80]
  40f8c0:	bc1f82a0 	stur	s0, [x21, #-8]
  40f8c4:	bd4056a0 	ldr	s0, [x21, #84]
  40f8c8:	bc1fc2a0 	stur	s0, [x21, #-4]
  40f8cc:	910162b5 	add	x21, x21, #0x58
  40f8d0:	d100075a 	sub	x26, x26, #0x1
  40f8d4:	f100035f 	cmp	x26, #0x0
  40f8d8:	54fff30d 	b.le	40f738 <_ZNSt6vectorI2PTSaIS0_EE8_M_eraseEN9__gnu_cxx17__normal_iteratorIPS0_S2_EE+0x58>
  40f8dc:	f85a82b8 	ldur	x24, [x21, #-88]
  40f8e0:	f85b02b7 	ldur	x23, [x21, #-80]
  40f8e4:	f85b82bb 	ldur	x27, [x21, #-72]
  40f8e8:	f94002a0 	ldr	x0, [x21]
  40f8ec:	f81a82a0 	stur	x0, [x21, #-88]
  40f8f0:	f94006a0 	ldr	x0, [x21, #8]
  40f8f4:	f81b02a0 	stur	x0, [x21, #-80]
  40f8f8:	f9400aa0 	ldr	x0, [x21, #16]
  40f8fc:	f81b82a0 	stur	x0, [x21, #-72]
  40f900:	f90002bf 	str	xzr, [x21]
  40f904:	f90006bf 	str	xzr, [x21, #8]
  40f908:	f9000abf 	str	xzr, [x21, #16]
  40f90c:	eb17031f 	cmp	x24, x23
  40f910:	54fff920 	b.eq	40f834 <_ZNSt6vectorI2PTSaIS0_EE8_M_eraseEN9__gnu_cxx17__normal_iteratorIPS0_S2_EE+0x154>  // b.none
  40f914:	aa1803f3 	mov	x19, x24
  40f918:	17ffffb9 	b	40f7fc <_ZNSt6vectorI2PTSaIS0_EE8_M_eraseEN9__gnu_cxx17__normal_iteratorIPS0_S2_EE+0x11c>
  40f91c:	91008273 	add	x19, x19, #0x20
  40f920:	eb1302bf 	cmp	x21, x19
  40f924:	54000120 	b.eq	40f948 <_ZNSt6vectorI2PTSaIS0_EE8_M_eraseEN9__gnu_cxx17__normal_iteratorIPS0_S2_EE+0x268>  // b.none
  40f928:	aa1303e1 	mov	x1, x19
  40f92c:	f8410420 	ldr	x0, [x1], #16
  40f930:	eb01001f 	cmp	x0, x1
  40f934:	54ffff40 	b.eq	40f91c <_ZNSt6vectorI2PTSaIS0_EE8_M_eraseEN9__gnu_cxx17__normal_iteratorIPS0_S2_EE+0x23c>  // b.none
  40f938:	f9400a61 	ldr	x1, [x19, #16]
  40f93c:	91000421 	add	x1, x1, #0x1
  40f940:	97ffc9e0 	bl	4020c0 <_ZdlPvm@plt>
  40f944:	17fffff6 	b	40f91c <_ZNSt6vectorI2PTSaIS0_EE8_M_eraseEN9__gnu_cxx17__normal_iteratorIPS0_S2_EE+0x23c>
  40f948:	f9400680 	ldr	x0, [x20, #8]
  40f94c:	b4000080 	cbz	x0, 40f95c <_ZNSt6vectorI2PTSaIS0_EE8_M_eraseEN9__gnu_cxx17__normal_iteratorIPS0_S2_EE+0x27c>
  40f950:	f9400e81 	ldr	x1, [x20, #24]
  40f954:	cb000021 	sub	x1, x1, x0
  40f958:	97ffc9da 	bl	4020c0 <_ZdlPvm@plt>
  40f95c:	9102c294 	add	x20, x20, #0xb0
  40f960:	eb1402ff 	cmp	x23, x20
  40f964:	54fff0c0 	b.eq	40f77c <_ZNSt6vectorI2PTSaIS0_EE8_M_eraseEN9__gnu_cxx17__normal_iteratorIPS0_S2_EE+0x9c>  // b.none
  40f968:	9101e280 	add	x0, x20, #0x78
  40f96c:	97ffcfc4 	bl	40387c <_ZNSt10_HashtableIiSt4pairIKiiESaIS2_ENSt8__detail10_Select1stESt8equal_toIiESt4hashIiENS4_18_Mod_range_hashingENS4_20_Default_ranged_hashENS4_20_Prime_rehash_policyENS4_17_Hashtable_traitsILb0ELb0ELb1EEEED1Ev>
  40f970:	91010280 	add	x0, x20, #0x40
  40f974:	97ffcf99 	bl	4037d8 <_ZNSt10_HashtableINSt7__cxx1112basic_stringIcSt11char_traitsIcESaIcEEESt4pairIKS5_iESaIS8_ENSt8__detail10_Select1stESt8equal_toIS5_ESt4hashIS5_ENSA_18_Mod_range_hashingENSA_20_Default_ranged_hashENSA_20_Prime_rehash_policyENSA_17_Hashtable_traitsILb1ELb0ELb1EEEED1Ev>
  40f978:	f9401280 	ldr	x0, [x20, #32]
  40f97c:	b4000080 	cbz	x0, 40f98c <_ZNSt6vectorI2PTSaIS0_EE8_M_eraseEN9__gnu_cxx17__normal_iteratorIPS0_S2_EE+0x2ac>
  40f980:	f9401a81 	ldr	x1, [x20, #48]
  40f984:	cb000021 	sub	x1, x1, x0
  40f988:	97ffc9ce 	bl	4020c0 <_ZdlPvm@plt>
  40f98c:	f9400693 	ldr	x19, [x20, #8]
  40f990:	f9400a95 	ldr	x21, [x20, #16]
  40f994:	eb15027f 	cmp	x19, x21
  40f998:	54fffc81 	b.ne	40f928 <_ZNSt6vectorI2PTSaIS0_EE8_M_eraseEN9__gnu_cxx17__normal_iteratorIPS0_S2_EE+0x248>  // b.any
  40f99c:	17ffffeb 	b	40f948 <_ZNSt6vectorI2PTSaIS0_EE8_M_eraseEN9__gnu_cxx17__normal_iteratorIPS0_S2_EE+0x268>

000000000040f9a0 <_ZNSt6vectorI2PTSaIS0_EE13_M_insert_auxIS0_EEvN9__gnu_cxx17__normal_iteratorIPS0_S2_EEOT_>:
  40f9a0:	a9ba7bfd 	stp	x29, x30, [sp, #-96]!
  40f9a4:	910003fd 	mov	x29, sp
  40f9a8:	a90153f3 	stp	x19, x20, [sp, #16]
  40f9ac:	a9025bf5 	stp	x21, x22, [sp, #32]
  40f9b0:	a90363f7 	stp	x23, x24, [sp, #48]
  40f9b4:	a9046bf9 	stp	x25, x26, [sp, #64]
  40f9b8:	aa0003e3 	mov	x3, x0
  40f9bc:	aa0103f8 	mov	x24, x1
  40f9c0:	aa0203f9 	mov	x25, x2
  40f9c4:	f9400400 	ldr	x0, [x0, #8]
  40f9c8:	f85a8001 	ldur	x1, [x0, #-88]
  40f9cc:	f9000001 	str	x1, [x0]
  40f9d0:	f85b0001 	ldur	x1, [x0, #-80]
  40f9d4:	f9000401 	str	x1, [x0, #8]
  40f9d8:	f85b8001 	ldur	x1, [x0, #-72]
  40f9dc:	f9000801 	str	x1, [x0, #16]
  40f9e0:	f81b801f 	stur	xzr, [x0, #-72]
  40f9e4:	f81b001f 	stur	xzr, [x0, #-80]
  40f9e8:	f81a801f 	stur	xzr, [x0, #-88]
  40f9ec:	b85c0001 	ldur	w1, [x0, #-64]
  40f9f0:	b9001801 	str	w1, [x0, #24]
  40f9f4:	f85c8002 	ldur	x2, [x0, #-56]
  40f9f8:	f9001002 	str	x2, [x0, #32]
  40f9fc:	f85d0002 	ldur	x2, [x0, #-48]
  40fa00:	f9001402 	str	x2, [x0, #40]
  40fa04:	f85d8002 	ldur	x2, [x0, #-40]
  40fa08:	f9001802 	str	x2, [x0, #48]
  40fa0c:	f81d801f 	stur	xzr, [x0, #-40]
  40fa10:	f81d001f 	stur	xzr, [x0, #-48]
  40fa14:	f81c801f 	stur	xzr, [x0, #-56]
  40fa18:	f85e0002 	ldur	x2, [x0, #-32]
  40fa1c:	f9001c02 	str	x2, [x0, #56]
  40fa20:	f85e8002 	ldur	x2, [x0, #-24]
  40fa24:	f9002002 	str	x2, [x0, #64]
  40fa28:	f85f0002 	ldur	x2, [x0, #-16]
  40fa2c:	f9002402 	str	x2, [x0, #72]
  40fa30:	f81f001f 	stur	xzr, [x0, #-16]
  40fa34:	f81e801f 	stur	xzr, [x0, #-24]
  40fa38:	f81e001f 	stur	xzr, [x0, #-32]
  40fa3c:	bc5f8000 	ldur	s0, [x0, #-8]
  40fa40:	bd005000 	str	s0, [x0, #80]
  40fa44:	bc5fc000 	ldur	s0, [x0, #-4]
  40fa48:	bd005400 	str	s0, [x0, #84]
  40fa4c:	f9400474 	ldr	x20, [x3, #8]
  40fa50:	91016280 	add	x0, x20, #0x58
  40fa54:	f9000460 	str	x0, [x3, #8]
  40fa58:	d1016294 	sub	x20, x20, #0x58
  40fa5c:	cb180280 	sub	x0, x20, x24
  40fa60:	9343fc1a 	asr	x26, x0, #3
  40fa64:	d2917461 	mov	x1, #0x8ba3                	// #35747
  40fa68:	f2b745c1 	movk	x1, #0xba2e, lsl #16
  40fa6c:	f2d45d01 	movk	x1, #0xa2e8, lsl #32
  40fa70:	f2e5d161 	movk	x1, #0x2e8b, lsl #48
  40fa74:	9b017f5a 	mul	x26, x26, x1
  40fa78:	f100001f 	cmp	x0, #0x0
  40fa7c:	54000bcd 	b.le	40fbf4 <_ZNSt6vectorI2PTSaIS0_EE13_M_insert_auxIS0_EEvN9__gnu_cxx17__normal_iteratorIPS0_S2_EEOT_+0x254>
  40fa80:	a90573fb 	stp	x27, x28, [sp, #80]
  40fa84:	1400004b 	b	40fbb0 <_ZNSt6vectorI2PTSaIS0_EE13_M_insert_auxIS0_EEvN9__gnu_cxx17__normal_iteratorIPS0_S2_EEOT_+0x210>
  40fa88:	910082b5 	add	x21, x21, #0x20
  40fa8c:	eb15039f 	cmp	x28, x21
  40fa90:	54000120 	b.eq	40fab4 <_ZNSt6vectorI2PTSaIS0_EE13_M_insert_auxIS0_EEvN9__gnu_cxx17__normal_iteratorIPS0_S2_EEOT_+0x114>  // b.none
  40fa94:	aa1503e1 	mov	x1, x21
  40fa98:	f8410420 	ldr	x0, [x1], #16
  40fa9c:	eb01001f 	cmp	x0, x1
  40faa0:	54ffff40 	b.eq	40fa88 <_ZNSt6vectorI2PTSaIS0_EE13_M_insert_auxIS0_EEvN9__gnu_cxx17__normal_iteratorIPS0_S2_EEOT_+0xe8>  // b.none
  40faa4:	f9400aa1 	ldr	x1, [x21, #16]
  40faa8:	91000421 	add	x1, x1, #0x1
  40faac:	97ffc985 	bl	4020c0 <_ZdlPvm@plt>
  40fab0:	17fffff6 	b	40fa88 <_ZNSt6vectorI2PTSaIS0_EE13_M_insert_auxIS0_EEvN9__gnu_cxx17__normal_iteratorIPS0_S2_EEOT_+0xe8>
  40fab4:	f9400660 	ldr	x0, [x19, #8]
  40fab8:	b4000080 	cbz	x0, 40fac8 <_ZNSt6vectorI2PTSaIS0_EE13_M_insert_auxIS0_EEvN9__gnu_cxx17__normal_iteratorIPS0_S2_EEOT_+0x128>
  40fabc:	f9400e61 	ldr	x1, [x19, #24]
  40fac0:	cb000021 	sub	x1, x1, x0
  40fac4:	97ffc97f 	bl	4020c0 <_ZdlPvm@plt>
  40fac8:	9102c273 	add	x19, x19, #0xb0
  40facc:	eb1302df 	cmp	x22, x19
  40fad0:	540001e0 	b.eq	40fb0c <_ZNSt6vectorI2PTSaIS0_EE13_M_insert_auxIS0_EEvN9__gnu_cxx17__normal_iteratorIPS0_S2_EEOT_+0x16c>  // b.none
  40fad4:	9101e260 	add	x0, x19, #0x78
  40fad8:	97ffcf69 	bl	40387c <_ZNSt10_HashtableIiSt4pairIKiiESaIS2_ENSt8__detail10_Select1stESt8equal_toIiESt4hashIiENS4_18_Mod_range_hashingENS4_20_Default_ranged_hashENS4_20_Prime_rehash_policyENS4_17_Hashtable_traitsILb0ELb0ELb1EEEED1Ev>
  40fadc:	91010260 	add	x0, x19, #0x40
  40fae0:	97ffcf3e 	bl	4037d8 <_ZNSt10_HashtableINSt7__cxx1112basic_stringIcSt11char_traitsIcESaIcEEESt4pairIKS5_iESaIS8_ENSt8__detail10_Select1stESt8equal_toIS5_ESt4hashIS5_ENSA_18_Mod_range_hashingENSA_20_Default_ranged_hashENSA_20_Prime_rehash_policyENSA_17_Hashtable_traitsILb1ELb0ELb1EEEED1Ev>
  40fae4:	f9401260 	ldr	x0, [x19, #32]
  40fae8:	b4000080 	cbz	x0, 40faf8 <_ZNSt6vectorI2PTSaIS0_EE13_M_insert_auxIS0_EEvN9__gnu_cxx17__normal_iteratorIPS0_S2_EEOT_+0x158>
  40faec:	f9401a61 	ldr	x1, [x19, #48]
  40faf0:	cb000021 	sub	x1, x1, x0
  40faf4:	97ffc973 	bl	4020c0 <_ZdlPvm@plt>
  40faf8:	f9400675 	ldr	x21, [x19, #8]
  40fafc:	f9400a7c 	ldr	x28, [x19, #16]
  40fb00:	eb1c02bf 	cmp	x21, x28
  40fb04:	54fffc81 	b.ne	40fa94 <_ZNSt6vectorI2PTSaIS0_EE13_M_insert_auxIS0_EEvN9__gnu_cxx17__normal_iteratorIPS0_S2_EEOT_+0xf4>  // b.any
  40fb08:	17ffffeb 	b	40fab4 <_ZNSt6vectorI2PTSaIS0_EE13_M_insert_auxIS0_EEvN9__gnu_cxx17__normal_iteratorIPS0_S2_EEOT_+0x114>
  40fb0c:	b4000097 	cbz	x23, 40fb1c <_ZNSt6vectorI2PTSaIS0_EE13_M_insert_auxIS0_EEvN9__gnu_cxx17__normal_iteratorIPS0_S2_EEOT_+0x17c>
  40fb10:	cb170361 	sub	x1, x27, x23
  40fb14:	aa1703e0 	mov	x0, x23
  40fb18:	97ffc96a 	bl	4020c0 <_ZdlPvm@plt>
  40fb1c:	b9401a80 	ldr	w0, [x20, #24]
  40fb20:	b9007280 	str	w0, [x20, #112]
  40fb24:	f9403e80 	ldr	x0, [x20, #120]
  40fb28:	f9404681 	ldr	x1, [x20, #136]
  40fb2c:	f9401282 	ldr	x2, [x20, #32]
  40fb30:	f9003e82 	str	x2, [x20, #120]
  40fb34:	f9401682 	ldr	x2, [x20, #40]
  40fb38:	f9004282 	str	x2, [x20, #128]
  40fb3c:	f9401a82 	ldr	x2, [x20, #48]
  40fb40:	f9004682 	str	x2, [x20, #136]
  40fb44:	f900129f 	str	xzr, [x20, #32]
  40fb48:	f900169f 	str	xzr, [x20, #40]
  40fb4c:	f9001a9f 	str	xzr, [x20, #48]
  40fb50:	b4000060 	cbz	x0, 40fb5c <_ZNSt6vectorI2PTSaIS0_EE13_M_insert_auxIS0_EEvN9__gnu_cxx17__normal_iteratorIPS0_S2_EEOT_+0x1bc>
  40fb54:	cb000021 	sub	x1, x1, x0
  40fb58:	97ffc95a 	bl	4020c0 <_ZdlPvm@plt>
  40fb5c:	f9404a80 	ldr	x0, [x20, #144]
  40fb60:	f9405281 	ldr	x1, [x20, #160]
  40fb64:	f9401e82 	ldr	x2, [x20, #56]
  40fb68:	f9004a82 	str	x2, [x20, #144]
  40fb6c:	f9402282 	ldr	x2, [x20, #64]
  40fb70:	f9004e82 	str	x2, [x20, #152]
  40fb74:	f9402682 	ldr	x2, [x20, #72]
  40fb78:	f9005282 	str	x2, [x20, #160]
  40fb7c:	f9001e9f 	str	xzr, [x20, #56]
  40fb80:	f900229f 	str	xzr, [x20, #64]
  40fb84:	f900269f 	str	xzr, [x20, #72]
  40fb88:	b4000060 	cbz	x0, 40fb94 <_ZNSt6vectorI2PTSaIS0_EE13_M_insert_auxIS0_EEvN9__gnu_cxx17__normal_iteratorIPS0_S2_EEOT_+0x1f4>
  40fb8c:	cb000021 	sub	x1, x1, x0
  40fb90:	97ffc94c 	bl	4020c0 <_ZdlPvm@plt>
  40fb94:	bd405280 	ldr	s0, [x20, #80]
  40fb98:	bd00aa80 	str	s0, [x20, #168]
  40fb9c:	bd405680 	ldr	s0, [x20, #84]
  40fba0:	bd00ae80 	str	s0, [x20, #172]
  40fba4:	d100075a 	sub	x26, x26, #0x1
  40fba8:	f100035f 	cmp	x26, #0x0
  40fbac:	5400022d 	b.le	40fbf0 <_ZNSt6vectorI2PTSaIS0_EE13_M_insert_auxIS0_EEvN9__gnu_cxx17__normal_iteratorIPS0_S2_EEOT_+0x250>
  40fbb0:	f85a8697 	ldr	x23, [x20], #-88
  40fbb4:	f9403296 	ldr	x22, [x20, #96]
  40fbb8:	f940369b 	ldr	x27, [x20, #104]
  40fbbc:	f9400280 	ldr	x0, [x20]
  40fbc0:	f9002e80 	str	x0, [x20, #88]
  40fbc4:	f9400680 	ldr	x0, [x20, #8]
  40fbc8:	f9003280 	str	x0, [x20, #96]
  40fbcc:	f9400a80 	ldr	x0, [x20, #16]
  40fbd0:	f9003680 	str	x0, [x20, #104]
  40fbd4:	f900029f 	str	xzr, [x20]
  40fbd8:	f900069f 	str	xzr, [x20, #8]
  40fbdc:	f9000a9f 	str	xzr, [x20, #16]
  40fbe0:	eb1602ff 	cmp	x23, x22
  40fbe4:	54fff940 	b.eq	40fb0c <_ZNSt6vectorI2PTSaIS0_EE13_M_insert_auxIS0_EEvN9__gnu_cxx17__normal_iteratorIPS0_S2_EEOT_+0x16c>  // b.none
  40fbe8:	aa1703f3 	mov	x19, x23
  40fbec:	17ffffba 	b	40fad4 <_ZNSt6vectorI2PTSaIS0_EE13_M_insert_auxIS0_EEvN9__gnu_cxx17__normal_iteratorIPS0_S2_EEOT_+0x134>
  40fbf0:	a94573fb 	ldp	x27, x28, [sp, #80]
  40fbf4:	f9400317 	ldr	x23, [x24]
  40fbf8:	f9400716 	ldr	x22, [x24, #8]
  40fbfc:	f9400b1a 	ldr	x26, [x24, #16]
  40fc00:	f9400320 	ldr	x0, [x25]
  40fc04:	f9000300 	str	x0, [x24]
  40fc08:	f9400720 	ldr	x0, [x25, #8]
  40fc0c:	f9000700 	str	x0, [x24, #8]
  40fc10:	f9400b20 	ldr	x0, [x25, #16]
  40fc14:	f9000b00 	str	x0, [x24, #16]
  40fc18:	f900033f 	str	xzr, [x25]
  40fc1c:	f900073f 	str	xzr, [x25, #8]
  40fc20:	f9000b3f 	str	xzr, [x25, #16]
  40fc24:	eb1602ff 	cmp	x23, x22
  40fc28:	54000480 	b.eq	40fcb8 <_ZNSt6vectorI2PTSaIS0_EE13_M_insert_auxIS0_EEvN9__gnu_cxx17__normal_iteratorIPS0_S2_EEOT_+0x318>  // b.none
  40fc2c:	aa1703f5 	mov	x21, x23
  40fc30:	14000014 	b	40fc80 <_ZNSt6vectorI2PTSaIS0_EE13_M_insert_auxIS0_EEvN9__gnu_cxx17__normal_iteratorIPS0_S2_EEOT_+0x2e0>
  40fc34:	91008273 	add	x19, x19, #0x20
  40fc38:	eb13029f 	cmp	x20, x19
  40fc3c:	54000120 	b.eq	40fc60 <_ZNSt6vectorI2PTSaIS0_EE13_M_insert_auxIS0_EEvN9__gnu_cxx17__normal_iteratorIPS0_S2_EEOT_+0x2c0>  // b.none
  40fc40:	aa1303e1 	mov	x1, x19
  40fc44:	f8410420 	ldr	x0, [x1], #16
  40fc48:	eb01001f 	cmp	x0, x1
  40fc4c:	54ffff40 	b.eq	40fc34 <_ZNSt6vectorI2PTSaIS0_EE13_M_insert_auxIS0_EEvN9__gnu_cxx17__normal_iteratorIPS0_S2_EEOT_+0x294>  // b.none
  40fc50:	f9400a61 	ldr	x1, [x19, #16]
  40fc54:	91000421 	add	x1, x1, #0x1
  40fc58:	97ffc91a 	bl	4020c0 <_ZdlPvm@plt>
  40fc5c:	17fffff6 	b	40fc34 <_ZNSt6vectorI2PTSaIS0_EE13_M_insert_auxIS0_EEvN9__gnu_cxx17__normal_iteratorIPS0_S2_EEOT_+0x294>
  40fc60:	f94006a0 	ldr	x0, [x21, #8]
  40fc64:	b4000080 	cbz	x0, 40fc74 <_ZNSt6vectorI2PTSaIS0_EE13_M_insert_auxIS0_EEvN9__gnu_cxx17__normal_iteratorIPS0_S2_EEOT_+0x2d4>
  40fc68:	f9400ea1 	ldr	x1, [x21, #24]
  40fc6c:	cb000021 	sub	x1, x1, x0
  40fc70:	97ffc914 	bl	4020c0 <_ZdlPvm@plt>
  40fc74:	9102c2b5 	add	x21, x21, #0xb0
  40fc78:	eb1502df 	cmp	x22, x21
  40fc7c:	540001e0 	b.eq	40fcb8 <_ZNSt6vectorI2PTSaIS0_EE13_M_insert_auxIS0_EEvN9__gnu_cxx17__normal_iteratorIPS0_S2_EEOT_+0x318>  // b.none
  40fc80:	9101e2a0 	add	x0, x21, #0x78
  40fc84:	97ffcefe 	bl	40387c <_ZNSt10_HashtableIiSt4pairIKiiESaIS2_ENSt8__detail10_Select1stESt8equal_toIiESt4hashIiENS4_18_Mod_range_hashingENS4_20_Default_ranged_hashENS4_20_Prime_rehash_policyENS4_17_Hashtable_traitsILb0ELb0ELb1EEEED1Ev>
  40fc88:	910102a0 	add	x0, x21, #0x40
  40fc8c:	97ffced3 	bl	4037d8 <_ZNSt10_HashtableINSt7__cxx1112basic_stringIcSt11char_traitsIcESaIcEEESt4pairIKS5_iESaIS8_ENSt8__detail10_Select1stESt8equal_toIS5_ESt4hashIS5_ENSA_18_Mod_range_hashingENSA_20_Default_ranged_hashENSA_20_Prime_rehash_policyENSA_17_Hashtable_traitsILb1ELb0ELb1EEEED1Ev>
  40fc90:	f94012a0 	ldr	x0, [x21, #32]
  40fc94:	b4000080 	cbz	x0, 40fca4 <_ZNSt6vectorI2PTSaIS0_EE13_M_insert_auxIS0_EEvN9__gnu_cxx17__normal_iteratorIPS0_S2_EEOT_+0x304>
  40fc98:	f9401aa1 	ldr	x1, [x21, #48]
  40fc9c:	cb000021 	sub	x1, x1, x0
  40fca0:	97ffc908 	bl	4020c0 <_ZdlPvm@plt>
  40fca4:	f94006b3 	ldr	x19, [x21, #8]
  40fca8:	f9400ab4 	ldr	x20, [x21, #16]
  40fcac:	eb14027f 	cmp	x19, x20
  40fcb0:	54fffc81 	b.ne	40fc40 <_ZNSt6vectorI2PTSaIS0_EE13_M_insert_auxIS0_EEvN9__gnu_cxx17__normal_iteratorIPS0_S2_EEOT_+0x2a0>  // b.any
  40fcb4:	17ffffeb 	b	40fc60 <_ZNSt6vectorI2PTSaIS0_EE13_M_insert_auxIS0_EEvN9__gnu_cxx17__normal_iteratorIPS0_S2_EEOT_+0x2c0>
  40fcb8:	b4000097 	cbz	x23, 40fcc8 <_ZNSt6vectorI2PTSaIS0_EE13_M_insert_auxIS0_EEvN9__gnu_cxx17__normal_iteratorIPS0_S2_EEOT_+0x328>
  40fcbc:	cb170341 	sub	x1, x26, x23
  40fcc0:	aa1703e0 	mov	x0, x23
  40fcc4:	97ffc8ff 	bl	4020c0 <_ZdlPvm@plt>
  40fcc8:	b9401b20 	ldr	w0, [x25, #24]
  40fccc:	b9001b00 	str	w0, [x24, #24]
  40fcd0:	f9401300 	ldr	x0, [x24, #32]
  40fcd4:	f9401b01 	ldr	x1, [x24, #48]
  40fcd8:	f9401324 	ldr	x4, [x25, #32]
  40fcdc:	f9001304 	str	x4, [x24, #32]
  40fce0:	f9401724 	ldr	x4, [x25, #40]
  40fce4:	f9001704 	str	x4, [x24, #40]
  40fce8:	f9401b24 	ldr	x4, [x25, #48]
  40fcec:	f9001b04 	str	x4, [x24, #48]
  40fcf0:	f900133f 	str	xzr, [x25, #32]
  40fcf4:	f900173f 	str	xzr, [x25, #40]
  40fcf8:	f9001b3f 	str	xzr, [x25, #48]
  40fcfc:	b4000060 	cbz	x0, 40fd08 <_ZNSt6vectorI2PTSaIS0_EE13_M_insert_auxIS0_EEvN9__gnu_cxx17__normal_iteratorIPS0_S2_EEOT_+0x368>
  40fd00:	cb000021 	sub	x1, x1, x0
  40fd04:	97ffc8ef 	bl	4020c0 <_ZdlPvm@plt>
  40fd08:	f9401f00 	ldr	x0, [x24, #56]
  40fd0c:	f9402701 	ldr	x1, [x24, #72]
  40fd10:	f9401f24 	ldr	x4, [x25, #56]
  40fd14:	f9001f04 	str	x4, [x24, #56]
  40fd18:	f9402324 	ldr	x4, [x25, #64]
  40fd1c:	f9002304 	str	x4, [x24, #64]
  40fd20:	f9402724 	ldr	x4, [x25, #72]
  40fd24:	f9002704 	str	x4, [x24, #72]
  40fd28:	f9001f3f 	str	xzr, [x25, #56]
  40fd2c:	f900233f 	str	xzr, [x25, #64]
  40fd30:	f900273f 	str	xzr, [x25, #72]
  40fd34:	b4000060 	cbz	x0, 40fd40 <_ZNSt6vectorI2PTSaIS0_EE13_M_insert_auxIS0_EEvN9__gnu_cxx17__normal_iteratorIPS0_S2_EEOT_+0x3a0>
  40fd38:	cb000021 	sub	x1, x1, x0
  40fd3c:	97ffc8e1 	bl	4020c0 <_ZdlPvm@plt>
  40fd40:	bd405320 	ldr	s0, [x25, #80]
  40fd44:	bd005300 	str	s0, [x24, #80]
  40fd48:	bd405720 	ldr	s0, [x25, #84]
  40fd4c:	bd005700 	str	s0, [x24, #84]
  40fd50:	a94153f3 	ldp	x19, x20, [sp, #16]
  40fd54:	a9425bf5 	ldp	x21, x22, [sp, #32]
  40fd58:	a94363f7 	ldp	x23, x24, [sp, #48]
  40fd5c:	a9446bf9 	ldp	x25, x26, [sp, #64]
  40fd60:	a8c67bfd 	ldp	x29, x30, [sp], #96
  40fd64:	d65f03c0 	ret

000000000040fd68 <_ZNSt6vectorINSt7__cxx1112basic_stringIcSt11char_traitsIcESaIcEEESaIS5_EE12emplace_backIJRS5_EEEvDpOT_>:
  40fd68:	a9be7bfd 	stp	x29, x30, [sp, #-32]!
  40fd6c:	910003fd 	mov	x29, sp
  40fd70:	f9000bf3 	str	x19, [sp, #16]
  40fd74:	aa0003f3 	mov	x19, x0
  40fd78:	aa0103e2 	mov	x2, x1
  40fd7c:	f9400400 	ldr	x0, [x0, #8]
  40fd80:	f9400a61 	ldr	x1, [x19, #16]
  40fd84:	eb01001f 	cmp	x0, x1
  40fd88:	540001c0 	b.eq	40fdc0 <_ZNSt6vectorINSt7__cxx1112basic_stringIcSt11char_traitsIcESaIcEEESaIS5_EE12emplace_backIJRS5_EEEvDpOT_+0x58>  // b.none
  40fd8c:	91004001 	add	x1, x0, #0x10
  40fd90:	f9000001 	str	x1, [x0]
  40fd94:	f9400041 	ldr	x1, [x2]
  40fd98:	f9400442 	ldr	x2, [x2, #8]
  40fd9c:	52800003 	mov	w3, #0x0                   	// #0
  40fda0:	8b020022 	add	x2, x1, x2
  40fda4:	97ffe7ac 	bl	409c54 <_ZNSt7__cxx1112basic_stringIcSt11char_traitsIcESaIcEE12_M_constructIPcEEvT_S7_St20forward_iterator_tag>
  40fda8:	f9400660 	ldr	x0, [x19, #8]
  40fdac:	91008000 	add	x0, x0, #0x20
  40fdb0:	f9000660 	str	x0, [x19, #8]
  40fdb4:	f9400bf3 	ldr	x19, [sp, #16]
  40fdb8:	a8c27bfd 	ldp	x29, x30, [sp], #32
  40fdbc:	d65f03c0 	ret
  40fdc0:	aa0003e1 	mov	x1, x0
  40fdc4:	aa1303e0 	mov	x0, x19
  40fdc8:	97ffe7cc 	bl	409cf8 <_ZNSt6vectorINSt7__cxx1112basic_stringIcSt11char_traitsIcESaIcEEESaIS5_EE17_M_realloc_insertIJRS5_EEEvN9__gnu_cxx17__normal_iteratorIPS5_S7_EEDpOT_>
  40fdcc:	17fffffa 	b	40fdb4 <_ZNSt6vectorINSt7__cxx1112basic_stringIcSt11char_traitsIcESaIcEEESaIS5_EE12emplace_backIJRS5_EEEvDpOT_+0x4c>

000000000040fdd0 <_ZNSt6vectorI2PTSaIS0_EE14_M_emplace_auxIJRS0_EEEN9__gnu_cxx17__normal_iteratorIPS0_S2_EENS6_IPKS0_S2_EEDpOT_>:
  40fdd0:	a9b67bfd 	stp	x29, x30, [sp, #-160]!
  40fdd4:	910003fd 	mov	x29, sp
  40fdd8:	a9025bf5 	stp	x21, x22, [sp, #32]
  40fddc:	a90363f7 	stp	x23, x24, [sp, #48]
  40fde0:	aa0003f6 	mov	x22, x0
  40fde4:	aa0103e3 	mov	x3, x1
  40fde8:	aa0203e1 	mov	x1, x2
  40fdec:	f9400018 	ldr	x24, [x0]
  40fdf0:	cb180078 	sub	x24, x3, x24
  40fdf4:	f9400400 	ldr	x0, [x0, #8]
  40fdf8:	f9400ac2 	ldr	x2, [x22, #16]
  40fdfc:	eb02001f 	cmp	x0, x2
  40fe00:	54000980 	b.eq	40ff30 <_ZNSt6vectorI2PTSaIS0_EE14_M_emplace_auxIJRS0_EEEN9__gnu_cxx17__normal_iteratorIPS0_S2_EENS6_IPKS0_S2_EEDpOT_+0x160>  // b.none
  40fe04:	eb03001f 	cmp	x0, x3
  40fe08:	54000480 	b.eq	40fe98 <_ZNSt6vectorI2PTSaIS0_EE14_M_emplace_auxIJRS0_EEEN9__gnu_cxx17__normal_iteratorIPS0_S2_EENS6_IPKS0_S2_EEDpOT_+0xc8>  // b.none
  40fe0c:	a90153f3 	stp	x19, x20, [sp, #16]
  40fe10:	f90023f6 	str	x22, [sp, #64]
  40fe14:	910123e0 	add	x0, sp, #0x48
  40fe18:	97ffeac1 	bl	40a91c <_ZN2PTC1ERKS_>
  40fe1c:	f94002c1 	ldr	x1, [x22]
  40fe20:	910123e2 	add	x2, sp, #0x48
  40fe24:	8b180021 	add	x1, x1, x24
  40fe28:	aa1603e0 	mov	x0, x22
  40fe2c:	97fffedd 	bl	40f9a0 <_ZNSt6vectorI2PTSaIS0_EE13_M_insert_auxIS0_EEvN9__gnu_cxx17__normal_iteratorIPS0_S2_EEOT_>
  40fe30:	f94043e0 	ldr	x0, [sp, #128]
  40fe34:	b4000080 	cbz	x0, 40fe44 <_ZNSt6vectorI2PTSaIS0_EE14_M_emplace_auxIJRS0_EEEN9__gnu_cxx17__normal_iteratorIPS0_S2_EENS6_IPKS0_S2_EEDpOT_+0x74>
  40fe38:	f9404be1 	ldr	x1, [sp, #144]
  40fe3c:	cb000021 	sub	x1, x1, x0
  40fe40:	97ffc8a0 	bl	4020c0 <_ZdlPvm@plt>
  40fe44:	f94037e0 	ldr	x0, [sp, #104]
  40fe48:	b4000080 	cbz	x0, 40fe58 <_ZNSt6vectorI2PTSaIS0_EE14_M_emplace_auxIJRS0_EEEN9__gnu_cxx17__normal_iteratorIPS0_S2_EENS6_IPKS0_S2_EEDpOT_+0x88>
  40fe4c:	f9403fe1 	ldr	x1, [sp, #120]
  40fe50:	cb000021 	sub	x1, x1, x0
  40fe54:	97ffc89b 	bl	4020c0 <_ZdlPvm@plt>
  40fe58:	f94027f4 	ldr	x20, [sp, #72]
  40fe5c:	f9402bf7 	ldr	x23, [sp, #80]
  40fe60:	eb17029f 	cmp	x20, x23
  40fe64:	540004a1 	b.ne	40fef8 <_ZNSt6vectorI2PTSaIS0_EE14_M_emplace_auxIJRS0_EEEN9__gnu_cxx17__normal_iteratorIPS0_S2_EENS6_IPKS0_S2_EEDpOT_+0x128>  // b.any
  40fe68:	f94027e0 	ldr	x0, [sp, #72]
  40fe6c:	b40006c0 	cbz	x0, 40ff44 <_ZNSt6vectorI2PTSaIS0_EE14_M_emplace_auxIJRS0_EEEN9__gnu_cxx17__normal_iteratorIPS0_S2_EENS6_IPKS0_S2_EEDpOT_+0x174>
  40fe70:	f9402fe1 	ldr	x1, [sp, #88]
  40fe74:	cb000021 	sub	x1, x1, x0
  40fe78:	97ffc892 	bl	4020c0 <_ZdlPvm@plt>
  40fe7c:	a94153f3 	ldp	x19, x20, [sp, #16]
  40fe80:	f94002c0 	ldr	x0, [x22]
  40fe84:	8b180000 	add	x0, x0, x24
  40fe88:	a9425bf5 	ldp	x21, x22, [sp, #32]
  40fe8c:	a94363f7 	ldp	x23, x24, [sp, #48]
  40fe90:	a8ca7bfd 	ldp	x29, x30, [sp], #160
  40fe94:	d65f03c0 	ret
  40fe98:	97ffeaa1 	bl	40a91c <_ZN2PTC1ERKS_>
  40fe9c:	f94006c0 	ldr	x0, [x22, #8]
  40fea0:	91016000 	add	x0, x0, #0x58
  40fea4:	f90006c0 	str	x0, [x22, #8]
  40fea8:	17fffff6 	b	40fe80 <_ZNSt6vectorI2PTSaIS0_EE14_M_emplace_auxIJRS0_EEEN9__gnu_cxx17__normal_iteratorIPS0_S2_EENS6_IPKS0_S2_EEDpOT_+0xb0>
  40feac:	91008273 	add	x19, x19, #0x20
  40feb0:	eb1302bf 	cmp	x21, x19
  40feb4:	54000120 	b.eq	40fed8 <_ZNSt6vectorI2PTSaIS0_EE14_M_emplace_auxIJRS0_EEEN9__gnu_cxx17__normal_iteratorIPS0_S2_EENS6_IPKS0_S2_EEDpOT_+0x108>  // b.none
  40feb8:	aa1303e1 	mov	x1, x19
  40febc:	f8410420 	ldr	x0, [x1], #16
  40fec0:	eb01001f 	cmp	x0, x1
  40fec4:	54ffff40 	b.eq	40feac <_ZNSt6vectorI2PTSaIS0_EE14_M_emplace_auxIJRS0_EEEN9__gnu_cxx17__normal_iteratorIPS0_S2_EENS6_IPKS0_S2_EEDpOT_+0xdc>  // b.none
  40fec8:	f9400a61 	ldr	x1, [x19, #16]
  40fecc:	91000421 	add	x1, x1, #0x1
  40fed0:	97ffc87c 	bl	4020c0 <_ZdlPvm@plt>
  40fed4:	17fffff6 	b	40feac <_ZNSt6vectorI2PTSaIS0_EE14_M_emplace_auxIJRS0_EEEN9__gnu_cxx17__normal_iteratorIPS0_S2_EENS6_IPKS0_S2_EEDpOT_+0xdc>
  40fed8:	f9400680 	ldr	x0, [x20, #8]
  40fedc:	b4000080 	cbz	x0, 40feec <_ZNSt6vectorI2PTSaIS0_EE14_M_emplace_auxIJRS0_EEEN9__gnu_cxx17__normal_iteratorIPS0_S2_EENS6_IPKS0_S2_EEDpOT_+0x11c>
  40fee0:	f9400e81 	ldr	x1, [x20, #24]
  40fee4:	cb000021 	sub	x1, x1, x0
  40fee8:	97ffc876 	bl	4020c0 <_ZdlPvm@plt>
  40feec:	9102c294 	add	x20, x20, #0xb0
  40fef0:	eb1402ff 	cmp	x23, x20
  40fef4:	54fffba0 	b.eq	40fe68 <_ZNSt6vectorI2PTSaIS0_EE14_M_emplace_auxIJRS0_EEEN9__gnu_cxx17__normal_iteratorIPS0_S2_EENS6_IPKS0_S2_EEDpOT_+0x98>  // b.none
  40fef8:	9101e280 	add	x0, x20, #0x78
  40fefc:	97ffce60 	bl	40387c <_ZNSt10_HashtableIiSt4pairIKiiESaIS2_ENSt8__detail10_Select1stESt8equal_toIiESt4hashIiENS4_18_Mod_range_hashingENS4_20_Default_ranged_hashENS4_20_Prime_rehash_policyENS4_17_Hashtable_traitsILb0ELb0ELb1EEEED1Ev>
  40ff00:	91010280 	add	x0, x20, #0x40
  40ff04:	97ffce35 	bl	4037d8 <_ZNSt10_HashtableINSt7__cxx1112basic_stringIcSt11char_traitsIcESaIcEEESt4pairIKS5_iESaIS8_ENSt8__detail10_Select1stESt8equal_toIS5_ESt4hashIS5_ENSA_18_Mod_range_hashingENSA_20_Default_ranged_hashENSA_20_Prime_rehash_policyENSA_17_Hashtable_traitsILb1ELb0ELb1EEEED1Ev>
  40ff08:	f9401280 	ldr	x0, [x20, #32]
  40ff0c:	b4000080 	cbz	x0, 40ff1c <_ZNSt6vectorI2PTSaIS0_EE14_M_emplace_auxIJRS0_EEEN9__gnu_cxx17__normal_iteratorIPS0_S2_EENS6_IPKS0_S2_EEDpOT_+0x14c>
  40ff10:	f9401a81 	ldr	x1, [x20, #48]
  40ff14:	cb000021 	sub	x1, x1, x0
  40ff18:	97ffc86a 	bl	4020c0 <_ZdlPvm@plt>
  40ff1c:	f9400693 	ldr	x19, [x20, #8]
  40ff20:	f9400a95 	ldr	x21, [x20, #16]
  40ff24:	eb15027f 	cmp	x19, x21
  40ff28:	54fffc81 	b.ne	40feb8 <_ZNSt6vectorI2PTSaIS0_EE14_M_emplace_auxIJRS0_EEEN9__gnu_cxx17__normal_iteratorIPS0_S2_EENS6_IPKS0_S2_EEDpOT_+0xe8>  // b.any
  40ff2c:	17ffffeb 	b	40fed8 <_ZNSt6vectorI2PTSaIS0_EE14_M_emplace_auxIJRS0_EEEN9__gnu_cxx17__normal_iteratorIPS0_S2_EENS6_IPKS0_S2_EEDpOT_+0x108>
  40ff30:	aa0103e2 	mov	x2, x1
  40ff34:	aa0303e1 	mov	x1, x3
  40ff38:	aa1603e0 	mov	x0, x22
  40ff3c:	97ffeb06 	bl	40ab54 <_ZNSt6vectorI2PTSaIS0_EE17_M_realloc_insertIJRS0_EEEvN9__gnu_cxx17__normal_iteratorIPS0_S2_EEDpOT_>
  40ff40:	17ffffd0 	b	40fe80 <_ZNSt6vectorI2PTSaIS0_EE14_M_emplace_auxIJRS0_EEEN9__gnu_cxx17__normal_iteratorIPS0_S2_EENS6_IPKS0_S2_EEDpOT_+0xb0>
  40ff44:	a94153f3 	ldp	x19, x20, [sp, #16]
  40ff48:	17ffffce 	b	40fe80 <_ZNSt6vectorI2PTSaIS0_EE14_M_emplace_auxIJRS0_EEEN9__gnu_cxx17__normal_iteratorIPS0_S2_EENS6_IPKS0_S2_EEDpOT_+0xb0>

000000000040ff4c <_Z13StringProcessRKNSt7__cxx1112basic_stringIcSt11char_traitsIcESaIcEEEPi>:
  40ff4c:	a9bb7bfd 	stp	x29, x30, [sp, #-80]!
  40ff50:	910003fd 	mov	x29, sp
  40ff54:	a90153f3 	stp	x19, x20, [sp, #16]
  40ff58:	a9025bf5 	stp	x21, x22, [sp, #32]
  40ff5c:	a90363f7 	stp	x23, x24, [sp, #48]
  40ff60:	f90023f9 	str	x25, [sp, #64]
  40ff64:	aa0103f5 	mov	x21, x1
  40ff68:	f9400019 	ldr	x25, [x0]
  40ff6c:	f9400413 	ldr	x19, [x0, #8]
  40ff70:	531d7261 	lsl	w1, w19, #3
  40ff74:	6b0103e0 	negs	w0, w1
  40ff78:	12002021 	and	w1, w1, #0x1ff
  40ff7c:	12002000 	and	w0, w0, #0x1ff
  40ff80:	5a804420 	csneg	w0, w1, w0, mi  // mi = first
  40ff84:	7107001f 	cmp	w0, #0x1c0
  40ff88:	5400052d 	b.le	41002c <_Z13StringProcessRKNSt7__cxx1112basic_stringIcSt11char_traitsIcESaIcEEEPi+0xe0>
  40ff8c:	52807801 	mov	w1, #0x3c0                 	// #960
  40ff90:	4b000020 	sub	w0, w1, w0
  40ff94:	11001c18 	add	w24, w0, #0x7
  40ff98:	7100001f 	cmp	w0, #0x0
  40ff9c:	1a80b318 	csel	w24, w24, w0, lt  // lt = tstop
  40ffa0:	13037f18 	asr	w24, w24, #3
  40ffa4:	0b130317 	add	w23, w24, w19
  40ffa8:	110022f6 	add	w22, w23, #0x8
  40ffac:	93407ec0 	sxtw	x0, w22
  40ffb0:	97ffc7d0 	bl	401ef0 <_Znam@plt>
  40ffb4:	aa0003f4 	mov	x20, x0
  40ffb8:	93407e73 	sxtw	x19, w19
  40ffbc:	aa1303e2 	mov	x2, x19
  40ffc0:	aa1903e1 	mov	x1, x25
  40ffc4:	97ffc7d7 	bl	401f20 <memcpy@plt>
  40ffc8:	12800fe0 	mov	w0, #0xffffff80            	// #-128
  40ffcc:	38336a80 	strb	w0, [x20, x19]
  40ffd0:	51000702 	sub	w2, w24, #0x1
  40ffd4:	91000660 	add	x0, x19, #0x1
  40ffd8:	93407c42 	sxtw	x2, w2
  40ffdc:	52800001 	mov	w1, #0x0                   	// #0
  40ffe0:	8b000280 	add	x0, x20, x0
  40ffe4:	97ffc80f 	bl	402020 <memset@plt>
  40ffe8:	d37df264 	lsl	x4, x19, #3
  40ffec:	d2800002 	mov	x2, #0x0                   	// #0
  40fff0:	8b37c285 	add	x5, x20, w23, sxtw
  40fff4:	531d7043 	lsl	w3, w2, #3
  40fff8:	9ac32483 	lsr	x3, x4, x3
  40fffc:	382268a3 	strb	w3, [x5, x2]
  410000:	91000442 	add	x2, x2, #0x1
  410004:	f100205f 	cmp	x2, #0x8
  410008:	54ffff61 	b.ne	40fff4 <_Z13StringProcessRKNSt7__cxx1112basic_stringIcSt11char_traitsIcESaIcEEEPi+0xa8>  // b.any
  41000c:	b90002b6 	str	w22, [x21]
  410010:	aa1403e0 	mov	x0, x20
  410014:	a94153f3 	ldp	x19, x20, [sp, #16]
  410018:	a9425bf5 	ldp	x21, x22, [sp, #32]
  41001c:	a94363f7 	ldp	x23, x24, [sp, #48]
  410020:	f94023f9 	ldr	x25, [sp, #64]
  410024:	a8c57bfd 	ldp	x29, x30, [sp], #80
  410028:	d65f03c0 	ret
  41002c:	52803801 	mov	w1, #0x1c0                 	// #448
  410030:	4b000021 	sub	w1, w1, w0
  410034:	52804000 	mov	w0, #0x200                 	// #512
  410038:	1a80b020 	csel	w0, w1, w0, lt  // lt = tstop
  41003c:	17ffffd6 	b	40ff94 <_Z13StringProcessRKNSt7__cxx1112basic_stringIcSt11char_traitsIcESaIcEEEPi+0x48>

0000000000410040 <_Z7MD5HashRKNSt7__cxx1112basic_stringIcSt11char_traitsIcESaIcEEEPj>:
  410040:	a9b57bfd 	stp	x29, x30, [sp, #-176]!
  410044:	910003fd 	mov	x29, sp
  410048:	a90153f3 	stp	x19, x20, [sp, #16]
  41004c:	a9025bf5 	stp	x21, x22, [sp, #32]
  410050:	a9046bf9 	stp	x25, x26, [sp, #64]
  410054:	a90573fb 	stp	x27, x28, [sp, #80]
  410058:	aa0003f4 	mov	x20, x0
  41005c:	aa0103f3 	mov	x19, x1
  410060:	d2800080 	mov	x0, #0x4                   	// #4
  410064:	97ffc7a3 	bl	401ef0 <_Znam@plt>
  410068:	aa0003f5 	mov	x21, x0
  41006c:	f90037e0 	str	x0, [sp, #104]
  410070:	aa0003e1 	mov	x1, x0
  410074:	aa1403e0 	mov	x0, x20
  410078:	97ffffb5 	bl	40ff4c <_Z13StringProcessRKNSt7__cxx1112basic_stringIcSt11char_traitsIcESaIcEEEPi>
  41007c:	aa0003fb 	mov	x27, x0
  410080:	b94002a0 	ldr	w0, [x21]
  410084:	1100fc1a 	add	w26, w0, #0x3f
  410088:	7100001f 	cmp	w0, #0x0
  41008c:	1a80b35a 	csel	w26, w26, w0, lt  // lt = tstop
  410090:	52846021 	mov	w1, #0x2301                	// #8961
  410094:	72ace8a1 	movk	w1, #0x6745, lsl #16
  410098:	b9000261 	str	w1, [x19]
  41009c:	52957121 	mov	w1, #0xab89                	// #43913
  4100a0:	72bdf9a1 	movk	w1, #0xefcd, lsl #16
  4100a4:	b9000661 	str	w1, [x19, #4]
  4100a8:	529b9fc1 	mov	w1, #0xdcfe                	// #56574
  4100ac:	72b31741 	movk	w1, #0x98ba, lsl #16
  4100b0:	b9000a61 	str	w1, [x19, #8]
  4100b4:	528a8ec1 	mov	w1, #0x5476                	// #21622
  4100b8:	72a20641 	movk	w1, #0x1032, lsl #16
  4100bc:	b9000e61 	str	w1, [x19, #12]
  4100c0:	7100fc1f 	cmp	w0, #0x3f
  4100c4:	540052cd 	b.le	410b1c <_Z7MD5HashRKNSt7__cxx1112basic_stringIcSt11char_traitsIcESaIcEEEPj+0xadc>
  4100c8:	a90363f7 	stp	x23, x24, [sp, #48]
  4100cc:	13067f5a 	asr	w26, w26, #6
  4100d0:	d2800018 	mov	x24, #0x0                   	// #0
  4100d4:	52800017 	mov	w23, #0x0                   	// #0
  4100d8:	52948f1c 	mov	w28, #0xa478                	// #42104
  4100dc:	72baed5c 	movk	w28, #0xd76a, lsl #16
  4100e0:	8b180360 	add	x0, x27, x24
  4100e4:	9101c3e4 	add	x4, sp, #0x70
  4100e8:	9102c3e5 	add	x5, sp, #0xb0
  4100ec:	39400002 	ldrb	w2, [x0]
  4100f0:	39400401 	ldrb	w1, [x0, #1]
  4100f4:	2a012041 	orr	w1, w2, w1, lsl #8
  4100f8:	39400802 	ldrb	w2, [x0, #2]
  4100fc:	39400c03 	ldrb	w3, [x0, #3]
  410100:	53081c63 	lsl	w3, w3, #24
  410104:	2a024062 	orr	w2, w3, w2, lsl #16
  410108:	2a020021 	orr	w1, w1, w2
  41010c:	b8004481 	str	w1, [x4], #4
  410110:	91001000 	add	x0, x0, #0x4
  410114:	eb05009f 	cmp	x4, x5
  410118:	54fffea1 	b.ne	4100ec <_Z7MD5HashRKNSt7__cxx1112basic_stringIcSt11char_traitsIcESaIcEEEPj+0xac>  // b.any
  41011c:	b9400279 	ldr	w25, [x19]
  410120:	b9400674 	ldr	w20, [x19, #4]
  410124:	b9400a75 	ldr	w21, [x19, #8]
  410128:	b9400e76 	ldr	w22, [x19, #12]
  41012c:	97ffc779 	bl	401f10 <_ZNSt6chrono3_V212system_clock3nowEv@plt>
  410130:	b94073ef 	ldr	w15, [sp, #112]
  410134:	4a1602a0 	eor	w0, w21, w22
  410138:	0a140000 	and	w0, w0, w20
  41013c:	4a160000 	eor	w0, w0, w22
  410140:	0b190000 	add	w0, w0, w25
  410144:	0b1c01e1 	add	w1, w15, w28
  410148:	0b010000 	add	w0, w0, w1
  41014c:	13806400 	ror	w0, w0, #25
  410150:	0b140000 	add	w0, w0, w20
  410154:	b94077ec 	ldr	w12, [sp, #116]
  410158:	4a150283 	eor	w3, w20, w21
  41015c:	0a000063 	and	w3, w3, w0
  410160:	4a150063 	eor	w3, w3, w21
  410164:	0b160063 	add	w3, w3, w22
  410168:	5296eac1 	mov	w1, #0xb756                	// #46934
  41016c:	72bd18e1 	movk	w1, #0xe8c7, lsl #16
  410170:	0b010181 	add	w1, w12, w1
  410174:	0b010063 	add	w3, w3, w1
  410178:	13835063 	ror	w3, w3, #20
  41017c:	0b000063 	add	w3, w3, w0
  410180:	b9407be5 	ldr	w5, [sp, #120]
  410184:	4a000282 	eor	w2, w20, w0
  410188:	0a030042 	and	w2, w2, w3
  41018c:	4a140042 	eor	w2, w2, w20
  410190:	0b150042 	add	w2, w2, w21
  410194:	528e1b61 	mov	w1, #0x70db                	// #28891
  410198:	72a48401 	movk	w1, #0x2420, lsl #16
  41019c:	0b0100a1 	add	w1, w5, w1
  4101a0:	0b010042 	add	w2, w2, w1
  4101a4:	13823c42 	ror	w2, w2, #15
  4101a8:	0b030042 	add	w2, w2, w3
  4101ac:	b9407fee 	ldr	w14, [sp, #124]
  4101b0:	4a030001 	eor	w1, w0, w3
  4101b4:	0a020021 	and	w1, w1, w2
  4101b8:	4a000021 	eor	w1, w1, w0
  4101bc:	0b140021 	add	w1, w1, w20
  4101c0:	5299ddc4 	mov	w4, #0xceee                	// #52974
  4101c4:	72b837a4 	movk	w4, #0xc1bd, lsl #16
  4101c8:	0b0401c4 	add	w4, w14, w4
  4101cc:	0b040021 	add	w1, w1, w4
  4101d0:	13812821 	ror	w1, w1, #10
  4101d4:	0b020021 	add	w1, w1, w2
  4101d8:	b94083e7 	ldr	w7, [sp, #128]
  4101dc:	4a020064 	eor	w4, w3, w2
  4101e0:	0a010084 	and	w4, w4, w1
  4101e4:	4a030084 	eor	w4, w4, w3
  4101e8:	0b000080 	add	w0, w4, w0
  4101ec:	5281f5e4 	mov	w4, #0xfaf                 	// #4015
  4101f0:	72beaf84 	movk	w4, #0xf57c, lsl #16
  4101f4:	0b0400e4 	add	w4, w7, w4
  4101f8:	0b040000 	add	w0, w0, w4
  4101fc:	13806400 	ror	w0, w0, #25
  410200:	0b010000 	add	w0, w0, w1
  410204:	b94087f1 	ldr	w17, [sp, #132]
  410208:	4a010044 	eor	w4, w2, w1
  41020c:	0a000084 	and	w4, w4, w0
  410210:	4a020084 	eor	w4, w4, w2
  410214:	0b030083 	add	w3, w4, w3
  410218:	5298c544 	mov	w4, #0xc62a                	// #50730
  41021c:	72a8f0e4 	movk	w4, #0x4787, lsl #16
  410220:	0b040224 	add	w4, w17, w4
  410224:	0b040063 	add	w3, w3, w4
  410228:	13835063 	ror	w3, w3, #20
  41022c:	0b000063 	add	w3, w3, w0
  410230:	b9408be9 	ldr	w9, [sp, #136]
  410234:	4a000024 	eor	w4, w1, w0
  410238:	0a030084 	and	w4, w4, w3
  41023c:	4a010084 	eor	w4, w4, w1
  410240:	0b020082 	add	w2, w4, w2
  410244:	5288c264 	mov	w4, #0x4613                	// #17939
  410248:	72b50604 	movk	w4, #0xa830, lsl #16
  41024c:	0b040124 	add	w4, w9, w4
  410250:	0b040042 	add	w2, w2, w4
  410254:	13823c42 	ror	w2, w2, #15
  410258:	0b030042 	add	w2, w2, w3
  41025c:	b9408ff4 	ldr	w20, [sp, #140]
  410260:	4a030004 	eor	w4, w0, w3
  410264:	0a020084 	and	w4, w4, w2
  410268:	4a000084 	eor	w4, w4, w0
  41026c:	0b010081 	add	w1, w4, w1
  410270:	5292a024 	mov	w4, #0x9501                	// #38145
  410274:	72bfa8c4 	movk	w4, #0xfd46, lsl #16
  410278:	0b040284 	add	w4, w20, w4
  41027c:	0b040021 	add	w1, w1, w4
  410280:	13812821 	ror	w1, w1, #10
  410284:	0b020021 	add	w1, w1, w2
  410288:	b94093eb 	ldr	w11, [sp, #144]
  41028c:	4a020064 	eor	w4, w3, w2
  410290:	0a010084 	and	w4, w4, w1
  410294:	4a030084 	eor	w4, w4, w3
  410298:	0b000080 	add	w0, w4, w0
  41029c:	52931b04 	mov	w4, #0x98d8                	// #39128
  4102a0:	72ad3004 	movk	w4, #0x6980, lsl #16
  4102a4:	0b040164 	add	w4, w11, w4
  4102a8:	0b040000 	add	w0, w0, w4
  4102ac:	13806400 	ror	w0, w0, #25
  4102b0:	0b010000 	add	w0, w0, w1
  4102b4:	b94097e4 	ldr	w4, [sp, #148]
  4102b8:	4a010046 	eor	w6, w2, w1
  4102bc:	0a0000c6 	and	w6, w6, w0
  4102c0:	4a0200c6 	eor	w6, w6, w2
  4102c4:	0b0300c3 	add	w3, w6, w3
  4102c8:	529ef5e6 	mov	w6, #0xf7af                	// #63407
  4102cc:	72b16886 	movk	w6, #0x8b44, lsl #16
  4102d0:	0b060086 	add	w6, w4, w6
  4102d4:	0b060063 	add	w3, w3, w6
  4102d8:	13835063 	ror	w3, w3, #20
  4102dc:	0b000063 	add	w3, w3, w0
  4102e0:	b9409bed 	ldr	w13, [sp, #152]
  4102e4:	4a000026 	eor	w6, w1, w0
  4102e8:	0a0300c6 	and	w6, w6, w3
  4102ec:	4a0100c6 	eor	w6, w6, w1
  4102f0:	0b0200c2 	add	w2, w6, w2
  4102f4:	514029a6 	sub	w6, w13, #0xa, lsl #12
  4102f8:	51113cc6 	sub	w6, w6, #0x44f
  4102fc:	0b060042 	add	w2, w2, w6
  410300:	13823c42 	ror	w2, w2, #15
  410304:	0b030042 	add	w2, w2, w3
  410308:	b9409fe6 	ldr	w6, [sp, #156]
  41030c:	4a030008 	eor	w8, w0, w3
  410310:	0a020108 	and	w8, w8, w2
  410314:	4a000108 	eor	w8, w8, w0
  410318:	0b010101 	add	w1, w8, w1
  41031c:	529af7c8 	mov	w8, #0xd7be                	// #55230
  410320:	72b12b88 	movk	w8, #0x895c, lsl #16
  410324:	0b0800c8 	add	w8, w6, w8
  410328:	0b080021 	add	w1, w1, w8
  41032c:	13812821 	ror	w1, w1, #10
  410330:	0b020021 	add	w1, w1, w2
  410334:	b940a3f0 	ldr	w16, [sp, #160]
  410338:	4a020068 	eor	w8, w3, w2
  41033c:	0a010108 	and	w8, w8, w1
  410340:	4a030108 	eor	w8, w8, w3
  410344:	0b000100 	add	w0, w8, w0
  410348:	52822448 	mov	w8, #0x1122                	// #4386
  41034c:	72ad7208 	movk	w8, #0x6b90, lsl #16
  410350:	0b080208 	add	w8, w16, w8
  410354:	0b080000 	add	w0, w0, w8
  410358:	13806400 	ror	w0, w0, #25
  41035c:	0b010000 	add	w0, w0, w1
  410360:	b940a7e8 	ldr	w8, [sp, #164]
  410364:	4a01004a 	eor	w10, w2, w1
  410368:	0a00014a 	and	w10, w10, w0
  41036c:	4a02014a 	eor	w10, w10, w2
  410370:	0b030143 	add	w3, w10, w3
  410374:	528e326a 	mov	w10, #0x7193                	// #29075
  410378:	72bfb30a 	movk	w10, #0xfd98, lsl #16
  41037c:	0b0a010a 	add	w10, w8, w10
  410380:	0b0a0063 	add	w3, w3, w10
  410384:	13835063 	ror	w3, w3, #20
  410388:	0b000063 	add	w3, w3, w0
  41038c:	b940abf2 	ldr	w18, [sp, #168]
  410390:	4a00002a 	eor	w10, w1, w0
  410394:	0a03014a 	and	w10, w10, w3
  410398:	4a01014a 	eor	w10, w10, w1
  41039c:	0b020142 	add	w2, w10, w2
  4103a0:	528871ca 	mov	w10, #0x438e                	// #17294
  4103a4:	72b4cf2a 	movk	w10, #0xa679, lsl #16
  4103a8:	0b0a024a 	add	w10, w18, w10
  4103ac:	0b0a0042 	add	w2, w2, w10
  4103b0:	13823c42 	ror	w2, w2, #15
  4103b4:	0b030042 	add	w2, w2, w3
  4103b8:	b940afea 	ldr	w10, [sp, #172]
  4103bc:	4a030015 	eor	w21, w0, w3
  4103c0:	0a0202b5 	and	w21, w21, w2
  4103c4:	4a0002b5 	eor	w21, w21, w0
  4103c8:	0b0102a1 	add	w1, w21, w1
  4103cc:	52810435 	mov	w21, #0x821                 	// #2081
  4103d0:	72a93695 	movk	w21, #0x49b4, lsl #16
  4103d4:	0b150155 	add	w21, w10, w21
  4103d8:	0b150021 	add	w1, w1, w21
  4103dc:	13812821 	ror	w1, w1, #10
  4103e0:	0b020021 	add	w1, w1, w2
  4103e4:	4a010055 	eor	w21, w2, w1
  4103e8:	0a0302b5 	and	w21, w21, w3
  4103ec:	4a0202b5 	eor	w21, w21, w2
  4103f0:	0b0002a0 	add	w0, w21, w0
  4103f4:	5284ac55 	mov	w21, #0x2562                	// #9570
  4103f8:	72bec3d5 	movk	w21, #0xf61e, lsl #16
  4103fc:	0b150195 	add	w21, w12, w21
  410400:	0b150000 	add	w0, w0, w21
  410404:	13806c00 	ror	w0, w0, #27
  410408:	0b010000 	add	w0, w0, w1
  41040c:	4a000035 	eor	w21, w1, w0
  410410:	0a0202b5 	and	w21, w21, w2
  410414:	4a0102b5 	eor	w21, w21, w1
  410418:	0b0302a3 	add	w3, w21, w3
  41041c:	52966815 	mov	w21, #0xb340                	// #45888
  410420:	72b80815 	movk	w21, #0xc040, lsl #16
  410424:	0b150135 	add	w21, w9, w21
  410428:	0b150063 	add	w3, w3, w21
  41042c:	13835c63 	ror	w3, w3, #23
  410430:	0b000063 	add	w3, w3, w0
  410434:	4a030015 	eor	w21, w0, w3
  410438:	0a0102b5 	and	w21, w21, w1
  41043c:	4a0002b5 	eor	w21, w21, w0
  410440:	0b0202a2 	add	w2, w21, w2
  410444:	528b4a35 	mov	w21, #0x5a51                	// #23121
  410448:	72a4cbd5 	movk	w21, #0x265e, lsl #16
  41044c:	0b1500d5 	add	w21, w6, w21
  410450:	0b150042 	add	w2, w2, w21
  410454:	13824842 	ror	w2, w2, #18
  410458:	0b030042 	add	w2, w2, w3
  41045c:	4a020075 	eor	w21, w3, w2
  410460:	0a0002b5 	and	w21, w21, w0
  410464:	4a0302b5 	eor	w21, w21, w3
  410468:	0b0102a1 	add	w1, w21, w1
  41046c:	5298f555 	mov	w21, #0xc7aa                	// #51114
  410470:	72bd36d5 	movk	w21, #0xe9b6, lsl #16
  410474:	0b1501f5 	add	w21, w15, w21
  410478:	0b150021 	add	w1, w1, w21
  41047c:	13813021 	ror	w1, w1, #12
  410480:	0b020021 	add	w1, w1, w2
  410484:	4a010055 	eor	w21, w2, w1
  410488:	0a0302b5 	and	w21, w21, w3
  41048c:	4a0202b5 	eor	w21, w21, w2
  410490:	0b0002a0 	add	w0, w21, w0
  410494:	52820bb5 	mov	w21, #0x105d                	// #4189
  410498:	72bac5f5 	movk	w21, #0xd62f, lsl #16
  41049c:	0b150235 	add	w21, w17, w21
  4104a0:	0b150000 	add	w0, w0, w21
  4104a4:	13806c00 	ror	w0, w0, #27
  4104a8:	0b010000 	add	w0, w0, w1
  4104ac:	4a000035 	eor	w21, w1, w0
  4104b0:	0a0202b5 	and	w21, w21, w2
  4104b4:	4a0102b5 	eor	w21, w21, w1
  4104b8:	0b0302a3 	add	w3, w21, w3
  4104bc:	52828a75 	mov	w21, #0x1453                	// #5203
  4104c0:	72a04895 	movk	w21, #0x244, lsl #16
  4104c4:	0b1501b5 	add	w21, w13, w21
  4104c8:	0b150063 	add	w3, w3, w21
  4104cc:	13835c63 	ror	w3, w3, #23
  4104d0:	0b000063 	add	w3, w3, w0
  4104d4:	4a030015 	eor	w21, w0, w3
  4104d8:	0a0102b5 	and	w21, w21, w1
  4104dc:	4a0002b5 	eor	w21, w21, w0
  4104e0:	0b0202a2 	add	w2, w21, w2
  4104e4:	529cd035 	mov	w21, #0xe681                	// #59009
  4104e8:	72bb1435 	movk	w21, #0xd8a1, lsl #16
  4104ec:	0b150155 	add	w21, w10, w21
  4104f0:	0b150042 	add	w2, w2, w21
  4104f4:	13824842 	ror	w2, w2, #18
  4104f8:	0b030042 	add	w2, w2, w3
  4104fc:	4a020075 	eor	w21, w3, w2
  410500:	0a0002b5 	and	w21, w21, w0
  410504:	4a0302b5 	eor	w21, w21, w3
  410508:	0b0102a1 	add	w1, w21, w1
  41050c:	529f7915 	mov	w21, #0xfbc8                	// #64456
  410510:	72bcfa75 	movk	w21, #0xe7d3, lsl #16
  410514:	0b1500f5 	add	w21, w7, w21
  410518:	0b150021 	add	w1, w1, w21
  41051c:	13813021 	ror	w1, w1, #12
  410520:	0b020021 	add	w1, w1, w2
  410524:	4a010055 	eor	w21, w2, w1
  410528:	0a0302b5 	and	w21, w21, w3
  41052c:	4a0202b5 	eor	w21, w21, w2
  410530:	0b0002a0 	add	w0, w21, w0
  410534:	5299bcd5 	mov	w21, #0xcde6                	// #52710
  410538:	72a43c35 	movk	w21, #0x21e1, lsl #16
  41053c:	0b150095 	add	w21, w4, w21
  410540:	0b150000 	add	w0, w0, w21
  410544:	13806c00 	ror	w0, w0, #27
  410548:	0b010000 	add	w0, w0, w1
  41054c:	4a000035 	eor	w21, w1, w0
  410550:	0a0202b5 	and	w21, w21, w2
  410554:	4a0102b5 	eor	w21, w21, w1
  410558:	0b0302a3 	add	w3, w21, w3
  41055c:	5280fad5 	mov	w21, #0x7d6                 	// #2006
  410560:	72b866f5 	movk	w21, #0xc337, lsl #16
  410564:	0b150255 	add	w21, w18, w21
  410568:	0b150063 	add	w3, w3, w21
  41056c:	13835c63 	ror	w3, w3, #23
  410570:	0b000063 	add	w3, w3, w0
  410574:	4a030015 	eor	w21, w0, w3
  410578:	0a0102b5 	and	w21, w21, w1
  41057c:	4a0002b5 	eor	w21, w21, w0
  410580:	0b0202a2 	add	w2, w21, w2
  410584:	5281b0f5 	mov	w21, #0xd87                 	// #3463
  410588:	72be9ab5 	movk	w21, #0xf4d5, lsl #16
  41058c:	0b1501d5 	add	w21, w14, w21
  410590:	0b150042 	add	w2, w2, w21
  410594:	13824842 	ror	w2, w2, #18
  410598:	0b030042 	add	w2, w2, w3
  41059c:	4a020075 	eor	w21, w3, w2
  4105a0:	0a0002b5 	and	w21, w21, w0
  4105a4:	4a0302b5 	eor	w21, w21, w3
  4105a8:	0b0102a1 	add	w1, w21, w1
  4105ac:	52829db5 	mov	w21, #0x14ed                	// #5357
  4105b0:	72a8ab55 	movk	w21, #0x455a, lsl #16
  4105b4:	0b150175 	add	w21, w11, w21
  4105b8:	0b150021 	add	w1, w1, w21
  4105bc:	13813021 	ror	w1, w1, #12
  4105c0:	0b020021 	add	w1, w1, w2
  4105c4:	4a010055 	eor	w21, w2, w1
  4105c8:	0a0302b5 	and	w21, w21, w3
  4105cc:	4a0202b5 	eor	w21, w21, w2
  4105d0:	0b0002a0 	add	w0, w21, w0
  4105d4:	529d20b5 	mov	w21, #0xe905                	// #59653
  4105d8:	72b53c75 	movk	w21, #0xa9e3, lsl #16
  4105dc:	0b150115 	add	w21, w8, w21
  4105e0:	0b150000 	add	w0, w0, w21
  4105e4:	13806c00 	ror	w0, w0, #27
  4105e8:	0b010000 	add	w0, w0, w1
  4105ec:	4a000035 	eor	w21, w1, w0
  4105f0:	0a0202b5 	and	w21, w21, w2
  4105f4:	4a0102b5 	eor	w21, w21, w1
  4105f8:	0b0302a3 	add	w3, w21, w3
  4105fc:	52947f15 	mov	w21, #0xa3f8                	// #41976
  410600:	72bf9df5 	movk	w21, #0xfcef, lsl #16
  410604:	0b1500b5 	add	w21, w5, w21
  410608:	0b150063 	add	w3, w3, w21
  41060c:	13835c63 	ror	w3, w3, #23
  410610:	0b000063 	add	w3, w3, w0
  410614:	4a030015 	eor	w21, w0, w3
  410618:	0a0102b5 	and	w21, w21, w1
  41061c:	4a0002b5 	eor	w21, w21, w0
  410620:	0b0202a2 	add	w2, w21, w2
  410624:	52805b35 	mov	w21, #0x2d9                 	// #729
  410628:	72acedf5 	movk	w21, #0x676f, lsl #16
  41062c:	0b150295 	add	w21, w20, w21
  410630:	0b150042 	add	w2, w2, w21
  410634:	13824842 	ror	w2, w2, #18
  410638:	0b030042 	add	w2, w2, w3
  41063c:	4a020076 	eor	w22, w3, w2
  410640:	0a0002d5 	and	w21, w22, w0
  410644:	4a0302b5 	eor	w21, w21, w3
  410648:	0b0102b5 	add	w21, w21, w1
  41064c:	52899141 	mov	w1, #0x4c8a                	// #19594
  410650:	72b1a541 	movk	w1, #0x8d2a, lsl #16
  410654:	0b010201 	add	w1, w16, w1
  410658:	0b0102b5 	add	w21, w21, w1
  41065c:	139532b5 	ror	w21, w21, #12
  410660:	0b0202b5 	add	w21, w21, w2
  410664:	4a1502c1 	eor	w1, w22, w21
  410668:	0b000020 	add	w0, w1, w0
  41066c:	51417221 	sub	w1, w17, #0x5c, lsl #12
  410670:	511af821 	sub	w1, w1, #0x6be
  410674:	0b010000 	add	w0, w0, w1
  410678:	13807000 	ror	w0, w0, #28
  41067c:	0b150000 	add	w0, w0, w21
  410680:	4a150041 	eor	w1, w2, w21
  410684:	4a000021 	eor	w1, w1, w0
  410688:	0b030023 	add	w3, w1, w3
  41068c:	529ed021 	mov	w1, #0xf681                	// #63105
  410690:	72b0ee21 	movk	w1, #0x8771, lsl #16
  410694:	0b010161 	add	w1, w11, w1
  410698:	0b010063 	add	w3, w3, w1
  41069c:	13835463 	ror	w3, w3, #21
  4106a0:	0b000063 	add	w3, w3, w0
  4106a4:	4a0002a1 	eor	w1, w21, w0
  4106a8:	4a030021 	eor	w1, w1, w3
  4106ac:	0b020022 	add	w2, w1, w2
  4106b0:	528c2441 	mov	w1, #0x6122                	// #24866
  4106b4:	72adb3a1 	movk	w1, #0x6d9d, lsl #16
  4106b8:	0b0100c1 	add	w1, w6, w1
  4106bc:	0b010042 	add	w2, w2, w1
  4106c0:	13824042 	ror	w2, w2, #16
  4106c4:	0b030042 	add	w2, w2, w3
  4106c8:	4a030001 	eor	w1, w0, w3
  4106cc:	4a020021 	eor	w1, w1, w2
  4106d0:	0b150035 	add	w21, w1, w21
  4106d4:	52870181 	mov	w1, #0x380c                	// #14348
  4106d8:	72bfbca1 	movk	w1, #0xfde5, lsl #16
  4106dc:	0b010241 	add	w1, w18, w1
  4106e0:	0b0102b5 	add	w21, w21, w1
  4106e4:	139526b5 	ror	w21, w21, #9
  4106e8:	0b0202b5 	add	w21, w21, w2
  4106ec:	4a020061 	eor	w1, w3, w2
  4106f0:	4a150021 	eor	w1, w1, w21
  4106f4:	0b000021 	add	w1, w1, w0
  4106f8:	529d4880 	mov	w0, #0xea44                	// #59972
  4106fc:	72b497c0 	movk	w0, #0xa4be, lsl #16
  410700:	0b000180 	add	w0, w12, w0
  410704:	0b000021 	add	w1, w1, w0
  410708:	13817021 	ror	w1, w1, #28
  41070c:	0b150021 	add	w1, w1, w21
  410710:	4a150040 	eor	w0, w2, w21
  410714:	4a010000 	eor	w0, w0, w1
  410718:	0b030003 	add	w3, w0, w3
  41071c:	5299f520 	mov	w0, #0xcfa9                	// #53161
  410720:	72a97bc0 	movk	w0, #0x4bde, lsl #16
  410724:	0b0000e0 	add	w0, w7, w0
  410728:	0b000063 	add	w3, w3, w0
  41072c:	13835463 	ror	w3, w3, #21
  410730:	0b010063 	add	w3, w3, w1
  410734:	4a0102a0 	eor	w0, w21, w1
  410738:	4a030000 	eor	w0, w0, w3
  41073c:	0b020002 	add	w2, w0, w2
  410740:	52896c00 	mov	w0, #0x4b60                	// #19296
  410744:	72bed760 	movk	w0, #0xf6bb, lsl #16
  410748:	0b000280 	add	w0, w20, w0
  41074c:	0b000042 	add	w2, w2, w0
  410750:	13824042 	ror	w2, w2, #16
  410754:	0b030042 	add	w2, w2, w3
  410758:	4a030020 	eor	w0, w1, w3
  41075c:	4a020000 	eor	w0, w0, w2
  410760:	0b150000 	add	w0, w0, w21
  410764:	52978e15 	mov	w21, #0xbc70                	// #48240
  410768:	72b7d7f5 	movk	w21, #0xbebf, lsl #16
  41076c:	0b1501b5 	add	w21, w13, w21
  410770:	0b150000 	add	w0, w0, w21
  410774:	13802400 	ror	w0, w0, #9
  410778:	0b020000 	add	w0, w0, w2
  41077c:	4a020075 	eor	w21, w3, w2
  410780:	4a0002b5 	eor	w21, w21, w0
  410784:	0b0102a1 	add	w1, w21, w1
  410788:	528fd8d5 	mov	w21, #0x7ec6                	// #32454
  41078c:	72a51375 	movk	w21, #0x289b, lsl #16
  410790:	0b150115 	add	w21, w8, w21
  410794:	0b150021 	add	w1, w1, w21
  410798:	13817021 	ror	w1, w1, #28
  41079c:	0b000021 	add	w1, w1, w0
  4107a0:	4a000055 	eor	w21, w2, w0
  4107a4:	4a0102b5 	eor	w21, w21, w1
  4107a8:	0b0302a3 	add	w3, w21, w3
  4107ac:	5284ff55 	mov	w21, #0x27fa                	// #10234
  4107b0:	72bd5435 	movk	w21, #0xeaa1, lsl #16
  4107b4:	0b1501f5 	add	w21, w15, w21
  4107b8:	0b150063 	add	w3, w3, w21
  4107bc:	13835463 	ror	w3, w3, #21
  4107c0:	0b010063 	add	w3, w3, w1
  4107c4:	4a010015 	eor	w21, w0, w1
  4107c8:	4a0302b5 	eor	w21, w21, w3
  4107cc:	0b0202a2 	add	w2, w21, w2
  4107d0:	528610b5 	mov	w21, #0x3085                	// #12421
  4107d4:	72ba9df5 	movk	w21, #0xd4ef, lsl #16
  4107d8:	0b1501d5 	add	w21, w14, w21
  4107dc:	0b150042 	add	w2, w2, w21
  4107e0:	13824042 	ror	w2, w2, #16
  4107e4:	0b030042 	add	w2, w2, w3
  4107e8:	4a030035 	eor	w21, w1, w3
  4107ec:	4a0202b5 	eor	w21, w21, w2
  4107f0:	0b0002a0 	add	w0, w21, w0
  4107f4:	5283a0b5 	mov	w21, #0x1d05                	// #7429
  4107f8:	72a09115 	movk	w21, #0x488, lsl #16
  4107fc:	0b150135 	add	w21, w9, w21
  410800:	0b150000 	add	w0, w0, w21
  410804:	13802400 	ror	w0, w0, #9
  410808:	0b020000 	add	w0, w0, w2
  41080c:	4a020075 	eor	w21, w3, w2
  410810:	4a0002b5 	eor	w21, w21, w0
  410814:	0b0102a1 	add	w1, w21, w1
  410818:	529a0735 	mov	w21, #0xd039                	// #53305
  41081c:	72bb3a95 	movk	w21, #0xd9d4, lsl #16
  410820:	0b150095 	add	w21, w4, w21
  410824:	0b150021 	add	w1, w1, w21
  410828:	13817021 	ror	w1, w1, #28
  41082c:	0b000021 	add	w1, w1, w0
  410830:	4a000055 	eor	w21, w2, w0
  410834:	4a0102b5 	eor	w21, w21, w1
  410838:	0b0302a3 	add	w3, w21, w3
  41083c:	52933cb5 	mov	w21, #0x99e5                	// #39397
  410840:	72bcdb75 	movk	w21, #0xe6db, lsl #16
  410844:	0b150215 	add	w21, w16, w21
  410848:	0b150063 	add	w3, w3, w21
  41084c:	13835463 	ror	w3, w3, #21
  410850:	0b010063 	add	w3, w3, w1
  410854:	4a010015 	eor	w21, w0, w1
  410858:	4a0302b5 	eor	w21, w21, w3
  41085c:	0b0202a2 	add	w2, w21, w2
  410860:	528f9f15 	mov	w21, #0x7cf8                	// #31992
  410864:	72a3f455 	movk	w21, #0x1fa2, lsl #16
  410868:	0b150155 	add	w21, w10, w21
  41086c:	0b150042 	add	w2, w2, w21
  410870:	13824042 	ror	w2, w2, #16
  410874:	0b030042 	add	w2, w2, w3
  410878:	4a030035 	eor	w21, w1, w3
  41087c:	4a0202b5 	eor	w21, w21, w2
  410880:	0b0002a0 	add	w0, w21, w0
  410884:	528accb5 	mov	w21, #0x5665                	// #22117
  410888:	72b89595 	movk	w21, #0xc4ac, lsl #16
  41088c:	0b1500b5 	add	w21, w5, w21
  410890:	0b150000 	add	w0, w0, w21
  410894:	13802400 	ror	w0, w0, #9
  410898:	0b020000 	add	w0, w0, w2
  41089c:	2a230015 	orn	w21, w0, w3
  4108a0:	4a0202b5 	eor	w21, w21, w2
  4108a4:	0b0102a1 	add	w1, w21, w1
  4108a8:	52844895 	mov	w21, #0x2244                	// #8772
  4108ac:	72be8535 	movk	w21, #0xf429, lsl #16
  4108b0:	0b1501ef 	add	w15, w15, w21
  4108b4:	0b0f0021 	add	w1, w1, w15
  4108b8:	13816821 	ror	w1, w1, #26
  4108bc:	0b000021 	add	w1, w1, w0
  4108c0:	2a22002f 	orn	w15, w1, w2
  4108c4:	4a0001ef 	eor	w15, w15, w0
  4108c8:	0b0301e3 	add	w3, w15, w3
  4108cc:	529ff2ef 	mov	w15, #0xff97                	// #65431
  4108d0:	72a8654f 	movk	w15, #0x432a, lsl #16
  4108d4:	0b0f0294 	add	w20, w20, w15
  4108d8:	0b140063 	add	w3, w3, w20
  4108dc:	13835863 	ror	w3, w3, #22
  4108e0:	0b010063 	add	w3, w3, w1
  4108e4:	2a20006f 	orn	w15, w3, w0
  4108e8:	4a0101ef 	eor	w15, w15, w1
  4108ec:	0b0201e2 	add	w2, w15, w2
  4108f0:	528474ef 	mov	w15, #0x23a7                	// #9127
  4108f4:	72b5728f 	movk	w15, #0xab94, lsl #16
  4108f8:	0b0f0252 	add	w18, w18, w15
  4108fc:	0b120042 	add	w2, w2, w18
  410900:	13824442 	ror	w2, w2, #17
  410904:	0b030042 	add	w2, w2, w3
  410908:	2a21004f 	orn	w15, w2, w1
  41090c:	4a0301ef 	eor	w15, w15, w3
  410910:	0b0001e0 	add	w0, w15, w0
  410914:	5294072f 	mov	w15, #0xa039                	// #41017
  410918:	72bf926f 	movk	w15, #0xfc93, lsl #16
  41091c:	0b0f0231 	add	w17, w17, w15
  410920:	0b110000 	add	w0, w0, w17
  410924:	13802c00 	ror	w0, w0, #11
  410928:	0b020000 	add	w0, w0, w2
  41092c:	2a23000f 	orn	w15, w0, w3
  410930:	4a0201ef 	eor	w15, w15, w2
  410934:	0b0101e1 	add	w1, w15, w1
  410938:	528b386f 	mov	w15, #0x59c3                	// #22979
  41093c:	72acab6f 	movk	w15, #0x655b, lsl #16
  410940:	0b0f0210 	add	w16, w16, w15
  410944:	0b100021 	add	w1, w1, w16
  410948:	13816821 	ror	w1, w1, #26
  41094c:	0b000021 	add	w1, w1, w0
  410950:	2a22002f 	orn	w15, w1, w2
  410954:	4a0001ef 	eor	w15, w15, w0
  410958:	0b0301e3 	add	w3, w15, w3
  41095c:	5299924f 	mov	w15, #0xcc92                	// #52370
  410960:	72b1e18f 	movk	w15, #0x8f0c, lsl #16
  410964:	0b0f01ce 	add	w14, w14, w15
  410968:	0b0e0063 	add	w3, w3, w14
  41096c:	13835863 	ror	w3, w3, #22
  410970:	0b010063 	add	w3, w3, w1
  410974:	2a20006e 	orn	w14, w3, w0
  410978:	4a0101ce 	eor	w14, w14, w1
  41097c:	0b0201c2 	add	w2, w14, w2
  410980:	514401ad 	sub	w13, w13, #0x100, lsl #12
  410984:	512e0dad 	sub	w13, w13, #0xb83
  410988:	0b0d0042 	add	w2, w2, w13
  41098c:	13824442 	ror	w2, w2, #17
  410990:	0b030042 	add	w2, w2, w3
  410994:	2a21004d 	orn	w13, w2, w1
  410998:	4a0301ad 	eor	w13, w13, w3
  41099c:	0b0001a0 	add	w0, w13, w0
  4109a0:	528bba2d 	mov	w13, #0x5dd1                	// #24017
  4109a4:	72b0b08d 	movk	w13, #0x8584, lsl #16
  4109a8:	0b0d018c 	add	w12, w12, w13
  4109ac:	0b0c0000 	add	w0, w0, w12
  4109b0:	13802c00 	ror	w0, w0, #11
  4109b4:	0b020000 	add	w0, w0, w2
  4109b8:	2a23000c 	orn	w12, w0, w3
  4109bc:	4a02018c 	eor	w12, w12, w2
  4109c0:	0b010181 	add	w1, w12, w1
  4109c4:	528fc9ec 	mov	w12, #0x7e4f                	// #32335
  4109c8:	72adf50c 	movk	w12, #0x6fa8, lsl #16
  4109cc:	0b0c016b 	add	w11, w11, w12
  4109d0:	0b0b0021 	add	w1, w1, w11
  4109d4:	13816821 	ror	w1, w1, #26
  4109d8:	0b000021 	add	w1, w1, w0
  4109dc:	2a22002b 	orn	w11, w1, w2
  4109e0:	4a00016b 	eor	w11, w11, w0
  4109e4:	0b030163 	add	w3, w11, w3
  4109e8:	529cdc0b 	mov	w11, #0xe6e0                	// #59104
  4109ec:	72bfc58b 	movk	w11, #0xfe2c, lsl #16
  4109f0:	0b0b014a 	add	w10, w10, w11
  4109f4:	0b0a0063 	add	w3, w3, w10
  4109f8:	13835863 	ror	w3, w3, #22
  4109fc:	0b010063 	add	w3, w3, w1
  410a00:	2a20006a 	orn	w10, w3, w0
  410a04:	4a01014a 	eor	w10, w10, w1
  410a08:	0b020142 	add	w2, w10, w2
  410a0c:	5288628a 	mov	w10, #0x4314                	// #17172
  410a10:	72b4602a 	movk	w10, #0xa301, lsl #16
  410a14:	0b0a0129 	add	w9, w9, w10
  410a18:	0b090049 	add	w9, w2, w9
  410a1c:	13894529 	ror	w9, w9, #17
  410a20:	0b030129 	add	w9, w9, w3
  410a24:	2a210122 	orn	w2, w9, w1
  410a28:	4a030042 	eor	w2, w2, w3
  410a2c:	0b000042 	add	w2, w2, w0
  410a30:	52823420 	mov	w0, #0x11a1                	// #4513
  410a34:	72a9c100 	movk	w0, #0x4e08, lsl #16
  410a38:	0b000108 	add	w8, w8, w0
  410a3c:	0b080042 	add	w2, w2, w8
  410a40:	13822c42 	ror	w2, w2, #11
  410a44:	0b090042 	add	w2, w2, w9
  410a48:	2a230040 	orn	w0, w2, w3
  410a4c:	4a090000 	eor	w0, w0, w9
  410a50:	0b010000 	add	w0, w0, w1
  410a54:	528fd041 	mov	w1, #0x7e82                	// #32386
  410a58:	72beea61 	movk	w1, #0xf753, lsl #16
  410a5c:	0b0100e7 	add	w7, w7, w1
  410a60:	0b070000 	add	w0, w0, w7
  410a64:	13806800 	ror	w0, w0, #26
  410a68:	0b020000 	add	w0, w0, w2
  410a6c:	2a290001 	orn	w1, w0, w9
  410a70:	4a020021 	eor	w1, w1, w2
  410a74:	0b030021 	add	w1, w1, w3
  410a78:	529e46a3 	mov	w3, #0xf235                	// #62005
  410a7c:	72b7a743 	movk	w3, #0xbd3a, lsl #16
  410a80:	0b0300c6 	add	w6, w6, w3
  410a84:	0b060021 	add	w1, w1, w6
  410a88:	13815821 	ror	w1, w1, #22
  410a8c:	0b000023 	add	w3, w1, w0
  410a90:	2a220061 	orn	w1, w3, w2
  410a94:	4a000021 	eor	w1, w1, w0
  410a98:	0b090021 	add	w1, w1, w9
  410a9c:	529a5766 	mov	w6, #0xd2bb                	// #53947
  410aa0:	72a55ae6 	movk	w6, #0x2ad7, lsl #16
  410aa4:	0b0600a5 	add	w5, w5, w6
  410aa8:	0b050021 	add	w1, w1, w5
  410aac:	13814421 	ror	w1, w1, #17
  410ab0:	0b030021 	add	w1, w1, w3
  410ab4:	b9400265 	ldr	w5, [x19]
  410ab8:	0b0000a5 	add	w5, w5, w0
  410abc:	b9000265 	str	w5, [x19]
  410ac0:	2a200020 	orn	w0, w1, w0
  410ac4:	4a030000 	eor	w0, w0, w3
  410ac8:	0b020000 	add	w0, w0, w2
  410acc:	529a7222 	mov	w2, #0xd391                	// #54161
  410ad0:	72bd70c2 	movk	w2, #0xeb86, lsl #16
  410ad4:	0b020084 	add	w4, w4, w2
  410ad8:	0b040000 	add	w0, w0, w4
  410adc:	13802c00 	ror	w0, w0, #11
  410ae0:	b9400662 	ldr	w2, [x19, #4]
  410ae4:	0b020022 	add	w2, w1, w2
  410ae8:	0b020000 	add	w0, w0, w2
  410aec:	b9000660 	str	w0, [x19, #4]
  410af0:	b9400a60 	ldr	w0, [x19, #8]
  410af4:	0b010000 	add	w0, w0, w1
  410af8:	b9000a60 	str	w0, [x19, #8]
  410afc:	b9400e60 	ldr	w0, [x19, #12]
  410b00:	0b030000 	add	w0, w0, w3
  410b04:	b9000e60 	str	w0, [x19, #12]
  410b08:	110006f7 	add	w23, w23, #0x1
  410b0c:	91010318 	add	x24, x24, #0x40
  410b10:	6b17035f 	cmp	w26, w23
  410b14:	54ffae6c 	b.gt	4100e0 <_Z7MD5HashRKNSt7__cxx1112basic_stringIcSt11char_traitsIcESaIcEEEPj+0xa0>
  410b18:	a94363f7 	ldp	x23, x24, [sp, #48]
  410b1c:	d2800002 	mov	x2, #0x0                   	// #0
  410b20:	b8627a61 	ldr	w1, [x19, x2, lsl #2]
  410b24:	53185c20 	lsl	w0, w1, #8
  410b28:	12101c00 	and	w0, w0, #0xff0000
  410b2c:	53087c23 	lsr	w3, w1, #8
  410b30:	12181c63 	and	w3, w3, #0xff00
  410b34:	2a030000 	orr	w0, w0, w3
  410b38:	53187c23 	lsr	w3, w1, #24
  410b3c:	2a016061 	orr	w1, w3, w1, lsl #24
  410b40:	2a010000 	orr	w0, w0, w1
  410b44:	b8227a60 	str	w0, [x19, x2, lsl #2]
  410b48:	91000442 	add	x2, x2, #0x1
  410b4c:	f100105f 	cmp	x2, #0x4
  410b50:	54fffe81 	b.ne	410b20 <_Z7MD5HashRKNSt7__cxx1112basic_stringIcSt11char_traitsIcESaIcEEEPj+0xae0>  // b.any
  410b54:	b400007b 	cbz	x27, 410b60 <_Z7MD5HashRKNSt7__cxx1112basic_stringIcSt11char_traitsIcESaIcEEEPj+0xb20>
  410b58:	aa1b03e0 	mov	x0, x27
  410b5c:	97ffc581 	bl	402160 <_ZdaPv@plt>
  410b60:	f94037e0 	ldr	x0, [sp, #104]
  410b64:	97ffc57f 	bl	402160 <_ZdaPv@plt>
  410b68:	a94153f3 	ldp	x19, x20, [sp, #16]
  410b6c:	a9425bf5 	ldp	x21, x22, [sp, #32]
  410b70:	a9446bf9 	ldp	x25, x26, [sp, #64]
  410b74:	a94573fb 	ldp	x27, x28, [sp, #80]
  410b78:	a8cb7bfd 	ldp	x29, x30, [sp], #176
  410b7c:	d65f03c0 	ret

0000000000410b80 <_Z19MD5Hash_simdversionPKNSt7__cxx1112basic_stringIcSt11char_traitsIcESaIcEEEP12__Uint32x4_t>:
  410b80:	d10b43ff 	sub	sp, sp, #0x2d0
  410b84:	a9007bfd 	stp	x29, x30, [sp]
  410b88:	910003fd 	mov	x29, sp
  410b8c:	a90153f3 	stp	x19, x20, [sp, #16]
  410b90:	a9025bf5 	stp	x21, x22, [sp, #32]
  410b94:	aa0003f5 	mov	x21, x0
  410b98:	aa0103f3 	mov	x19, x1
  410b9c:	d2802002 	mov	x2, #0x100                 	// #256
  410ba0:	52800001 	mov	w1, #0x0                   	// #0
  410ba4:	910343e0 	add	x0, sp, #0xd0
  410ba8:	97ffc51e 	bl	402020 <memset@plt>
  410bac:	aa1503f6 	mov	x22, x21
  410bb0:	910343e6 	add	x6, sp, #0xd0
  410bb4:	aa0603e9 	mov	x9, x6
  410bb8:	aa1503eb 	mov	x11, x21
  410bbc:	5280000a 	mov	w10, #0x0                   	// #0
  410bc0:	aa0603e0 	mov	x0, x6
  410bc4:	5280100c 	mov	w12, #0x80                  	// #128
  410bc8:	f9400565 	ldr	x5, [x11, #8]
  410bcc:	f100dcbf 	cmp	x5, #0x37
  410bd0:	5400cc48 	b.hi	412558 <_Z19MD5Hash_simdversionPKNSt7__cxx1112basic_stringIcSt11char_traitsIcESaIcEEEP12__Uint32x4_t+0x19d8>  // b.pmore
  410bd4:	f9400167 	ldr	x7, [x11]
  410bd8:	b40001c5 	cbz	x5, 410c10 <_Z19MD5Hash_simdversionPKNSt7__cxx1112basic_stringIcSt11char_traitsIcESaIcEEEP12__Uint32x4_t+0x90>
  410bdc:	d2800001 	mov	x1, #0x0                   	// #0
  410be0:	93407d48 	sxtw	x8, w10
  410be4:	927ef423 	and	x3, x1, #0xfffffffffffffffc
  410be8:	8b080063 	add	x3, x3, x8
  410bec:	386168e2 	ldrb	w2, [x7, x1]
  410bf0:	d37d0424 	ubfiz	x4, x1, #3, #2
  410bf4:	1ac42042 	lsl	w2, w2, w4
  410bf8:	b8637804 	ldr	w4, [x0, x3, lsl #2]
  410bfc:	2a040042 	orr	w2, w2, w4
  410c00:	b8237802 	str	w2, [x0, x3, lsl #2]
  410c04:	91000421 	add	x1, x1, #0x1
  410c08:	eb0100bf 	cmp	x5, x1
  410c0c:	54fffec1 	b.ne	410be4 <_Z19MD5Hash_simdversionPKNSt7__cxx1112basic_stringIcSt11char_traitsIcESaIcEEEP12__Uint32x4_t+0x64>  // b.any
  410c10:	927ef4a2 	and	x2, x5, #0xfffffffffffffffc
  410c14:	8b2ac042 	add	x2, x2, w10, sxtw
  410c18:	d37d04a1 	ubfiz	x1, x5, #3, #2
  410c1c:	1ac12181 	lsl	w1, w12, w1
  410c20:	b8627803 	ldr	w3, [x0, x2, lsl #2]
  410c24:	2a030021 	orr	w1, w1, w3
  410c28:	b8227801 	str	w1, [x0, x2, lsl #2]
  410c2c:	d37df0a5 	lsl	x5, x5, #3
  410c30:	b900e125 	str	w5, [x9, #224]
  410c34:	b900f13f 	str	wzr, [x9, #240]
  410c38:	1100054a 	add	w10, w10, #0x1
  410c3c:	9100816b 	add	x11, x11, #0x20
  410c40:	91001129 	add	x9, x9, #0x4
  410c44:	7100115f 	cmp	w10, #0x4
  410c48:	54fffc01 	b.ne	410bc8 <_Z19MD5Hash_simdversionPKNSt7__cxx1112basic_stringIcSt11char_traitsIcESaIcEEEP12__Uint32x4_t+0x48>  // b.any
  410c4c:	6d0527e8 	stp	d8, d9, [sp, #80]
  410c50:	6d062fea 	stp	d10, d11, [sp, #96]
  410c54:	6d0737ec 	stp	d12, d13, [sp, #112]
  410c58:	6d083fee 	stp	d14, d15, [sp, #128]
  410c5c:	910743e0 	add	x0, sp, #0x1d0
  410c60:	910400c1 	add	x1, x6, #0x100
  410c64:	3cc104c0 	ldr	q0, [x6], #16
  410c68:	3c810400 	str	q0, [x0], #16
  410c6c:	eb0100df 	cmp	x6, x1
  410c70:	54ffffa1 	b.ne	410c64 <_Z19MD5Hash_simdversionPKNSt7__cxx1112basic_stringIcSt11char_traitsIcESaIcEEEP12__Uint32x4_t+0xe4>  // b.any
  410c74:	d0000000 	adrp	x0, 412000 <_Z19MD5Hash_simdversionPKNSt7__cxx1112basic_stringIcSt11char_traitsIcESaIcEEEP12__Uint32x4_t+0x1480>
  410c78:	3dc2e813 	ldr	q19, [x0, #2976]
  410c7c:	d0000000 	adrp	x0, 412000 <_Z19MD5Hash_simdversionPKNSt7__cxx1112basic_stringIcSt11char_traitsIcESaIcEEEP12__Uint32x4_t+0x1480>
  410c80:	3dc2ec12 	ldr	q18, [x0, #2992]
  410c84:	3dc077f1 	ldr	q17, [sp, #464]
  410c88:	d0000000 	adrp	x0, 412000 <_Z19MD5Hash_simdversionPKNSt7__cxx1112basic_stringIcSt11char_traitsIcESaIcEEEP12__Uint32x4_t+0x1480>
  410c8c:	3dc3f400 	ldr	q0, [x0, #4048]
  410c90:	4ea08620 	add	v0.4s, v17.4s, v0.4s
  410c94:	4f275401 	shl	v1.4s, v0.4s, #7
  410c98:	6f270400 	ushr	v0.4s, v0.4s, #25
  410c9c:	4ea01c20 	orr	v0.16b, v1.16b, v0.16b
  410ca0:	4eb38400 	add	v0.4s, v0.4s, v19.4s
  410ca4:	3dc07bea 	ldr	q10, [sp, #480]
  410ca8:	4f03e6e1 	movi	v1.16b, #0x77
  410cac:	4e211c01 	and	v1.16b, v0.16b, v1.16b
  410cb0:	6e321c21 	eor	v1.16b, v1.16b, v18.16b
  410cb4:	d0000000 	adrp	x0, 412000 <_Z19MD5Hash_simdversionPKNSt7__cxx1112basic_stringIcSt11char_traitsIcESaIcEEEP12__Uint32x4_t+0x1480>
  410cb8:	3dc3f802 	ldr	q2, [x0, #4064]
  410cbc:	4ea28542 	add	v2.4s, v10.4s, v2.4s
  410cc0:	4ea28421 	add	v1.4s, v1.4s, v2.4s
  410cc4:	4f2c5424 	shl	v4.4s, v1.4s, #12
  410cc8:	6f2c0421 	ushr	v1.4s, v1.4s, #20
  410ccc:	4ea11c84 	orr	v4.16b, v4.16b, v1.16b
  410cd0:	4ea08484 	add	v4.4s, v4.4s, v0.4s
  410cd4:	3dc07fe3 	ldr	q3, [sp, #496]
  410cd8:	4ea41c81 	mov	v1.16b, v4.16b
  410cdc:	6e731c01 	bsl	v1.16b, v0.16b, v19.16b
  410ce0:	d0000000 	adrp	x0, 412000 <_Z19MD5Hash_simdversionPKNSt7__cxx1112basic_stringIcSt11char_traitsIcESaIcEEEP12__Uint32x4_t+0x1480>
  410ce4:	3dc3fc02 	ldr	q2, [x0, #4080]
  410ce8:	4ea28462 	add	v2.4s, v3.4s, v2.4s
  410cec:	4ea28421 	add	v1.4s, v1.4s, v2.4s
  410cf0:	4f315422 	shl	v2.4s, v1.4s, #17
  410cf4:	6f310421 	ushr	v1.4s, v1.4s, #15
  410cf8:	4ea11c42 	orr	v2.16b, v2.16b, v1.16b
  410cfc:	4ea48442 	add	v2.4s, v2.4s, v4.4s
  410d00:	3dc083ec 	ldr	q12, [sp, #512]
  410d04:	4ea21c41 	mov	v1.16b, v2.16b
  410d08:	6e601c81 	bsl	v1.16b, v4.16b, v0.16b
  410d0c:	f0000000 	adrp	x0, 413000 <_IO_stdin_used+0x960>
  410d10:	3dc00005 	ldr	q5, [x0]
  410d14:	4ea58585 	add	v5.4s, v12.4s, v5.4s
  410d18:	4ea58421 	add	v1.4s, v1.4s, v5.4s
  410d1c:	4f365425 	shl	v5.4s, v1.4s, #22
  410d20:	6f360421 	ushr	v1.4s, v1.4s, #10
  410d24:	4ea11ca1 	orr	v1.16b, v5.16b, v1.16b
  410d28:	4ea28421 	add	v1.4s, v1.4s, v2.4s
  410d2c:	3dc087e5 	ldr	q5, [sp, #528]
  410d30:	4ea11c26 	mov	v6.16b, v1.16b
  410d34:	6e641c46 	bsl	v6.16b, v2.16b, v4.16b
  410d38:	d0000000 	adrp	x0, 412000 <_Z19MD5Hash_simdversionPKNSt7__cxx1112basic_stringIcSt11char_traitsIcESaIcEEEP12__Uint32x4_t+0x1480>
  410d3c:	3dc30407 	ldr	q7, [x0, #3088]
  410d40:	4ea784a7 	add	v7.4s, v5.4s, v7.4s
  410d44:	4ea084e0 	add	v0.4s, v7.4s, v0.4s
  410d48:	4ea084c0 	add	v0.4s, v6.4s, v0.4s
  410d4c:	4f275406 	shl	v6.4s, v0.4s, #7
  410d50:	6f270400 	ushr	v0.4s, v0.4s, #25
  410d54:	4ea01cc0 	orr	v0.16b, v6.16b, v0.16b
  410d58:	4ea18400 	add	v0.4s, v0.4s, v1.4s
  410d5c:	3dc08bee 	ldr	q14, [sp, #544]
  410d60:	4ea01c06 	mov	v6.16b, v0.16b
  410d64:	6e621c26 	bsl	v6.16b, v1.16b, v2.16b
  410d68:	d0000000 	adrp	x0, 412000 <_Z19MD5Hash_simdversionPKNSt7__cxx1112basic_stringIcSt11char_traitsIcESaIcEEEP12__Uint32x4_t+0x1480>
  410d6c:	3dc30807 	ldr	q7, [x0, #3104]
  410d70:	4ea785c7 	add	v7.4s, v14.4s, v7.4s
  410d74:	4ea484e4 	add	v4.4s, v7.4s, v4.4s
  410d78:	4ea484c4 	add	v4.4s, v6.4s, v4.4s
  410d7c:	4f2c5486 	shl	v6.4s, v4.4s, #12
  410d80:	6f2c0484 	ushr	v4.4s, v4.4s, #20
  410d84:	4ea41cc6 	orr	v6.16b, v6.16b, v4.16b
  410d88:	4ea084c6 	add	v6.4s, v6.4s, v0.4s
  410d8c:	3dc08fe7 	ldr	q7, [sp, #560]
  410d90:	4ea61cc4 	mov	v4.16b, v6.16b
  410d94:	6e611c04 	bsl	v4.16b, v0.16b, v1.16b
  410d98:	d0000000 	adrp	x0, 412000 <_Z19MD5Hash_simdversionPKNSt7__cxx1112basic_stringIcSt11char_traitsIcESaIcEEEP12__Uint32x4_t+0x1480>
  410d9c:	3dc30c08 	ldr	q8, [x0, #3120]
  410da0:	4ea884e8 	add	v8.4s, v7.4s, v8.4s
  410da4:	4ea28502 	add	v2.4s, v8.4s, v2.4s
  410da8:	4ea28482 	add	v2.4s, v4.4s, v2.4s
  410dac:	4f315444 	shl	v4.4s, v2.4s, #17
  410db0:	6f310442 	ushr	v2.4s, v2.4s, #15
  410db4:	4ea21c84 	orr	v4.16b, v4.16b, v2.16b
  410db8:	4ea68484 	add	v4.4s, v4.4s, v6.4s
  410dbc:	3dc093f0 	ldr	q16, [sp, #576]
  410dc0:	4ea41c82 	mov	v2.16b, v4.16b
  410dc4:	6e601cc2 	bsl	v2.16b, v6.16b, v0.16b
  410dc8:	d0000000 	adrp	x0, 412000 <_Z19MD5Hash_simdversionPKNSt7__cxx1112basic_stringIcSt11char_traitsIcESaIcEEEP12__Uint32x4_t+0x1480>
  410dcc:	3dc31008 	ldr	q8, [x0, #3136]
  410dd0:	4ea88608 	add	v8.4s, v16.4s, v8.4s
  410dd4:	4ea18501 	add	v1.4s, v8.4s, v1.4s
  410dd8:	4ea18441 	add	v1.4s, v2.4s, v1.4s
  410ddc:	4f365422 	shl	v2.4s, v1.4s, #22
  410de0:	6f360421 	ushr	v1.4s, v1.4s, #10
  410de4:	4ea11c41 	orr	v1.16b, v2.16b, v1.16b
  410de8:	4ea48421 	add	v1.4s, v1.4s, v4.4s
  410dec:	3dc097e9 	ldr	q9, [sp, #592]
  410df0:	4ea11c22 	mov	v2.16b, v1.16b
  410df4:	6e661c82 	bsl	v2.16b, v4.16b, v6.16b
  410df8:	d0000000 	adrp	x0, 412000 <_Z19MD5Hash_simdversionPKNSt7__cxx1112basic_stringIcSt11char_traitsIcESaIcEEEP12__Uint32x4_t+0x1480>
  410dfc:	3dc31408 	ldr	q8, [x0, #3152]
  410e00:	4ea88528 	add	v8.4s, v9.4s, v8.4s
  410e04:	4ea08500 	add	v0.4s, v8.4s, v0.4s
  410e08:	4ea08440 	add	v0.4s, v2.4s, v0.4s
  410e0c:	4f275402 	shl	v2.4s, v0.4s, #7
  410e10:	6f270400 	ushr	v0.4s, v0.4s, #25
  410e14:	4ea01c40 	orr	v0.16b, v2.16b, v0.16b
  410e18:	4ea18400 	add	v0.4s, v0.4s, v1.4s
  410e1c:	3dc09be2 	ldr	q2, [sp, #608]
  410e20:	4ea01c08 	mov	v8.16b, v0.16b
  410e24:	6e641c28 	bsl	v8.16b, v1.16b, v4.16b
  410e28:	d0000000 	adrp	x0, 412000 <_Z19MD5Hash_simdversionPKNSt7__cxx1112basic_stringIcSt11char_traitsIcESaIcEEEP12__Uint32x4_t+0x1480>
  410e2c:	3dc3180b 	ldr	q11, [x0, #3168]
  410e30:	4eab844b 	add	v11.4s, v2.4s, v11.4s
  410e34:	4ea68566 	add	v6.4s, v11.4s, v6.4s
  410e38:	4ea68506 	add	v6.4s, v8.4s, v6.4s
  410e3c:	4f2c54cf 	shl	v15.4s, v6.4s, #12
  410e40:	6f2c04c6 	ushr	v6.4s, v6.4s, #20
  410e44:	4ea61def 	orr	v15.16b, v15.16b, v6.16b
  410e48:	4ea085ef 	add	v15.4s, v15.4s, v0.4s
  410e4c:	3dc09feb 	ldr	q11, [sp, #624]
  410e50:	4eaf1de6 	mov	v6.16b, v15.16b
  410e54:	6e611c06 	bsl	v6.16b, v0.16b, v1.16b
  410e58:	d0000000 	adrp	x0, 412000 <_Z19MD5Hash_simdversionPKNSt7__cxx1112basic_stringIcSt11char_traitsIcESaIcEEEP12__Uint32x4_t+0x1480>
  410e5c:	3dc31c08 	ldr	q8, [x0, #3184]
  410e60:	4ea88568 	add	v8.4s, v11.4s, v8.4s
  410e64:	4ea48504 	add	v4.4s, v8.4s, v4.4s
  410e68:	4ea484c4 	add	v4.4s, v6.4s, v4.4s
  410e6c:	4f315488 	shl	v8.4s, v4.4s, #17
  410e70:	6f310484 	ushr	v4.4s, v4.4s, #15
  410e74:	4ea41d08 	orr	v8.16b, v8.16b, v4.16b
  410e78:	4eaf8508 	add	v8.4s, v8.4s, v15.4s
  410e7c:	3dc0a3e4 	ldr	q4, [sp, #640]
  410e80:	4ea81d06 	mov	v6.16b, v8.16b
  410e84:	6e601de6 	bsl	v6.16b, v15.16b, v0.16b
  410e88:	d0000000 	adrp	x0, 412000 <_Z19MD5Hash_simdversionPKNSt7__cxx1112basic_stringIcSt11char_traitsIcESaIcEEEP12__Uint32x4_t+0x1480>
  410e8c:	3dc3200d 	ldr	q13, [x0, #3200]
  410e90:	4ead848d 	add	v13.4s, v4.4s, v13.4s
  410e94:	4ea185a1 	add	v1.4s, v13.4s, v1.4s
  410e98:	4ea184c1 	add	v1.4s, v6.4s, v1.4s
  410e9c:	4f365426 	shl	v6.4s, v1.4s, #22
  410ea0:	6f360421 	ushr	v1.4s, v1.4s, #10
  410ea4:	4ea11cc1 	orr	v1.16b, v6.16b, v1.16b
  410ea8:	4ea88421 	add	v1.4s, v1.4s, v8.4s
  410eac:	3dc0a7ed 	ldr	q13, [sp, #656]
  410eb0:	4ea11c26 	mov	v6.16b, v1.16b
  410eb4:	6e6f1d06 	bsl	v6.16b, v8.16b, v15.16b
  410eb8:	d0000000 	adrp	x0, 412000 <_Z19MD5Hash_simdversionPKNSt7__cxx1112basic_stringIcSt11char_traitsIcESaIcEEEP12__Uint32x4_t+0x1480>
  410ebc:	3dc32414 	ldr	q20, [x0, #3216]
  410ec0:	4eb485b4 	add	v20.4s, v13.4s, v20.4s
  410ec4:	4ea08680 	add	v0.4s, v20.4s, v0.4s
  410ec8:	4ea084c0 	add	v0.4s, v6.4s, v0.4s
  410ecc:	4f275406 	shl	v6.4s, v0.4s, #7
  410ed0:	6f270400 	ushr	v0.4s, v0.4s, #25
  410ed4:	4ea01cc0 	orr	v0.16b, v6.16b, v0.16b
  410ed8:	4ea18400 	add	v0.4s, v0.4s, v1.4s
  410edc:	3dc0abe6 	ldr	q6, [sp, #672]
  410ee0:	4ea01c14 	mov	v20.16b, v0.16b
  410ee4:	6e681c34 	bsl	v20.16b, v1.16b, v8.16b
  410ee8:	d0000000 	adrp	x0, 412000 <_Z19MD5Hash_simdversionPKNSt7__cxx1112basic_stringIcSt11char_traitsIcESaIcEEEP12__Uint32x4_t+0x1480>
  410eec:	3dc32815 	ldr	q21, [x0, #3232]
  410ef0:	4eb584d5 	add	v21.4s, v6.4s, v21.4s
  410ef4:	4eaf86af 	add	v15.4s, v21.4s, v15.4s
  410ef8:	4eaf868f 	add	v15.4s, v20.4s, v15.4s
  410efc:	4f2c55f6 	shl	v22.4s, v15.4s, #12
  410f00:	6f2c05ef 	ushr	v15.4s, v15.4s, #20
  410f04:	4eaf1ed6 	orr	v22.16b, v22.16b, v15.16b
  410f08:	4ea086d6 	add	v22.4s, v22.4s, v0.4s
  410f0c:	3dc0afef 	ldr	q15, [sp, #688]
  410f10:	4eb61ed4 	mov	v20.16b, v22.16b
  410f14:	6e611c14 	bsl	v20.16b, v0.16b, v1.16b
  410f18:	d0000000 	adrp	x0, 412000 <_Z19MD5Hash_simdversionPKNSt7__cxx1112basic_stringIcSt11char_traitsIcESaIcEEEP12__Uint32x4_t+0x1480>
  410f1c:	3dc32c15 	ldr	q21, [x0, #3248]
  410f20:	4eb585f5 	add	v21.4s, v15.4s, v21.4s
  410f24:	4ea886a8 	add	v8.4s, v21.4s, v8.4s
  410f28:	4ea88688 	add	v8.4s, v20.4s, v8.4s
  410f2c:	4f315515 	shl	v21.4s, v8.4s, #17
  410f30:	6f310508 	ushr	v8.4s, v8.4s, #15
  410f34:	4ea81eb5 	orr	v21.16b, v21.16b, v8.16b
  410f38:	4eb686b5 	add	v21.4s, v21.4s, v22.4s
  410f3c:	3dc0b3e8 	ldr	q8, [sp, #704]
  410f40:	4eb51eb4 	mov	v20.16b, v21.16b
  410f44:	6e601ed4 	bsl	v20.16b, v22.16b, v0.16b
  410f48:	d0000000 	adrp	x0, 412000 <_Z19MD5Hash_simdversionPKNSt7__cxx1112basic_stringIcSt11char_traitsIcESaIcEEEP12__Uint32x4_t+0x1480>
  410f4c:	3dc33017 	ldr	q23, [x0, #3264]
  410f50:	4eb78517 	add	v23.4s, v8.4s, v23.4s
  410f54:	4ea186e1 	add	v1.4s, v23.4s, v1.4s
  410f58:	4ea18681 	add	v1.4s, v20.4s, v1.4s
  410f5c:	4f365434 	shl	v20.4s, v1.4s, #22
  410f60:	6f360421 	ushr	v1.4s, v1.4s, #10
  410f64:	4ea11e81 	orr	v1.16b, v20.16b, v1.16b
  410f68:	4eb58421 	add	v1.4s, v1.4s, v21.4s
  410f6c:	4eb61ed4 	mov	v20.16b, v22.16b
  410f70:	6e751c34 	bsl	v20.16b, v1.16b, v21.16b
  410f74:	d0000000 	adrp	x0, 412000 <_Z19MD5Hash_simdversionPKNSt7__cxx1112basic_stringIcSt11char_traitsIcESaIcEEEP12__Uint32x4_t+0x1480>
  410f78:	3dc33417 	ldr	q23, [x0, #3280]
  410f7c:	4eb78557 	add	v23.4s, v10.4s, v23.4s
  410f80:	4ea086e0 	add	v0.4s, v23.4s, v0.4s
  410f84:	4ea08680 	add	v0.4s, v20.4s, v0.4s
  410f88:	4f255414 	shl	v20.4s, v0.4s, #5
  410f8c:	6f250400 	ushr	v0.4s, v0.4s, #27
  410f90:	4ea01e94 	orr	v20.16b, v20.16b, v0.16b
  410f94:	4ea18694 	add	v20.4s, v20.4s, v1.4s
  410f98:	4eb51ea0 	mov	v0.16b, v21.16b
  410f9c:	6e611e80 	bsl	v0.16b, v20.16b, v1.16b
  410fa0:	d0000000 	adrp	x0, 412000 <_Z19MD5Hash_simdversionPKNSt7__cxx1112basic_stringIcSt11char_traitsIcESaIcEEEP12__Uint32x4_t+0x1480>
  410fa4:	3dc33817 	ldr	q23, [x0, #3296]
  410fa8:	4eb784f7 	add	v23.4s, v7.4s, v23.4s
  410fac:	4eb686f6 	add	v22.4s, v23.4s, v22.4s
  410fb0:	4eb68400 	add	v0.4s, v0.4s, v22.4s
  410fb4:	4f295416 	shl	v22.4s, v0.4s, #9
  410fb8:	6f290400 	ushr	v0.4s, v0.4s, #23
  410fbc:	4ea01ec0 	orr	v0.16b, v22.16b, v0.16b
  410fc0:	4eb48400 	add	v0.4s, v0.4s, v20.4s
  410fc4:	4ea11c36 	mov	v22.16b, v1.16b
  410fc8:	6e741c16 	bsl	v22.16b, v0.16b, v20.16b
  410fcc:	d0000000 	adrp	x0, 412000 <_Z19MD5Hash_simdversionPKNSt7__cxx1112basic_stringIcSt11char_traitsIcESaIcEEEP12__Uint32x4_t+0x1480>
  410fd0:	3dc33c17 	ldr	q23, [x0, #3312]
  410fd4:	4eb78497 	add	v23.4s, v4.4s, v23.4s
  410fd8:	4eb586f5 	add	v21.4s, v23.4s, v21.4s
  410fdc:	4eb586d5 	add	v21.4s, v22.4s, v21.4s
  410fe0:	4f2e56b6 	shl	v22.4s, v21.4s, #14
  410fe4:	6f2e06b5 	ushr	v21.4s, v21.4s, #18
  410fe8:	4eb51ed5 	orr	v21.16b, v22.16b, v21.16b
  410fec:	4ea086b5 	add	v21.4s, v21.4s, v0.4s
  410ff0:	4eb41e96 	mov	v22.16b, v20.16b
  410ff4:	6e601eb6 	bsl	v22.16b, v21.16b, v0.16b
  410ff8:	d0000000 	adrp	x0, 412000 <_Z19MD5Hash_simdversionPKNSt7__cxx1112basic_stringIcSt11char_traitsIcESaIcEEEP12__Uint32x4_t+0x1480>
  410ffc:	3dc34017 	ldr	q23, [x0, #3328]
  411000:	4eb78637 	add	v23.4s, v17.4s, v23.4s
  411004:	4ea186e1 	add	v1.4s, v23.4s, v1.4s
  411008:	4ea186c1 	add	v1.4s, v22.4s, v1.4s
  41100c:	4f345436 	shl	v22.4s, v1.4s, #20
  411010:	6f340421 	ushr	v1.4s, v1.4s, #12
  411014:	4ea11ec1 	orr	v1.16b, v22.16b, v1.16b
  411018:	4eb58421 	add	v1.4s, v1.4s, v21.4s
  41101c:	4ea01c16 	mov	v22.16b, v0.16b
  411020:	6e751c36 	bsl	v22.16b, v1.16b, v21.16b
  411024:	b0000000 	adrp	x0, 412000 <_Z19MD5Hash_simdversionPKNSt7__cxx1112basic_stringIcSt11char_traitsIcESaIcEEEP12__Uint32x4_t+0x1480>
  411028:	3dc34417 	ldr	q23, [x0, #3344]
  41102c:	4eb785d7 	add	v23.4s, v14.4s, v23.4s
  411030:	4eb486f4 	add	v20.4s, v23.4s, v20.4s
  411034:	4eb486d4 	add	v20.4s, v22.4s, v20.4s
  411038:	4f255696 	shl	v22.4s, v20.4s, #5
  41103c:	6f250694 	ushr	v20.4s, v20.4s, #27
  411040:	4eb41ed4 	orr	v20.16b, v22.16b, v20.16b
  411044:	4ea18694 	add	v20.4s, v20.4s, v1.4s
  411048:	4eb51eb6 	mov	v22.16b, v21.16b
  41104c:	6e611e96 	bsl	v22.16b, v20.16b, v1.16b
  411050:	b0000000 	adrp	x0, 412000 <_Z19MD5Hash_simdversionPKNSt7__cxx1112basic_stringIcSt11char_traitsIcESaIcEEEP12__Uint32x4_t+0x1480>
  411054:	3dc34817 	ldr	q23, [x0, #3360]
  411058:	4eb78577 	add	v23.4s, v11.4s, v23.4s
  41105c:	4ea086e0 	add	v0.4s, v23.4s, v0.4s
  411060:	4ea086c0 	add	v0.4s, v22.4s, v0.4s
  411064:	4f295416 	shl	v22.4s, v0.4s, #9
  411068:	6f290400 	ushr	v0.4s, v0.4s, #23
  41106c:	4ea01ec0 	orr	v0.16b, v22.16b, v0.16b
  411070:	4eb48400 	add	v0.4s, v0.4s, v20.4s
  411074:	4ea11c36 	mov	v22.16b, v1.16b
  411078:	6e741c16 	bsl	v22.16b, v0.16b, v20.16b
  41107c:	b0000000 	adrp	x0, 412000 <_Z19MD5Hash_simdversionPKNSt7__cxx1112basic_stringIcSt11char_traitsIcESaIcEEEP12__Uint32x4_t+0x1480>
  411080:	3dc34c17 	ldr	q23, [x0, #3376]
  411084:	4eb78517 	add	v23.4s, v8.4s, v23.4s
  411088:	4eb586f5 	add	v21.4s, v23.4s, v21.4s
  41108c:	4eb586d5 	add	v21.4s, v22.4s, v21.4s
  411090:	4f2e56b6 	shl	v22.4s, v21.4s, #14
  411094:	6f2e06b5 	ushr	v21.4s, v21.4s, #18
  411098:	4eb51ed5 	orr	v21.16b, v22.16b, v21.16b
  41109c:	4ea086b5 	add	v21.4s, v21.4s, v0.4s
  4110a0:	4eb41e96 	mov	v22.16b, v20.16b
  4110a4:	6e601eb6 	bsl	v22.16b, v21.16b, v0.16b
  4110a8:	b0000000 	adrp	x0, 412000 <_Z19MD5Hash_simdversionPKNSt7__cxx1112basic_stringIcSt11char_traitsIcESaIcEEEP12__Uint32x4_t+0x1480>
  4110ac:	3dc35017 	ldr	q23, [x0, #3392]
  4110b0:	4eb784b7 	add	v23.4s, v5.4s, v23.4s
  4110b4:	4ea186e1 	add	v1.4s, v23.4s, v1.4s
  4110b8:	4ea186c1 	add	v1.4s, v22.4s, v1.4s
  4110bc:	4f345436 	shl	v22.4s, v1.4s, #20
  4110c0:	6f340421 	ushr	v1.4s, v1.4s, #12
  4110c4:	4ea11ec1 	orr	v1.16b, v22.16b, v1.16b
  4110c8:	4eb58421 	add	v1.4s, v1.4s, v21.4s
  4110cc:	4ea01c16 	mov	v22.16b, v0.16b
  4110d0:	6e751c36 	bsl	v22.16b, v1.16b, v21.16b
  4110d4:	b0000000 	adrp	x0, 412000 <_Z19MD5Hash_simdversionPKNSt7__cxx1112basic_stringIcSt11char_traitsIcESaIcEEEP12__Uint32x4_t+0x1480>
  4110d8:	3dc35417 	ldr	q23, [x0, #3408]
  4110dc:	4eb78457 	add	v23.4s, v2.4s, v23.4s
  4110e0:	4eb486f4 	add	v20.4s, v23.4s, v20.4s
  4110e4:	4eb486d4 	add	v20.4s, v22.4s, v20.4s
  4110e8:	4f255696 	shl	v22.4s, v20.4s, #5
  4110ec:	6f250694 	ushr	v20.4s, v20.4s, #27
  4110f0:	4eb41ed4 	orr	v20.16b, v22.16b, v20.16b
  4110f4:	4ea18694 	add	v20.4s, v20.4s, v1.4s
  4110f8:	4eb51eb6 	mov	v22.16b, v21.16b
  4110fc:	6e611e96 	bsl	v22.16b, v20.16b, v1.16b
  411100:	b0000000 	adrp	x0, 412000 <_Z19MD5Hash_simdversionPKNSt7__cxx1112basic_stringIcSt11char_traitsIcESaIcEEEP12__Uint32x4_t+0x1480>
  411104:	3dc35817 	ldr	q23, [x0, #3424]
  411108:	4eb785f7 	add	v23.4s, v15.4s, v23.4s
  41110c:	4ea086e0 	add	v0.4s, v23.4s, v0.4s
  411110:	4ea086c0 	add	v0.4s, v22.4s, v0.4s
  411114:	4f295416 	shl	v22.4s, v0.4s, #9
  411118:	6f290400 	ushr	v0.4s, v0.4s, #23
  41111c:	4ea01ec0 	orr	v0.16b, v22.16b, v0.16b
  411120:	4eb48400 	add	v0.4s, v0.4s, v20.4s
  411124:	4ea11c36 	mov	v22.16b, v1.16b
  411128:	6e741c16 	bsl	v22.16b, v0.16b, v20.16b
  41112c:	b0000000 	adrp	x0, 412000 <_Z19MD5Hash_simdversionPKNSt7__cxx1112basic_stringIcSt11char_traitsIcESaIcEEEP12__Uint32x4_t+0x1480>
  411130:	3dc35c17 	ldr	q23, [x0, #3440]
  411134:	4eb78597 	add	v23.4s, v12.4s, v23.4s
  411138:	4eb586f5 	add	v21.4s, v23.4s, v21.4s
  41113c:	4eb586d5 	add	v21.4s, v22.4s, v21.4s
  411140:	4f2e56b6 	shl	v22.4s, v21.4s, #14
  411144:	6f2e06b5 	ushr	v21.4s, v21.4s, #18
  411148:	4eb51ed5 	orr	v21.16b, v22.16b, v21.16b
  41114c:	4ea086b5 	add	v21.4s, v21.4s, v0.4s
  411150:	4eb41e96 	mov	v22.16b, v20.16b
  411154:	6e601eb6 	bsl	v22.16b, v21.16b, v0.16b
  411158:	b0000000 	adrp	x0, 412000 <_Z19MD5Hash_simdversionPKNSt7__cxx1112basic_stringIcSt11char_traitsIcESaIcEEEP12__Uint32x4_t+0x1480>
  41115c:	3dc36017 	ldr	q23, [x0, #3456]
  411160:	4eb78537 	add	v23.4s, v9.4s, v23.4s
  411164:	4ea186e1 	add	v1.4s, v23.4s, v1.4s
  411168:	4ea186c1 	add	v1.4s, v22.4s, v1.4s
  41116c:	4f345436 	shl	v22.4s, v1.4s, #20
  411170:	6f340421 	ushr	v1.4s, v1.4s, #12
  411174:	4ea11ec1 	orr	v1.16b, v22.16b, v1.16b
  411178:	4eb58421 	add	v1.4s, v1.4s, v21.4s
  41117c:	4ea01c16 	mov	v22.16b, v0.16b
  411180:	6e751c36 	bsl	v22.16b, v1.16b, v21.16b
  411184:	b0000000 	adrp	x0, 412000 <_Z19MD5Hash_simdversionPKNSt7__cxx1112basic_stringIcSt11char_traitsIcESaIcEEEP12__Uint32x4_t+0x1480>
  411188:	3dc36417 	ldr	q23, [x0, #3472]
  41118c:	4eb784d7 	add	v23.4s, v6.4s, v23.4s
  411190:	4eb486f4 	add	v20.4s, v23.4s, v20.4s
  411194:	4eb486d4 	add	v20.4s, v22.4s, v20.4s
  411198:	4f255696 	shl	v22.4s, v20.4s, #5
  41119c:	6f250694 	ushr	v20.4s, v20.4s, #27
  4111a0:	4eb41ed4 	orr	v20.16b, v22.16b, v20.16b
  4111a4:	4ea18694 	add	v20.4s, v20.4s, v1.4s
  4111a8:	4eb51eb6 	mov	v22.16b, v21.16b
  4111ac:	6e611e96 	bsl	v22.16b, v20.16b, v1.16b
  4111b0:	b0000000 	adrp	x0, 412000 <_Z19MD5Hash_simdversionPKNSt7__cxx1112basic_stringIcSt11char_traitsIcESaIcEEEP12__Uint32x4_t+0x1480>
  4111b4:	3dc36817 	ldr	q23, [x0, #3488]
  4111b8:	4eb78477 	add	v23.4s, v3.4s, v23.4s
  4111bc:	4ea086e0 	add	v0.4s, v23.4s, v0.4s
  4111c0:	4ea086c0 	add	v0.4s, v22.4s, v0.4s
  4111c4:	4f295416 	shl	v22.4s, v0.4s, #9
  4111c8:	6f290400 	ushr	v0.4s, v0.4s, #23
  4111cc:	4ea01ec0 	orr	v0.16b, v22.16b, v0.16b
  4111d0:	4eb48400 	add	v0.4s, v0.4s, v20.4s
  4111d4:	4ea11c36 	mov	v22.16b, v1.16b
  4111d8:	6e741c16 	bsl	v22.16b, v0.16b, v20.16b
  4111dc:	b0000000 	adrp	x0, 412000 <_Z19MD5Hash_simdversionPKNSt7__cxx1112basic_stringIcSt11char_traitsIcESaIcEEEP12__Uint32x4_t+0x1480>
  4111e0:	3dc36c17 	ldr	q23, [x0, #3504]
  4111e4:	4eb78617 	add	v23.4s, v16.4s, v23.4s
  4111e8:	4eb586f5 	add	v21.4s, v23.4s, v21.4s
  4111ec:	4eb586d5 	add	v21.4s, v22.4s, v21.4s
  4111f0:	4f2e56b8 	shl	v24.4s, v21.4s, #14
  4111f4:	6f2e06b5 	ushr	v21.4s, v21.4s, #18
  4111f8:	4eb51f18 	orr	v24.16b, v24.16b, v21.16b
  4111fc:	4ea08718 	add	v24.4s, v24.4s, v0.4s
  411200:	6e381c19 	eor	v25.16b, v0.16b, v24.16b
  411204:	4eb41e95 	mov	v21.16b, v20.16b
  411208:	6e601f15 	bsl	v21.16b, v24.16b, v0.16b
  41120c:	b0000000 	adrp	x0, 412000 <_Z19MD5Hash_simdversionPKNSt7__cxx1112basic_stringIcSt11char_traitsIcESaIcEEEP12__Uint32x4_t+0x1480>
  411210:	3dc37016 	ldr	q22, [x0, #3520]
  411214:	4eb685b6 	add	v22.4s, v13.4s, v22.4s
  411218:	4ea186c1 	add	v1.4s, v22.4s, v1.4s
  41121c:	4ea186a1 	add	v1.4s, v21.4s, v1.4s
  411220:	4f345437 	shl	v23.4s, v1.4s, #20
  411224:	6f340421 	ushr	v1.4s, v1.4s, #12
  411228:	4ea11ef7 	orr	v23.16b, v23.16b, v1.16b
  41122c:	4eb886f7 	add	v23.4s, v23.4s, v24.4s
  411230:	b0000000 	adrp	x0, 412000 <_Z19MD5Hash_simdversionPKNSt7__cxx1112basic_stringIcSt11char_traitsIcESaIcEEEP12__Uint32x4_t+0x1480>
  411234:	3dc37401 	ldr	q1, [x0, #3536]
  411238:	4ea185c1 	add	v1.4s, v14.4s, v1.4s
  41123c:	4eb48421 	add	v1.4s, v1.4s, v20.4s
  411240:	6e371f39 	eor	v25.16b, v25.16b, v23.16b
  411244:	4eb98421 	add	v1.4s, v1.4s, v25.4s
  411248:	4f245436 	shl	v22.4s, v1.4s, #4
  41124c:	6f240421 	ushr	v1.4s, v1.4s, #28
  411250:	4ea11ed6 	orr	v22.16b, v22.16b, v1.16b
  411254:	4eb786d6 	add	v22.4s, v22.4s, v23.4s
  411258:	6e371f01 	eor	v1.16b, v24.16b, v23.16b
  41125c:	6e361c21 	eor	v1.16b, v1.16b, v22.16b
  411260:	b0000000 	adrp	x0, 412000 <_Z19MD5Hash_simdversionPKNSt7__cxx1112basic_stringIcSt11char_traitsIcESaIcEEEP12__Uint32x4_t+0x1480>
  411264:	3dc37814 	ldr	q20, [x0, #3552]
  411268:	4eb48534 	add	v20.4s, v9.4s, v20.4s
  41126c:	4ea08680 	add	v0.4s, v20.4s, v0.4s
  411270:	4ea08420 	add	v0.4s, v1.4s, v0.4s
  411274:	4f2b5415 	shl	v21.4s, v0.4s, #11
  411278:	6f2b0400 	ushr	v0.4s, v0.4s, #21
  41127c:	4ea01eb5 	orr	v21.16b, v21.16b, v0.16b
  411280:	4eb686b5 	add	v21.4s, v21.4s, v22.4s
  411284:	6e361ee0 	eor	v0.16b, v23.16b, v22.16b
  411288:	6e351c00 	eor	v0.16b, v0.16b, v21.16b
  41128c:	b0000000 	adrp	x0, 412000 <_Z19MD5Hash_simdversionPKNSt7__cxx1112basic_stringIcSt11char_traitsIcESaIcEEEP12__Uint32x4_t+0x1480>
  411290:	3dc37c01 	ldr	q1, [x0, #3568]
  411294:	4ea18481 	add	v1.4s, v4.4s, v1.4s
  411298:	4eb88421 	add	v1.4s, v1.4s, v24.4s
  41129c:	4ea18400 	add	v0.4s, v0.4s, v1.4s
  4112a0:	4f305414 	shl	v20.4s, v0.4s, #16
  4112a4:	6f300400 	ushr	v0.4s, v0.4s, #16
  4112a8:	4ea01e94 	orr	v20.16b, v20.16b, v0.16b
  4112ac:	4eb58694 	add	v20.4s, v20.4s, v21.4s
  4112b0:	6e351ec0 	eor	v0.16b, v22.16b, v21.16b
  4112b4:	6e341c00 	eor	v0.16b, v0.16b, v20.16b
  4112b8:	b0000000 	adrp	x0, 412000 <_Z19MD5Hash_simdversionPKNSt7__cxx1112basic_stringIcSt11char_traitsIcESaIcEEEP12__Uint32x4_t+0x1480>
  4112bc:	3dc38001 	ldr	q1, [x0, #3584]
  4112c0:	4ea185e1 	add	v1.4s, v15.4s, v1.4s
  4112c4:	4eb78421 	add	v1.4s, v1.4s, v23.4s
  4112c8:	4ea18400 	add	v0.4s, v0.4s, v1.4s
  4112cc:	4f375401 	shl	v1.4s, v0.4s, #23
  4112d0:	6f370400 	ushr	v0.4s, v0.4s, #9
  4112d4:	4ea01c21 	orr	v1.16b, v1.16b, v0.16b
  4112d8:	4eb48421 	add	v1.4s, v1.4s, v20.4s
  4112dc:	6e341ea0 	eor	v0.16b, v21.16b, v20.16b
  4112e0:	6e211c00 	eor	v0.16b, v0.16b, v1.16b
  4112e4:	b0000000 	adrp	x0, 412000 <_Z19MD5Hash_simdversionPKNSt7__cxx1112basic_stringIcSt11char_traitsIcESaIcEEEP12__Uint32x4_t+0x1480>
  4112e8:	3dc38417 	ldr	q23, [x0, #3600]
  4112ec:	4eb78557 	add	v23.4s, v10.4s, v23.4s
  4112f0:	4eb686f6 	add	v22.4s, v23.4s, v22.4s
  4112f4:	4eb68400 	add	v0.4s, v0.4s, v22.4s
  4112f8:	4f245416 	shl	v22.4s, v0.4s, #4
  4112fc:	6f240400 	ushr	v0.4s, v0.4s, #28
  411300:	4ea01ec0 	orr	v0.16b, v22.16b, v0.16b
  411304:	4ea18400 	add	v0.4s, v0.4s, v1.4s
  411308:	6e211e96 	eor	v22.16b, v20.16b, v1.16b
  41130c:	6e201ed6 	eor	v22.16b, v22.16b, v0.16b
  411310:	b0000000 	adrp	x0, 412000 <_Z19MD5Hash_simdversionPKNSt7__cxx1112basic_stringIcSt11char_traitsIcESaIcEEEP12__Uint32x4_t+0x1480>
  411314:	3dc38817 	ldr	q23, [x0, #3616]
  411318:	4eb784b7 	add	v23.4s, v5.4s, v23.4s
  41131c:	4eb586f5 	add	v21.4s, v23.4s, v21.4s
  411320:	4eb586d5 	add	v21.4s, v22.4s, v21.4s
  411324:	4f2b56b6 	shl	v22.4s, v21.4s, #11
  411328:	6f2b06b5 	ushr	v21.4s, v21.4s, #21
  41132c:	4eb51ed5 	orr	v21.16b, v22.16b, v21.16b
  411330:	4ea086b5 	add	v21.4s, v21.4s, v0.4s
  411334:	6e201c36 	eor	v22.16b, v1.16b, v0.16b
  411338:	6e351ed6 	eor	v22.16b, v22.16b, v21.16b
  41133c:	b0000000 	adrp	x0, 412000 <_Z19MD5Hash_simdversionPKNSt7__cxx1112basic_stringIcSt11char_traitsIcESaIcEEEP12__Uint32x4_t+0x1480>
  411340:	3dc38c17 	ldr	q23, [x0, #3632]
  411344:	4eb78617 	add	v23.4s, v16.4s, v23.4s
  411348:	4eb486f4 	add	v20.4s, v23.4s, v20.4s
  41134c:	4eb486d4 	add	v20.4s, v22.4s, v20.4s
  411350:	4f305696 	shl	v22.4s, v20.4s, #16
  411354:	6f300694 	ushr	v20.4s, v20.4s, #16
  411358:	4eb41ed4 	orr	v20.16b, v22.16b, v20.16b
  41135c:	4eb58694 	add	v20.4s, v20.4s, v21.4s
  411360:	6e351c16 	eor	v22.16b, v0.16b, v21.16b
  411364:	6e341ed6 	eor	v22.16b, v22.16b, v20.16b
  411368:	b0000000 	adrp	x0, 412000 <_Z19MD5Hash_simdversionPKNSt7__cxx1112basic_stringIcSt11char_traitsIcESaIcEEEP12__Uint32x4_t+0x1480>
  41136c:	3dc39017 	ldr	q23, [x0, #3648]
  411370:	4eb78577 	add	v23.4s, v11.4s, v23.4s
  411374:	4ea186e1 	add	v1.4s, v23.4s, v1.4s
  411378:	4ea186c1 	add	v1.4s, v22.4s, v1.4s
  41137c:	4f375436 	shl	v22.4s, v1.4s, #23
  411380:	6f370421 	ushr	v1.4s, v1.4s, #9
  411384:	4ea11ec1 	orr	v1.16b, v22.16b, v1.16b
  411388:	4eb48421 	add	v1.4s, v1.4s, v20.4s
  41138c:	6e341eb6 	eor	v22.16b, v21.16b, v20.16b
  411390:	6e211ed6 	eor	v22.16b, v22.16b, v1.16b
  411394:	b0000000 	adrp	x0, 412000 <_Z19MD5Hash_simdversionPKNSt7__cxx1112basic_stringIcSt11char_traitsIcESaIcEEEP12__Uint32x4_t+0x1480>
  411398:	3dc39417 	ldr	q23, [x0, #3664]
  41139c:	4eb784d7 	add	v23.4s, v6.4s, v23.4s
  4113a0:	4ea086e0 	add	v0.4s, v23.4s, v0.4s
  4113a4:	4ea086c0 	add	v0.4s, v22.4s, v0.4s
  4113a8:	4f245416 	shl	v22.4s, v0.4s, #4
  4113ac:	6f240400 	ushr	v0.4s, v0.4s, #28
  4113b0:	4ea01ec0 	orr	v0.16b, v22.16b, v0.16b
  4113b4:	4ea18400 	add	v0.4s, v0.4s, v1.4s
  4113b8:	6e211e96 	eor	v22.16b, v20.16b, v1.16b
  4113bc:	6e201ed6 	eor	v22.16b, v22.16b, v0.16b
  4113c0:	b0000000 	adrp	x0, 412000 <_Z19MD5Hash_simdversionPKNSt7__cxx1112basic_stringIcSt11char_traitsIcESaIcEEEP12__Uint32x4_t+0x1480>
  4113c4:	3dc39817 	ldr	q23, [x0, #3680]
  4113c8:	4eb78637 	add	v23.4s, v17.4s, v23.4s
  4113cc:	4eb586f5 	add	v21.4s, v23.4s, v21.4s
  4113d0:	4eb586d5 	add	v21.4s, v22.4s, v21.4s
  4113d4:	4f2b56b6 	shl	v22.4s, v21.4s, #11
  4113d8:	6f2b06b5 	ushr	v21.4s, v21.4s, #21
  4113dc:	4eb51ed5 	orr	v21.16b, v22.16b, v21.16b
  4113e0:	4ea086b5 	add	v21.4s, v21.4s, v0.4s
  4113e4:	6e201c36 	eor	v22.16b, v1.16b, v0.16b
  4113e8:	6e351ed6 	eor	v22.16b, v22.16b, v21.16b
  4113ec:	b0000000 	adrp	x0, 412000 <_Z19MD5Hash_simdversionPKNSt7__cxx1112basic_stringIcSt11char_traitsIcESaIcEEEP12__Uint32x4_t+0x1480>
  4113f0:	3dc39c17 	ldr	q23, [x0, #3696]
  4113f4:	4eb78597 	add	v23.4s, v12.4s, v23.4s
  4113f8:	4eb486f4 	add	v20.4s, v23.4s, v20.4s
  4113fc:	4eb486d4 	add	v20.4s, v22.4s, v20.4s
  411400:	4f305696 	shl	v22.4s, v20.4s, #16
  411404:	6f300694 	ushr	v20.4s, v20.4s, #16
  411408:	4eb41ed6 	orr	v22.16b, v22.16b, v20.16b
  41140c:	4eb586d6 	add	v22.4s, v22.4s, v21.4s
  411410:	6e351c14 	eor	v20.16b, v0.16b, v21.16b
  411414:	6e361e94 	eor	v20.16b, v20.16b, v22.16b
  411418:	b0000000 	adrp	x0, 412000 <_Z19MD5Hash_simdversionPKNSt7__cxx1112basic_stringIcSt11char_traitsIcESaIcEEEP12__Uint32x4_t+0x1480>
  41141c:	3dc3a017 	ldr	q23, [x0, #3712]
  411420:	4eb784f7 	add	v23.4s, v7.4s, v23.4s
  411424:	4ea186e1 	add	v1.4s, v23.4s, v1.4s
  411428:	4ea18681 	add	v1.4s, v20.4s, v1.4s
  41142c:	4f375434 	shl	v20.4s, v1.4s, #23
  411430:	6f370421 	ushr	v1.4s, v1.4s, #9
  411434:	4ea11e94 	orr	v20.16b, v20.16b, v1.16b
  411438:	4eb68694 	add	v20.4s, v20.4s, v22.4s
  41143c:	6e361ea1 	eor	v1.16b, v21.16b, v22.16b
  411440:	6e341c21 	eor	v1.16b, v1.16b, v20.16b
  411444:	b0000000 	adrp	x0, 412000 <_Z19MD5Hash_simdversionPKNSt7__cxx1112basic_stringIcSt11char_traitsIcESaIcEEEP12__Uint32x4_t+0x1480>
  411448:	3dc3a417 	ldr	q23, [x0, #3728]
  41144c:	4eb78457 	add	v23.4s, v2.4s, v23.4s
  411450:	4ea086e0 	add	v0.4s, v23.4s, v0.4s
  411454:	4ea08420 	add	v0.4s, v1.4s, v0.4s
  411458:	4f245401 	shl	v1.4s, v0.4s, #4
  41145c:	6f240400 	ushr	v0.4s, v0.4s, #28
  411460:	4ea01c21 	orr	v1.16b, v1.16b, v0.16b
  411464:	4eb48421 	add	v1.4s, v1.4s, v20.4s
  411468:	b0000000 	adrp	x0, 412000 <_Z19MD5Hash_simdversionPKNSt7__cxx1112basic_stringIcSt11char_traitsIcESaIcEEEP12__Uint32x4_t+0x1480>
  41146c:	3dc3a800 	ldr	q0, [x0, #3744]
  411470:	4ea085a0 	add	v0.4s, v13.4s, v0.4s
  411474:	4eb58400 	add	v0.4s, v0.4s, v21.4s
  411478:	6e341ed5 	eor	v21.16b, v22.16b, v20.16b
  41147c:	6e211eb5 	eor	v21.16b, v21.16b, v1.16b
  411480:	4eb58400 	add	v0.4s, v0.4s, v21.4s
  411484:	4f2b5415 	shl	v21.4s, v0.4s, #11
  411488:	6f2b0400 	ushr	v0.4s, v0.4s, #21
  41148c:	4ea01eb5 	orr	v21.16b, v21.16b, v0.16b
  411490:	4ea186b5 	add	v21.4s, v21.4s, v1.4s
  411494:	b0000000 	adrp	x0, 412000 <_Z19MD5Hash_simdversionPKNSt7__cxx1112basic_stringIcSt11char_traitsIcESaIcEEEP12__Uint32x4_t+0x1480>
  411498:	3dc3ac00 	ldr	q0, [x0, #3760]
  41149c:	4ea08500 	add	v0.4s, v8.4s, v0.4s
  4114a0:	4eb68400 	add	v0.4s, v0.4s, v22.4s
  4114a4:	6e211e96 	eor	v22.16b, v20.16b, v1.16b
  4114a8:	6e351ed6 	eor	v22.16b, v22.16b, v21.16b
  4114ac:	4eb68400 	add	v0.4s, v0.4s, v22.4s
  4114b0:	4f305416 	shl	v22.4s, v0.4s, #16
  4114b4:	6f300400 	ushr	v0.4s, v0.4s, #16
  4114b8:	4ea01ed6 	orr	v22.16b, v22.16b, v0.16b
  4114bc:	4eb586d6 	add	v22.4s, v22.4s, v21.4s
  4114c0:	b0000000 	adrp	x0, 412000 <_Z19MD5Hash_simdversionPKNSt7__cxx1112basic_stringIcSt11char_traitsIcESaIcEEEP12__Uint32x4_t+0x1480>
  4114c4:	3dc3b000 	ldr	q0, [x0, #3776]
  4114c8:	4ea08460 	add	v0.4s, v3.4s, v0.4s
  4114cc:	4eb48400 	add	v0.4s, v0.4s, v20.4s
  4114d0:	6e351c34 	eor	v20.16b, v1.16b, v21.16b
  4114d4:	6e361e94 	eor	v20.16b, v20.16b, v22.16b
  4114d8:	4eb48400 	add	v0.4s, v0.4s, v20.4s
  4114dc:	4f375414 	shl	v20.4s, v0.4s, #23
  4114e0:	6f370400 	ushr	v0.4s, v0.4s, #9
  4114e4:	4ea01e94 	orr	v20.16b, v20.16b, v0.16b
  4114e8:	4eb68694 	add	v20.4s, v20.4s, v22.4s
  4114ec:	4ef51e80 	orn	v0.16b, v20.16b, v21.16b
  4114f0:	6e361c00 	eor	v0.16b, v0.16b, v22.16b
  4114f4:	b0000000 	adrp	x0, 412000 <_Z19MD5Hash_simdversionPKNSt7__cxx1112basic_stringIcSt11char_traitsIcESaIcEEEP12__Uint32x4_t+0x1480>
  4114f8:	3dc3b417 	ldr	q23, [x0, #3792]
  4114fc:	4eb78631 	add	v17.4s, v17.4s, v23.4s
  411500:	4ea18621 	add	v1.4s, v17.4s, v1.4s
  411504:	4ea18400 	add	v0.4s, v0.4s, v1.4s
  411508:	4f265401 	shl	v1.4s, v0.4s, #6
  41150c:	6f260400 	ushr	v0.4s, v0.4s, #26
  411510:	4ea01c20 	orr	v0.16b, v1.16b, v0.16b
  411514:	4eb48400 	add	v0.4s, v0.4s, v20.4s
  411518:	4ef61c01 	orn	v1.16b, v0.16b, v22.16b
  41151c:	6e341c21 	eor	v1.16b, v1.16b, v20.16b
  411520:	b0000000 	adrp	x0, 412000 <_Z19MD5Hash_simdversionPKNSt7__cxx1112basic_stringIcSt11char_traitsIcESaIcEEEP12__Uint32x4_t+0x1480>
  411524:	3dc3b811 	ldr	q17, [x0, #3808]
  411528:	4eb18610 	add	v16.4s, v16.4s, v17.4s
  41152c:	4eb58610 	add	v16.4s, v16.4s, v21.4s
  411530:	4eb08421 	add	v1.4s, v1.4s, v16.4s
  411534:	4f2a5430 	shl	v16.4s, v1.4s, #10
  411538:	6f2a0421 	ushr	v1.4s, v1.4s, #22
  41153c:	4ea11e10 	orr	v16.16b, v16.16b, v1.16b
  411540:	4ea08610 	add	v16.4s, v16.4s, v0.4s
  411544:	4ef41e01 	orn	v1.16b, v16.16b, v20.16b
  411548:	6e201c21 	eor	v1.16b, v1.16b, v0.16b
  41154c:	b0000000 	adrp	x0, 412000 <_Z19MD5Hash_simdversionPKNSt7__cxx1112basic_stringIcSt11char_traitsIcESaIcEEEP12__Uint32x4_t+0x1480>
  411550:	3dc3bc11 	ldr	q17, [x0, #3824]
  411554:	4eb185ef 	add	v15.4s, v15.4s, v17.4s
  411558:	4eb685ef 	add	v15.4s, v15.4s, v22.4s
  41155c:	4eaf8421 	add	v1.4s, v1.4s, v15.4s
  411560:	4f2f542f 	shl	v15.4s, v1.4s, #15
  411564:	6f2f0421 	ushr	v1.4s, v1.4s, #17
  411568:	4ea11def 	orr	v15.16b, v15.16b, v1.16b
  41156c:	4eb085ef 	add	v15.4s, v15.4s, v16.4s
  411570:	4ee01de1 	orn	v1.16b, v15.16b, v0.16b
  411574:	6e301c21 	eor	v1.16b, v1.16b, v16.16b
  411578:	b0000000 	adrp	x0, 412000 <_Z19MD5Hash_simdversionPKNSt7__cxx1112basic_stringIcSt11char_traitsIcESaIcEEEP12__Uint32x4_t+0x1480>
  41157c:	3dc3c011 	ldr	q17, [x0, #3840]
  411580:	4eb185ce 	add	v14.4s, v14.4s, v17.4s
  411584:	4eb485ce 	add	v14.4s, v14.4s, v20.4s
  411588:	4eae8421 	add	v1.4s, v1.4s, v14.4s
  41158c:	4f35542e 	shl	v14.4s, v1.4s, #21
  411590:	6f350421 	ushr	v1.4s, v1.4s, #11
  411594:	4ea11dc1 	orr	v1.16b, v14.16b, v1.16b
  411598:	4eaf8421 	add	v1.4s, v1.4s, v15.4s
  41159c:	4ef01c2e 	orn	v14.16b, v1.16b, v16.16b
  4115a0:	6e2f1dce 	eor	v14.16b, v14.16b, v15.16b
  4115a4:	b0000000 	adrp	x0, 412000 <_Z19MD5Hash_simdversionPKNSt7__cxx1112basic_stringIcSt11char_traitsIcESaIcEEEP12__Uint32x4_t+0x1480>
  4115a8:	3dc3c411 	ldr	q17, [x0, #3856]
  4115ac:	4eb185ad 	add	v13.4s, v13.4s, v17.4s
  4115b0:	4ea085a0 	add	v0.4s, v13.4s, v0.4s
  4115b4:	4ea085c0 	add	v0.4s, v14.4s, v0.4s
  4115b8:	4f26540d 	shl	v13.4s, v0.4s, #6
  4115bc:	6f260400 	ushr	v0.4s, v0.4s, #26
  4115c0:	4ea01da0 	orr	v0.16b, v13.16b, v0.16b
  4115c4:	4ea18400 	add	v0.4s, v0.4s, v1.4s
  4115c8:	4eef1c0d 	orn	v13.16b, v0.16b, v15.16b
  4115cc:	6e211dad 	eor	v13.16b, v13.16b, v1.16b
  4115d0:	b0000000 	adrp	x0, 412000 <_Z19MD5Hash_simdversionPKNSt7__cxx1112basic_stringIcSt11char_traitsIcESaIcEEEP12__Uint32x4_t+0x1480>
  4115d4:	3dc3c80e 	ldr	q14, [x0, #3872]
  4115d8:	4eae858c 	add	v12.4s, v12.4s, v14.4s
  4115dc:	4eb0858c 	add	v12.4s, v12.4s, v16.4s
  4115e0:	4eac85ac 	add	v12.4s, v13.4s, v12.4s
  4115e4:	4f2a558d 	shl	v13.4s, v12.4s, #10
  4115e8:	6f2a058c 	ushr	v12.4s, v12.4s, #22
  4115ec:	4eac1dac 	orr	v12.16b, v13.16b, v12.16b
  4115f0:	4ea0858c 	add	v12.4s, v12.4s, v0.4s
  4115f4:	4ee11d8d 	orn	v13.16b, v12.16b, v1.16b
  4115f8:	6e201dad 	eor	v13.16b, v13.16b, v0.16b
  4115fc:	b0000000 	adrp	x0, 412000 <_Z19MD5Hash_simdversionPKNSt7__cxx1112basic_stringIcSt11char_traitsIcESaIcEEEP12__Uint32x4_t+0x1480>
  411600:	3dc3cc0e 	ldr	q14, [x0, #3888]
  411604:	4eae856b 	add	v11.4s, v11.4s, v14.4s
  411608:	4eaf856b 	add	v11.4s, v11.4s, v15.4s
  41160c:	4eab85ab 	add	v11.4s, v13.4s, v11.4s
  411610:	4f2f556d 	shl	v13.4s, v11.4s, #15
  411614:	6f2f056b 	ushr	v11.4s, v11.4s, #17
  411618:	4eab1dab 	orr	v11.16b, v13.16b, v11.16b
  41161c:	4eac856b 	add	v11.4s, v11.4s, v12.4s
  411620:	4ee01d6d 	orn	v13.16b, v11.16b, v0.16b
  411624:	6e2c1dad 	eor	v13.16b, v13.16b, v12.16b
  411628:	b0000000 	adrp	x0, 412000 <_Z19MD5Hash_simdversionPKNSt7__cxx1112basic_stringIcSt11char_traitsIcESaIcEEEP12__Uint32x4_t+0x1480>
  41162c:	3dc3d00e 	ldr	q14, [x0, #3904]
  411630:	4eae854a 	add	v10.4s, v10.4s, v14.4s
  411634:	4ea18541 	add	v1.4s, v10.4s, v1.4s
  411638:	4ea185a1 	add	v1.4s, v13.4s, v1.4s
  41163c:	4f35542a 	shl	v10.4s, v1.4s, #21
  411640:	6f350421 	ushr	v1.4s, v1.4s, #11
  411644:	4ea11d41 	orr	v1.16b, v10.16b, v1.16b
  411648:	4eab8421 	add	v1.4s, v1.4s, v11.4s
  41164c:	4eec1c2a 	orn	v10.16b, v1.16b, v12.16b
  411650:	6e2b1d4a 	eor	v10.16b, v10.16b, v11.16b
  411654:	b0000000 	adrp	x0, 412000 <_Z19MD5Hash_simdversionPKNSt7__cxx1112basic_stringIcSt11char_traitsIcESaIcEEEP12__Uint32x4_t+0x1480>
  411658:	3dc3d40d 	ldr	q13, [x0, #3920]
  41165c:	4ead8529 	add	v9.4s, v9.4s, v13.4s
  411660:	4ea08520 	add	v0.4s, v9.4s, v0.4s
  411664:	4ea08540 	add	v0.4s, v10.4s, v0.4s
  411668:	4f265409 	shl	v9.4s, v0.4s, #6
  41166c:	6f260400 	ushr	v0.4s, v0.4s, #26
  411670:	4ea01d20 	orr	v0.16b, v9.16b, v0.16b
  411674:	4ea18400 	add	v0.4s, v0.4s, v1.4s
  411678:	4eeb1c09 	orn	v9.16b, v0.16b, v11.16b
  41167c:	6e211d29 	eor	v9.16b, v9.16b, v1.16b
  411680:	b0000000 	adrp	x0, 412000 <_Z19MD5Hash_simdversionPKNSt7__cxx1112basic_stringIcSt11char_traitsIcESaIcEEEP12__Uint32x4_t+0x1480>
  411684:	3dc3d80a 	ldr	q10, [x0, #3936]
  411688:	4eaa8508 	add	v8.4s, v8.4s, v10.4s
  41168c:	4eac8508 	add	v8.4s, v8.4s, v12.4s
  411690:	4ea88528 	add	v8.4s, v9.4s, v8.4s
  411694:	4f2a5509 	shl	v9.4s, v8.4s, #10
  411698:	6f2a0508 	ushr	v8.4s, v8.4s, #22
  41169c:	4ea81d28 	orr	v8.16b, v9.16b, v8.16b
  4116a0:	4ea08508 	add	v8.4s, v8.4s, v0.4s
  4116a4:	4ee11d09 	orn	v9.16b, v8.16b, v1.16b
  4116a8:	6e201d29 	eor	v9.16b, v9.16b, v0.16b
  4116ac:	b0000000 	adrp	x0, 412000 <_Z19MD5Hash_simdversionPKNSt7__cxx1112basic_stringIcSt11char_traitsIcESaIcEEEP12__Uint32x4_t+0x1480>
  4116b0:	3dc3dc0a 	ldr	q10, [x0, #3952]
  4116b4:	4eaa84e7 	add	v7.4s, v7.4s, v10.4s
  4116b8:	4eab84e7 	add	v7.4s, v7.4s, v11.4s
  4116bc:	4ea78527 	add	v7.4s, v9.4s, v7.4s
  4116c0:	4f2f54e9 	shl	v9.4s, v7.4s, #15
  4116c4:	6f2f04e7 	ushr	v7.4s, v7.4s, #17
  4116c8:	4ea71d27 	orr	v7.16b, v9.16b, v7.16b
  4116cc:	4ea884e7 	add	v7.4s, v7.4s, v8.4s
  4116d0:	4ee01ce9 	orn	v9.16b, v7.16b, v0.16b
  4116d4:	6e281d29 	eor	v9.16b, v9.16b, v8.16b
  4116d8:	b0000000 	adrp	x0, 412000 <_Z19MD5Hash_simdversionPKNSt7__cxx1112basic_stringIcSt11char_traitsIcESaIcEEEP12__Uint32x4_t+0x1480>
  4116dc:	3dc3e00a 	ldr	q10, [x0, #3968]
  4116e0:	4eaa84c6 	add	v6.4s, v6.4s, v10.4s
  4116e4:	4ea184c1 	add	v1.4s, v6.4s, v1.4s
  4116e8:	4ea18521 	add	v1.4s, v9.4s, v1.4s
  4116ec:	4f355426 	shl	v6.4s, v1.4s, #21
  4116f0:	6f350421 	ushr	v1.4s, v1.4s, #11
  4116f4:	4ea11cc1 	orr	v1.16b, v6.16b, v1.16b
  4116f8:	4ea78421 	add	v1.4s, v1.4s, v7.4s
  4116fc:	4ee81c26 	orn	v6.16b, v1.16b, v8.16b
  411700:	6e271cc6 	eor	v6.16b, v6.16b, v7.16b
  411704:	b0000000 	adrp	x0, 412000 <_Z19MD5Hash_simdversionPKNSt7__cxx1112basic_stringIcSt11char_traitsIcESaIcEEEP12__Uint32x4_t+0x1480>
  411708:	3dc3e409 	ldr	q9, [x0, #3984]
  41170c:	4ea984a5 	add	v5.4s, v5.4s, v9.4s
  411710:	4ea084a0 	add	v0.4s, v5.4s, v0.4s
  411714:	4ea084c0 	add	v0.4s, v6.4s, v0.4s
  411718:	4f265405 	shl	v5.4s, v0.4s, #6
  41171c:	6f260400 	ushr	v0.4s, v0.4s, #26
  411720:	4ea01ca0 	orr	v0.16b, v5.16b, v0.16b
  411724:	4ea18400 	add	v0.4s, v0.4s, v1.4s
  411728:	4ee71c05 	orn	v5.16b, v0.16b, v7.16b
  41172c:	6e211ca5 	eor	v5.16b, v5.16b, v1.16b
  411730:	b0000000 	adrp	x0, 412000 <_Z19MD5Hash_simdversionPKNSt7__cxx1112basic_stringIcSt11char_traitsIcESaIcEEEP12__Uint32x4_t+0x1480>
  411734:	3dc3e806 	ldr	q6, [x0, #4000]
  411738:	4ea68484 	add	v4.4s, v4.4s, v6.4s
  41173c:	4ea88484 	add	v4.4s, v4.4s, v8.4s
  411740:	4ea484a4 	add	v4.4s, v5.4s, v4.4s
  411744:	4f2a5485 	shl	v5.4s, v4.4s, #10
  411748:	6f2a0484 	ushr	v4.4s, v4.4s, #22
  41174c:	4ea41ca4 	orr	v4.16b, v5.16b, v4.16b
  411750:	4ea08484 	add	v4.4s, v4.4s, v0.4s
  411754:	4ee11c85 	orn	v5.16b, v4.16b, v1.16b
  411758:	6e201ca5 	eor	v5.16b, v5.16b, v0.16b
  41175c:	b0000000 	adrp	x0, 412000 <_Z19MD5Hash_simdversionPKNSt7__cxx1112basic_stringIcSt11char_traitsIcESaIcEEEP12__Uint32x4_t+0x1480>
  411760:	3dc3ec06 	ldr	q6, [x0, #4016]
  411764:	4ea68463 	add	v3.4s, v3.4s, v6.4s
  411768:	4ea78463 	add	v3.4s, v3.4s, v7.4s
  41176c:	4ea384a3 	add	v3.4s, v5.4s, v3.4s
  411770:	4f2f5465 	shl	v5.4s, v3.4s, #15
  411774:	6f2f0463 	ushr	v3.4s, v3.4s, #17
  411778:	4ea31ca5 	orr	v5.16b, v5.16b, v3.16b
  41177c:	4ea484a5 	add	v5.4s, v5.4s, v4.4s
  411780:	4ee01ca3 	orn	v3.16b, v5.16b, v0.16b
  411784:	6e241c63 	eor	v3.16b, v3.16b, v4.16b
  411788:	b0000000 	adrp	x0, 412000 <_Z19MD5Hash_simdversionPKNSt7__cxx1112basic_stringIcSt11char_traitsIcESaIcEEEP12__Uint32x4_t+0x1480>
  41178c:	3dc3f006 	ldr	q6, [x0, #4032]
  411790:	4ea68442 	add	v2.4s, v2.4s, v6.4s
  411794:	4ea18441 	add	v1.4s, v2.4s, v1.4s
  411798:	4ea18461 	add	v1.4s, v3.4s, v1.4s
  41179c:	4f355422 	shl	v2.4s, v1.4s, #21
  4117a0:	6f350421 	ushr	v1.4s, v1.4s, #11
  4117a4:	b0000000 	adrp	x0, 412000 <_Z19MD5Hash_simdversionPKNSt7__cxx1112basic_stringIcSt11char_traitsIcESaIcEEEP12__Uint32x4_t+0x1480>
  4117a8:	3dc2e403 	ldr	q3, [x0, #2960]
  4117ac:	4ea08460 	add	v0.4s, v3.4s, v0.4s
  4117b0:	3d800260 	str	q0, [x19]
  4117b4:	4ea11c40 	orr	v0.16b, v2.16b, v1.16b
  4117b8:	4eb38400 	add	v0.4s, v0.4s, v19.4s
  4117bc:	4ea58400 	add	v0.4s, v0.4s, v5.4s
  4117c0:	3d800660 	str	q0, [x19, #16]
  4117c4:	4ea58652 	add	v18.4s, v18.4s, v5.4s
  4117c8:	3d800a72 	str	q18, [x19, #32]
  4117cc:	b0000000 	adrp	x0, 412000 <_Z19MD5Hash_simdversionPKNSt7__cxx1112basic_stringIcSt11char_traitsIcESaIcEEEP12__Uint32x4_t+0x1480>
  4117d0:	3dc2f000 	ldr	q0, [x0, #3008]
  4117d4:	4ea48400 	add	v0.4s, v0.4s, v4.4s
  4117d8:	3d800e60 	str	q0, [x19, #48]
  4117dc:	aa1303e0 	mov	x0, x19
  4117e0:	91010273 	add	x19, x19, #0x40
  4117e4:	4f0707e7 	movi	v7.4s, #0xff
  4117e8:	4f0727e6 	movi	v6.4s, #0xff, lsl #8
  4117ec:	4f0747e5 	movi	v5.4s, #0xff, lsl #16
  4117f0:	4f0767e4 	movi	v4.4s, #0xff, lsl #24
  4117f4:	3dc00001 	ldr	q1, [x0]
  4117f8:	4e271c20 	and	v0.16b, v1.16b, v7.16b
  4117fc:	4f385400 	shl	v0.4s, v0.4s, #24
  411800:	4e261c23 	and	v3.16b, v1.16b, v6.16b
  411804:	4f285463 	shl	v3.4s, v3.4s, #8
  411808:	4e251c22 	and	v2.16b, v1.16b, v5.16b
  41180c:	6f380442 	ushr	v2.4s, v2.4s, #8
  411810:	4e241c21 	and	v1.16b, v1.16b, v4.16b
  411814:	6f280421 	ushr	v1.4s, v1.4s, #24
  411818:	4ea31c00 	orr	v0.16b, v0.16b, v3.16b
  41181c:	4ea21c00 	orr	v0.16b, v0.16b, v2.16b
  411820:	4ea11c00 	orr	v0.16b, v0.16b, v1.16b
  411824:	3c810400 	str	q0, [x0], #16
  411828:	eb13001f 	cmp	x0, x19
  41182c:	54fffe41 	b.ne	4117f4 <_Z19MD5Hash_simdversionPKNSt7__cxx1112basic_stringIcSt11char_traitsIcESaIcEEEP12__Uint32x4_t+0xc74>  // b.any
  411830:	6d4527e8 	ldp	d8, d9, [sp, #80]
  411834:	6d462fea 	ldp	d10, d11, [sp, #96]
  411838:	6d4737ec 	ldp	d12, d13, [sp, #112]
  41183c:	6d483fee 	ldp	d14, d15, [sp, #128]
  411840:	a94153f3 	ldp	x19, x20, [sp, #16]
  411844:	a9425bf5 	ldp	x21, x22, [sp, #32]
  411848:	a9407bfd 	ldp	x29, x30, [sp]
  41184c:	910b43ff 	add	sp, sp, #0x2d0
  411850:	d65f03c0 	ret
  411854:	6d4527e8 	ldp	d8, d9, [sp, #80]
  411858:	6d462fea 	ldp	d10, d11, [sp, #96]
  41185c:	6d4737ec 	ldp	d12, d13, [sp, #112]
  411860:	6d483fee 	ldp	d14, d15, [sp, #128]
  411864:	91008295 	add	x21, x20, #0x20
  411868:	14000005 	b	41187c <_Z19MD5Hash_simdversionPKNSt7__cxx1112basic_stringIcSt11char_traitsIcESaIcEEEP12__Uint32x4_t+0xcfc>
  41186c:	97ffc23d 	bl	402160 <_ZdaPv@plt>
  411870:	91002294 	add	x20, x20, #0x8
  411874:	eb15029f 	cmp	x20, x21
  411878:	54000080 	b.eq	411888 <_Z19MD5Hash_simdversionPKNSt7__cxx1112basic_stringIcSt11char_traitsIcESaIcEEEP12__Uint32x4_t+0xd08>  // b.none
  41187c:	f9400280 	ldr	x0, [x20]
  411880:	b5ffff60 	cbnz	x0, 41186c <_Z19MD5Hash_simdversionPKNSt7__cxx1112basic_stringIcSt11char_traitsIcESaIcEEEP12__Uint32x4_t+0xcec>
  411884:	17fffffb 	b	411870 <_Z19MD5Hash_simdversionPKNSt7__cxx1112basic_stringIcSt11char_traitsIcESaIcEEEP12__Uint32x4_t+0xcf0>
  411888:	910343f4 	add	x20, sp, #0xd0
  41188c:	aa1403f5 	mov	x21, x20
  411890:	aa1503e1 	mov	x1, x21
  411894:	aa1603e0 	mov	x0, x22
  411898:	97fff9ea 	bl	410040 <_Z7MD5HashRKNSt7__cxx1112basic_stringIcSt11char_traitsIcESaIcEEEPj>
  41189c:	910082d6 	add	x22, x22, #0x20
  4118a0:	910042b5 	add	x21, x21, #0x10
  4118a4:	eb16033f 	cmp	x25, x22
  4118a8:	54ffff41 	b.ne	411890 <_Z19MD5Hash_simdversionPKNSt7__cxx1112basic_stringIcSt11char_traitsIcESaIcEEEP12__Uint32x4_t+0xd10>  // b.any
  4118ac:	aa1303e0 	mov	x0, x19
  4118b0:	91010273 	add	x19, x19, #0x40
  4118b4:	b9400281 	ldr	w1, [x20]
  4118b8:	b900a3e1 	str	w1, [sp, #160]
  4118bc:	b9401281 	ldr	w1, [x20, #16]
  4118c0:	b900a7e1 	str	w1, [sp, #164]
  4118c4:	b9402281 	ldr	w1, [x20, #32]
  4118c8:	b900abe1 	str	w1, [sp, #168]
  4118cc:	b9403281 	ldr	w1, [x20, #48]
  4118d0:	b900afe1 	str	w1, [sp, #172]
  4118d4:	3dc02be0 	ldr	q0, [sp, #160]
  4118d8:	3c810400 	str	q0, [x0], #16
  4118dc:	91001294 	add	x20, x20, #0x4
  4118e0:	eb00027f 	cmp	x19, x0
  4118e4:	54fffe81 	b.ne	4118b4 <_Z19MD5Hash_simdversionPKNSt7__cxx1112basic_stringIcSt11char_traitsIcESaIcEEEP12__Uint32x4_t+0xd34>  // b.any
  4118e8:	a94363f7 	ldp	x23, x24, [sp, #48]
  4118ec:	f94023f9 	ldr	x25, [sp, #64]
  4118f0:	17ffffd4 	b	411840 <_Z19MD5Hash_simdversionPKNSt7__cxx1112basic_stringIcSt11char_traitsIcESaIcEEEP12__Uint32x4_t+0xcc0>
  4118f4:	aa1303e0 	mov	x0, x19
  4118f8:	91010273 	add	x19, x19, #0x40
  4118fc:	4f0707e7 	movi	v7.4s, #0xff
  411900:	4f0727e6 	movi	v6.4s, #0xff, lsl #8
  411904:	4f0747e5 	movi	v5.4s, #0xff, lsl #16
  411908:	4f0767e4 	movi	v4.4s, #0xff, lsl #24
  41190c:	3dc00001 	ldr	q1, [x0]
  411910:	4e271c20 	and	v0.16b, v1.16b, v7.16b
  411914:	4f385400 	shl	v0.4s, v0.4s, #24
  411918:	4e261c23 	and	v3.16b, v1.16b, v6.16b
  41191c:	4f285463 	shl	v3.4s, v3.4s, #8
  411920:	4e251c22 	and	v2.16b, v1.16b, v5.16b
  411924:	6f380442 	ushr	v2.4s, v2.4s, #8
  411928:	4e241c21 	and	v1.16b, v1.16b, v4.16b
  41192c:	6f280421 	ushr	v1.4s, v1.4s, #24
  411930:	4ea31c00 	orr	v0.16b, v0.16b, v3.16b
  411934:	4ea21c00 	orr	v0.16b, v0.16b, v2.16b
  411938:	4ea11c00 	orr	v0.16b, v0.16b, v1.16b
  41193c:	3c810400 	str	q0, [x0], #16
  411940:	eb13001f 	cmp	x0, x19
  411944:	54fffe41 	b.ne	41190c <_Z19MD5Hash_simdversionPKNSt7__cxx1112basic_stringIcSt11char_traitsIcESaIcEEEP12__Uint32x4_t+0xd8c>  // b.any
  411948:	91008293 	add	x19, x20, #0x20
  41194c:	140002f9 	b	412530 <_Z19MD5Hash_simdversionPKNSt7__cxx1112basic_stringIcSt11char_traitsIcESaIcEEEP12__Uint32x4_t+0x19b0>
  411950:	3dc02be0 	ldr	q0, [sp, #160]
  411954:	3c810520 	str	q0, [x9], #16
  411958:	91001021 	add	x1, x1, #0x4
  41195c:	eb09015f 	cmp	x10, x9
  411960:	540002e0 	b.eq	4119bc <_Z19MD5Hash_simdversionPKNSt7__cxx1112basic_stringIcSt11char_traitsIcESaIcEEEP12__Uint32x4_t+0xe3c>  // b.none
  411964:	91000428 	add	x8, x1, #0x1
  411968:	91000827 	add	x7, x1, #0x2
  41196c:	91000c26 	add	x6, x1, #0x3
  411970:	d2800022 	mov	x2, #0x1                   	// #1
  411974:	9102c3e0 	add	x0, sp, #0xb0
  411978:	8b020c00 	add	x0, x0, x2, lsl #3
  41197c:	f85f8003 	ldur	x3, [x0, #-8]
  411980:	910283e0 	add	x0, sp, #0xa0
  411984:	8b020805 	add	x5, x0, x2, lsl #2
  411988:	38686860 	ldrb	w0, [x3, x8]
  41198c:	38676864 	ldrb	w4, [x3, x7]
  411990:	53103c84 	lsl	w4, w4, #16
  411994:	2a002080 	orr	w0, w4, w0, lsl #8
  411998:	38666864 	ldrb	w4, [x3, x6]
  41199c:	38616863 	ldrb	w3, [x3, x1]
  4119a0:	2a046063 	orr	w3, w3, w4, lsl #24
  4119a4:	2a030000 	orr	w0, w0, w3
  4119a8:	b81fc0a0 	stur	w0, [x5, #-4]
  4119ac:	91000442 	add	x2, x2, #0x1
  4119b0:	f100145f 	cmp	x2, #0x5
  4119b4:	54fffe01 	b.ne	411974 <_Z19MD5Hash_simdversionPKNSt7__cxx1112basic_stringIcSt11char_traitsIcESaIcEEEP12__Uint32x4_t+0xdf4>  // b.any
  4119b8:	17ffffe6 	b	411950 <_Z19MD5Hash_simdversionPKNSt7__cxx1112basic_stringIcSt11char_traitsIcESaIcEEEP12__Uint32x4_t+0xdd0>
  4119bc:	3dc0067a 	ldr	q26, [x19, #16]
  4119c0:	3dc00a79 	ldr	q25, [x19, #32]
  4119c4:	3dc00e7b 	ldr	q27, [x19, #48]
  4119c8:	3dc037f8 	ldr	q24, [sp, #208]
  4119cc:	4eba1f40 	mov	v0.16b, v26.16b
  4119d0:	6e7b1f20 	bsl	v0.16b, v25.16b, v27.16b
  4119d4:	4eaf8701 	add	v1.4s, v24.4s, v15.4s
  4119d8:	3dc0027c 	ldr	q28, [x19]
  4119dc:	4ebc8421 	add	v1.4s, v1.4s, v28.4s
  4119e0:	4ea18400 	add	v0.4s, v0.4s, v1.4s
  4119e4:	4f275401 	shl	v1.4s, v0.4s, #7
  4119e8:	6f270400 	ushr	v0.4s, v0.4s, #25
  4119ec:	4ea01c20 	orr	v0.16b, v1.16b, v0.16b
  4119f0:	4eba8400 	add	v0.4s, v0.4s, v26.4s
  4119f4:	3dc03bf1 	ldr	q17, [sp, #224]
  4119f8:	4ea01c01 	mov	v1.16b, v0.16b
  4119fc:	6e791f41 	bsl	v1.16b, v26.16b, v25.16b
  411a00:	4eae8622 	add	v2.4s, v17.4s, v14.4s
  411a04:	4ebb8442 	add	v2.4s, v2.4s, v27.4s
  411a08:	4ea28421 	add	v1.4s, v1.4s, v2.4s
  411a0c:	4f2c5423 	shl	v3.4s, v1.4s, #12
  411a10:	6f2c0421 	ushr	v1.4s, v1.4s, #20
  411a14:	4ea11c63 	orr	v3.16b, v3.16b, v1.16b
  411a18:	4ea08463 	add	v3.4s, v3.4s, v0.4s
  411a1c:	3dc03fe5 	ldr	q5, [sp, #240]
  411a20:	4ea31c61 	mov	v1.16b, v3.16b
  411a24:	6e7a1c01 	bsl	v1.16b, v0.16b, v26.16b
  411a28:	4ead84a2 	add	v2.4s, v5.4s, v13.4s
  411a2c:	4eb98442 	add	v2.4s, v2.4s, v25.4s
  411a30:	4ea28421 	add	v1.4s, v1.4s, v2.4s
  411a34:	4f315422 	shl	v2.4s, v1.4s, #17
  411a38:	6f310421 	ushr	v1.4s, v1.4s, #15
  411a3c:	4ea11c42 	orr	v2.16b, v2.16b, v1.16b
  411a40:	4ea38442 	add	v2.4s, v2.4s, v3.4s
  411a44:	3dc043f3 	ldr	q19, [sp, #256]
  411a48:	4ea21c41 	mov	v1.16b, v2.16b
  411a4c:	6e601c61 	bsl	v1.16b, v3.16b, v0.16b
  411a50:	4eac8664 	add	v4.4s, v19.4s, v12.4s
  411a54:	4eba8484 	add	v4.4s, v4.4s, v26.4s
  411a58:	4ea48421 	add	v1.4s, v1.4s, v4.4s
  411a5c:	4f365424 	shl	v4.4s, v1.4s, #22
  411a60:	6f360421 	ushr	v1.4s, v1.4s, #10
  411a64:	4ea11c81 	orr	v1.16b, v4.16b, v1.16b
  411a68:	4ea28421 	add	v1.4s, v1.4s, v2.4s
  411a6c:	3dc047e7 	ldr	q7, [sp, #272]
  411a70:	4ea11c24 	mov	v4.16b, v1.16b
  411a74:	6e631c44 	bsl	v4.16b, v2.16b, v3.16b
  411a78:	4eab84e6 	add	v6.4s, v7.4s, v11.4s
  411a7c:	4ea084c0 	add	v0.4s, v6.4s, v0.4s
  411a80:	4ea08480 	add	v0.4s, v4.4s, v0.4s
  411a84:	4f275404 	shl	v4.4s, v0.4s, #7
  411a88:	6f270400 	ushr	v0.4s, v0.4s, #25
  411a8c:	4ea01c80 	orr	v0.16b, v4.16b, v0.16b
  411a90:	4ea18400 	add	v0.4s, v0.4s, v1.4s
  411a94:	3dc04bf5 	ldr	q21, [sp, #288]
  411a98:	4ea01c04 	mov	v4.16b, v0.16b
  411a9c:	6e621c24 	bsl	v4.16b, v1.16b, v2.16b
  411aa0:	b0000000 	adrp	x0, 412000 <_Z19MD5Hash_simdversionPKNSt7__cxx1112basic_stringIcSt11char_traitsIcESaIcEEEP12__Uint32x4_t+0x1480>
  411aa4:	3dc30806 	ldr	q6, [x0, #3104]
  411aa8:	4ea686a6 	add	v6.4s, v21.4s, v6.4s
  411aac:	4ea384c3 	add	v3.4s, v6.4s, v3.4s
  411ab0:	4ea38483 	add	v3.4s, v4.4s, v3.4s
  411ab4:	4f2c5464 	shl	v4.4s, v3.4s, #12
  411ab8:	6f2c0463 	ushr	v3.4s, v3.4s, #20
  411abc:	4ea31c83 	orr	v3.16b, v4.16b, v3.16b
  411ac0:	4ea08463 	add	v3.4s, v3.4s, v0.4s
  411ac4:	3dc04fe9 	ldr	q9, [sp, #304]
  411ac8:	4ea31c64 	mov	v4.16b, v3.16b
  411acc:	6e611c04 	bsl	v4.16b, v0.16b, v1.16b
  411ad0:	b0000000 	adrp	x0, 412000 <_Z19MD5Hash_simdversionPKNSt7__cxx1112basic_stringIcSt11char_traitsIcESaIcEEEP12__Uint32x4_t+0x1480>
  411ad4:	3dc30c06 	ldr	q6, [x0, #3120]
  411ad8:	4ea68526 	add	v6.4s, v9.4s, v6.4s
  411adc:	4ea284c2 	add	v2.4s, v6.4s, v2.4s
  411ae0:	4ea28482 	add	v2.4s, v4.4s, v2.4s
  411ae4:	4f315444 	shl	v4.4s, v2.4s, #17
  411ae8:	6f310442 	ushr	v2.4s, v2.4s, #15
  411aec:	4ea21c82 	orr	v2.16b, v4.16b, v2.16b
  411af0:	4ea38442 	add	v2.4s, v2.4s, v3.4s
  411af4:	3dc053f7 	ldr	q23, [sp, #320]
  411af8:	4ea21c44 	mov	v4.16b, v2.16b
  411afc:	6e601c64 	bsl	v4.16b, v3.16b, v0.16b
  411b00:	b0000000 	adrp	x0, 412000 <_Z19MD5Hash_simdversionPKNSt7__cxx1112basic_stringIcSt11char_traitsIcESaIcEEEP12__Uint32x4_t+0x1480>
  411b04:	3dc31006 	ldr	q6, [x0, #3136]
  411b08:	4ea686e6 	add	v6.4s, v23.4s, v6.4s
  411b0c:	4ea184c1 	add	v1.4s, v6.4s, v1.4s
  411b10:	4ea18481 	add	v1.4s, v4.4s, v1.4s
  411b14:	4f365424 	shl	v4.4s, v1.4s, #22
  411b18:	6f360421 	ushr	v1.4s, v1.4s, #10
  411b1c:	4ea11c81 	orr	v1.16b, v4.16b, v1.16b
  411b20:	4ea28421 	add	v1.4s, v1.4s, v2.4s
  411b24:	3dc057f0 	ldr	q16, [sp, #336]
  411b28:	4ea11c24 	mov	v4.16b, v1.16b
  411b2c:	6e631c44 	bsl	v4.16b, v2.16b, v3.16b
  411b30:	b0000000 	adrp	x0, 412000 <_Z19MD5Hash_simdversionPKNSt7__cxx1112basic_stringIcSt11char_traitsIcESaIcEEEP12__Uint32x4_t+0x1480>
  411b34:	3dc31406 	ldr	q6, [x0, #3152]
  411b38:	4ea68606 	add	v6.4s, v16.4s, v6.4s
  411b3c:	4ea084c0 	add	v0.4s, v6.4s, v0.4s
  411b40:	4ea08480 	add	v0.4s, v4.4s, v0.4s
  411b44:	4f275404 	shl	v4.4s, v0.4s, #7
  411b48:	6f270400 	ushr	v0.4s, v0.4s, #25
  411b4c:	4ea01c80 	orr	v0.16b, v4.16b, v0.16b
  411b50:	4ea18400 	add	v0.4s, v0.4s, v1.4s
  411b54:	3dc05be4 	ldr	q4, [sp, #352]
  411b58:	4ea01c06 	mov	v6.16b, v0.16b
  411b5c:	6e621c26 	bsl	v6.16b, v1.16b, v2.16b
  411b60:	b0000000 	adrp	x0, 412000 <_Z19MD5Hash_simdversionPKNSt7__cxx1112basic_stringIcSt11char_traitsIcESaIcEEEP12__Uint32x4_t+0x1480>
  411b64:	3dc31808 	ldr	q8, [x0, #3168]
  411b68:	4ea88488 	add	v8.4s, v4.4s, v8.4s
  411b6c:	4ea38503 	add	v3.4s, v8.4s, v3.4s
  411b70:	4ea384c3 	add	v3.4s, v6.4s, v3.4s
  411b74:	4f2c5466 	shl	v6.4s, v3.4s, #12
  411b78:	6f2c0463 	ushr	v3.4s, v3.4s, #20
  411b7c:	4ea31cc3 	orr	v3.16b, v6.16b, v3.16b
  411b80:	4ea08463 	add	v3.4s, v3.4s, v0.4s
  411b84:	3dc05ff2 	ldr	q18, [sp, #368]
  411b88:	4ea31c66 	mov	v6.16b, v3.16b
  411b8c:	6e611c06 	bsl	v6.16b, v0.16b, v1.16b
  411b90:	b0000000 	adrp	x0, 412000 <_Z19MD5Hash_simdversionPKNSt7__cxx1112basic_stringIcSt11char_traitsIcESaIcEEEP12__Uint32x4_t+0x1480>
  411b94:	3dc31c08 	ldr	q8, [x0, #3184]
  411b98:	4ea88648 	add	v8.4s, v18.4s, v8.4s
  411b9c:	4ea28502 	add	v2.4s, v8.4s, v2.4s
  411ba0:	4ea284c2 	add	v2.4s, v6.4s, v2.4s
  411ba4:	4f315446 	shl	v6.4s, v2.4s, #17
  411ba8:	6f310442 	ushr	v2.4s, v2.4s, #15
  411bac:	4ea21cc2 	orr	v2.16b, v6.16b, v2.16b
  411bb0:	4ea38442 	add	v2.4s, v2.4s, v3.4s
  411bb4:	3dc063e6 	ldr	q6, [sp, #384]
  411bb8:	4ea21c48 	mov	v8.16b, v2.16b
  411bbc:	6e601c68 	bsl	v8.16b, v3.16b, v0.16b
  411bc0:	b0000000 	adrp	x0, 412000 <_Z19MD5Hash_simdversionPKNSt7__cxx1112basic_stringIcSt11char_traitsIcESaIcEEEP12__Uint32x4_t+0x1480>
  411bc4:	3dc3200a 	ldr	q10, [x0, #3200]
  411bc8:	4eaa84ca 	add	v10.4s, v6.4s, v10.4s
  411bcc:	4ea18541 	add	v1.4s, v10.4s, v1.4s
  411bd0:	4ea18501 	add	v1.4s, v8.4s, v1.4s
  411bd4:	4f365428 	shl	v8.4s, v1.4s, #22
  411bd8:	6f360421 	ushr	v1.4s, v1.4s, #10
  411bdc:	4ea11d01 	orr	v1.16b, v8.16b, v1.16b
  411be0:	4ea28421 	add	v1.4s, v1.4s, v2.4s
  411be4:	3dc067f4 	ldr	q20, [sp, #400]
  411be8:	4ea11c28 	mov	v8.16b, v1.16b
  411bec:	6e631c48 	bsl	v8.16b, v2.16b, v3.16b
  411bf0:	b0000000 	adrp	x0, 412000 <_Z19MD5Hash_simdversionPKNSt7__cxx1112basic_stringIcSt11char_traitsIcESaIcEEEP12__Uint32x4_t+0x1480>
  411bf4:	3dc3240a 	ldr	q10, [x0, #3216]
  411bf8:	4eaa868a 	add	v10.4s, v20.4s, v10.4s
  411bfc:	4ea08540 	add	v0.4s, v10.4s, v0.4s
  411c00:	4ea08500 	add	v0.4s, v8.4s, v0.4s
  411c04:	4f275408 	shl	v8.4s, v0.4s, #7
  411c08:	6f270400 	ushr	v0.4s, v0.4s, #25
  411c0c:	4ea01d00 	orr	v0.16b, v8.16b, v0.16b
  411c10:	4ea18400 	add	v0.4s, v0.4s, v1.4s
  411c14:	3dc06be8 	ldr	q8, [sp, #416]
  411c18:	4ea01c0a 	mov	v10.16b, v0.16b
  411c1c:	6e621c2a 	bsl	v10.16b, v1.16b, v2.16b
  411c20:	b0000000 	adrp	x0, 412000 <_Z19MD5Hash_simdversionPKNSt7__cxx1112basic_stringIcSt11char_traitsIcESaIcEEEP12__Uint32x4_t+0x1480>
  411c24:	3dc32816 	ldr	q22, [x0, #3232]
  411c28:	4eb68516 	add	v22.4s, v8.4s, v22.4s
  411c2c:	4ea386c3 	add	v3.4s, v22.4s, v3.4s
  411c30:	4ea38543 	add	v3.4s, v10.4s, v3.4s
  411c34:	4f2c547d 	shl	v29.4s, v3.4s, #12
  411c38:	6f2c0463 	ushr	v3.4s, v3.4s, #20
  411c3c:	4ea31fbd 	orr	v29.16b, v29.16b, v3.16b
  411c40:	4ea087bd 	add	v29.4s, v29.4s, v0.4s
  411c44:	3dc06ff6 	ldr	q22, [sp, #432]
  411c48:	4ebd1fa3 	mov	v3.16b, v29.16b
  411c4c:	6e611c03 	bsl	v3.16b, v0.16b, v1.16b
  411c50:	b0000000 	adrp	x0, 412000 <_Z19MD5Hash_simdversionPKNSt7__cxx1112basic_stringIcSt11char_traitsIcESaIcEEEP12__Uint32x4_t+0x1480>
  411c54:	3dc32c0a 	ldr	q10, [x0, #3248]
  411c58:	4eaa86ca 	add	v10.4s, v22.4s, v10.4s
  411c5c:	4ea28542 	add	v2.4s, v10.4s, v2.4s
  411c60:	4ea28462 	add	v2.4s, v3.4s, v2.4s
  411c64:	4f315443 	shl	v3.4s, v2.4s, #17
  411c68:	6f310442 	ushr	v2.4s, v2.4s, #15
  411c6c:	4ea21c62 	orr	v2.16b, v3.16b, v2.16b
  411c70:	4ebd8442 	add	v2.4s, v2.4s, v29.4s
  411c74:	3dc073ea 	ldr	q10, [sp, #448]
  411c78:	4ea21c43 	mov	v3.16b, v2.16b
  411c7c:	6e601fa3 	bsl	v3.16b, v29.16b, v0.16b
  411c80:	b0000000 	adrp	x0, 412000 <_Z19MD5Hash_simdversionPKNSt7__cxx1112basic_stringIcSt11char_traitsIcESaIcEEEP12__Uint32x4_t+0x1480>
  411c84:	3dc3301e 	ldr	q30, [x0, #3264]
  411c88:	4ebe855e 	add	v30.4s, v10.4s, v30.4s
  411c8c:	4ea187c1 	add	v1.4s, v30.4s, v1.4s
  411c90:	4ea18461 	add	v1.4s, v3.4s, v1.4s
  411c94:	4f365423 	shl	v3.4s, v1.4s, #22
  411c98:	6f360421 	ushr	v1.4s, v1.4s, #10
  411c9c:	4ea11c61 	orr	v1.16b, v3.16b, v1.16b
  411ca0:	4ea28421 	add	v1.4s, v1.4s, v2.4s
  411ca4:	4ebd1fa3 	mov	v3.16b, v29.16b
  411ca8:	6e621c23 	bsl	v3.16b, v1.16b, v2.16b
  411cac:	b0000000 	adrp	x0, 412000 <_Z19MD5Hash_simdversionPKNSt7__cxx1112basic_stringIcSt11char_traitsIcESaIcEEEP12__Uint32x4_t+0x1480>
  411cb0:	3dc3341e 	ldr	q30, [x0, #3280]
  411cb4:	4ebe863e 	add	v30.4s, v17.4s, v30.4s
  411cb8:	4ea087c0 	add	v0.4s, v30.4s, v0.4s
  411cbc:	4ea08460 	add	v0.4s, v3.4s, v0.4s
  411cc0:	4f255403 	shl	v3.4s, v0.4s, #5
  411cc4:	6f250400 	ushr	v0.4s, v0.4s, #27
  411cc8:	4ea01c63 	orr	v3.16b, v3.16b, v0.16b
  411ccc:	4ea18463 	add	v3.4s, v3.4s, v1.4s
  411cd0:	4ea21c40 	mov	v0.16b, v2.16b
  411cd4:	6e611c60 	bsl	v0.16b, v3.16b, v1.16b
  411cd8:	b0000000 	adrp	x0, 412000 <_Z19MD5Hash_simdversionPKNSt7__cxx1112basic_stringIcSt11char_traitsIcESaIcEEEP12__Uint32x4_t+0x1480>
  411cdc:	3dc3381e 	ldr	q30, [x0, #3296]
  411ce0:	4ebe853e 	add	v30.4s, v9.4s, v30.4s
  411ce4:	4ebd87dd 	add	v29.4s, v30.4s, v29.4s
  411ce8:	4ebd8400 	add	v0.4s, v0.4s, v29.4s
  411cec:	4f29541d 	shl	v29.4s, v0.4s, #9
  411cf0:	6f290400 	ushr	v0.4s, v0.4s, #23
  411cf4:	4ea01fa0 	orr	v0.16b, v29.16b, v0.16b
  411cf8:	4ea38400 	add	v0.4s, v0.4s, v3.4s
  411cfc:	4ea11c3d 	mov	v29.16b, v1.16b
  411d00:	6e631c1d 	bsl	v29.16b, v0.16b, v3.16b
  411d04:	b0000000 	adrp	x0, 412000 <_Z19MD5Hash_simdversionPKNSt7__cxx1112basic_stringIcSt11char_traitsIcESaIcEEEP12__Uint32x4_t+0x1480>
  411d08:	3dc33c1e 	ldr	q30, [x0, #3312]
  411d0c:	4ebe84de 	add	v30.4s, v6.4s, v30.4s
  411d10:	4ea287c2 	add	v2.4s, v30.4s, v2.4s
  411d14:	4ea287a2 	add	v2.4s, v29.4s, v2.4s
  411d18:	4f2e545d 	shl	v29.4s, v2.4s, #14
  411d1c:	6f2e0442 	ushr	v2.4s, v2.4s, #18
  411d20:	4ea21fa2 	orr	v2.16b, v29.16b, v2.16b
  411d24:	4ea08442 	add	v2.4s, v2.4s, v0.4s
  411d28:	4ea31c7d 	mov	v29.16b, v3.16b
  411d2c:	6e601c5d 	bsl	v29.16b, v2.16b, v0.16b
  411d30:	b0000000 	adrp	x0, 412000 <_Z19MD5Hash_simdversionPKNSt7__cxx1112basic_stringIcSt11char_traitsIcESaIcEEEP12__Uint32x4_t+0x1480>
  411d34:	3dc3401e 	ldr	q30, [x0, #3328]
  411d38:	4ebe871e 	add	v30.4s, v24.4s, v30.4s
  411d3c:	4ea187c1 	add	v1.4s, v30.4s, v1.4s
  411d40:	4ea187a1 	add	v1.4s, v29.4s, v1.4s
  411d44:	4f34543d 	shl	v29.4s, v1.4s, #20
  411d48:	6f340421 	ushr	v1.4s, v1.4s, #12
  411d4c:	4ea11fa1 	orr	v1.16b, v29.16b, v1.16b
  411d50:	4ea28421 	add	v1.4s, v1.4s, v2.4s
  411d54:	4ea01c1d 	mov	v29.16b, v0.16b
  411d58:	6e621c3d 	bsl	v29.16b, v1.16b, v2.16b
  411d5c:	b0000000 	adrp	x0, 412000 <_Z19MD5Hash_simdversionPKNSt7__cxx1112basic_stringIcSt11char_traitsIcESaIcEEEP12__Uint32x4_t+0x1480>
  411d60:	3dc3441e 	ldr	q30, [x0, #3344]
  411d64:	4ebe86be 	add	v30.4s, v21.4s, v30.4s
  411d68:	4ea387c3 	add	v3.4s, v30.4s, v3.4s
  411d6c:	4ea387a3 	add	v3.4s, v29.4s, v3.4s
  411d70:	4f25547d 	shl	v29.4s, v3.4s, #5
  411d74:	6f250463 	ushr	v3.4s, v3.4s, #27
  411d78:	4ea31fa3 	orr	v3.16b, v29.16b, v3.16b
  411d7c:	4ea18463 	add	v3.4s, v3.4s, v1.4s
  411d80:	4ea21c5d 	mov	v29.16b, v2.16b
  411d84:	6e611c7d 	bsl	v29.16b, v3.16b, v1.16b
  411d88:	b0000000 	adrp	x0, 412000 <_Z19MD5Hash_simdversionPKNSt7__cxx1112basic_stringIcSt11char_traitsIcESaIcEEEP12__Uint32x4_t+0x1480>
  411d8c:	3dc3481e 	ldr	q30, [x0, #3360]
  411d90:	4ebe865e 	add	v30.4s, v18.4s, v30.4s
  411d94:	4ea087c0 	add	v0.4s, v30.4s, v0.4s
  411d98:	4ea087a0 	add	v0.4s, v29.4s, v0.4s
  411d9c:	4f29541d 	shl	v29.4s, v0.4s, #9
  411da0:	6f290400 	ushr	v0.4s, v0.4s, #23
  411da4:	4ea01fa0 	orr	v0.16b, v29.16b, v0.16b
  411da8:	4ea38400 	add	v0.4s, v0.4s, v3.4s
  411dac:	4ea11c3d 	mov	v29.16b, v1.16b
  411db0:	6e631c1d 	bsl	v29.16b, v0.16b, v3.16b
  411db4:	b0000000 	adrp	x0, 412000 <_Z19MD5Hash_simdversionPKNSt7__cxx1112basic_stringIcSt11char_traitsIcESaIcEEEP12__Uint32x4_t+0x1480>
  411db8:	3dc34c1e 	ldr	q30, [x0, #3376]
  411dbc:	4ebe855e 	add	v30.4s, v10.4s, v30.4s
  411dc0:	4ea287c2 	add	v2.4s, v30.4s, v2.4s
  411dc4:	4ea287a2 	add	v2.4s, v29.4s, v2.4s
  411dc8:	4f2e545d 	shl	v29.4s, v2.4s, #14
  411dcc:	6f2e0442 	ushr	v2.4s, v2.4s, #18
  411dd0:	4ea21fa2 	orr	v2.16b, v29.16b, v2.16b
  411dd4:	4ea08442 	add	v2.4s, v2.4s, v0.4s
  411dd8:	4ea31c7d 	mov	v29.16b, v3.16b
  411ddc:	6e601c5d 	bsl	v29.16b, v2.16b, v0.16b
  411de0:	b0000000 	adrp	x0, 412000 <_Z19MD5Hash_simdversionPKNSt7__cxx1112basic_stringIcSt11char_traitsIcESaIcEEEP12__Uint32x4_t+0x1480>
  411de4:	3dc3501e 	ldr	q30, [x0, #3392]
  411de8:	4ebe84fe 	add	v30.4s, v7.4s, v30.4s
  411dec:	4ea187c1 	add	v1.4s, v30.4s, v1.4s
  411df0:	4ea187a1 	add	v1.4s, v29.4s, v1.4s
  411df4:	4f34543d 	shl	v29.4s, v1.4s, #20
  411df8:	6f340421 	ushr	v1.4s, v1.4s, #12
  411dfc:	4ea11fa1 	orr	v1.16b, v29.16b, v1.16b
  411e00:	4ea28421 	add	v1.4s, v1.4s, v2.4s
  411e04:	4ea01c1d 	mov	v29.16b, v0.16b
  411e08:	6e621c3d 	bsl	v29.16b, v1.16b, v2.16b
  411e0c:	b0000000 	adrp	x0, 412000 <_Z19MD5Hash_simdversionPKNSt7__cxx1112basic_stringIcSt11char_traitsIcESaIcEEEP12__Uint32x4_t+0x1480>
  411e10:	3dc3541e 	ldr	q30, [x0, #3408]
  411e14:	4ebe849e 	add	v30.4s, v4.4s, v30.4s
  411e18:	4ea387c3 	add	v3.4s, v30.4s, v3.4s
  411e1c:	4ea387a3 	add	v3.4s, v29.4s, v3.4s
  411e20:	4f25547d 	shl	v29.4s, v3.4s, #5
  411e24:	6f250463 	ushr	v3.4s, v3.4s, #27
  411e28:	4ea31fa3 	orr	v3.16b, v29.16b, v3.16b
  411e2c:	4ea18463 	add	v3.4s, v3.4s, v1.4s
  411e30:	4ea21c5d 	mov	v29.16b, v2.16b
  411e34:	6e611c7d 	bsl	v29.16b, v3.16b, v1.16b
  411e38:	b0000000 	adrp	x0, 412000 <_Z19MD5Hash_simdversionPKNSt7__cxx1112basic_stringIcSt11char_traitsIcESaIcEEEP12__Uint32x4_t+0x1480>
  411e3c:	3dc3581e 	ldr	q30, [x0, #3424]
  411e40:	4ebe86de 	add	v30.4s, v22.4s, v30.4s
  411e44:	4ea087c0 	add	v0.4s, v30.4s, v0.4s
  411e48:	4ea087a0 	add	v0.4s, v29.4s, v0.4s
  411e4c:	4f29541d 	shl	v29.4s, v0.4s, #9
  411e50:	6f290400 	ushr	v0.4s, v0.4s, #23
  411e54:	4ea01fa0 	orr	v0.16b, v29.16b, v0.16b
  411e58:	4ea38400 	add	v0.4s, v0.4s, v3.4s
  411e5c:	4ea11c3d 	mov	v29.16b, v1.16b
  411e60:	6e631c1d 	bsl	v29.16b, v0.16b, v3.16b
  411e64:	b0000000 	adrp	x0, 412000 <_Z19MD5Hash_simdversionPKNSt7__cxx1112basic_stringIcSt11char_traitsIcESaIcEEEP12__Uint32x4_t+0x1480>
  411e68:	3dc35c1e 	ldr	q30, [x0, #3440]
  411e6c:	4ebe867e 	add	v30.4s, v19.4s, v30.4s
  411e70:	4ea287c2 	add	v2.4s, v30.4s, v2.4s
  411e74:	4ea287a2 	add	v2.4s, v29.4s, v2.4s
  411e78:	4f2e545d 	shl	v29.4s, v2.4s, #14
  411e7c:	6f2e0442 	ushr	v2.4s, v2.4s, #18
  411e80:	4ea21fa2 	orr	v2.16b, v29.16b, v2.16b
  411e84:	4ea08442 	add	v2.4s, v2.4s, v0.4s
  411e88:	4ea31c7d 	mov	v29.16b, v3.16b
  411e8c:	6e601c5d 	bsl	v29.16b, v2.16b, v0.16b
  411e90:	b0000000 	adrp	x0, 412000 <_Z19MD5Hash_simdversionPKNSt7__cxx1112basic_stringIcSt11char_traitsIcESaIcEEEP12__Uint32x4_t+0x1480>
  411e94:	3dc3601e 	ldr	q30, [x0, #3456]
  411e98:	4ebe861e 	add	v30.4s, v16.4s, v30.4s
  411e9c:	4ea187c1 	add	v1.4s, v30.4s, v1.4s
  411ea0:	4ea187a1 	add	v1.4s, v29.4s, v1.4s
  411ea4:	4f34543d 	shl	v29.4s, v1.4s, #20
  411ea8:	6f340421 	ushr	v1.4s, v1.4s, #12
  411eac:	4ea11fa1 	orr	v1.16b, v29.16b, v1.16b
  411eb0:	4ea28421 	add	v1.4s, v1.4s, v2.4s
  411eb4:	4ea01c1d 	mov	v29.16b, v0.16b
  411eb8:	6e621c3d 	bsl	v29.16b, v1.16b, v2.16b
  411ebc:	b0000000 	adrp	x0, 412000 <_Z19MD5Hash_simdversionPKNSt7__cxx1112basic_stringIcSt11char_traitsIcESaIcEEEP12__Uint32x4_t+0x1480>
  411ec0:	3dc3641e 	ldr	q30, [x0, #3472]
  411ec4:	4ebe851e 	add	v30.4s, v8.4s, v30.4s
  411ec8:	4ea387c3 	add	v3.4s, v30.4s, v3.4s
  411ecc:	4ea387a3 	add	v3.4s, v29.4s, v3.4s
  411ed0:	4f25547e 	shl	v30.4s, v3.4s, #5
  411ed4:	6f250463 	ushr	v3.4s, v3.4s, #27
  411ed8:	4ea31fde 	orr	v30.16b, v30.16b, v3.16b
  411edc:	4ea187de 	add	v30.4s, v30.4s, v1.4s
  411ee0:	4ea21c43 	mov	v3.16b, v2.16b
  411ee4:	6e611fc3 	bsl	v3.16b, v30.16b, v1.16b
  411ee8:	b0000000 	adrp	x0, 412000 <_Z19MD5Hash_simdversionPKNSt7__cxx1112basic_stringIcSt11char_traitsIcESaIcEEEP12__Uint32x4_t+0x1480>
  411eec:	3dc3681d 	ldr	q29, [x0, #3488]
  411ef0:	4ebd84bd 	add	v29.4s, v5.4s, v29.4s
  411ef4:	4ea087a0 	add	v0.4s, v29.4s, v0.4s
  411ef8:	4ea08460 	add	v0.4s, v3.4s, v0.4s
  411efc:	4f295403 	shl	v3.4s, v0.4s, #9
  411f00:	6f290400 	ushr	v0.4s, v0.4s, #23
  411f04:	4ea01c60 	orr	v0.16b, v3.16b, v0.16b
  411f08:	4ebe8400 	add	v0.4s, v0.4s, v30.4s
  411f0c:	4ea11c23 	mov	v3.16b, v1.16b
  411f10:	6e7e1c03 	bsl	v3.16b, v0.16b, v30.16b
  411f14:	b0000000 	adrp	x0, 412000 <_Z19MD5Hash_simdversionPKNSt7__cxx1112basic_stringIcSt11char_traitsIcESaIcEEEP12__Uint32x4_t+0x1480>
  411f18:	3dc36c1d 	ldr	q29, [x0, #3504]
  411f1c:	4ebd86fd 	add	v29.4s, v23.4s, v29.4s
  411f20:	4ea287a2 	add	v2.4s, v29.4s, v2.4s
  411f24:	4ea28462 	add	v2.4s, v3.4s, v2.4s
  411f28:	4f2e5443 	shl	v3.4s, v2.4s, #14
  411f2c:	6f2e0442 	ushr	v2.4s, v2.4s, #18
  411f30:	4ea21c63 	orr	v3.16b, v3.16b, v2.16b
  411f34:	4ea08463 	add	v3.4s, v3.4s, v0.4s
  411f38:	6e231c1d 	eor	v29.16b, v0.16b, v3.16b
  411f3c:	4ebe1fc2 	mov	v2.16b, v30.16b
  411f40:	6e601c62 	bsl	v2.16b, v3.16b, v0.16b
  411f44:	b0000000 	adrp	x0, 412000 <_Z19MD5Hash_simdversionPKNSt7__cxx1112basic_stringIcSt11char_traitsIcESaIcEEEP12__Uint32x4_t+0x1480>
  411f48:	3dc3701f 	ldr	q31, [x0, #3520]
  411f4c:	4ebf869f 	add	v31.4s, v20.4s, v31.4s
  411f50:	4ea187e1 	add	v1.4s, v31.4s, v1.4s
  411f54:	4ea18441 	add	v1.4s, v2.4s, v1.4s
  411f58:	4f345422 	shl	v2.4s, v1.4s, #20
  411f5c:	6f340421 	ushr	v1.4s, v1.4s, #12
  411f60:	4ea11c42 	orr	v2.16b, v2.16b, v1.16b
  411f64:	4ea38442 	add	v2.4s, v2.4s, v3.4s
  411f68:	b0000000 	adrp	x0, 412000 <_Z19MD5Hash_simdversionPKNSt7__cxx1112basic_stringIcSt11char_traitsIcESaIcEEEP12__Uint32x4_t+0x1480>
  411f6c:	3dc37401 	ldr	q1, [x0, #3536]
  411f70:	4ea186a1 	add	v1.4s, v21.4s, v1.4s
  411f74:	4ebe8421 	add	v1.4s, v1.4s, v30.4s
  411f78:	6e221fbd 	eor	v29.16b, v29.16b, v2.16b
  411f7c:	4ebd8421 	add	v1.4s, v1.4s, v29.4s
  411f80:	4f24543f 	shl	v31.4s, v1.4s, #4
  411f84:	6f240421 	ushr	v1.4s, v1.4s, #28
  411f88:	4ea11fff 	orr	v31.16b, v31.16b, v1.16b
  411f8c:	4ea287ff 	add	v31.4s, v31.4s, v2.4s
  411f90:	6e221c61 	eor	v1.16b, v3.16b, v2.16b
  411f94:	6e3f1c21 	eor	v1.16b, v1.16b, v31.16b
  411f98:	b0000000 	adrp	x0, 412000 <_Z19MD5Hash_simdversionPKNSt7__cxx1112basic_stringIcSt11char_traitsIcESaIcEEEP12__Uint32x4_t+0x1480>
  411f9c:	3dc3781d 	ldr	q29, [x0, #3552]
  411fa0:	4ebd861d 	add	v29.4s, v16.4s, v29.4s
  411fa4:	4ea087a0 	add	v0.4s, v29.4s, v0.4s
  411fa8:	4ea08420 	add	v0.4s, v1.4s, v0.4s
  411fac:	4f2b541e 	shl	v30.4s, v0.4s, #11
  411fb0:	6f2b0400 	ushr	v0.4s, v0.4s, #21
  411fb4:	4ea01fde 	orr	v30.16b, v30.16b, v0.16b
  411fb8:	4ebf87de 	add	v30.4s, v30.4s, v31.4s
  411fbc:	6e3f1c40 	eor	v0.16b, v2.16b, v31.16b
  411fc0:	6e3e1c00 	eor	v0.16b, v0.16b, v30.16b
  411fc4:	b0000000 	adrp	x0, 412000 <_Z19MD5Hash_simdversionPKNSt7__cxx1112basic_stringIcSt11char_traitsIcESaIcEEEP12__Uint32x4_t+0x1480>
  411fc8:	3dc37c01 	ldr	q1, [x0, #3568]
  411fcc:	4ea184c1 	add	v1.4s, v6.4s, v1.4s
  411fd0:	4ea38421 	add	v1.4s, v1.4s, v3.4s
  411fd4:	4ea18400 	add	v0.4s, v0.4s, v1.4s
  411fd8:	4f30541d 	shl	v29.4s, v0.4s, #16
  411fdc:	6f300400 	ushr	v0.4s, v0.4s, #16
  411fe0:	4ea01fbd 	orr	v29.16b, v29.16b, v0.16b
  411fe4:	4ebe87bd 	add	v29.4s, v29.4s, v30.4s
  411fe8:	6e3e1fe0 	eor	v0.16b, v31.16b, v30.16b
  411fec:	6e3d1c00 	eor	v0.16b, v0.16b, v29.16b
  411ff0:	b0000000 	adrp	x0, 412000 <_Z19MD5Hash_simdversionPKNSt7__cxx1112basic_stringIcSt11char_traitsIcESaIcEEEP12__Uint32x4_t+0x1480>
  411ff4:	3dc38001 	ldr	q1, [x0, #3584]
  411ff8:	4ea186c1 	add	v1.4s, v22.4s, v1.4s
  411ffc:	4ea28421 	add	v1.4s, v1.4s, v2.4s
  412000:	4ea18400 	add	v0.4s, v0.4s, v1.4s
  412004:	4f375401 	shl	v1.4s, v0.4s, #23
  412008:	6f370400 	ushr	v0.4s, v0.4s, #9
  41200c:	4ea01c21 	orr	v1.16b, v1.16b, v0.16b
  412010:	4ebd8421 	add	v1.4s, v1.4s, v29.4s
  412014:	6e3d1fc0 	eor	v0.16b, v30.16b, v29.16b
  412018:	6e211c00 	eor	v0.16b, v0.16b, v1.16b
  41201c:	90000000 	adrp	x0, 412000 <_Z19MD5Hash_simdversionPKNSt7__cxx1112basic_stringIcSt11char_traitsIcESaIcEEEP12__Uint32x4_t+0x1480>
  412020:	3dc38402 	ldr	q2, [x0, #3600]
  412024:	4ea28622 	add	v2.4s, v17.4s, v2.4s
  412028:	4ebf8442 	add	v2.4s, v2.4s, v31.4s
  41202c:	4ea28400 	add	v0.4s, v0.4s, v2.4s
  412030:	4f245402 	shl	v2.4s, v0.4s, #4
  412034:	6f240400 	ushr	v0.4s, v0.4s, #28
  412038:	4ea01c40 	orr	v0.16b, v2.16b, v0.16b
  41203c:	4ea18400 	add	v0.4s, v0.4s, v1.4s
  412040:	6e211fa2 	eor	v2.16b, v29.16b, v1.16b
  412044:	6e201c42 	eor	v2.16b, v2.16b, v0.16b
  412048:	90000000 	adrp	x0, 412000 <_Z19MD5Hash_simdversionPKNSt7__cxx1112basic_stringIcSt11char_traitsIcESaIcEEEP12__Uint32x4_t+0x1480>
  41204c:	3dc38803 	ldr	q3, [x0, #3616]
  412050:	4ea384e3 	add	v3.4s, v7.4s, v3.4s
  412054:	4ebe8463 	add	v3.4s, v3.4s, v30.4s
  412058:	4ea38442 	add	v2.4s, v2.4s, v3.4s
  41205c:	4f2b5443 	shl	v3.4s, v2.4s, #11
  412060:	6f2b0442 	ushr	v2.4s, v2.4s, #21
  412064:	4ea21c63 	orr	v3.16b, v3.16b, v2.16b
  412068:	4ea08463 	add	v3.4s, v3.4s, v0.4s
  41206c:	6e201c22 	eor	v2.16b, v1.16b, v0.16b
  412070:	6e231c42 	eor	v2.16b, v2.16b, v3.16b
  412074:	90000000 	adrp	x0, 412000 <_Z19MD5Hash_simdversionPKNSt7__cxx1112basic_stringIcSt11char_traitsIcESaIcEEEP12__Uint32x4_t+0x1480>
  412078:	3dc38c1e 	ldr	q30, [x0, #3632]
  41207c:	4ebe86fe 	add	v30.4s, v23.4s, v30.4s
  412080:	4ebd87dd 	add	v29.4s, v30.4s, v29.4s
  412084:	4ebd8442 	add	v2.4s, v2.4s, v29.4s
  412088:	4f30545d 	shl	v29.4s, v2.4s, #16
  41208c:	6f300442 	ushr	v2.4s, v2.4s, #16
  412090:	4ea21fa2 	orr	v2.16b, v29.16b, v2.16b
  412094:	4ea38442 	add	v2.4s, v2.4s, v3.4s
  412098:	6e231c1d 	eor	v29.16b, v0.16b, v3.16b
  41209c:	6e221fbd 	eor	v29.16b, v29.16b, v2.16b
  4120a0:	90000000 	adrp	x0, 412000 <_Z19MD5Hash_simdversionPKNSt7__cxx1112basic_stringIcSt11char_traitsIcESaIcEEEP12__Uint32x4_t+0x1480>
  4120a4:	3dc3901e 	ldr	q30, [x0, #3648]
  4120a8:	4ebe865e 	add	v30.4s, v18.4s, v30.4s
  4120ac:	4ea187c1 	add	v1.4s, v30.4s, v1.4s
  4120b0:	4ea187a1 	add	v1.4s, v29.4s, v1.4s
  4120b4:	4f37543d 	shl	v29.4s, v1.4s, #23
  4120b8:	6f370421 	ushr	v1.4s, v1.4s, #9
  4120bc:	4ea11fa1 	orr	v1.16b, v29.16b, v1.16b
  4120c0:	4ea28421 	add	v1.4s, v1.4s, v2.4s
  4120c4:	6e221c7d 	eor	v29.16b, v3.16b, v2.16b
  4120c8:	6e211fbd 	eor	v29.16b, v29.16b, v1.16b
  4120cc:	90000000 	adrp	x0, 412000 <_Z19MD5Hash_simdversionPKNSt7__cxx1112basic_stringIcSt11char_traitsIcESaIcEEEP12__Uint32x4_t+0x1480>
  4120d0:	3dc3941e 	ldr	q30, [x0, #3664]
  4120d4:	4ebe851e 	add	v30.4s, v8.4s, v30.4s
  4120d8:	4ea087c0 	add	v0.4s, v30.4s, v0.4s
  4120dc:	4ea087a0 	add	v0.4s, v29.4s, v0.4s
  4120e0:	4f24541d 	shl	v29.4s, v0.4s, #4
  4120e4:	6f240400 	ushr	v0.4s, v0.4s, #28
  4120e8:	4ea01fa0 	orr	v0.16b, v29.16b, v0.16b
  4120ec:	4ea18400 	add	v0.4s, v0.4s, v1.4s
  4120f0:	6e211c5d 	eor	v29.16b, v2.16b, v1.16b
  4120f4:	6e201fbd 	eor	v29.16b, v29.16b, v0.16b
  4120f8:	90000000 	adrp	x0, 412000 <_Z19MD5Hash_simdversionPKNSt7__cxx1112basic_stringIcSt11char_traitsIcESaIcEEEP12__Uint32x4_t+0x1480>
  4120fc:	3dc3981e 	ldr	q30, [x0, #3680]
  412100:	4ebe871e 	add	v30.4s, v24.4s, v30.4s
  412104:	4ea387c3 	add	v3.4s, v30.4s, v3.4s
  412108:	4ea387a3 	add	v3.4s, v29.4s, v3.4s
  41210c:	4f2b547d 	shl	v29.4s, v3.4s, #11
  412110:	6f2b0463 	ushr	v3.4s, v3.4s, #21
  412114:	4ea31fa3 	orr	v3.16b, v29.16b, v3.16b
  412118:	4ea08463 	add	v3.4s, v3.4s, v0.4s
  41211c:	6e201c3d 	eor	v29.16b, v1.16b, v0.16b
  412120:	6e231fbd 	eor	v29.16b, v29.16b, v3.16b
  412124:	90000000 	adrp	x0, 412000 <_Z19MD5Hash_simdversionPKNSt7__cxx1112basic_stringIcSt11char_traitsIcESaIcEEEP12__Uint32x4_t+0x1480>
  412128:	3dc39c1e 	ldr	q30, [x0, #3696]
  41212c:	4ebe867e 	add	v30.4s, v19.4s, v30.4s
  412130:	4ea287c2 	add	v2.4s, v30.4s, v2.4s
  412134:	4ea287a2 	add	v2.4s, v29.4s, v2.4s
  412138:	4f30545d 	shl	v29.4s, v2.4s, #16
  41213c:	6f300442 	ushr	v2.4s, v2.4s, #16
  412140:	4ea21fa2 	orr	v2.16b, v29.16b, v2.16b
  412144:	4ea38442 	add	v2.4s, v2.4s, v3.4s
  412148:	6e231c1d 	eor	v29.16b, v0.16b, v3.16b
  41214c:	6e221fbd 	eor	v29.16b, v29.16b, v2.16b
  412150:	90000000 	adrp	x0, 412000 <_Z19MD5Hash_simdversionPKNSt7__cxx1112basic_stringIcSt11char_traitsIcESaIcEEEP12__Uint32x4_t+0x1480>
  412154:	3dc3a01e 	ldr	q30, [x0, #3712]
  412158:	4ebe853e 	add	v30.4s, v9.4s, v30.4s
  41215c:	4ea187c1 	add	v1.4s, v30.4s, v1.4s
  412160:	4ea187a1 	add	v1.4s, v29.4s, v1.4s
  412164:	4f37543d 	shl	v29.4s, v1.4s, #23
  412168:	6f370421 	ushr	v1.4s, v1.4s, #9
  41216c:	4ea11fa1 	orr	v1.16b, v29.16b, v1.16b
  412170:	4ea28421 	add	v1.4s, v1.4s, v2.4s
  412174:	6e221c7d 	eor	v29.16b, v3.16b, v2.16b
  412178:	6e211fbd 	eor	v29.16b, v29.16b, v1.16b
  41217c:	90000000 	adrp	x0, 412000 <_Z19MD5Hash_simdversionPKNSt7__cxx1112basic_stringIcSt11char_traitsIcESaIcEEEP12__Uint32x4_t+0x1480>
  412180:	3dc3a41e 	ldr	q30, [x0, #3728]
  412184:	4ebe849e 	add	v30.4s, v4.4s, v30.4s
  412188:	4ea087c0 	add	v0.4s, v30.4s, v0.4s
  41218c:	4ea087a0 	add	v0.4s, v29.4s, v0.4s
  412190:	4f24541d 	shl	v29.4s, v0.4s, #4
  412194:	6f240400 	ushr	v0.4s, v0.4s, #28
  412198:	4ea01fa0 	orr	v0.16b, v29.16b, v0.16b
  41219c:	4ea18400 	add	v0.4s, v0.4s, v1.4s
  4121a0:	6e211c5d 	eor	v29.16b, v2.16b, v1.16b
  4121a4:	6e201fbd 	eor	v29.16b, v29.16b, v0.16b
  4121a8:	90000000 	adrp	x0, 412000 <_Z19MD5Hash_simdversionPKNSt7__cxx1112basic_stringIcSt11char_traitsIcESaIcEEEP12__Uint32x4_t+0x1480>
  4121ac:	3dc3a81e 	ldr	q30, [x0, #3744]
  4121b0:	4ebe869e 	add	v30.4s, v20.4s, v30.4s
  4121b4:	4ea387c3 	add	v3.4s, v30.4s, v3.4s
  4121b8:	4ea387a3 	add	v3.4s, v29.4s, v3.4s
  4121bc:	4f2b547d 	shl	v29.4s, v3.4s, #11
  4121c0:	6f2b0463 	ushr	v3.4s, v3.4s, #21
  4121c4:	4ea31fa3 	orr	v3.16b, v29.16b, v3.16b
  4121c8:	4ea08463 	add	v3.4s, v3.4s, v0.4s
  4121cc:	6e201c3d 	eor	v29.16b, v1.16b, v0.16b
  4121d0:	6e231fbd 	eor	v29.16b, v29.16b, v3.16b
  4121d4:	90000000 	adrp	x0, 412000 <_Z19MD5Hash_simdversionPKNSt7__cxx1112basic_stringIcSt11char_traitsIcESaIcEEEP12__Uint32x4_t+0x1480>
  4121d8:	3dc3ac1e 	ldr	q30, [x0, #3760]
  4121dc:	4ebe855e 	add	v30.4s, v10.4s, v30.4s
  4121e0:	4ea287c2 	add	v2.4s, v30.4s, v2.4s
  4121e4:	4ea287a2 	add	v2.4s, v29.4s, v2.4s
  4121e8:	4f30545d 	shl	v29.4s, v2.4s, #16
  4121ec:	6f300442 	ushr	v2.4s, v2.4s, #16
  4121f0:	4ea21fa2 	orr	v2.16b, v29.16b, v2.16b
  4121f4:	4ea38442 	add	v2.4s, v2.4s, v3.4s
  4121f8:	6e231c1d 	eor	v29.16b, v0.16b, v3.16b
  4121fc:	6e221fbd 	eor	v29.16b, v29.16b, v2.16b
  412200:	90000000 	adrp	x0, 412000 <_Z19MD5Hash_simdversionPKNSt7__cxx1112basic_stringIcSt11char_traitsIcESaIcEEEP12__Uint32x4_t+0x1480>
  412204:	3dc3b01e 	ldr	q30, [x0, #3776]
  412208:	4ebe84be 	add	v30.4s, v5.4s, v30.4s
  41220c:	4ea187c1 	add	v1.4s, v30.4s, v1.4s
  412210:	4ea187a1 	add	v1.4s, v29.4s, v1.4s
  412214:	4f37543d 	shl	v29.4s, v1.4s, #23
  412218:	6f370421 	ushr	v1.4s, v1.4s, #9
  41221c:	4ea11fa1 	orr	v1.16b, v29.16b, v1.16b
  412220:	4ea28421 	add	v1.4s, v1.4s, v2.4s
  412224:	4ee31c3d 	orn	v29.16b, v1.16b, v3.16b
  412228:	6e221fbd 	eor	v29.16b, v29.16b, v2.16b
  41222c:	90000000 	adrp	x0, 412000 <_Z19MD5Hash_simdversionPKNSt7__cxx1112basic_stringIcSt11char_traitsIcESaIcEEEP12__Uint32x4_t+0x1480>
  412230:	3dc3b41e 	ldr	q30, [x0, #3792]
  412234:	4ebe8718 	add	v24.4s, v24.4s, v30.4s
  412238:	4ea08700 	add	v0.4s, v24.4s, v0.4s
  41223c:	4ea087a0 	add	v0.4s, v29.4s, v0.4s
  412240:	4f265418 	shl	v24.4s, v0.4s, #6
  412244:	6f260400 	ushr	v0.4s, v0.4s, #26
  412248:	4ea01f00 	orr	v0.16b, v24.16b, v0.16b
  41224c:	4ea18400 	add	v0.4s, v0.4s, v1.4s
  412250:	4ee21c18 	orn	v24.16b, v0.16b, v2.16b
  412254:	6e211f18 	eor	v24.16b, v24.16b, v1.16b
  412258:	90000000 	adrp	x0, 412000 <_Z19MD5Hash_simdversionPKNSt7__cxx1112basic_stringIcSt11char_traitsIcESaIcEEEP12__Uint32x4_t+0x1480>
  41225c:	3dc3b81d 	ldr	q29, [x0, #3808]
  412260:	4ebd86f7 	add	v23.4s, v23.4s, v29.4s
  412264:	4ea386e3 	add	v3.4s, v23.4s, v3.4s
  412268:	4ea38703 	add	v3.4s, v24.4s, v3.4s
  41226c:	4f2a5477 	shl	v23.4s, v3.4s, #10
  412270:	6f2a0463 	ushr	v3.4s, v3.4s, #22
  412274:	4ea31ee3 	orr	v3.16b, v23.16b, v3.16b
  412278:	4ea08463 	add	v3.4s, v3.4s, v0.4s
  41227c:	4ee11c77 	orn	v23.16b, v3.16b, v1.16b
  412280:	6e201ef7 	eor	v23.16b, v23.16b, v0.16b
  412284:	90000000 	adrp	x0, 412000 <_Z19MD5Hash_simdversionPKNSt7__cxx1112basic_stringIcSt11char_traitsIcESaIcEEEP12__Uint32x4_t+0x1480>
  412288:	3dc3bc18 	ldr	q24, [x0, #3824]
  41228c:	4eb886d6 	add	v22.4s, v22.4s, v24.4s
  412290:	4ea286c2 	add	v2.4s, v22.4s, v2.4s
  412294:	4ea286e2 	add	v2.4s, v23.4s, v2.4s
  412298:	4f2f5456 	shl	v22.4s, v2.4s, #15
  41229c:	6f2f0442 	ushr	v2.4s, v2.4s, #17
  4122a0:	4ea21ec2 	orr	v2.16b, v22.16b, v2.16b
  4122a4:	4ea38442 	add	v2.4s, v2.4s, v3.4s
  4122a8:	4ee01c56 	orn	v22.16b, v2.16b, v0.16b
  4122ac:	6e231ed6 	eor	v22.16b, v22.16b, v3.16b
  4122b0:	90000000 	adrp	x0, 412000 <_Z19MD5Hash_simdversionPKNSt7__cxx1112basic_stringIcSt11char_traitsIcESaIcEEEP12__Uint32x4_t+0x1480>
  4122b4:	3dc3c017 	ldr	q23, [x0, #3840]
  4122b8:	4eb786b5 	add	v21.4s, v21.4s, v23.4s
  4122bc:	4ea186a1 	add	v1.4s, v21.4s, v1.4s
  4122c0:	4ea186c1 	add	v1.4s, v22.4s, v1.4s
  4122c4:	4f355435 	shl	v21.4s, v1.4s, #21
  4122c8:	6f350421 	ushr	v1.4s, v1.4s, #11
  4122cc:	4ea11ea1 	orr	v1.16b, v21.16b, v1.16b
  4122d0:	4ea28421 	add	v1.4s, v1.4s, v2.4s
  4122d4:	4ee31c35 	orn	v21.16b, v1.16b, v3.16b
  4122d8:	6e221eb5 	eor	v21.16b, v21.16b, v2.16b
  4122dc:	90000000 	adrp	x0, 412000 <_Z19MD5Hash_simdversionPKNSt7__cxx1112basic_stringIcSt11char_traitsIcESaIcEEEP12__Uint32x4_t+0x1480>
  4122e0:	3dc3c416 	ldr	q22, [x0, #3856]
  4122e4:	4eb68694 	add	v20.4s, v20.4s, v22.4s
  4122e8:	4ea08680 	add	v0.4s, v20.4s, v0.4s
  4122ec:	4ea086a0 	add	v0.4s, v21.4s, v0.4s
  4122f0:	4f265414 	shl	v20.4s, v0.4s, #6
  4122f4:	6f260400 	ushr	v0.4s, v0.4s, #26
  4122f8:	4ea01e80 	orr	v0.16b, v20.16b, v0.16b
  4122fc:	4ea18400 	add	v0.4s, v0.4s, v1.4s
  412300:	4ee21c14 	orn	v20.16b, v0.16b, v2.16b
  412304:	6e211e94 	eor	v20.16b, v20.16b, v1.16b
  412308:	90000000 	adrp	x0, 412000 <_Z19MD5Hash_simdversionPKNSt7__cxx1112basic_stringIcSt11char_traitsIcESaIcEEEP12__Uint32x4_t+0x1480>
  41230c:	3dc3c815 	ldr	q21, [x0, #3872]
  412310:	4eb58673 	add	v19.4s, v19.4s, v21.4s
  412314:	4ea38663 	add	v3.4s, v19.4s, v3.4s
  412318:	4ea38683 	add	v3.4s, v20.4s, v3.4s
  41231c:	4f2a5473 	shl	v19.4s, v3.4s, #10
  412320:	6f2a0463 	ushr	v3.4s, v3.4s, #22
  412324:	4ea31e63 	orr	v3.16b, v19.16b, v3.16b
  412328:	4ea08463 	add	v3.4s, v3.4s, v0.4s
  41232c:	4ee11c73 	orn	v19.16b, v3.16b, v1.16b
  412330:	6e201e73 	eor	v19.16b, v19.16b, v0.16b
  412334:	90000000 	adrp	x0, 412000 <_Z19MD5Hash_simdversionPKNSt7__cxx1112basic_stringIcSt11char_traitsIcESaIcEEEP12__Uint32x4_t+0x1480>
  412338:	3dc3cc14 	ldr	q20, [x0, #3888]
  41233c:	4eb48652 	add	v18.4s, v18.4s, v20.4s
  412340:	4ea28642 	add	v2.4s, v18.4s, v2.4s
  412344:	4ea28662 	add	v2.4s, v19.4s, v2.4s
  412348:	4f2f5452 	shl	v18.4s, v2.4s, #15
  41234c:	6f2f0442 	ushr	v2.4s, v2.4s, #17
  412350:	4ea21e42 	orr	v2.16b, v18.16b, v2.16b
  412354:	4ea38442 	add	v2.4s, v2.4s, v3.4s
  412358:	4ee01c52 	orn	v18.16b, v2.16b, v0.16b
  41235c:	6e231e52 	eor	v18.16b, v18.16b, v3.16b
  412360:	90000000 	adrp	x0, 412000 <_Z19MD5Hash_simdversionPKNSt7__cxx1112basic_stringIcSt11char_traitsIcESaIcEEEP12__Uint32x4_t+0x1480>
  412364:	3dc3d013 	ldr	q19, [x0, #3904]
  412368:	4eb38631 	add	v17.4s, v17.4s, v19.4s
  41236c:	4ea18621 	add	v1.4s, v17.4s, v1.4s
  412370:	4ea18641 	add	v1.4s, v18.4s, v1.4s
  412374:	4f355431 	shl	v17.4s, v1.4s, #21
  412378:	6f350421 	ushr	v1.4s, v1.4s, #11
  41237c:	4ea11e21 	orr	v1.16b, v17.16b, v1.16b
  412380:	4ea28421 	add	v1.4s, v1.4s, v2.4s
  412384:	4ee31c31 	orn	v17.16b, v1.16b, v3.16b
  412388:	6e221e31 	eor	v17.16b, v17.16b, v2.16b
  41238c:	90000000 	adrp	x0, 412000 <_Z19MD5Hash_simdversionPKNSt7__cxx1112basic_stringIcSt11char_traitsIcESaIcEEEP12__Uint32x4_t+0x1480>
  412390:	3dc3d412 	ldr	q18, [x0, #3920]
  412394:	4eb28610 	add	v16.4s, v16.4s, v18.4s
  412398:	4ea08600 	add	v0.4s, v16.4s, v0.4s
  41239c:	4ea08620 	add	v0.4s, v17.4s, v0.4s
  4123a0:	4f265410 	shl	v16.4s, v0.4s, #6
  4123a4:	6f260400 	ushr	v0.4s, v0.4s, #26
  4123a8:	4ea01e00 	orr	v0.16b, v16.16b, v0.16b
  4123ac:	4ea18400 	add	v0.4s, v0.4s, v1.4s
  4123b0:	4ee21c10 	orn	v16.16b, v0.16b, v2.16b
  4123b4:	6e211e10 	eor	v16.16b, v16.16b, v1.16b
  4123b8:	90000000 	adrp	x0, 412000 <_Z19MD5Hash_simdversionPKNSt7__cxx1112basic_stringIcSt11char_traitsIcESaIcEEEP12__Uint32x4_t+0x1480>
  4123bc:	3dc3d811 	ldr	q17, [x0, #3936]
  4123c0:	4eb1854a 	add	v10.4s, v10.4s, v17.4s
  4123c4:	4ea38543 	add	v3.4s, v10.4s, v3.4s
  4123c8:	4ea38603 	add	v3.4s, v16.4s, v3.4s
  4123cc:	4f2a546a 	shl	v10.4s, v3.4s, #10
  4123d0:	6f2a0463 	ushr	v3.4s, v3.4s, #22
  4123d4:	4ea31d43 	orr	v3.16b, v10.16b, v3.16b
  4123d8:	4ea08463 	add	v3.4s, v3.4s, v0.4s
  4123dc:	4ee11c6a 	orn	v10.16b, v3.16b, v1.16b
  4123e0:	6e201d4a 	eor	v10.16b, v10.16b, v0.16b
  4123e4:	90000000 	adrp	x0, 412000 <_Z19MD5Hash_simdversionPKNSt7__cxx1112basic_stringIcSt11char_traitsIcESaIcEEEP12__Uint32x4_t+0x1480>
  4123e8:	3dc3dc10 	ldr	q16, [x0, #3952]
  4123ec:	4eb08529 	add	v9.4s, v9.4s, v16.4s
  4123f0:	4ea28522 	add	v2.4s, v9.4s, v2.4s
  4123f4:	4ea28542 	add	v2.4s, v10.4s, v2.4s
  4123f8:	4f2f5449 	shl	v9.4s, v2.4s, #15
  4123fc:	6f2f0442 	ushr	v2.4s, v2.4s, #17
  412400:	4ea21d22 	orr	v2.16b, v9.16b, v2.16b
  412404:	4ea38442 	add	v2.4s, v2.4s, v3.4s
  412408:	4ee01c49 	orn	v9.16b, v2.16b, v0.16b
  41240c:	6e231d29 	eor	v9.16b, v9.16b, v3.16b
  412410:	90000000 	adrp	x0, 412000 <_Z19MD5Hash_simdversionPKNSt7__cxx1112basic_stringIcSt11char_traitsIcESaIcEEEP12__Uint32x4_t+0x1480>
  412414:	3dc3e00a 	ldr	q10, [x0, #3968]
  412418:	4eaa8508 	add	v8.4s, v8.4s, v10.4s
  41241c:	4ea18501 	add	v1.4s, v8.4s, v1.4s
  412420:	4ea18521 	add	v1.4s, v9.4s, v1.4s
  412424:	4f355428 	shl	v8.4s, v1.4s, #21
  412428:	6f350421 	ushr	v1.4s, v1.4s, #11
  41242c:	4ea11d01 	orr	v1.16b, v8.16b, v1.16b
  412430:	4ea28421 	add	v1.4s, v1.4s, v2.4s
  412434:	4ee31c28 	orn	v8.16b, v1.16b, v3.16b
  412438:	6e221d08 	eor	v8.16b, v8.16b, v2.16b
  41243c:	90000000 	adrp	x0, 412000 <_Z19MD5Hash_simdversionPKNSt7__cxx1112basic_stringIcSt11char_traitsIcESaIcEEEP12__Uint32x4_t+0x1480>
  412440:	3dc3e409 	ldr	q9, [x0, #3984]
  412444:	4ea984e7 	add	v7.4s, v7.4s, v9.4s
  412448:	4ea084e0 	add	v0.4s, v7.4s, v0.4s
  41244c:	4ea08500 	add	v0.4s, v8.4s, v0.4s
  412450:	4f265407 	shl	v7.4s, v0.4s, #6
  412454:	6f260400 	ushr	v0.4s, v0.4s, #26
  412458:	4ea01ce0 	orr	v0.16b, v7.16b, v0.16b
  41245c:	4ea18400 	add	v0.4s, v0.4s, v1.4s
  412460:	4ee21c07 	orn	v7.16b, v0.16b, v2.16b
  412464:	6e211ce7 	eor	v7.16b, v7.16b, v1.16b
  412468:	90000000 	adrp	x0, 412000 <_Z19MD5Hash_simdversionPKNSt7__cxx1112basic_stringIcSt11char_traitsIcESaIcEEEP12__Uint32x4_t+0x1480>
  41246c:	3dc3e808 	ldr	q8, [x0, #4000]
  412470:	4ea884c6 	add	v6.4s, v6.4s, v8.4s
  412474:	4ea384c3 	add	v3.4s, v6.4s, v3.4s
  412478:	4ea384e3 	add	v3.4s, v7.4s, v3.4s
  41247c:	4f2a5466 	shl	v6.4s, v3.4s, #10
  412480:	6f2a0463 	ushr	v3.4s, v3.4s, #22
  412484:	4ea31cc3 	orr	v3.16b, v6.16b, v3.16b
  412488:	4ea08463 	add	v3.4s, v3.4s, v0.4s
  41248c:	4ee11c66 	orn	v6.16b, v3.16b, v1.16b
  412490:	6e201cc6 	eor	v6.16b, v6.16b, v0.16b
  412494:	90000000 	adrp	x0, 412000 <_Z19MD5Hash_simdversionPKNSt7__cxx1112basic_stringIcSt11char_traitsIcESaIcEEEP12__Uint32x4_t+0x1480>
  412498:	3dc3ec07 	ldr	q7, [x0, #4016]
  41249c:	4ea784a5 	add	v5.4s, v5.4s, v7.4s
  4124a0:	4ea284a2 	add	v2.4s, v5.4s, v2.4s
  4124a4:	4ea284c2 	add	v2.4s, v6.4s, v2.4s
  4124a8:	4f2f5445 	shl	v5.4s, v2.4s, #15
  4124ac:	6f2f0442 	ushr	v2.4s, v2.4s, #17
  4124b0:	4ea21ca5 	orr	v5.16b, v5.16b, v2.16b
  4124b4:	4ea384a5 	add	v5.4s, v5.4s, v3.4s
  4124b8:	4ee01ca2 	orn	v2.16b, v5.16b, v0.16b
  4124bc:	6e231c42 	eor	v2.16b, v2.16b, v3.16b
  4124c0:	90000000 	adrp	x0, 412000 <_Z19MD5Hash_simdversionPKNSt7__cxx1112basic_stringIcSt11char_traitsIcESaIcEEEP12__Uint32x4_t+0x1480>
  4124c4:	3dc3f006 	ldr	q6, [x0, #4032]
  4124c8:	4ea68484 	add	v4.4s, v4.4s, v6.4s
  4124cc:	4ea18481 	add	v1.4s, v4.4s, v1.4s
  4124d0:	4ea18441 	add	v1.4s, v2.4s, v1.4s
  4124d4:	4f355422 	shl	v2.4s, v1.4s, #21
  4124d8:	6f350421 	ushr	v1.4s, v1.4s, #11
  4124dc:	4ea0879c 	add	v28.4s, v28.4s, v0.4s
  4124e0:	3d80027c 	str	q28, [x19]
  4124e4:	4ea11c40 	orr	v0.16b, v2.16b, v1.16b
  4124e8:	4eba8400 	add	v0.4s, v0.4s, v26.4s
  4124ec:	4ea58400 	add	v0.4s, v0.4s, v5.4s
  4124f0:	3d800660 	str	q0, [x19, #16]
  4124f4:	4ea58739 	add	v25.4s, v25.4s, v5.4s
  4124f8:	3d800a79 	str	q25, [x19, #32]
  4124fc:	4ea3877b 	add	v27.4s, v27.4s, v3.4s
  412500:	3d800e7b 	str	q27, [x19, #48]
  412504:	9100056b 	add	x11, x11, #0x1
  412508:	6b0b019f 	cmp	w12, w11
  41250c:	54ff9f4d 	b.le	4118f4 <_Z19MD5Hash_simdversionPKNSt7__cxx1112basic_stringIcSt11char_traitsIcESaIcEEEP12__Uint32x4_t+0xd74>
  412510:	910343e9 	add	x9, sp, #0xd0
  412514:	d37ae561 	lsl	x1, x11, #6
  412518:	9104012a 	add	x10, x9, #0x100
  41251c:	17fffd12 	b	411964 <_Z19MD5Hash_simdversionPKNSt7__cxx1112basic_stringIcSt11char_traitsIcESaIcEEEP12__Uint32x4_t+0xde4>
  412520:	97ffbf10 	bl	402160 <_ZdaPv@plt>
  412524:	91002294 	add	x20, x20, #0x8
  412528:	eb13029f 	cmp	x20, x19
  41252c:	54000080 	b.eq	41253c <_Z19MD5Hash_simdversionPKNSt7__cxx1112basic_stringIcSt11char_traitsIcESaIcEEEP12__Uint32x4_t+0x19bc>  // b.none
  412530:	f9400280 	ldr	x0, [x20]
  412534:	b5ffff60 	cbnz	x0, 412520 <_Z19MD5Hash_simdversionPKNSt7__cxx1112basic_stringIcSt11char_traitsIcESaIcEEEP12__Uint32x4_t+0x19a0>
  412538:	17fffffb 	b	412524 <_Z19MD5Hash_simdversionPKNSt7__cxx1112basic_stringIcSt11char_traitsIcESaIcEEEP12__Uint32x4_t+0x19a4>
  41253c:	a94363f7 	ldp	x23, x24, [sp, #48]
  412540:	f94023f9 	ldr	x25, [sp, #64]
  412544:	6d4527e8 	ldp	d8, d9, [sp, #80]
  412548:	6d462fea 	ldp	d10, d11, [sp, #96]
  41254c:	6d4737ec 	ldp	d12, d13, [sp, #112]
  412550:	6d483fee 	ldp	d14, d15, [sp, #128]
  412554:	17fffcbb 	b	411840 <_Z19MD5Hash_simdversionPKNSt7__cxx1112basic_stringIcSt11char_traitsIcESaIcEEEP12__Uint32x4_t+0xcc0>
  412558:	a90363f7 	stp	x23, x24, [sp, #48]
  41255c:	f90023f9 	str	x25, [sp, #64]
  412560:	910243f7 	add	x23, sp, #0x90
  412564:	9102c3f4 	add	x20, sp, #0xb0
  412568:	910202b9 	add	x25, x21, #0x80
  41256c:	aa1403f8 	mov	x24, x20
  412570:	aa1703e1 	mov	x1, x23
  412574:	aa1503e0 	mov	x0, x21
  412578:	97fff675 	bl	40ff4c <_Z13StringProcessRKNSt7__cxx1112basic_stringIcSt11char_traitsIcESaIcEEEPi>
  41257c:	f8008700 	str	x0, [x24], #8
  412580:	910082b5 	add	x21, x21, #0x20
  412584:	910012f7 	add	x23, x23, #0x4
  412588:	eb1902bf 	cmp	x21, x25
  41258c:	54ffff21 	b.ne	412570 <_Z19MD5Hash_simdversionPKNSt7__cxx1112basic_stringIcSt11char_traitsIcESaIcEEEP12__Uint32x4_t+0x19f0>  // b.any
  412590:	b94093e0 	ldr	w0, [sp, #144]
  412594:	b94097e1 	ldr	w1, [sp, #148]
  412598:	6b01001f 	cmp	w0, w1
  41259c:	54ff9641 	b.ne	411864 <_Z19MD5Hash_simdversionPKNSt7__cxx1112basic_stringIcSt11char_traitsIcESaIcEEEP12__Uint32x4_t+0xce4>  // b.any
  4125a0:	b9409be1 	ldr	w1, [sp, #152]
  4125a4:	6b01001f 	cmp	w0, w1
  4125a8:	54ff95e1 	b.ne	411864 <_Z19MD5Hash_simdversionPKNSt7__cxx1112basic_stringIcSt11char_traitsIcESaIcEEEP12__Uint32x4_t+0xce4>  // b.any
  4125ac:	6d0527e8 	stp	d8, d9, [sp, #80]
  4125b0:	6d062fea 	stp	d10, d11, [sp, #96]
  4125b4:	6d0737ec 	stp	d12, d13, [sp, #112]
  4125b8:	6d083fee 	stp	d14, d15, [sp, #128]
  4125bc:	b9409fe1 	ldr	w1, [sp, #156]
  4125c0:	6b00003f 	cmp	w1, w0
  4125c4:	54ff9481 	b.ne	411854 <_Z19MD5Hash_simdversionPKNSt7__cxx1112basic_stringIcSt11char_traitsIcESaIcEEEP12__Uint32x4_t+0xcd4>  // b.any
  4125c8:	1100fc0c 	add	w12, w0, #0x3f
  4125cc:	7100001f 	cmp	w0, #0x0
  4125d0:	1a80b18c 	csel	w12, w12, w0, lt  // lt = tstop
  4125d4:	13067d8c 	asr	w12, w12, #6
  4125d8:	90000001 	adrp	x1, 412000 <_Z19MD5Hash_simdversionPKNSt7__cxx1112basic_stringIcSt11char_traitsIcESaIcEEEP12__Uint32x4_t+0x1480>
  4125dc:	3dc2e420 	ldr	q0, [x1, #2960]
  4125e0:	3d800260 	str	q0, [x19]
  4125e4:	90000001 	adrp	x1, 412000 <_Z19MD5Hash_simdversionPKNSt7__cxx1112basic_stringIcSt11char_traitsIcESaIcEEEP12__Uint32x4_t+0x1480>
  4125e8:	3dc2e820 	ldr	q0, [x1, #2976]
  4125ec:	3d800660 	str	q0, [x19, #16]
  4125f0:	90000001 	adrp	x1, 412000 <_Z19MD5Hash_simdversionPKNSt7__cxx1112basic_stringIcSt11char_traitsIcESaIcEEEP12__Uint32x4_t+0x1480>
  4125f4:	3dc2ec20 	ldr	q0, [x1, #2992]
  4125f8:	3d800a60 	str	q0, [x19, #32]
  4125fc:	90000001 	adrp	x1, 412000 <_Z19MD5Hash_simdversionPKNSt7__cxx1112basic_stringIcSt11char_traitsIcESaIcEEEP12__Uint32x4_t+0x1480>
  412600:	3dc2f020 	ldr	q0, [x1, #3008]
  412604:	3d800e60 	str	q0, [x19, #48]
  412608:	7100fc1f 	cmp	w0, #0x3f
  41260c:	54ff974d 	b.le	4118f4 <_Z19MD5Hash_simdversionPKNSt7__cxx1112basic_stringIcSt11char_traitsIcESaIcEEEP12__Uint32x4_t+0xd74>
  412610:	d280000b 	mov	x11, #0x0                   	// #0
  412614:	90000000 	adrp	x0, 412000 <_Z19MD5Hash_simdversionPKNSt7__cxx1112basic_stringIcSt11char_traitsIcESaIcEEEP12__Uint32x4_t+0x1480>
  412618:	3dc2f40f 	ldr	q15, [x0, #3024]
  41261c:	90000000 	adrp	x0, 412000 <_Z19MD5Hash_simdversionPKNSt7__cxx1112basic_stringIcSt11char_traitsIcESaIcEEEP12__Uint32x4_t+0x1480>
  412620:	3dc2f80e 	ldr	q14, [x0, #3040]
  412624:	90000000 	adrp	x0, 412000 <_Z19MD5Hash_simdversionPKNSt7__cxx1112basic_stringIcSt11char_traitsIcESaIcEEEP12__Uint32x4_t+0x1480>
  412628:	3dc2fc0d 	ldr	q13, [x0, #3056]
  41262c:	90000000 	adrp	x0, 412000 <_Z19MD5Hash_simdversionPKNSt7__cxx1112basic_stringIcSt11char_traitsIcESaIcEEEP12__Uint32x4_t+0x1480>
  412630:	3dc3000c 	ldr	q12, [x0, #3072]
  412634:	90000000 	adrp	x0, 412000 <_Z19MD5Hash_simdversionPKNSt7__cxx1112basic_stringIcSt11char_traitsIcESaIcEEEP12__Uint32x4_t+0x1480>
  412638:	3dc3040b 	ldr	q11, [x0, #3088]
  41263c:	17ffffb5 	b	412510 <_Z19MD5Hash_simdversionPKNSt7__cxx1112basic_stringIcSt11char_traitsIcESaIcEEEP12__Uint32x4_t+0x1990>

0000000000412640 <_GLOBAL__sub_I__Z13StringProcessRKNSt7__cxx1112basic_stringIcSt11char_traitsIcESaIcEEEPi>:
  412640:	a9be7bfd 	stp	x29, x30, [sp, #-32]!
  412644:	910003fd 	mov	x29, sp
  412648:	f9000bf3 	str	x19, [sp, #16]
  41264c:	d00000f3 	adrp	x19, 430000 <_Znam@GLIBCXX_3.4>
  412650:	910d0273 	add	x19, x19, #0x340
  412654:	aa1303e0 	mov	x0, x19
  412658:	97ffbede 	bl	4021d0 <_ZNSt8ios_base4InitC1Ev@plt>
  41265c:	d00000e2 	adrp	x2, 430000 <_Znam@GLIBCXX_3.4>
  412660:	9107e042 	add	x2, x2, #0x1f8
  412664:	aa1303e1 	mov	x1, x19
  412668:	90ffff80 	adrp	x0, 402000 <_ZSt20__throw_length_errorPKc@plt>
  41266c:	910b0000 	add	x0, x0, #0x2c0
  412670:	97ffbe9c 	bl	4020e0 <__cxa_atexit@plt>
  412674:	f9400bf3 	ldr	x19, [sp, #16]
  412678:	a8c27bfd 	ldp	x29, x30, [sp], #32
  41267c:	d65f03c0 	ret

Disassembly of section .fini:

0000000000412680 <_fini>:
  412680:	d503201f 	nop
  412684:	a9bf7bfd 	stp	x29, x30, [sp, #-16]!
  412688:	910003fd 	mov	x29, sp
  41268c:	a8c17bfd 	ldp	x29, x30, [sp], #16
  412690:	d65f03c0 	ret
