
main_O1:     file format elf64-littleaarch64


Disassembly of section .init:

0000000000401eb8 <_init>:
  401eb8:	d503201f 	nop
  401ebc:	a9bf7bfd 	stp	x29, x30, [sp, #-16]!
  401ec0:	910003fd 	mov	x29, sp
  401ec4:	94000120 	bl	402344 <call_weak_fn>
  401ec8:	a8c17bfd 	ldp	x29, x30, [sp], #16
  401ecc:	d65f03c0 	ret

Disassembly of section .plt:

0000000000401ed0 <.plt>:
  401ed0:	a9bf7bf0 	stp	x16, x30, [sp, #-16]!
  401ed4:	d0000170 	adrp	x16, 42f000 <__FRAME_END__+0x1a654>
  401ed8:	f947fe11 	ldr	x17, [x16, #4088]
  401edc:	913fe210 	add	x16, x16, #0xff8
  401ee0:	d61f0220 	br	x17
  401ee4:	d503201f 	nop
  401ee8:	d503201f 	nop
  401eec:	d503201f 	nop

0000000000401ef0 <_Znam@plt>:
  401ef0:	f0000170 	adrp	x16, 430000 <_Znam@GLIBCXX_3.4>
  401ef4:	f9400211 	ldr	x17, [x16]
  401ef8:	91000210 	add	x16, x16, #0x0
  401efc:	d61f0220 	br	x17

0000000000401f00 <_ZNSo3putEc@plt>:
  401f00:	f0000170 	adrp	x16, 430000 <_Znam@GLIBCXX_3.4>
  401f04:	f9400611 	ldr	x17, [x16, #8]
  401f08:	91002210 	add	x16, x16, #0x8
  401f0c:	d61f0220 	br	x17

0000000000401f10 <_ZNSt6chrono3_V212system_clock3nowEv@plt>:
  401f10:	f0000170 	adrp	x16, 430000 <_Znam@GLIBCXX_3.4>
  401f14:	f9400a11 	ldr	x17, [x16, #16]
  401f18:	91004210 	add	x16, x16, #0x10
  401f1c:	d61f0220 	br	x17

0000000000401f20 <memcpy@plt>:
  401f20:	f0000170 	adrp	x16, 430000 <_Znam@GLIBCXX_3.4>
  401f24:	f9400e11 	ldr	x17, [x16, #24]
  401f28:	91006210 	add	x16, x16, #0x18
  401f2c:	d61f0220 	br	x17

0000000000401f30 <_ZSt11_Hash_bytesPKvmm@plt>:
  401f30:	f0000170 	adrp	x16, 430000 <_Znam@GLIBCXX_3.4>
  401f34:	f9401211 	ldr	x17, [x16, #32]
  401f38:	91008210 	add	x16, x16, #0x20
  401f3c:	d61f0220 	br	x17

0000000000401f40 <_ZNSdD2Ev@plt>:
  401f40:	f0000170 	adrp	x16, 430000 <_Znam@GLIBCXX_3.4>
  401f44:	f9401611 	ldr	x17, [x16, #40]
  401f48:	9100a210 	add	x16, x16, #0x28
  401f4c:	d61f0220 	br	x17

0000000000401f50 <_ZNSt13basic_filebufIcSt11char_traitsIcEE5closeEv@plt>:
  401f50:	f0000170 	adrp	x16, 430000 <_Znam@GLIBCXX_3.4>
  401f54:	f9401a11 	ldr	x17, [x16, #48]
  401f58:	9100c210 	add	x16, x16, #0x30
  401f5c:	d61f0220 	br	x17

0000000000401f60 <_ZNSt14basic_ifstreamIcSt11char_traitsIcEED1Ev@plt>:
  401f60:	f0000170 	adrp	x16, 430000 <_Znam@GLIBCXX_3.4>
  401f64:	f9401e11 	ldr	x17, [x16, #56]
  401f68:	9100e210 	add	x16, x16, #0x38
  401f6c:	d61f0220 	br	x17

0000000000401f70 <_ZNKSt7__cxx1112basic_stringIcSt11char_traitsIcESaIcEE7compareEPKc@plt>:
  401f70:	f0000170 	adrp	x16, 430000 <_Znam@GLIBCXX_3.4>
  401f74:	f9402211 	ldr	x17, [x16, #64]
  401f78:	91010210 	add	x16, x16, #0x40
  401f7c:	d61f0220 	br	x17

0000000000401f80 <_ZNSt8ios_baseC2Ev@plt>:
  401f80:	f0000170 	adrp	x16, 430000 <_Znam@GLIBCXX_3.4>
  401f84:	f9402611 	ldr	x17, [x16, #72]
  401f88:	91012210 	add	x16, x16, #0x48
  401f8c:	d61f0220 	br	x17

0000000000401f90 <strlen@plt>:
  401f90:	f0000170 	adrp	x16, 430000 <_Znam@GLIBCXX_3.4>
  401f94:	f9402a11 	ldr	x17, [x16, #80]
  401f98:	91014210 	add	x16, x16, #0x50
  401f9c:	d61f0220 	br	x17

0000000000401fa0 <_ZNSt7__cxx1112basic_stringIcSt11char_traitsIcESaIcEE9_M_appendEPKcm@plt>:
  401fa0:	f0000170 	adrp	x16, 430000 <_Znam@GLIBCXX_3.4>
  401fa4:	f9402e11 	ldr	x17, [x16, #88]
  401fa8:	91016210 	add	x16, x16, #0x58
  401fac:	d61f0220 	br	x17

0000000000401fb0 <_ZNSt8ios_baseD2Ev@plt>:
  401fb0:	f0000170 	adrp	x16, 430000 <_Znam@GLIBCXX_3.4>
  401fb4:	f9403211 	ldr	x17, [x16, #96]
  401fb8:	91018210 	add	x16, x16, #0x60
  401fbc:	d61f0220 	br	x17

0000000000401fc0 <_ZSt17__throw_bad_allocv@plt>:
  401fc0:	f0000170 	adrp	x16, 430000 <_Znam@GLIBCXX_3.4>
  401fc4:	f9403611 	ldr	x17, [x16, #104]
  401fc8:	9101a210 	add	x16, x16, #0x68
  401fcc:	d61f0220 	br	x17

0000000000401fd0 <__cxa_begin_catch@plt>:
  401fd0:	f0000170 	adrp	x16, 430000 <_Znam@GLIBCXX_3.4>
  401fd4:	f9403a11 	ldr	x17, [x16, #112]
  401fd8:	9101c210 	add	x16, x16, #0x70
  401fdc:	d61f0220 	br	x17

0000000000401fe0 <_ZSt4endlIcSt11char_traitsIcEERSt13basic_ostreamIT_T0_ES6_@plt>:
  401fe0:	f0000170 	adrp	x16, 430000 <_Znam@GLIBCXX_3.4>
  401fe4:	f9403e11 	ldr	x17, [x16, #120]
  401fe8:	9101e210 	add	x16, x16, #0x78
  401fec:	d61f0220 	br	x17

0000000000401ff0 <memcmp@plt>:
  401ff0:	f0000170 	adrp	x16, 430000 <_Znam@GLIBCXX_3.4>
  401ff4:	f9404211 	ldr	x17, [x16, #128]
  401ff8:	91020210 	add	x16, x16, #0x80
  401ffc:	d61f0220 	br	x17

0000000000402000 <_ZSt20__throw_length_errorPKc@plt>:
  402000:	d0000170 	adrp	x16, 430000 <_Znam@GLIBCXX_3.4>
  402004:	f9404611 	ldr	x17, [x16, #136]
  402008:	91022210 	add	x16, x16, #0x88
  40200c:	d61f0220 	br	x17

0000000000402010 <_ZNSt7__cxx1112basic_stringIcSt11char_traitsIcESaIcEE9_M_assignERKS4_@plt>:
  402010:	d0000170 	adrp	x16, 430000 <_Znam@GLIBCXX_3.4>
  402014:	f9404a11 	ldr	x17, [x16, #144]
  402018:	91024210 	add	x16, x16, #0x90
  40201c:	d61f0220 	br	x17

0000000000402020 <memset@plt>:
  402020:	d0000170 	adrp	x16, 430000 <_Znam@GLIBCXX_3.4>
  402024:	f9404e11 	ldr	x17, [x16, #152]
  402028:	91026210 	add	x16, x16, #0x98
  40202c:	d61f0220 	br	x17

0000000000402030 <_ZNSo9_M_insertImEERSoT_@plt>:
  402030:	d0000170 	adrp	x16, 430000 <_Znam@GLIBCXX_3.4>
  402034:	f9405211 	ldr	x17, [x16, #160]
  402038:	91028210 	add	x16, x16, #0xa0
  40203c:	d61f0220 	br	x17

0000000000402040 <_ZNSo5flushEv@plt>:
  402040:	d0000170 	adrp	x16, 430000 <_Znam@GLIBCXX_3.4>
  402044:	f9405611 	ldr	x17, [x16, #168]
  402048:	9102a210 	add	x16, x16, #0xa8
  40204c:	d61f0220 	br	x17

0000000000402050 <_ZSt19__throw_logic_errorPKc@plt>:
  402050:	d0000170 	adrp	x16, 430000 <_Znam@GLIBCXX_3.4>
  402054:	f9405a11 	ldr	x17, [x16, #176]
  402058:	9102c210 	add	x16, x16, #0xb0
  40205c:	d61f0220 	br	x17

0000000000402060 <_ZNSt7__cxx1112basic_stringIcSt11char_traitsIcESaIcEE4swapERS4_@plt>:
  402060:	d0000170 	adrp	x16, 430000 <_Znam@GLIBCXX_3.4>
  402064:	f9405e11 	ldr	x17, [x16, #184]
  402068:	9102e210 	add	x16, x16, #0xb8
  40206c:	d61f0220 	br	x17

0000000000402070 <__libc_start_main@plt>:
  402070:	d0000170 	adrp	x16, 430000 <_Znam@GLIBCXX_3.4>
  402074:	f9406211 	ldr	x17, [x16, #192]
  402078:	91030210 	add	x16, x16, #0xc0
  40207c:	d61f0220 	br	x17

0000000000402080 <_ZNSt7__cxx1118basic_stringstreamIcSt11char_traitsIcESaIcEED1Ev@plt>:
  402080:	d0000170 	adrp	x16, 430000 <_Znam@GLIBCXX_3.4>
  402084:	f9406611 	ldr	x17, [x16, #200]
  402088:	91032210 	add	x16, x16, #0xc8
  40208c:	d61f0220 	br	x17

0000000000402090 <_ZNSt13basic_filebufIcSt11char_traitsIcEE4openEPKcSt13_Ios_Openmode@plt>:
  402090:	d0000170 	adrp	x16, 430000 <_Znam@GLIBCXX_3.4>
  402094:	f9406a11 	ldr	x17, [x16, #208]
  402098:	91034210 	add	x16, x16, #0xd0
  40209c:	d61f0220 	br	x17

00000000004020a0 <_ZStlsISt11char_traitsIcEERSt13basic_ostreamIcT_ES5_PKc@plt>:
  4020a0:	d0000170 	adrp	x16, 430000 <_Znam@GLIBCXX_3.4>
  4020a4:	f9406e11 	ldr	x17, [x16, #216]
  4020a8:	91036210 	add	x16, x16, #0xd8
  4020ac:	d61f0220 	br	x17

00000000004020b0 <_Znwm@plt>:
  4020b0:	d0000170 	adrp	x16, 430000 <_Znam@GLIBCXX_3.4>
  4020b4:	f9407211 	ldr	x17, [x16, #224]
  4020b8:	91038210 	add	x16, x16, #0xe0
  4020bc:	d61f0220 	br	x17

00000000004020c0 <_ZdlPvm@plt>:
  4020c0:	d0000170 	adrp	x16, 430000 <_Znam@GLIBCXX_3.4>
  4020c4:	f9407611 	ldr	x17, [x16, #232]
  4020c8:	9103a210 	add	x16, x16, #0xe8
  4020cc:	d61f0220 	br	x17

00000000004020d0 <_ZNSt13basic_filebufIcSt11char_traitsIcEEC1Ev@plt>:
  4020d0:	d0000170 	adrp	x16, 430000 <_Znam@GLIBCXX_3.4>
  4020d4:	f9407a11 	ldr	x17, [x16, #240]
  4020d8:	9103c210 	add	x16, x16, #0xf0
  4020dc:	d61f0220 	br	x17

00000000004020e0 <__cxa_atexit@plt>:
  4020e0:	d0000170 	adrp	x16, 430000 <_Znam@GLIBCXX_3.4>
  4020e4:	f9407e11 	ldr	x17, [x16, #248]
  4020e8:	9103e210 	add	x16, x16, #0xf8
  4020ec:	d61f0220 	br	x17

00000000004020f0 <_ZSt16__ostream_insertIcSt11char_traitsIcEERSt13basic_ostreamIT_T0_ES6_PKS3_l@plt>:
  4020f0:	d0000170 	adrp	x16, 430000 <_Znam@GLIBCXX_3.4>
  4020f4:	f9408211 	ldr	x17, [x16, #256]
  4020f8:	91040210 	add	x16, x16, #0x100
  4020fc:	d61f0220 	br	x17

0000000000402100 <_ZNKSt5ctypeIcE13_M_widen_initEv@plt>:
  402100:	d0000170 	adrp	x16, 430000 <_Znam@GLIBCXX_3.4>
  402104:	f9408611 	ldr	x17, [x16, #264]
  402108:	91042210 	add	x16, x16, #0x108
  40210c:	d61f0220 	br	x17

0000000000402110 <_ZNSt7__cxx1112basic_stringIcSt11char_traitsIcESaIcEE10_M_disposeEv@plt>:
  402110:	d0000170 	adrp	x16, 430000 <_Znam@GLIBCXX_3.4>
  402114:	f9408a11 	ldr	x17, [x16, #272]
  402118:	91044210 	add	x16, x16, #0x110
  40211c:	d61f0220 	br	x17

0000000000402120 <memmove@plt>:
  402120:	d0000170 	adrp	x16, 430000 <_Znam@GLIBCXX_3.4>
  402124:	f9408e11 	ldr	x17, [x16, #280]
  402128:	91046210 	add	x16, x16, #0x118
  40212c:	d61f0220 	br	x17

0000000000402130 <_ZSt16__throw_bad_castv@plt>:
  402130:	d0000170 	adrp	x16, 430000 <_Znam@GLIBCXX_3.4>
  402134:	f9409211 	ldr	x17, [x16, #288]
  402138:	91048210 	add	x16, x16, #0x120
  40213c:	d61f0220 	br	x17

0000000000402140 <isalpha@plt>:
  402140:	d0000170 	adrp	x16, 430000 <_Znam@GLIBCXX_3.4>
  402144:	f9409611 	ldr	x17, [x16, #296]
  402148:	9104a210 	add	x16, x16, #0x128
  40214c:	d61f0220 	br	x17

0000000000402150 <_ZStrsIcSt11char_traitsIcESaIcEERSt13basic_istreamIT_T0_ES7_RNSt7__cxx1112basic_stringIS4_S5_T1_EE@plt>:
  402150:	d0000170 	adrp	x16, 430000 <_Znam@GLIBCXX_3.4>
  402154:	f9409a11 	ldr	x17, [x16, #304]
  402158:	9104c210 	add	x16, x16, #0x130
  40215c:	d61f0220 	br	x17

0000000000402160 <_ZdaPv@plt>:
  402160:	d0000170 	adrp	x16, 430000 <_Znam@GLIBCXX_3.4>
  402164:	f9409e11 	ldr	x17, [x16, #312]
  402168:	9104e210 	add	x16, x16, #0x138
  40216c:	d61f0220 	br	x17

0000000000402170 <_ZNKSt8__detail20_Prime_rehash_policy14_M_need_rehashEmmm@plt>:
  402170:	d0000170 	adrp	x16, 430000 <_Znam@GLIBCXX_3.4>
  402174:	f940a211 	ldr	x17, [x16, #320]
  402178:	91050210 	add	x16, x16, #0x140
  40217c:	d61f0220 	br	x17

0000000000402180 <_ZNSt9basic_iosIcSt11char_traitsIcEE4initEPSt15basic_streambufIcS1_E@plt>:
  402180:	d0000170 	adrp	x16, 430000 <_Znam@GLIBCXX_3.4>
  402184:	f940a611 	ldr	x17, [x16, #328]
  402188:	91052210 	add	x16, x16, #0x148
  40218c:	d61f0220 	br	x17

0000000000402190 <_ZNSt7__cxx1112basic_stringIcSt11char_traitsIcESaIcEEC1EPKcRKS3_@plt>:
  402190:	d0000170 	adrp	x16, 430000 <_Znam@GLIBCXX_3.4>
  402194:	f940aa11 	ldr	x17, [x16, #336]
  402198:	91054210 	add	x16, x16, #0x150
  40219c:	d61f0220 	br	x17

00000000004021a0 <_ZNSt6localeD1Ev@plt>:
  4021a0:	d0000170 	adrp	x16, 430000 <_Znam@GLIBCXX_3.4>
  4021a4:	f940ae11 	ldr	x17, [x16, #344]
  4021a8:	91056210 	add	x16, x16, #0x158
  4021ac:	d61f0220 	br	x17

00000000004021b0 <_ZSt20__throw_out_of_rangePKc@plt>:
  4021b0:	d0000170 	adrp	x16, 430000 <_Znam@GLIBCXX_3.4>
  4021b4:	f940b211 	ldr	x17, [x16, #352]
  4021b8:	91058210 	add	x16, x16, #0x160
  4021bc:	d61f0220 	br	x17

00000000004021c0 <__cxa_rethrow@plt>:
  4021c0:	d0000170 	adrp	x16, 430000 <_Znam@GLIBCXX_3.4>
  4021c4:	f940b611 	ldr	x17, [x16, #360]
  4021c8:	9105a210 	add	x16, x16, #0x168
  4021cc:	d61f0220 	br	x17

00000000004021d0 <_ZNSt8ios_base4InitC1Ev@plt>:
  4021d0:	d0000170 	adrp	x16, 430000 <_Znam@GLIBCXX_3.4>
  4021d4:	f940ba11 	ldr	x17, [x16, #368]
  4021d8:	9105c210 	add	x16, x16, #0x170
  4021dc:	d61f0220 	br	x17

00000000004021e0 <_ZNSt7__cxx1112basic_stringIcSt11char_traitsIcESaIcEE10_M_replaceEmmPKcm@plt>:
  4021e0:	d0000170 	adrp	x16, 430000 <_Znam@GLIBCXX_3.4>
  4021e4:	f940be11 	ldr	x17, [x16, #376]
  4021e8:	9105e210 	add	x16, x16, #0x178
  4021ec:	d61f0220 	br	x17

00000000004021f0 <_ZNSt13basic_filebufIcSt11char_traitsIcEED1Ev@plt>:
  4021f0:	d0000170 	adrp	x16, 430000 <_Znam@GLIBCXX_3.4>
  4021f4:	f940c211 	ldr	x17, [x16, #384]
  4021f8:	91060210 	add	x16, x16, #0x180
  4021fc:	d61f0220 	br	x17

0000000000402200 <abort@plt>:
  402200:	d0000170 	adrp	x16, 430000 <_Znam@GLIBCXX_3.4>
  402204:	f940c611 	ldr	x17, [x16, #392]
  402208:	91062210 	add	x16, x16, #0x188
  40220c:	d61f0220 	br	x17

0000000000402210 <_ZNSo9_M_insertIdEERSoT_@plt>:
  402210:	d0000170 	adrp	x16, 430000 <_Znam@GLIBCXX_3.4>
  402214:	f940ca11 	ldr	x17, [x16, #400]
  402218:	91064210 	add	x16, x16, #0x190
  40221c:	d61f0220 	br	x17

0000000000402220 <__cxa_end_catch@plt>:
  402220:	d0000170 	adrp	x16, 430000 <_Znam@GLIBCXX_3.4>
  402224:	f940ce11 	ldr	x17, [x16, #408]
  402228:	91066210 	add	x16, x16, #0x198
  40222c:	d61f0220 	br	x17

0000000000402230 <__gxx_personality_v0@plt>:
  402230:	d0000170 	adrp	x16, 430000 <_Znam@GLIBCXX_3.4>
  402234:	f940d211 	ldr	x17, [x16, #416]
  402238:	91068210 	add	x16, x16, #0x1a0
  40223c:	d61f0220 	br	x17

0000000000402240 <_ZNSt9basic_iosIcSt11char_traitsIcEE5clearESt12_Ios_Iostate@plt>:
  402240:	d0000170 	adrp	x16, 430000 <_Znam@GLIBCXX_3.4>
  402244:	f940d611 	ldr	x17, [x16, #424]
  402248:	9106a210 	add	x16, x16, #0x1a8
  40224c:	d61f0220 	br	x17

0000000000402250 <_ZNSolsEi@plt>:
  402250:	d0000170 	adrp	x16, 430000 <_Znam@GLIBCXX_3.4>
  402254:	f940da11 	ldr	x17, [x16, #432]
  402258:	9106c210 	add	x16, x16, #0x1b0
  40225c:	d61f0220 	br	x17

0000000000402260 <_Unwind_Resume@plt>:
  402260:	d0000170 	adrp	x16, 430000 <_Znam@GLIBCXX_3.4>
  402264:	f940de11 	ldr	x17, [x16, #440]
  402268:	9106e210 	add	x16, x16, #0x1b8
  40226c:	d61f0220 	br	x17

0000000000402270 <_ZNSt7__cxx1112basic_stringIcSt11char_traitsIcESaIcEE9_M_createERmm@plt>:
  402270:	d0000170 	adrp	x16, 430000 <_Znam@GLIBCXX_3.4>
  402274:	f940e211 	ldr	x17, [x16, #448]
  402278:	91070210 	add	x16, x16, #0x1c0
  40227c:	d61f0220 	br	x17

0000000000402280 <_ZNSt7__cxx1112basic_stringIcSt11char_traitsIcESaIcEE9_M_mutateEmmPKcm@plt>:
  402280:	d0000170 	adrp	x16, 430000 <_Znam@GLIBCXX_3.4>
  402284:	f940e611 	ldr	x17, [x16, #456]
  402288:	91072210 	add	x16, x16, #0x1c8
  40228c:	d61f0220 	br	x17

0000000000402290 <_ZNSt12__basic_fileIcED1Ev@plt>:
  402290:	d0000170 	adrp	x16, 430000 <_Znam@GLIBCXX_3.4>
  402294:	f940ea11 	ldr	x17, [x16, #464]
  402298:	91074210 	add	x16, x16, #0x1d0
  40229c:	d61f0220 	br	x17

00000000004022a0 <__gmon_start__@plt>:
  4022a0:	d0000170 	adrp	x16, 430000 <_Znam@GLIBCXX_3.4>
  4022a4:	f940ee11 	ldr	x17, [x16, #472]
  4022a8:	91076210 	add	x16, x16, #0x1d8
  4022ac:	d61f0220 	br	x17

00000000004022b0 <_ZNSt6localeC1Ev@plt>:
  4022b0:	d0000170 	adrp	x16, 430000 <_Znam@GLIBCXX_3.4>
  4022b4:	f940f211 	ldr	x17, [x16, #480]
  4022b8:	91078210 	add	x16, x16, #0x1e0
  4022bc:	d61f0220 	br	x17

00000000004022c0 <_ZNSt8ios_base4InitD1Ev@plt>:
  4022c0:	d0000170 	adrp	x16, 430000 <_Znam@GLIBCXX_3.4>
  4022c4:	f940f611 	ldr	x17, [x16, #488]
  4022c8:	9107a210 	add	x16, x16, #0x1e8
  4022cc:	d61f0220 	br	x17

Disassembly of section .text:

0000000000402300 <_start>:
  402300:	d503201f 	nop
  402304:	d280001d 	mov	x29, #0x0                   	// #0
  402308:	d280001e 	mov	x30, #0x0                   	// #0
  40230c:	aa0003e5 	mov	x5, x0
  402310:	f94003e1 	ldr	x1, [sp]
  402314:	910023e2 	add	x2, sp, #0x8
  402318:	910003e6 	mov	x6, sp
  40231c:	90000000 	adrp	x0, 402000 <_ZSt20__throw_length_errorPKc@plt>
  402320:	910cd000 	add	x0, x0, #0x334
  402324:	d2800003 	mov	x3, #0x0                   	// #0
  402328:	d2800004 	mov	x4, #0x0                   	// #0
  40232c:	97ffff51 	bl	402070 <__libc_start_main@plt>
  402330:	97ffffb4 	bl	402200 <abort@plt>

0000000000402334 <__wrap_main>:
  402334:	d503201f 	nop
  402338:	14000033 	b	402404 <main>
  40233c:	d503201f 	nop

0000000000402340 <_dl_relocate_static_pie>:
  402340:	d65f03c0 	ret

0000000000402344 <call_weak_fn>:
  402344:	b0000160 	adrp	x0, 42f000 <__FRAME_END__+0x1a654>
  402348:	f947ec00 	ldr	x0, [x0, #4056]
  40234c:	b4000040 	cbz	x0, 402354 <call_weak_fn+0x10>
  402350:	17ffffd4 	b	4022a0 <__gmon_start__@plt>
  402354:	d65f03c0 	ret
  402358:	d503201f 	nop
  40235c:	d503201f 	nop

0000000000402360 <deregister_tm_clones>:
  402360:	d0000160 	adrp	x0, 430000 <_Znam@GLIBCXX_3.4>
  402364:	91082000 	add	x0, x0, #0x208
  402368:	d0000161 	adrp	x1, 430000 <_Znam@GLIBCXX_3.4>
  40236c:	91082021 	add	x1, x1, #0x208
  402370:	eb00003f 	cmp	x1, x0
  402374:	540000c0 	b.eq	40238c <deregister_tm_clones+0x2c>  // b.none
  402378:	b0000161 	adrp	x1, 42f000 <__FRAME_END__+0x1a654>
  40237c:	f947e821 	ldr	x1, [x1, #4048]
  402380:	b4000061 	cbz	x1, 40238c <deregister_tm_clones+0x2c>
  402384:	aa0103f0 	mov	x16, x1
  402388:	d61f0200 	br	x16
  40238c:	d65f03c0 	ret

0000000000402390 <register_tm_clones>:
  402390:	d0000160 	adrp	x0, 430000 <_Znam@GLIBCXX_3.4>
  402394:	91082000 	add	x0, x0, #0x208
  402398:	d0000161 	adrp	x1, 430000 <_Znam@GLIBCXX_3.4>
  40239c:	91082021 	add	x1, x1, #0x208
  4023a0:	cb000021 	sub	x1, x1, x0
  4023a4:	d37ffc22 	lsr	x2, x1, #63
  4023a8:	8b810c41 	add	x1, x2, x1, asr #3
  4023ac:	9341fc21 	asr	x1, x1, #1
  4023b0:	b40000c1 	cbz	x1, 4023c8 <register_tm_clones+0x38>
  4023b4:	b0000162 	adrp	x2, 42f000 <__FRAME_END__+0x1a654>
  4023b8:	f947f042 	ldr	x2, [x2, #4064]
  4023bc:	b4000062 	cbz	x2, 4023c8 <register_tm_clones+0x38>
  4023c0:	aa0203f0 	mov	x16, x2
  4023c4:	d61f0200 	br	x16
  4023c8:	d65f03c0 	ret
  4023cc:	d503201f 	nop

00000000004023d0 <__do_global_dtors_aux>:
  4023d0:	a9be7bfd 	stp	x29, x30, [sp, #-32]!
  4023d4:	910003fd 	mov	x29, sp
  4023d8:	f9000bf3 	str	x19, [sp, #16]
  4023dc:	d0000173 	adrp	x19, 430000 <_Znam@GLIBCXX_3.4>
  4023e0:	394c8260 	ldrb	w0, [x19, #800]
  4023e4:	35000080 	cbnz	w0, 4023f4 <__do_global_dtors_aux+0x24>
  4023e8:	97ffffde 	bl	402360 <deregister_tm_clones>
  4023ec:	52800020 	mov	w0, #0x1                   	// #1
  4023f0:	390c8260 	strb	w0, [x19, #800]
  4023f4:	f9400bf3 	ldr	x19, [sp, #16]
  4023f8:	a8c27bfd 	ldp	x29, x30, [sp], #32
  4023fc:	d65f03c0 	ret

0000000000402400 <frame_dummy>:
  402400:	17ffffe4 	b	402390 <register_tm_clones>

0000000000402404 <main>:
  402404:	d11583ff 	sub	sp, sp, #0x560
  402408:	a9007bfd 	stp	x29, x30, [sp]
  40240c:	910003fd 	mov	x29, sp
  402410:	a90153f3 	stp	x19, x20, [sp, #16]
  402414:	a9025bf5 	stp	x21, x22, [sp, #32]
  402418:	a90363f7 	stp	x23, x24, [sp, #48]
  40241c:	a9046bf9 	stp	x25, x26, [sp, #64]
  402420:	a90573fb 	stp	x27, x28, [sp, #80]
  402424:	6d0627e8 	stp	d8, d9, [sp, #96]
  402428:	7100041f 	cmp	w0, #0x1
  40242c:	5400078d 	b.le	40251c <main+0x118>
  402430:	91002034 	add	x20, x1, #0x8
  402434:	51000800 	sub	w0, w0, #0x2
  402438:	91004021 	add	x1, x1, #0x10
  40243c:	8b000c37 	add	x23, x1, x0, lsl #3
  402440:	910683f6 	add	x22, sp, #0x1a0
  402444:	90000098 	adrp	x24, 412000 <_Z19MD5Hash_simdversionPKNSt7__cxx1112basic_stringIcSt11char_traitsIcESaIcEEEP12__Uint32x4_t+0x1480>
  402448:	911c4318 	add	x24, x24, #0x710
  40244c:	14000023 	b	4024d8 <main+0xd4>
  402450:	90000080 	adrp	x0, 412000 <_Z19MD5Hash_simdversionPKNSt7__cxx1112basic_stringIcSt11char_traitsIcESaIcEEEP12__Uint32x4_t+0x1480>
  402454:	911b8000 	add	x0, x0, #0x6e0
  402458:	97fffefe 	bl	402050 <_ZSt19__throw_logic_errorPKc@plt>
  40245c:	d2800002 	mov	x2, #0x0                   	// #0
  402460:	910543e1 	add	x1, sp, #0x150
  402464:	910643e0 	add	x0, sp, #0x190
  402468:	97ffff82 	bl	402270 <_ZNSt7__cxx1112basic_stringIcSt11char_traitsIcESaIcEE9_M_createERmm@plt>
  40246c:	f900cbe0 	str	x0, [sp, #400]
  402470:	f940abe1 	ldr	x1, [sp, #336]
  402474:	f900d3e1 	str	x1, [sp, #416]
  402478:	aa1303e2 	mov	x2, x19
  40247c:	aa1503e1 	mov	x1, x21
  402480:	97fffea8 	bl	401f20 <memcpy@plt>
  402484:	14000003 	b	402490 <main+0x8c>
  402488:	394002a0 	ldrb	w0, [x21]
  40248c:	390683e0 	strb	w0, [sp, #416]
  402490:	f940abe0 	ldr	x0, [sp, #336]
  402494:	f900cfe0 	str	x0, [sp, #408]
  402498:	f940cbe1 	ldr	x1, [sp, #400]
  40249c:	3820683f 	strb	wzr, [x1, x0]
  4024a0:	aa1803e1 	mov	x1, x24
  4024a4:	910643e0 	add	x0, sp, #0x190
  4024a8:	97fffeb2 	bl	401f70 <_ZNKSt7__cxx1112basic_stringIcSt11char_traitsIcESaIcEE7compareEPKc@plt>
  4024ac:	2a0003f3 	mov	w19, w0
  4024b0:	f940cbe0 	ldr	x0, [sp, #400]
  4024b4:	eb16001f 	cmp	x0, x22
  4024b8:	54000080 	b.eq	4024c8 <main+0xc4>  // b.none
  4024bc:	f940d3e1 	ldr	x1, [sp, #416]
  4024c0:	91000421 	add	x1, x1, #0x1
  4024c4:	97fffeff 	bl	4020c0 <_ZdlPvm@plt>
  4024c8:	34000313 	cbz	w19, 402528 <main+0x124>
  4024cc:	91002294 	add	x20, x20, #0x8
  4024d0:	eb1402ff 	cmp	x23, x20
  4024d4:	540001e0 	b.eq	402510 <main+0x10c>  // b.none
  4024d8:	f9400295 	ldr	x21, [x20]
  4024dc:	f900cbf6 	str	x22, [sp, #400]
  4024e0:	b4fffb95 	cbz	x21, 402450 <main+0x4c>
  4024e4:	aa1503e0 	mov	x0, x21
  4024e8:	97fffeaa 	bl	401f90 <strlen@plt>
  4024ec:	aa0003f3 	mov	x19, x0
  4024f0:	f900abe0 	str	x0, [sp, #336]
  4024f4:	f1003c1f 	cmp	x0, #0xf
  4024f8:	54fffb28 	b.hi	40245c <main+0x58>  // b.pmore
  4024fc:	f100041f 	cmp	x0, #0x1
  402500:	54fffc40 	b.eq	402488 <main+0x84>  // b.none
  402504:	b4fffc60 	cbz	x0, 402490 <main+0x8c>
  402508:	aa1603e0 	mov	x0, x22
  40250c:	17ffffdb 	b	402478 <main+0x74>
  402510:	52800020 	mov	w0, #0x1                   	// #1
  402514:	b900bfe0 	str	w0, [sp, #188]
  402518:	14000005 	b	40252c <main+0x128>
  40251c:	52800020 	mov	w0, #0x1                   	// #1
  402520:	b900bfe0 	str	w0, [sp, #188]
  402524:	14000002 	b	40252c <main+0x128>
  402528:	b900bfff 	str	wzr, [sp, #188]
  40252c:	911563e2 	add	x2, sp, #0x558
  402530:	90000081 	adrp	x1, 412000 <_Z19MD5Hash_simdversionPKNSt7__cxx1112basic_stringIcSt11char_traitsIcESaIcEEEP12__Uint32x4_t+0x1480>
  402534:	911c8021 	add	x1, x1, #0x720
  402538:	910643e0 	add	x0, sp, #0x190
  40253c:	97ffff15 	bl	402190 <_ZNSt7__cxx1112basic_stringIcSt11char_traitsIcESaIcEEC1EPKcRKS3_@plt>
  402540:	911543e2 	add	x2, sp, #0x550
  402544:	90000081 	adrp	x1, 412000 <_Z19MD5Hash_simdversionPKNSt7__cxx1112basic_stringIcSt11char_traitsIcESaIcEEEP12__Uint32x4_t+0x1480>
  402548:	911ca021 	add	x1, x1, #0x728
  40254c:	9106c3e0 	add	x0, sp, #0x1b0
  402550:	97ffff10 	bl	402190 <_ZNSt7__cxx1112basic_stringIcSt11char_traitsIcESaIcEEC1EPKcRKS3_@plt>
  402554:	911523e2 	add	x2, sp, #0x548
  402558:	90000081 	adrp	x1, 412000 <_Z19MD5Hash_simdversionPKNSt7__cxx1112basic_stringIcSt11char_traitsIcESaIcEEEP12__Uint32x4_t+0x1480>
  40255c:	911ce021 	add	x1, x1, #0x738
  402560:	910743e0 	add	x0, sp, #0x1d0
  402564:	97ffff0b 	bl	402190 <_ZNSt7__cxx1112basic_stringIcSt11char_traitsIcESaIcEEC1EPKcRKS3_@plt>
  402568:	911503e2 	add	x2, sp, #0x540
  40256c:	90000081 	adrp	x1, 412000 <_Z19MD5Hash_simdversionPKNSt7__cxx1112basic_stringIcSt11char_traitsIcESaIcEEEP12__Uint32x4_t+0x1480>
  402570:	911d2021 	add	x1, x1, #0x748
  402574:	9107c3e0 	add	x0, sp, #0x1f0
  402578:	97ffff06 	bl	402190 <_ZNSt7__cxx1112basic_stringIcSt11char_traitsIcESaIcEEC1EPKcRKS3_@plt>
  40257c:	9114e3e2 	add	x2, sp, #0x538
  402580:	90000081 	adrp	x1, 412000 <_Z19MD5Hash_simdversionPKNSt7__cxx1112basic_stringIcSt11char_traitsIcESaIcEEEP12__Uint32x4_t+0x1480>
  402584:	911d4021 	add	x1, x1, #0x750
  402588:	910843e0 	add	x0, sp, #0x210
  40258c:	97ffff01 	bl	402190 <_ZNSt7__cxx1112basic_stringIcSt11char_traitsIcESaIcEEC1EPKcRKS3_@plt>
  402590:	9114c3e2 	add	x2, sp, #0x530
  402594:	90000081 	adrp	x1, 412000 <_Z19MD5Hash_simdversionPKNSt7__cxx1112basic_stringIcSt11char_traitsIcESaIcEEEP12__Uint32x4_t+0x1480>
  402598:	911d8021 	add	x1, x1, #0x760
  40259c:	9108c3e0 	add	x0, sp, #0x230
  4025a0:	97fffefc 	bl	402190 <_ZNSt7__cxx1112basic_stringIcSt11char_traitsIcESaIcEEC1EPKcRKS3_@plt>
  4025a4:	9114a3e2 	add	x2, sp, #0x528
  4025a8:	90000081 	adrp	x1, 412000 <_Z19MD5Hash_simdversionPKNSt7__cxx1112basic_stringIcSt11char_traitsIcESaIcEEEP12__Uint32x4_t+0x1480>
  4025ac:	911da021 	add	x1, x1, #0x768
  4025b0:	910943e0 	add	x0, sp, #0x250
  4025b4:	97fffef7 	bl	402190 <_ZNSt7__cxx1112basic_stringIcSt11char_traitsIcESaIcEEC1EPKcRKS3_@plt>
  4025b8:	911483e2 	add	x2, sp, #0x520
  4025bc:	90000081 	adrp	x1, 412000 <_Z19MD5Hash_simdversionPKNSt7__cxx1112basic_stringIcSt11char_traitsIcESaIcEEEP12__Uint32x4_t+0x1480>
  4025c0:	911dc021 	add	x1, x1, #0x770
  4025c4:	9109c3e0 	add	x0, sp, #0x270
  4025c8:	97fffef2 	bl	402190 <_ZNSt7__cxx1112basic_stringIcSt11char_traitsIcESaIcEEC1EPKcRKS3_@plt>
  4025cc:	911463e3 	add	x3, sp, #0x518
  4025d0:	910643e1 	add	x1, sp, #0x190
  4025d4:	d2800102 	mov	x2, #0x8                   	// #8
  4025d8:	910303e0 	add	x0, sp, #0xc0
  4025dc:	94000660 	bl	403f5c <_ZNSt6vectorINSt7__cxx1112basic_stringIcSt11char_traitsIcESaIcEEESaIS5_EEC1ESt16initializer_listIS5_ERKS6_>
  4025e0:	1400000b 	b	40260c <main+0x208>
  4025e4:	aa0003f4 	mov	x20, x0
  4025e8:	d28000f3 	mov	x19, #0x7                   	// #7
  4025ec:	910643e0 	add	x0, sp, #0x190
  4025f0:	8b131400 	add	x0, x0, x19, lsl #5
  4025f4:	97fffec7 	bl	402110 <_ZNSt7__cxx1112basic_stringIcSt11char_traitsIcESaIcEE10_M_disposeEv@plt>
  4025f8:	d1000673 	sub	x19, x19, #0x1
  4025fc:	b100067f 	cmn	x19, #0x1
  402600:	54ffff61 	b.ne	4025ec <main+0x1e8>  // b.any
  402604:	aa1403e0 	mov	x0, x20
  402608:	97ffff16 	bl	402260 <_Unwind_Resume@plt>
  40260c:	910643f4 	add	x20, sp, #0x190
  402610:	91038293 	add	x19, x20, #0xe0
  402614:	14000005 	b	402628 <main+0x224>
  402618:	d1008260 	sub	x0, x19, #0x20
  40261c:	eb13029f 	cmp	x20, x19
  402620:	54000140 	b.eq	402648 <main+0x244>  // b.none
  402624:	aa0003f3 	mov	x19, x0
  402628:	aa1303e1 	mov	x1, x19
  40262c:	f8410420 	ldr	x0, [x1], #16
  402630:	eb01001f 	cmp	x0, x1
  402634:	54ffff20 	b.eq	402618 <main+0x214>  // b.none
  402638:	f9400a61 	ldr	x1, [x19, #16]
  40263c:	91000421 	add	x1, x1, #0x1
  402640:	97fffea0 	bl	4020c0 <_ZdlPvm@plt>
  402644:	17fffff5 	b	402618 <main+0x214>
  402648:	911443e2 	add	x2, sp, #0x510
  40264c:	90000081 	adrp	x1, 412000 <_Z19MD5Hash_simdversionPKNSt7__cxx1112basic_stringIcSt11char_traitsIcESaIcEEEP12__Uint32x4_t+0x1480>
  402650:	911de021 	add	x1, x1, #0x778
  402654:	910643e0 	add	x0, sp, #0x190
  402658:	97fffece 	bl	402190 <_ZNSt7__cxx1112basic_stringIcSt11char_traitsIcESaIcEEC1EPKcRKS3_@plt>
  40265c:	911423e2 	add	x2, sp, #0x508
  402660:	90000081 	adrp	x1, 412000 <_Z19MD5Hash_simdversionPKNSt7__cxx1112basic_stringIcSt11char_traitsIcESaIcEEEP12__Uint32x4_t+0x1480>
  402664:	911e8021 	add	x1, x1, #0x7a0
  402668:	9106c3e0 	add	x0, sp, #0x1b0
  40266c:	97fffec9 	bl	402190 <_ZNSt7__cxx1112basic_stringIcSt11char_traitsIcESaIcEEC1EPKcRKS3_@plt>
  402670:	911403e2 	add	x2, sp, #0x500
  402674:	90000081 	adrp	x1, 412000 <_Z19MD5Hash_simdversionPKNSt7__cxx1112basic_stringIcSt11char_traitsIcESaIcEEEP12__Uint32x4_t+0x1480>
  402678:	911f2021 	add	x1, x1, #0x7c8
  40267c:	910743e0 	add	x0, sp, #0x1d0
  402680:	97fffec4 	bl	402190 <_ZNSt7__cxx1112basic_stringIcSt11char_traitsIcESaIcEEC1EPKcRKS3_@plt>
  402684:	9113e3e2 	add	x2, sp, #0x4f8
  402688:	90000081 	adrp	x1, 412000 <_Z19MD5Hash_simdversionPKNSt7__cxx1112basic_stringIcSt11char_traitsIcESaIcEEEP12__Uint32x4_t+0x1480>
  40268c:	911fc021 	add	x1, x1, #0x7f0
  402690:	9107c3e0 	add	x0, sp, #0x1f0
  402694:	97fffebf 	bl	402190 <_ZNSt7__cxx1112basic_stringIcSt11char_traitsIcESaIcEEC1EPKcRKS3_@plt>
  402698:	9113c3e2 	add	x2, sp, #0x4f0
  40269c:	90000081 	adrp	x1, 412000 <_Z19MD5Hash_simdversionPKNSt7__cxx1112basic_stringIcSt11char_traitsIcESaIcEEEP12__Uint32x4_t+0x1480>
  4026a0:	91206021 	add	x1, x1, #0x818
  4026a4:	910843e0 	add	x0, sp, #0x210
  4026a8:	97fffeba 	bl	402190 <_ZNSt7__cxx1112basic_stringIcSt11char_traitsIcESaIcEEC1EPKcRKS3_@plt>
  4026ac:	9113a3e2 	add	x2, sp, #0x4e8
  4026b0:	90000081 	adrp	x1, 412000 <_Z19MD5Hash_simdversionPKNSt7__cxx1112basic_stringIcSt11char_traitsIcESaIcEEEP12__Uint32x4_t+0x1480>
  4026b4:	91210021 	add	x1, x1, #0x840
  4026b8:	9108c3e0 	add	x0, sp, #0x230
  4026bc:	97fffeb5 	bl	402190 <_ZNSt7__cxx1112basic_stringIcSt11char_traitsIcESaIcEEC1EPKcRKS3_@plt>
  4026c0:	911383e2 	add	x2, sp, #0x4e0
  4026c4:	90000081 	adrp	x1, 412000 <_Z19MD5Hash_simdversionPKNSt7__cxx1112basic_stringIcSt11char_traitsIcESaIcEEEP12__Uint32x4_t+0x1480>
  4026c8:	9121a021 	add	x1, x1, #0x868
  4026cc:	910943e0 	add	x0, sp, #0x250
  4026d0:	97fffeb0 	bl	402190 <_ZNSt7__cxx1112basic_stringIcSt11char_traitsIcESaIcEEC1EPKcRKS3_@plt>
  4026d4:	911363e2 	add	x2, sp, #0x4d8
  4026d8:	90000081 	adrp	x1, 412000 <_Z19MD5Hash_simdversionPKNSt7__cxx1112basic_stringIcSt11char_traitsIcESaIcEEEP12__Uint32x4_t+0x1480>
  4026dc:	91224021 	add	x1, x1, #0x890
  4026e0:	9109c3e0 	add	x0, sp, #0x270
  4026e4:	97fffeab 	bl	402190 <_ZNSt7__cxx1112basic_stringIcSt11char_traitsIcESaIcEEC1EPKcRKS3_@plt>
  4026e8:	911343e3 	add	x3, sp, #0x4d0
  4026ec:	910643e1 	add	x1, sp, #0x190
  4026f0:	d2800102 	mov	x2, #0x8                   	// #8
  4026f4:	910363e0 	add	x0, sp, #0xd8
  4026f8:	94000619 	bl	403f5c <_ZNSt6vectorINSt7__cxx1112basic_stringIcSt11char_traitsIcESaIcEEESaIS5_EEC1ESt16initializer_listIS5_ERKS6_>
  4026fc:	1400000d 	b	402730 <main+0x32c>
  402700:	aa0003f3 	mov	x19, x0
  402704:	d28000f4 	mov	x20, #0x7                   	// #7
  402708:	910643e0 	add	x0, sp, #0x190
  40270c:	8b141400 	add	x0, x0, x20, lsl #5
  402710:	97fffe80 	bl	402110 <_ZNSt7__cxx1112basic_stringIcSt11char_traitsIcESaIcEE10_M_disposeEv@plt>
  402714:	d1000694 	sub	x20, x20, #0x1
  402718:	b100069f 	cmn	x20, #0x1
  40271c:	54ffff61 	b.ne	402708 <main+0x304>  // b.any
  402720:	910303e0 	add	x0, sp, #0xc0
  402724:	94000410 	bl	403764 <_ZNSt6vectorINSt7__cxx1112basic_stringIcSt11char_traitsIcESaIcEEESaIS5_EED1Ev>
  402728:	aa1303e0 	mov	x0, x19
  40272c:	97fffecd 	bl	402260 <_Unwind_Resume@plt>
  402730:	910643f4 	add	x20, sp, #0x190
  402734:	91038293 	add	x19, x20, #0xe0
  402738:	14000005 	b	40274c <main+0x348>
  40273c:	d1008260 	sub	x0, x19, #0x20
  402740:	eb14027f 	cmp	x19, x20
  402744:	54000140 	b.eq	40276c <main+0x368>  // b.none
  402748:	aa0003f3 	mov	x19, x0
  40274c:	aa1303e1 	mov	x1, x19
  402750:	f8410420 	ldr	x0, [x1], #16
  402754:	eb01001f 	cmp	x0, x1
  402758:	54ffff20 	b.eq	40273c <main+0x338>  // b.none
  40275c:	f9400a61 	ldr	x1, [x19, #16]
  402760:	91000421 	add	x1, x1, #0x1
  402764:	97fffe57 	bl	4020c0 <_ZdlPvm@plt>
  402768:	17fffff5 	b	40273c <main+0x338>
  40276c:	90000081 	adrp	x1, 412000 <_Z19MD5Hash_simdversionPKNSt7__cxx1112basic_stringIcSt11char_traitsIcESaIcEEEP12__Uint32x4_t+0x1480>
  402770:	9122e021 	add	x1, x1, #0x8b8
  402774:	d0000160 	adrp	x0, 430000 <_Znam@GLIBCXX_3.4>
  402778:	91084000 	add	x0, x0, #0x210
  40277c:	97fffe49 	bl	4020a0 <_ZStlsISt11char_traitsIcEERSt13basic_ostreamIcT_ES5_PKc@plt>
  402780:	97fffe18 	bl	401fe0 <_ZSt4endlIcSt11char_traitsIcEERSt13basic_ostreamIT_T0_ES6_@plt>
  402784:	f94063e0 	ldr	x0, [sp, #192]
  402788:	f94067e1 	ldr	x1, [sp, #200]
  40278c:	eb00003f 	cmp	x1, x0
  402790:	54002800 	b.eq	402c90 <main+0x88c>  // b.none
  402794:	f9003bff 	str	xzr, [sp, #112]
  402798:	910643f5 	add	x21, sp, #0x190
  40279c:	910042b6 	add	x22, x21, #0x10
  4027a0:	910583e1 	add	x1, sp, #0x160
  4027a4:	f90043e1 	str	x1, [sp, #128]
  4027a8:	1400010c 	b	402bd8 <main+0x7d4>
  4027ac:	910202a0 	add	x0, x21, #0x80
  4027b0:	97fffdf4 	bl	401f80 <_ZNSt8ios_baseC2Ev@plt>
  4027b4:	b0000160 	adrp	x0, 42f000 <__FRAME_END__+0x1a654>
  4027b8:	912c0000 	add	x0, x0, #0xb00
  4027bc:	f9010be0 	str	x0, [sp, #528]
  4027c0:	f90177ff 	str	xzr, [sp, #744]
  4027c4:	390bc3ff 	strb	wzr, [sp, #752]
  4027c8:	390bc7ff 	strb	wzr, [sp, #753]
  4027cc:	f9017fff 	str	xzr, [sp, #760]
  4027d0:	f90183ff 	str	xzr, [sp, #768]
  4027d4:	f90187ff 	str	xzr, [sp, #776]
  4027d8:	f9018bff 	str	xzr, [sp, #784]
  4027dc:	b0000160 	adrp	x0, 42f000 <__FRAME_END__+0x1a654>
  4027e0:	912c4000 	add	x0, x0, #0xb10
  4027e4:	f9400818 	ldr	x24, [x0, #16]
  4027e8:	f900cbf8 	str	x24, [sp, #400]
  4027ec:	f9400c00 	ldr	x0, [x0, #24]
  4027f0:	aa0003e1 	mov	x1, x0
  4027f4:	f90047e0 	str	x0, [sp, #136]
  4027f8:	f85e8300 	ldur	x0, [x24, #-24]
  4027fc:	f8206aa1 	str	x1, [x21, x0]
  402800:	f900cfff 	str	xzr, [sp, #408]
  402804:	f940cbe0 	ldr	x0, [sp, #400]
  402808:	f85e8000 	ldur	x0, [x0, #-24]
  40280c:	d2800001 	mov	x1, #0x0                   	// #0
  402810:	8b0002a0 	add	x0, x21, x0
  402814:	97fffe5b 	bl	402180 <_ZNSt9basic_iosIcSt11char_traitsIcEE4initEPSt15basic_streambufIcS1_E@plt>
  402818:	b0000160 	adrp	x0, 42f000 <__FRAME_END__+0x1a654>
  40281c:	912c4000 	add	x0, x0, #0xb10
  402820:	f940101b 	ldr	x27, [x0, #32]
  402824:	f900d3fb 	str	x27, [sp, #416]
  402828:	f9401400 	ldr	x0, [x0, #40]
  40282c:	aa0003e2 	mov	x2, x0
  402830:	f9004fe0 	str	x0, [sp, #152]
  402834:	f85e8360 	ldur	x0, [x27, #-24]
  402838:	910683e1 	add	x1, sp, #0x1a0
  40283c:	f8206822 	str	x2, [x1, x0]
  402840:	f940d3e0 	ldr	x0, [sp, #416]
  402844:	f85e8000 	ldur	x0, [x0, #-24]
  402848:	d2800001 	mov	x1, #0x0                   	// #0
  40284c:	8b0002c0 	add	x0, x22, x0
  402850:	97fffe4c 	bl	402180 <_ZNSt9basic_iosIcSt11char_traitsIcEE4initEPSt15basic_streambufIcS1_E@plt>
  402854:	b0000160 	adrp	x0, 42f000 <__FRAME_END__+0x1a654>
  402858:	912c4000 	add	x0, x0, #0xb10
  40285c:	f940041c 	ldr	x28, [x0, #8]
  402860:	f900cbfc 	str	x28, [sp, #400]
  402864:	f9401800 	ldr	x0, [x0, #48]
  402868:	aa0003e1 	mov	x1, x0
  40286c:	f9004be0 	str	x0, [sp, #144]
  402870:	f85e8380 	ldur	x0, [x28, #-24]
  402874:	f8206aa1 	str	x1, [x21, x0]
  402878:	b0000160 	adrp	x0, 42f000 <__FRAME_END__+0x1a654>
  40287c:	91312000 	add	x0, x0, #0xc48
  402880:	f900cbe0 	str	x0, [sp, #400]
  402884:	b0000160 	adrp	x0, 42f000 <__FRAME_END__+0x1a654>
  402888:	91326000 	add	x0, x0, #0xc98
  40288c:	f9010be0 	str	x0, [sp, #528]
  402890:	b0000160 	adrp	x0, 42f000 <__FRAME_END__+0x1a654>
  402894:	9131c000 	add	x0, x0, #0xc70
  402898:	f900d3e0 	str	x0, [sp, #416]
  40289c:	b0000160 	adrp	x0, 42f000 <__FRAME_END__+0x1a654>
  4028a0:	912dc000 	add	x0, x0, #0xb70
  4028a4:	f900d7e0 	str	x0, [sp, #424]
  4028a8:	f900dbff 	str	xzr, [sp, #432]
  4028ac:	f900dfff 	str	xzr, [sp, #440]
  4028b0:	f900e3ff 	str	xzr, [sp, #448]
  4028b4:	f900e7ff 	str	xzr, [sp, #456]
  4028b8:	f900ebff 	str	xzr, [sp, #464]
  4028bc:	f900efff 	str	xzr, [sp, #472]
  4028c0:	910142a0 	add	x0, x21, #0x50
  4028c4:	97fffe7b 	bl	4022b0 <_ZNSt6localeC1Ev@plt>
  4028c8:	b0000160 	adrp	x0, 42f000 <__FRAME_END__+0x1a654>
  4028cc:	91356000 	add	x0, x0, #0xd58
  4028d0:	f900d7e0 	str	x0, [sp, #424]
  4028d4:	52800300 	mov	w0, #0x18                  	// #24
  4028d8:	b901ebe0 	str	w0, [sp, #488]
  4028dc:	9101c2a0 	add	x0, x21, #0x70
  4028e0:	f900fbe0 	str	x0, [sp, #496]
  4028e4:	f900ffff 	str	xzr, [sp, #504]
  4028e8:	390803ff 	strb	wzr, [sp, #512]
  4028ec:	910062a1 	add	x1, x21, #0x18
  4028f0:	910202a0 	add	x0, x21, #0x80
  4028f4:	97fffe23 	bl	402180 <_ZNSt9basic_iosIcSt11char_traitsIcEE4initEPSt15basic_streambufIcS1_E@plt>
  4028f8:	1400001a 	b	402960 <main+0x55c>
  4028fc:	f900cbf8 	str	x24, [sp, #400]
  402900:	f85e8301 	ldur	x1, [x24, #-24]
  402904:	910643e2 	add	x2, sp, #0x190
  402908:	f94047e3 	ldr	x3, [sp, #136]
  40290c:	f8216843 	str	x3, [x2, x1]
  402910:	f900cfff 	str	xzr, [sp, #408]
  402914:	aa0003f3 	mov	x19, x0
  402918:	b0000160 	adrp	x0, 42f000 <__FRAME_END__+0x1a654>
  40291c:	912c0000 	add	x0, x0, #0xb00
  402920:	f9010be0 	str	x0, [sp, #528]
  402924:	910843e0 	add	x0, sp, #0x210
  402928:	97fffda2 	bl	401fb0 <_ZNSt8ios_baseD2Ev@plt>
  40292c:	910363e0 	add	x0, sp, #0xd8
  402930:	9400038d 	bl	403764 <_ZNSt6vectorINSt7__cxx1112basic_stringIcSt11char_traitsIcESaIcEEESaIS5_EED1Ev>
  402934:	17ffff7b 	b	402720 <main+0x31c>
  402938:	aa0003f3 	mov	x19, x0
  40293c:	9106a3e0 	add	x0, sp, #0x1a8
  402940:	94000558 	bl	403ea0 <_ZNSt7__cxx1115basic_stringbufIcSt11char_traitsIcESaIcEED1Ev>
  402944:	b0000161 	adrp	x1, 42f000 <__FRAME_END__+0x1a654>
  402948:	912c6021 	add	x1, x1, #0xb18
  40294c:	910643e0 	add	x0, sp, #0x190
  402950:	97fffd7c 	bl	401f40 <_ZNSdD2Ev@plt>
  402954:	17fffff1 	b	402918 <main+0x514>
  402958:	aa0003f3 	mov	x19, x0
  40295c:	17ffffef 	b	402918 <main+0x514>
  402960:	910443f4 	add	x20, sp, #0x110
  402964:	9100429a 	add	x26, x20, #0x10
  402968:	d2800119 	mov	x25, #0x8                   	// #8
  40296c:	14000016 	b	4029c4 <main+0x5c0>
  402970:	f9407a77 	ldr	x23, [x19, #240]
  402974:	b40000d7 	cbz	x23, 40298c <main+0x588>
  402978:	3940e2e0 	ldrb	w0, [x23, #56]
  40297c:	340000e0 	cbz	w0, 402998 <main+0x594>
  402980:	52800020 	mov	w0, #0x1                   	// #1
  402984:	39038660 	strb	w0, [x19, #225]
  402988:	14000019 	b	4029ec <main+0x5e8>
  40298c:	97fffde9 	bl	402130 <_ZSt16__throw_bad_castv@plt>
  402990:	aa0003f3 	mov	x19, x0
  402994:	14000079 	b	402b78 <main+0x774>
  402998:	aa1703e0 	mov	x0, x23
  40299c:	97fffdd9 	bl	402100 <_ZNKSt5ctypeIcE13_M_widen_initEv@plt>
  4029a0:	f94002e0 	ldr	x0, [x23]
  4029a4:	f9401802 	ldr	x2, [x0, #48]
  4029a8:	52800401 	mov	w1, #0x20                  	// #32
  4029ac:	aa1703e0 	mov	x0, x23
  4029b0:	d63f0040 	blr	x2
  4029b4:	17fffff3 	b	402980 <main+0x57c>
  4029b8:	91001294 	add	x20, x20, #0x4
  4029bc:	eb1a029f 	cmp	x20, x26
  4029c0:	54000320 	b.eq	402a24 <main+0x620>  // b.none
  4029c4:	f940d3e0 	ldr	x0, [sp, #416]
  4029c8:	f85e8000 	ldur	x0, [x0, #-24]
  4029cc:	910683e1 	add	x1, sp, #0x1a0
  4029d0:	8b000020 	add	x0, x1, x0
  4029d4:	f9000819 	str	x25, [x0, #16]
  4029d8:	f940d3e0 	ldr	x0, [sp, #416]
  4029dc:	f85e8013 	ldur	x19, [x0, #-24]
  4029e0:	8b1302d3 	add	x19, x22, x19
  4029e4:	39438660 	ldrb	w0, [x19, #225]
  4029e8:	34fffc40 	cbz	w0, 402970 <main+0x56c>
  4029ec:	52800600 	mov	w0, #0x30                  	// #48
  4029f0:	39038260 	strb	w0, [x19, #224]
  4029f4:	f940d3e0 	ldr	x0, [sp, #416]
  4029f8:	f85e8001 	ldur	x1, [x0, #-24]
  4029fc:	8b0102c1 	add	x1, x22, x1
  402a00:	b9401820 	ldr	w0, [x1, #24]
  402a04:	12800942 	mov	w2, #0xffffffb5            	// #-75
  402a08:	0a020000 	and	w0, w0, w2
  402a0c:	321d0000 	orr	w0, w0, #0x8
  402a10:	b9001820 	str	w0, [x1, #24]
  402a14:	b9400281 	ldr	w1, [x20]
  402a18:	aa1603e0 	mov	x0, x22
  402a1c:	97fffd85 	bl	402030 <_ZNSo9_M_insertImEERSoT_@plt>
  402a20:	17ffffe6 	b	4029b8 <main+0x5b4>
  402a24:	f94043e0 	ldr	x0, [sp, #128]
  402a28:	f900abe0 	str	x0, [sp, #336]
  402a2c:	f900afff 	str	xzr, [sp, #344]
  402a30:	390583ff 	strb	wzr, [sp, #352]
  402a34:	f940ebe0 	ldr	x0, [sp, #464]
  402a38:	b4000240 	cbz	x0, 402a80 <main+0x67c>
  402a3c:	f940e3e4 	ldr	x4, [sp, #448]
  402a40:	eb04001f 	cmp	x0, x4
  402a44:	54000109 	b.ls	402a64 <main+0x660>  // b.plast
  402a48:	f940e7e3 	ldr	x3, [sp, #456]
  402a4c:	cb030004 	sub	x4, x0, x3
  402a50:	d2800002 	mov	x2, #0x0                   	// #0
  402a54:	d2800001 	mov	x1, #0x0                   	// #0
  402a58:	910543e0 	add	x0, sp, #0x150
  402a5c:	97fffde1 	bl	4021e0 <_ZNSt7__cxx1112basic_stringIcSt11char_traitsIcESaIcEE10_M_replaceEmmPKcm@plt>
  402a60:	1400000b 	b	402a8c <main+0x688>
  402a64:	f940e7e3 	ldr	x3, [sp, #456]
  402a68:	cb030084 	sub	x4, x4, x3
  402a6c:	d2800002 	mov	x2, #0x0                   	// #0
  402a70:	d2800001 	mov	x1, #0x0                   	// #0
  402a74:	910543e0 	add	x0, sp, #0x150
  402a78:	97fffdda 	bl	4021e0 <_ZNSt7__cxx1112basic_stringIcSt11char_traitsIcESaIcEE10_M_replaceEmmPKcm@plt>
  402a7c:	14000004 	b	402a8c <main+0x688>
  402a80:	910182a1 	add	x1, x21, #0x60
  402a84:	910543e0 	add	x0, sp, #0x150
  402a88:	97fffd62 	bl	402010 <_ZNSt7__cxx1112basic_stringIcSt11char_traitsIcESaIcEE9_M_assignERKS4_@plt>
  402a8c:	b0000160 	adrp	x0, 42f000 <__FRAME_END__+0x1a654>
  402a90:	91312000 	add	x0, x0, #0xc48
  402a94:	f900cbe0 	str	x0, [sp, #400]
  402a98:	b0000160 	adrp	x0, 42f000 <__FRAME_END__+0x1a654>
  402a9c:	91326000 	add	x0, x0, #0xc98
  402aa0:	f9010be0 	str	x0, [sp, #528]
  402aa4:	b0000160 	adrp	x0, 42f000 <__FRAME_END__+0x1a654>
  402aa8:	9131c000 	add	x0, x0, #0xc70
  402aac:	f900d3e0 	str	x0, [sp, #416]
  402ab0:	b0000160 	adrp	x0, 42f000 <__FRAME_END__+0x1a654>
  402ab4:	91356000 	add	x0, x0, #0xd58
  402ab8:	f900d7e0 	str	x0, [sp, #424]
  402abc:	f940fbe0 	ldr	x0, [sp, #496]
  402ac0:	9101c2a1 	add	x1, x21, #0x70
  402ac4:	eb01001f 	cmp	x0, x1
  402ac8:	54000080 	b.eq	402ad8 <main+0x6d4>  // b.none
  402acc:	f94103e1 	ldr	x1, [sp, #512]
  402ad0:	91000421 	add	x1, x1, #0x1
  402ad4:	97fffd7b 	bl	4020c0 <_ZdlPvm@plt>
  402ad8:	b0000160 	adrp	x0, 42f000 <__FRAME_END__+0x1a654>
  402adc:	912dc000 	add	x0, x0, #0xb70
  402ae0:	f900d7e0 	str	x0, [sp, #424]
  402ae4:	910142a0 	add	x0, x21, #0x50
  402ae8:	97fffdae 	bl	4021a0 <_ZNSt6localeD1Ev@plt>
  402aec:	f900cbfc 	str	x28, [sp, #400]
  402af0:	f85e8380 	ldur	x0, [x28, #-24]
  402af4:	f9404be1 	ldr	x1, [sp, #144]
  402af8:	f8206aa1 	str	x1, [x21, x0]
  402afc:	f900d3fb 	str	x27, [sp, #416]
  402b00:	f85e8360 	ldur	x0, [x27, #-24]
  402b04:	910683e1 	add	x1, sp, #0x1a0
  402b08:	f9404fe2 	ldr	x2, [sp, #152]
  402b0c:	f8206822 	str	x2, [x1, x0]
  402b10:	f900cbf8 	str	x24, [sp, #400]
  402b14:	f85e8300 	ldur	x0, [x24, #-24]
  402b18:	f94047e1 	ldr	x1, [sp, #136]
  402b1c:	f8206aa1 	str	x1, [x21, x0]
  402b20:	f900cfff 	str	xzr, [sp, #408]
  402b24:	b0000160 	adrp	x0, 42f000 <__FRAME_END__+0x1a654>
  402b28:	912c0000 	add	x0, x0, #0xb00
  402b2c:	f9010be0 	str	x0, [sp, #528]
  402b30:	910202a0 	add	x0, x21, #0x80
  402b34:	97fffd1f 	bl	401fb0 <_ZNSt8ios_baseD2Ev@plt>
  402b38:	f9406fe0 	ldr	x0, [sp, #216]
  402b3c:	f9403fe1 	ldr	x1, [sp, #120]
  402b40:	8b010001 	add	x1, x0, x1
  402b44:	f940afe2 	ldr	x2, [sp, #344]
  402b48:	f9400421 	ldr	x1, [x1, #8]
  402b4c:	eb01005f 	cmp	x2, x1
  402b50:	540001a0 	b.eq	402b84 <main+0x780>  // b.none
  402b54:	90000081 	adrp	x1, 412000 <_Z19MD5Hash_simdversionPKNSt7__cxx1112basic_stringIcSt11char_traitsIcESaIcEEEP12__Uint32x4_t+0x1480>
  402b58:	91284021 	add	x1, x1, #0xa10
  402b5c:	d0000160 	adrp	x0, 430000 <_Znam@GLIBCXX_3.4>
  402b60:	91084000 	add	x0, x0, #0x210
  402b64:	97fffd4f 	bl	4020a0 <_ZStlsISt11char_traitsIcEERSt13basic_ostreamIcT_ES5_PKc@plt>
  402b68:	140002e8 	b	403708 <main+0x1304>
  402b6c:	aa0003f3 	mov	x19, x0
  402b70:	910543e0 	add	x0, sp, #0x150
  402b74:	97fffd67 	bl	402110 <_ZNSt7__cxx1112basic_stringIcSt11char_traitsIcESaIcEE10_M_disposeEv@plt>
  402b78:	910643e0 	add	x0, sp, #0x190
  402b7c:	97fffd41 	bl	402080 <_ZNSt7__cxx1118basic_stringstreamIcSt11char_traitsIcESaIcEED1Ev@plt>
  402b80:	17ffff6b 	b	40292c <main+0x528>
  402b84:	b40000c2 	cbz	x2, 402b9c <main+0x798>
  402b88:	f9403fe1 	ldr	x1, [sp, #120]
  402b8c:	f8616801 	ldr	x1, [x0, x1]
  402b90:	f940abe0 	ldr	x0, [sp, #336]
  402b94:	97fffd17 	bl	401ff0 <memcmp@plt>
  402b98:	35fffde0 	cbnz	w0, 402b54 <main+0x750>
  402b9c:	f940abe0 	ldr	x0, [sp, #336]
  402ba0:	f94043e1 	ldr	x1, [sp, #128]
  402ba4:	eb01001f 	cmp	x0, x1
  402ba8:	54000080 	b.eq	402bb8 <main+0x7b4>  // b.none
  402bac:	f940b3e1 	ldr	x1, [sp, #352]
  402bb0:	91000421 	add	x1, x1, #0x1
  402bb4:	97fffd43 	bl	4020c0 <_ZdlPvm@plt>
  402bb8:	f9403be0 	ldr	x0, [sp, #112]
  402bbc:	91000402 	add	x2, x0, #0x1
  402bc0:	f9003be2 	str	x2, [sp, #112]
  402bc4:	f94063e0 	ldr	x0, [sp, #192]
  402bc8:	f94067e1 	ldr	x1, [sp, #200]
  402bcc:	cb000021 	sub	x1, x1, x0
  402bd0:	eb81145f 	cmp	x2, x1, asr #5
  402bd4:	540005e2 	b.cs	402c90 <main+0x88c>  // b.hs, b.nlast
  402bd8:	f9403be1 	ldr	x1, [sp, #112]
  402bdc:	d37be821 	lsl	x1, x1, #5
  402be0:	aa0103e2 	mov	x2, x1
  402be4:	f9003fe1 	str	x1, [sp, #120]
  402be8:	910443e1 	add	x1, sp, #0x110
  402bec:	8b020000 	add	x0, x0, x2
  402bf0:	94003514 	bl	410040 <_Z7MD5HashRKNSt7__cxx1112basic_stringIcSt11char_traitsIcESaIcEEEPj>
  402bf4:	17fffeee 	b	4027ac <main+0x3a8>
  402bf8:	90000081 	adrp	x1, 412000 <_Z19MD5Hash_simdversionPKNSt7__cxx1112basic_stringIcSt11char_traitsIcESaIcEEEP12__Uint32x4_t+0x1480>
  402bfc:	91236021 	add	x1, x1, #0x8d8
  402c00:	97fffd28 	bl	4020a0 <_ZStlsISt11char_traitsIcEERSt13basic_ostreamIcT_ES5_PKc@plt>
  402c04:	97fffcf7 	bl	401fe0 <_ZSt4endlIcSt11char_traitsIcEERSt13basic_ostreamIT_T0_ES6_@plt>
  402c08:	90000081 	adrp	x1, 412000 <_Z19MD5Hash_simdversionPKNSt7__cxx1112basic_stringIcSt11char_traitsIcESaIcEEEP12__Uint32x4_t+0x1480>
  402c0c:	91238021 	add	x1, x1, #0x8e0
  402c10:	d0000160 	adrp	x0, 430000 <_Znam@GLIBCXX_3.4>
  402c14:	91084000 	add	x0, x0, #0x210
  402c18:	97fffd22 	bl	4020a0 <_ZStlsISt11char_traitsIcEERSt13basic_ostreamIcT_ES5_PKc@plt>
  402c1c:	f9406fe1 	ldr	x1, [sp, #216]
  402c20:	f9403fe3 	ldr	x3, [sp, #120]
  402c24:	8b030022 	add	x2, x1, x3
  402c28:	f9400442 	ldr	x2, [x2, #8]
  402c2c:	f8636821 	ldr	x1, [x1, x3]
  402c30:	97fffd30 	bl	4020f0 <_ZSt16__ostream_insertIcSt11char_traitsIcEERSt13basic_ostreamIT_T0_ES6_PKS3_l@plt>
  402c34:	90000081 	adrp	x1, 412000 <_Z19MD5Hash_simdversionPKNSt7__cxx1112basic_stringIcSt11char_traitsIcESaIcEEEP12__Uint32x4_t+0x1480>
  402c38:	9123c021 	add	x1, x1, #0x8f0
  402c3c:	97fffd19 	bl	4020a0 <_ZStlsISt11char_traitsIcEERSt13basic_ostreamIcT_ES5_PKc@plt>
  402c40:	f940afe2 	ldr	x2, [sp, #344]
  402c44:	f940abe1 	ldr	x1, [sp, #336]
  402c48:	97fffd2a 	bl	4020f0 <_ZSt16__ostream_insertIcSt11char_traitsIcEERSt13basic_ostreamIT_T0_ES6_PKS3_l@plt>
  402c4c:	97fffce5 	bl	401fe0 <_ZSt4endlIcSt11char_traitsIcEERSt13basic_ostreamIT_T0_ES6_@plt>
  402c50:	910543e0 	add	x0, sp, #0x150
  402c54:	97fffd2f 	bl	402110 <_ZNSt7__cxx1112basic_stringIcSt11char_traitsIcESaIcEE10_M_disposeEv@plt>
  402c58:	910363e0 	add	x0, sp, #0xd8
  402c5c:	940002c2 	bl	403764 <_ZNSt6vectorINSt7__cxx1112basic_stringIcSt11char_traitsIcESaIcEEESaIS5_EED1Ev>
  402c60:	910303e0 	add	x0, sp, #0xc0
  402c64:	940002c0 	bl	403764 <_ZNSt6vectorINSt7__cxx1112basic_stringIcSt11char_traitsIcESaIcEEESaIS5_EED1Ev>
  402c68:	52800020 	mov	w0, #0x1                   	// #1
  402c6c:	6d4627e8 	ldp	d8, d9, [sp, #96]
  402c70:	a94153f3 	ldp	x19, x20, [sp, #16]
  402c74:	a9425bf5 	ldp	x21, x22, [sp, #32]
  402c78:	a94363f7 	ldp	x23, x24, [sp, #48]
  402c7c:	a9446bf9 	ldp	x25, x26, [sp, #64]
  402c80:	a94573fb 	ldp	x27, x28, [sp, #80]
  402c84:	a9407bfd 	ldp	x29, x30, [sp]
  402c88:	911583ff 	add	sp, sp, #0x560
  402c8c:	d65f03c0 	ret
  402c90:	90000081 	adrp	x1, 412000 <_Z19MD5Hash_simdversionPKNSt7__cxx1112basic_stringIcSt11char_traitsIcESaIcEEEP12__Uint32x4_t+0x1480>
  402c94:	91240021 	add	x1, x1, #0x900
  402c98:	d0000160 	adrp	x0, 430000 <_Znam@GLIBCXX_3.4>
  402c9c:	91084000 	add	x0, x0, #0x210
  402ca0:	97fffd00 	bl	4020a0 <_ZStlsISt11char_traitsIcEERSt13basic_ostreamIcT_ES5_PKc@plt>
  402ca4:	97fffccf 	bl	401fe0 <_ZSt4endlIcSt11char_traitsIcEERSt13basic_ostreamIT_T0_ES6_@plt>
  402ca8:	90000081 	adrp	x1, 412000 <_Z19MD5Hash_simdversionPKNSt7__cxx1112basic_stringIcSt11char_traitsIcESaIcEEEP12__Uint32x4_t+0x1480>
  402cac:	91246021 	add	x1, x1, #0x918
  402cb0:	d0000160 	adrp	x0, 430000 <_Znam@GLIBCXX_3.4>
  402cb4:	91084000 	add	x0, x0, #0x210
  402cb8:	97fffcfa 	bl	4020a0 <_ZStlsISt11char_traitsIcEERSt13basic_ostreamIcT_ES5_PKc@plt>
  402cbc:	97fffcc9 	bl	401fe0 <_ZSt4endlIcSt11char_traitsIcEERSt13basic_ostreamIT_T0_ES6_@plt>
  402cc0:	f94063e0 	ldr	x0, [sp, #192]
  402cc4:	f94067e1 	ldr	x1, [sp, #200]
  402cc8:	eb00003f 	cmp	x1, x0
  402ccc:	54002920 	b.eq	4031f0 <main+0xdec>  // b.none
  402cd0:	f90057ff 	str	xzr, [sp, #168]
  402cd4:	f9005bff 	str	xzr, [sp, #176]
  402cd8:	910643f4 	add	x20, sp, #0x190
  402cdc:	91004295 	add	x21, x20, #0x10
  402ce0:	1400013f 	b	4031dc <main+0xdd8>
  402ce4:	910543e0 	add	x0, sp, #0x150
  402ce8:	f9003fe0 	str	x0, [sp, #120]
  402cec:	910583e0 	add	x0, sp, #0x160
  402cf0:	f90053e0 	str	x0, [sp, #160]
  402cf4:	f9003bf3 	str	x19, [sp, #112]
  402cf8:	910403e0 	add	x0, sp, #0x100
  402cfc:	f90043e0 	str	x0, [sp, #128]
  402d00:	140000ef 	b	4030bc <main+0xcb8>
  402d04:	b0000160 	adrp	x0, 42f000 <__FRAME_END__+0x1a654>
  402d08:	912c4000 	add	x0, x0, #0xb10
  402d0c:	f940101a 	ldr	x26, [x0, #32]
  402d10:	f900d3fa 	str	x26, [sp, #416]
  402d14:	f9401400 	ldr	x0, [x0, #40]
  402d18:	aa0003e2 	mov	x2, x0
  402d1c:	f9004fe0 	str	x0, [sp, #152]
  402d20:	f85e8340 	ldur	x0, [x26, #-24]
  402d24:	910683e1 	add	x1, sp, #0x1a0
  402d28:	f8206822 	str	x2, [x1, x0]
  402d2c:	f940d3e0 	ldr	x0, [sp, #416]
  402d30:	f85e8000 	ldur	x0, [x0, #-24]
  402d34:	d2800001 	mov	x1, #0x0                   	// #0
  402d38:	8b0002a0 	add	x0, x21, x0
  402d3c:	97fffd11 	bl	402180 <_ZNSt9basic_iosIcSt11char_traitsIcEE4initEPSt15basic_streambufIcS1_E@plt>
  402d40:	b0000160 	adrp	x0, 42f000 <__FRAME_END__+0x1a654>
  402d44:	912c4000 	add	x0, x0, #0xb10
  402d48:	f940041b 	ldr	x27, [x0, #8]
  402d4c:	f900cbfb 	str	x27, [sp, #400]
  402d50:	f9401800 	ldr	x0, [x0, #48]
  402d54:	aa0003e1 	mov	x1, x0
  402d58:	f9004be0 	str	x0, [sp, #144]
  402d5c:	f85e8360 	ldur	x0, [x27, #-24]
  402d60:	f8206a81 	str	x1, [x20, x0]
  402d64:	b0000160 	adrp	x0, 42f000 <__FRAME_END__+0x1a654>
  402d68:	91312000 	add	x0, x0, #0xc48
  402d6c:	f900cbe0 	str	x0, [sp, #400]
  402d70:	b0000160 	adrp	x0, 42f000 <__FRAME_END__+0x1a654>
  402d74:	91326000 	add	x0, x0, #0xc98
  402d78:	f9010be0 	str	x0, [sp, #528]
  402d7c:	b0000160 	adrp	x0, 42f000 <__FRAME_END__+0x1a654>
  402d80:	9131c000 	add	x0, x0, #0xc70
  402d84:	f900d3e0 	str	x0, [sp, #416]
  402d88:	b0000160 	adrp	x0, 42f000 <__FRAME_END__+0x1a654>
  402d8c:	912dc000 	add	x0, x0, #0xb70
  402d90:	f900d7e0 	str	x0, [sp, #424]
  402d94:	f900dbff 	str	xzr, [sp, #432]
  402d98:	f900dfff 	str	xzr, [sp, #440]
  402d9c:	f900e3ff 	str	xzr, [sp, #448]
  402da0:	f900e7ff 	str	xzr, [sp, #456]
  402da4:	f900ebff 	str	xzr, [sp, #464]
  402da8:	f900efff 	str	xzr, [sp, #472]
  402dac:	91014280 	add	x0, x20, #0x50
  402db0:	97fffd40 	bl	4022b0 <_ZNSt6localeC1Ev@plt>
  402db4:	b0000160 	adrp	x0, 42f000 <__FRAME_END__+0x1a654>
  402db8:	91356000 	add	x0, x0, #0xd58
  402dbc:	f900d7e0 	str	x0, [sp, #424]
  402dc0:	52800300 	mov	w0, #0x18                  	// #24
  402dc4:	b901ebe0 	str	w0, [sp, #488]
  402dc8:	9101c280 	add	x0, x20, #0x70
  402dcc:	f900fbe0 	str	x0, [sp, #496]
  402dd0:	f900ffff 	str	xzr, [sp, #504]
  402dd4:	390803ff 	strb	wzr, [sp, #512]
  402dd8:	91006281 	add	x1, x20, #0x18
  402ddc:	91020280 	add	x0, x20, #0x80
  402de0:	97fffce8 	bl	402180 <_ZNSt9basic_iosIcSt11char_traitsIcEE4initEPSt15basic_streambufIcS1_E@plt>
  402de4:	14000018 	b	402e44 <main+0xa40>
  402de8:	f900cbf9 	str	x25, [sp, #400]
  402dec:	f85e8321 	ldur	x1, [x25, #-24]
  402df0:	910643e2 	add	x2, sp, #0x190
  402df4:	f94047e3 	ldr	x3, [sp, #136]
  402df8:	f8216843 	str	x3, [x2, x1]
  402dfc:	f900cfff 	str	xzr, [sp, #408]
  402e00:	aa0003f3 	mov	x19, x0
  402e04:	b0000160 	adrp	x0, 42f000 <__FRAME_END__+0x1a654>
  402e08:	912c0000 	add	x0, x0, #0xb00
  402e0c:	f9010be0 	str	x0, [sp, #528]
  402e10:	910843e0 	add	x0, sp, #0x210
  402e14:	97fffc67 	bl	401fb0 <_ZNSt8ios_baseD2Ev@plt>
  402e18:	17fffec5 	b	40292c <main+0x528>
  402e1c:	aa0003f3 	mov	x19, x0
  402e20:	9106a3e0 	add	x0, sp, #0x1a8
  402e24:	9400041f 	bl	403ea0 <_ZNSt7__cxx1115basic_stringbufIcSt11char_traitsIcESaIcEED1Ev>
  402e28:	b0000161 	adrp	x1, 42f000 <__FRAME_END__+0x1a654>
  402e2c:	912c6021 	add	x1, x1, #0xb18
  402e30:	910643e0 	add	x0, sp, #0x190
  402e34:	97fffc43 	bl	401f40 <_ZNSdD2Ev@plt>
  402e38:	17fffff3 	b	402e04 <main+0xa00>
  402e3c:	aa0003f3 	mov	x19, x0
  402e40:	17fffff1 	b	402e04 <main+0xa00>
  402e44:	f9403ff7 	ldr	x23, [sp, #120]
  402e48:	52800096 	mov	w22, #0x4                   	// #4
  402e4c:	d280011c 	mov	x28, #0x8                   	// #8
  402e50:	14000016 	b	402ea8 <main+0xaa4>
  402e54:	f9407a78 	ldr	x24, [x19, #240]
  402e58:	b40000d8 	cbz	x24, 402e70 <main+0xa6c>
  402e5c:	3940e300 	ldrb	w0, [x24, #56]
  402e60:	340000e0 	cbz	w0, 402e7c <main+0xa78>
  402e64:	52800020 	mov	w0, #0x1                   	// #1
  402e68:	39038660 	strb	w0, [x19, #225]
  402e6c:	14000019 	b	402ed0 <main+0xacc>
  402e70:	97fffcb0 	bl	402130 <_ZSt16__throw_bad_castv@plt>
  402e74:	aa0003f3 	mov	x19, x0
  402e78:	14000079 	b	40305c <main+0xc58>
  402e7c:	aa1803e0 	mov	x0, x24
  402e80:	97fffca0 	bl	402100 <_ZNKSt5ctypeIcE13_M_widen_initEv@plt>
  402e84:	f9400300 	ldr	x0, [x24]
  402e88:	f9401802 	ldr	x2, [x0, #48]
  402e8c:	52800401 	mov	w1, #0x20                  	// #32
  402e90:	aa1803e0 	mov	x0, x24
  402e94:	d63f0040 	blr	x2
  402e98:	17fffff3 	b	402e64 <main+0xa60>
  402e9c:	910042f7 	add	x23, x23, #0x10
  402ea0:	710006d6 	subs	w22, w22, #0x1
  402ea4:	54000320 	b.eq	402f08 <main+0xb04>  // b.none
  402ea8:	f940d3e0 	ldr	x0, [sp, #416]
  402eac:	f85e8000 	ldur	x0, [x0, #-24]
  402eb0:	910683e1 	add	x1, sp, #0x1a0
  402eb4:	8b000020 	add	x0, x1, x0
  402eb8:	f900081c 	str	x28, [x0, #16]
  402ebc:	f940d3e0 	ldr	x0, [sp, #416]
  402ec0:	f85e8013 	ldur	x19, [x0, #-24]
  402ec4:	8b1302b3 	add	x19, x21, x19
  402ec8:	39438660 	ldrb	w0, [x19, #225]
  402ecc:	34fffc40 	cbz	w0, 402e54 <main+0xa50>
  402ed0:	52800600 	mov	w0, #0x30                  	// #48
  402ed4:	39038260 	strb	w0, [x19, #224]
  402ed8:	f940d3e0 	ldr	x0, [sp, #416]
  402edc:	f85e8001 	ldur	x1, [x0, #-24]
  402ee0:	8b0102a1 	add	x1, x21, x1
  402ee4:	b9401820 	ldr	w0, [x1, #24]
  402ee8:	12800942 	mov	w2, #0xffffffb5            	// #-75
  402eec:	0a020000 	and	w0, w0, w2
  402ef0:	321d0000 	orr	w0, w0, #0x8
  402ef4:	b9001820 	str	w0, [x1, #24]
  402ef8:	b94002e1 	ldr	w1, [x23]
  402efc:	aa1503e0 	mov	x0, x21
  402f00:	97fffc4c 	bl	402030 <_ZNSo9_M_insertImEERSoT_@plt>
  402f04:	17ffffe6 	b	402e9c <main+0xa98>
  402f08:	f94043e0 	ldr	x0, [sp, #128]
  402f0c:	f9007be0 	str	x0, [sp, #240]
  402f10:	f9007fff 	str	xzr, [sp, #248]
  402f14:	390403ff 	strb	wzr, [sp, #256]
  402f18:	f940ebe0 	ldr	x0, [sp, #464]
  402f1c:	b4000240 	cbz	x0, 402f64 <main+0xb60>
  402f20:	f940e3e4 	ldr	x4, [sp, #448]
  402f24:	eb04001f 	cmp	x0, x4
  402f28:	54000109 	b.ls	402f48 <main+0xb44>  // b.plast
  402f2c:	f940e7e3 	ldr	x3, [sp, #456]
  402f30:	cb030004 	sub	x4, x0, x3
  402f34:	d2800002 	mov	x2, #0x0                   	// #0
  402f38:	d2800001 	mov	x1, #0x0                   	// #0
  402f3c:	9103c3e0 	add	x0, sp, #0xf0
  402f40:	97fffca8 	bl	4021e0 <_ZNSt7__cxx1112basic_stringIcSt11char_traitsIcESaIcEE10_M_replaceEmmPKcm@plt>
  402f44:	1400000b 	b	402f70 <main+0xb6c>
  402f48:	f940e7e3 	ldr	x3, [sp, #456]
  402f4c:	cb030084 	sub	x4, x4, x3
  402f50:	d2800002 	mov	x2, #0x0                   	// #0
  402f54:	d2800001 	mov	x1, #0x0                   	// #0
  402f58:	9103c3e0 	add	x0, sp, #0xf0
  402f5c:	97fffca1 	bl	4021e0 <_ZNSt7__cxx1112basic_stringIcSt11char_traitsIcESaIcEE10_M_replaceEmmPKcm@plt>
  402f60:	14000004 	b	402f70 <main+0xb6c>
  402f64:	91018281 	add	x1, x20, #0x60
  402f68:	9103c3e0 	add	x0, sp, #0xf0
  402f6c:	97fffc29 	bl	402010 <_ZNSt7__cxx1112basic_stringIcSt11char_traitsIcESaIcEE9_M_assignERKS4_@plt>
  402f70:	b0000160 	adrp	x0, 42f000 <__FRAME_END__+0x1a654>
  402f74:	91312000 	add	x0, x0, #0xc48
  402f78:	f900cbe0 	str	x0, [sp, #400]
  402f7c:	b0000160 	adrp	x0, 42f000 <__FRAME_END__+0x1a654>
  402f80:	91326000 	add	x0, x0, #0xc98
  402f84:	f9010be0 	str	x0, [sp, #528]
  402f88:	b0000160 	adrp	x0, 42f000 <__FRAME_END__+0x1a654>
  402f8c:	9131c000 	add	x0, x0, #0xc70
  402f90:	f900d3e0 	str	x0, [sp, #416]
  402f94:	b0000160 	adrp	x0, 42f000 <__FRAME_END__+0x1a654>
  402f98:	91356000 	add	x0, x0, #0xd58
  402f9c:	f900d7e0 	str	x0, [sp, #424]
  402fa0:	f940fbe0 	ldr	x0, [sp, #496]
  402fa4:	9101c281 	add	x1, x20, #0x70
  402fa8:	eb01001f 	cmp	x0, x1
  402fac:	54000080 	b.eq	402fbc <main+0xbb8>  // b.none
  402fb0:	f94103e1 	ldr	x1, [sp, #512]
  402fb4:	91000421 	add	x1, x1, #0x1
  402fb8:	97fffc42 	bl	4020c0 <_ZdlPvm@plt>
  402fbc:	b0000160 	adrp	x0, 42f000 <__FRAME_END__+0x1a654>
  402fc0:	912dc000 	add	x0, x0, #0xb70
  402fc4:	f900d7e0 	str	x0, [sp, #424]
  402fc8:	91014280 	add	x0, x20, #0x50
  402fcc:	97fffc75 	bl	4021a0 <_ZNSt6localeD1Ev@plt>
  402fd0:	f900cbfb 	str	x27, [sp, #400]
  402fd4:	f85e8360 	ldur	x0, [x27, #-24]
  402fd8:	f9404be1 	ldr	x1, [sp, #144]
  402fdc:	f8206a81 	str	x1, [x20, x0]
  402fe0:	f900d3fa 	str	x26, [sp, #416]
  402fe4:	f85e8340 	ldur	x0, [x26, #-24]
  402fe8:	910683e1 	add	x1, sp, #0x1a0
  402fec:	f9404fe2 	ldr	x2, [sp, #152]
  402ff0:	f8206822 	str	x2, [x1, x0]
  402ff4:	f900cbf9 	str	x25, [sp, #400]
  402ff8:	f85e8320 	ldur	x0, [x25, #-24]
  402ffc:	f94047e1 	ldr	x1, [sp, #136]
  403000:	f8206a81 	str	x1, [x20, x0]
  403004:	f900cfff 	str	xzr, [sp, #408]
  403008:	90000160 	adrp	x0, 42f000 <__FRAME_END__+0x1a654>
  40300c:	912c0000 	add	x0, x0, #0xb00
  403010:	f9010be0 	str	x0, [sp, #528]
  403014:	91020280 	add	x0, x20, #0x80
  403018:	97fffbe6 	bl	401fb0 <_ZNSt8ios_baseD2Ev@plt>
  40301c:	f9406fe0 	ldr	x0, [sp, #216]
  403020:	f9403be1 	ldr	x1, [sp, #112]
  403024:	8b010000 	add	x0, x0, x1
  403028:	f9407fe2 	ldr	x2, [sp, #248]
  40302c:	f9400401 	ldr	x1, [x0, #8]
  403030:	eb01005f 	cmp	x2, x1
  403034:	540001a0 	b.eq	403068 <main+0xc64>  // b.none
  403038:	f0000061 	adrp	x1, 412000 <_Z19MD5Hash_simdversionPKNSt7__cxx1112basic_stringIcSt11char_traitsIcESaIcEEEP12__Uint32x4_t+0x1480>
  40303c:	9127c021 	add	x1, x1, #0x9f0
  403040:	b0000160 	adrp	x0, 430000 <_Znam@GLIBCXX_3.4>
  403044:	91084000 	add	x0, x0, #0x210
  403048:	97fffc16 	bl	4020a0 <_ZStlsISt11char_traitsIcEERSt13basic_ostreamIcT_ES5_PKc@plt>
  40304c:	140001a8 	b	4036ec <main+0x12e8>
  403050:	aa0003f3 	mov	x19, x0
  403054:	9103c3e0 	add	x0, sp, #0xf0
  403058:	97fffc2e 	bl	402110 <_ZNSt7__cxx1112basic_stringIcSt11char_traitsIcESaIcEE10_M_disposeEv@plt>
  40305c:	910643e0 	add	x0, sp, #0x190
  403060:	97fffc08 	bl	402080 <_ZNSt7__cxx1118basic_stringstreamIcSt11char_traitsIcESaIcEED1Ev@plt>
  403064:	17fffe32 	b	40292c <main+0x528>
  403068:	b40000a2 	cbz	x2, 40307c <main+0xc78>
  40306c:	f9400001 	ldr	x1, [x0]
  403070:	f9407be0 	ldr	x0, [sp, #240]
  403074:	97fffbdf 	bl	401ff0 <memcmp@plt>
  403078:	35fffe00 	cbnz	w0, 403038 <main+0xc34>
  40307c:	f9407be0 	ldr	x0, [sp, #240]
  403080:	f94043e1 	ldr	x1, [sp, #128]
  403084:	eb01001f 	cmp	x0, x1
  403088:	54000080 	b.eq	403098 <main+0xc94>  // b.none
  40308c:	f94083e1 	ldr	x1, [sp, #256]
  403090:	91000421 	add	x1, x1, #0x1
  403094:	97fffc0b 	bl	4020c0 <_ZdlPvm@plt>
  403098:	f9403be0 	ldr	x0, [sp, #112]
  40309c:	91008000 	add	x0, x0, #0x20
  4030a0:	f9003be0 	str	x0, [sp, #112]
  4030a4:	f9403fe0 	ldr	x0, [sp, #120]
  4030a8:	91001000 	add	x0, x0, #0x4
  4030ac:	f9003fe0 	str	x0, [sp, #120]
  4030b0:	f94053e1 	ldr	x1, [sp, #160]
  4030b4:	eb01001f 	cmp	x0, x1
  4030b8:	540007c0 	b.eq	4031b0 <main+0xdac>  // b.none
  4030bc:	3dc047e0 	ldr	q0, [sp, #272]
  4030c0:	3d8057e0 	str	q0, [sp, #336]
  4030c4:	3dc04be0 	ldr	q0, [sp, #288]
  4030c8:	3d805be0 	str	q0, [sp, #352]
  4030cc:	3dc04fe0 	ldr	q0, [sp, #304]
  4030d0:	3d805fe0 	str	q0, [sp, #368]
  4030d4:	3dc053e0 	ldr	q0, [sp, #320]
  4030d8:	3d8063e0 	str	q0, [sp, #384]
  4030dc:	91020280 	add	x0, x20, #0x80
  4030e0:	97fffba8 	bl	401f80 <_ZNSt8ios_baseC2Ev@plt>
  4030e4:	90000160 	adrp	x0, 42f000 <__FRAME_END__+0x1a654>
  4030e8:	912c0000 	add	x0, x0, #0xb00
  4030ec:	f9010be0 	str	x0, [sp, #528]
  4030f0:	f90177ff 	str	xzr, [sp, #744]
  4030f4:	390bc3ff 	strb	wzr, [sp, #752]
  4030f8:	390bc7ff 	strb	wzr, [sp, #753]
  4030fc:	f9017fff 	str	xzr, [sp, #760]
  403100:	f90183ff 	str	xzr, [sp, #768]
  403104:	f90187ff 	str	xzr, [sp, #776]
  403108:	f9018bff 	str	xzr, [sp, #784]
  40310c:	90000160 	adrp	x0, 42f000 <__FRAME_END__+0x1a654>
  403110:	912c4000 	add	x0, x0, #0xb10
  403114:	f9400819 	ldr	x25, [x0, #16]
  403118:	f900cbf9 	str	x25, [sp, #400]
  40311c:	f9400c00 	ldr	x0, [x0, #24]
  403120:	aa0003e1 	mov	x1, x0
  403124:	f90047e0 	str	x0, [sp, #136]
  403128:	f85e8320 	ldur	x0, [x25, #-24]
  40312c:	f8206a81 	str	x1, [x20, x0]
  403130:	f900cfff 	str	xzr, [sp, #408]
  403134:	f940cbe0 	ldr	x0, [sp, #400]
  403138:	f85e8000 	ldur	x0, [x0, #-24]
  40313c:	d2800001 	mov	x1, #0x0                   	// #0
  403140:	8b000280 	add	x0, x20, x0
  403144:	97fffc0f 	bl	402180 <_ZNSt9basic_iosIcSt11char_traitsIcEE4initEPSt15basic_streambufIcS1_E@plt>
  403148:	17fffeef 	b	402d04 <main+0x900>
  40314c:	f0000061 	adrp	x1, 412000 <_Z19MD5Hash_simdversionPKNSt7__cxx1112basic_stringIcSt11char_traitsIcESaIcEEEP12__Uint32x4_t+0x1480>
  403150:	91236021 	add	x1, x1, #0x8d8
  403154:	97fffbd3 	bl	4020a0 <_ZStlsISt11char_traitsIcEERSt13basic_ostreamIcT_ES5_PKc@plt>
  403158:	97fffba2 	bl	401fe0 <_ZSt4endlIcSt11char_traitsIcEERSt13basic_ostreamIT_T0_ES6_@plt>
  40315c:	f0000061 	adrp	x1, 412000 <_Z19MD5Hash_simdversionPKNSt7__cxx1112basic_stringIcSt11char_traitsIcESaIcEEEP12__Uint32x4_t+0x1480>
  403160:	91238021 	add	x1, x1, #0x8e0
  403164:	b0000160 	adrp	x0, 430000 <_Znam@GLIBCXX_3.4>
  403168:	91084000 	add	x0, x0, #0x210
  40316c:	97fffbcd 	bl	4020a0 <_ZStlsISt11char_traitsIcEERSt13basic_ostreamIcT_ES5_PKc@plt>
  403170:	f9406fe1 	ldr	x1, [sp, #216]
  403174:	f9403be3 	ldr	x3, [sp, #112]
  403178:	8b030022 	add	x2, x1, x3
  40317c:	f9400442 	ldr	x2, [x2, #8]
  403180:	f8636821 	ldr	x1, [x1, x3]
  403184:	97fffbdb 	bl	4020f0 <_ZSt16__ostream_insertIcSt11char_traitsIcEERSt13basic_ostreamIT_T0_ES6_PKS3_l@plt>
  403188:	f0000061 	adrp	x1, 412000 <_Z19MD5Hash_simdversionPKNSt7__cxx1112basic_stringIcSt11char_traitsIcESaIcEEEP12__Uint32x4_t+0x1480>
  40318c:	9123c021 	add	x1, x1, #0x8f0
  403190:	97fffbc4 	bl	4020a0 <_ZStlsISt11char_traitsIcEERSt13basic_ostreamIcT_ES5_PKc@plt>
  403194:	f9407fe2 	ldr	x2, [sp, #248]
  403198:	f9407be1 	ldr	x1, [sp, #240]
  40319c:	97fffbd5 	bl	4020f0 <_ZSt16__ostream_insertIcSt11char_traitsIcEERSt13basic_ostreamIT_T0_ES6_PKS3_l@plt>
  4031a0:	97fffb90 	bl	401fe0 <_ZSt4endlIcSt11char_traitsIcEERSt13basic_ostreamIT_T0_ES6_@plt>
  4031a4:	9103c3e0 	add	x0, sp, #0xf0
  4031a8:	97fffbda 	bl	402110 <_ZNSt7__cxx1112basic_stringIcSt11char_traitsIcESaIcEE10_M_disposeEv@plt>
  4031ac:	17fffeab 	b	402c58 <main+0x854>
  4031b0:	f9405be0 	ldr	x0, [sp, #176]
  4031b4:	91001002 	add	x2, x0, #0x4
  4031b8:	f9005be2 	str	x2, [sp, #176]
  4031bc:	f94063e0 	ldr	x0, [sp, #192]
  4031c0:	f94057e1 	ldr	x1, [sp, #168]
  4031c4:	91020021 	add	x1, x1, #0x80
  4031c8:	f90057e1 	str	x1, [sp, #168]
  4031cc:	f94067e1 	ldr	x1, [sp, #200]
  4031d0:	cb000021 	sub	x1, x1, x0
  4031d4:	eb81145f 	cmp	x2, x1, asr #5
  4031d8:	540000c2 	b.cs	4031f0 <main+0xdec>  // b.hs, b.nlast
  4031dc:	910443e1 	add	x1, sp, #0x110
  4031e0:	f94057f3 	ldr	x19, [sp, #168]
  4031e4:	8b130000 	add	x0, x0, x19
  4031e8:	94003666 	bl	410b80 <_Z19MD5Hash_simdversionPKNSt7__cxx1112basic_stringIcSt11char_traitsIcESaIcEEEP12__Uint32x4_t>
  4031ec:	17fffebe 	b	402ce4 <main+0x8e0>
  4031f0:	f0000061 	adrp	x1, 412000 <_Z19MD5Hash_simdversionPKNSt7__cxx1112basic_stringIcSt11char_traitsIcESaIcEEEP12__Uint32x4_t+0x1480>
  4031f4:	91252021 	add	x1, x1, #0x948
  4031f8:	b0000160 	adrp	x0, 430000 <_Znam@GLIBCXX_3.4>
  4031fc:	91084000 	add	x0, x0, #0x210
  403200:	97fffba8 	bl	4020a0 <_ZStlsISt11char_traitsIcEERSt13basic_ostreamIcT_ES5_PKc@plt>
  403204:	97fffb77 	bl	401fe0 <_ZSt4endlIcSt11char_traitsIcEERSt13basic_ostreamIT_T0_ES6_@plt>
  403208:	910363e0 	add	x0, sp, #0xd8
  40320c:	94000156 	bl	403764 <_ZNSt6vectorINSt7__cxx1112basic_stringIcSt11char_traitsIcESaIcEEESaIS5_EED1Ev>
  403210:	910303e0 	add	x0, sp, #0xc0
  403214:	94000154 	bl	403764 <_ZNSt6vectorINSt7__cxx1112basic_stringIcSt11char_traitsIcESaIcEEESaIS5_EED1Ev>
  403218:	f90193ff 	str	xzr, [sp, #800]
  40321c:	f90197ff 	str	xzr, [sp, #808]
  403220:	f9019bff 	str	xzr, [sp, #816]
  403224:	12800000 	mov	w0, #0xffffffff            	// #-1
  403228:	b9033be0 	str	w0, [sp, #824]
  40322c:	b9033fe0 	str	w0, [sp, #828]
  403230:	b90343e0 	str	w0, [sp, #832]
  403234:	b90347e0 	str	w0, [sp, #836]
  403238:	b9034bff 	str	wzr, [sp, #840]
  40323c:	f901abff 	str	xzr, [sp, #848]
  403240:	f901afff 	str	xzr, [sp, #856]
  403244:	f901b3ff 	str	xzr, [sp, #864]
  403248:	f901b7ff 	str	xzr, [sp, #872]
  40324c:	f901bbff 	str	xzr, [sp, #880]
  403250:	f901bfff 	str	xzr, [sp, #888]
  403254:	f901c3ff 	str	xzr, [sp, #896]
  403258:	f901c7ff 	str	xzr, [sp, #904]
  40325c:	f901cbff 	str	xzr, [sp, #912]
  403260:	f901cfff 	str	xzr, [sp, #920]
  403264:	f901d3ff 	str	xzr, [sp, #928]
  403268:	f901d7ff 	str	xzr, [sp, #936]
  40326c:	910f83e0 	add	x0, sp, #0x3e0
  403270:	f901dbe0 	str	x0, [sp, #944]
  403274:	d2800021 	mov	x1, #0x1                   	// #1
  403278:	f901dfe1 	str	x1, [sp, #952]
  40327c:	f901e3ff 	str	xzr, [sp, #960]
  403280:	f901e7ff 	str	xzr, [sp, #968]
  403284:	1e2e1000 	fmov	s0, #1.000000000000000000e+00
  403288:	bd03d3e0 	str	s0, [sp, #976]
  40328c:	f901efff 	str	xzr, [sp, #984]
  403290:	f901f3ff 	str	xzr, [sp, #992]
  403294:	911063e0 	add	x0, sp, #0x418
  403298:	f901f7e0 	str	x0, [sp, #1000]
  40329c:	f901fbe1 	str	x1, [sp, #1008]
  4032a0:	f901ffff 	str	xzr, [sp, #1016]
  4032a4:	f90203ff 	str	xzr, [sp, #1024]
  4032a8:	bd040be0 	str	s0, [sp, #1032]
  4032ac:	f9020bff 	str	xzr, [sp, #1040]
  4032b0:	f9020fff 	str	xzr, [sp, #1048]
  4032b4:	911143e0 	add	x0, sp, #0x450
  4032b8:	f90213e0 	str	x0, [sp, #1056]
  4032bc:	f90217e1 	str	x1, [sp, #1064]
  4032c0:	f9021bff 	str	xzr, [sp, #1072]
  4032c4:	f9021fff 	str	xzr, [sp, #1080]
  4032c8:	bd0443e0 	str	s0, [sp, #1088]
  4032cc:	f90227ff 	str	xzr, [sp, #1096]
  4032d0:	f9022bff 	str	xzr, [sp, #1104]
  4032d4:	911223e0 	add	x0, sp, #0x488
  4032d8:	f9022fe0 	str	x0, [sp, #1112]
  4032dc:	f90233e1 	str	x1, [sp, #1120]
  4032e0:	f90237ff 	str	xzr, [sp, #1128]
  4032e4:	f9023bff 	str	xzr, [sp, #1136]
  4032e8:	bd047be0 	str	s0, [sp, #1144]
  4032ec:	f90243ff 	str	xzr, [sp, #1152]
  4032f0:	f90247ff 	str	xzr, [sp, #1160]
  4032f4:	f9024bff 	str	xzr, [sp, #1168]
  4032f8:	f9024fff 	str	xzr, [sp, #1176]
  4032fc:	f90253ff 	str	xzr, [sp, #1184]
  403300:	b904abff 	str	wzr, [sp, #1192]
  403304:	f9025bff 	str	xzr, [sp, #1200]
  403308:	f9025fff 	str	xzr, [sp, #1208]
  40330c:	f90263ff 	str	xzr, [sp, #1216]
  403310:	97fffb00 	bl	401f10 <_ZNSt6chrono3_V212system_clock3nowEv@plt>
  403314:	aa0003f9 	mov	x25, x0
  403318:	911323e2 	add	x2, sp, #0x4c8
  40331c:	f0000061 	adrp	x1, 412000 <_Z19MD5Hash_simdversionPKNSt7__cxx1112basic_stringIcSt11char_traitsIcESaIcEEEP12__Uint32x4_t+0x1480>
  403320:	9125c021 	add	x1, x1, #0x970
  403324:	910643e0 	add	x0, sp, #0x190
  403328:	97fffb9a 	bl	402190 <_ZNSt7__cxx1112basic_stringIcSt11char_traitsIcESaIcEEC1EPKcRKS3_@plt>
  40332c:	1400000d 	b	403360 <main+0xf5c>
  403330:	aa0003f3 	mov	x19, x0
  403334:	910543e0 	add	x0, sp, #0x150
  403338:	97fffb76 	bl	402110 <_ZNSt7__cxx1112basic_stringIcSt11char_traitsIcESaIcEE10_M_disposeEv@plt>
  40333c:	17fffd7c 	b	40292c <main+0x528>
  403340:	aa0003f3 	mov	x19, x0
  403344:	9103c3e0 	add	x0, sp, #0xf0
  403348:	97fffb72 	bl	402110 <_ZNSt7__cxx1112basic_stringIcSt11char_traitsIcESaIcEE10_M_disposeEv@plt>
  40334c:	17fffd78 	b	40292c <main+0x528>
  403350:	aa0003f3 	mov	x19, x0
  403354:	17fffd76 	b	40292c <main+0x528>
  403358:	aa0003f3 	mov	x19, x0
  40335c:	17fffcf1 	b	402720 <main+0x31c>
  403360:	910643e1 	add	x1, sp, #0x190
  403364:	910ce3e0 	add	x0, sp, #0x338
  403368:	940015d2 	bl	408ab0 <_ZN5model5trainENSt7__cxx1112basic_stringIcSt11char_traitsIcESaIcEEE>
  40336c:	910643e0 	add	x0, sp, #0x190
  403370:	97fffb68 	bl	402110 <_ZNSt7__cxx1112basic_stringIcSt11char_traitsIcESaIcEE10_M_disposeEv@plt>
  403374:	910ce3e0 	add	x0, sp, #0x338
  403378:	940016e7 	bl	408f14 <_ZN5model5orderEv>
  40337c:	97fffae5 	bl	401f10 <_ZNSt6chrono3_V212system_clock3nowEv@plt>
  403380:	aa0003f8 	mov	x24, x0
  403384:	910c83e0 	add	x0, sp, #0x320
  403388:	94002ae8 	bl	40df28 <_ZN13PriorityQueue4initEv>
  40338c:	f0000061 	adrp	x1, 412000 <_Z19MD5Hash_simdversionPKNSt7__cxx1112basic_stringIcSt11char_traitsIcESaIcEEEP12__Uint32x4_t+0x1480>
  403390:	91266021 	add	x1, x1, #0x998
  403394:	b0000160 	adrp	x0, 430000 <_Znam@GLIBCXX_3.4>
  403398:	91084000 	add	x0, x0, #0x210
  40339c:	97fffb41 	bl	4020a0 <_ZStlsISt11char_traitsIcEERSt13basic_ostreamIcT_ES5_PKc@plt>
  4033a0:	97fffb10 	bl	401fe0 <_ZSt4endlIcSt11char_traitsIcEERSt13basic_ostreamIT_T0_ES6_@plt>
  4033a4:	97fffadb 	bl	401f10 <_ZNSt6chrono3_V212system_clock3nowEv@plt>
  4033a8:	aa0003fa 	mov	x26, x0
  4033ac:	52800015 	mov	w21, #0x0                   	// #0
  4033b0:	2f00e408 	movi	d8, #0x0
  4033b4:	5290d3f4 	mov	w20, #0x869f                	// #34463
  4033b8:	72a00034 	movk	w20, #0x1, lsl #16
  4033bc:	f0000060 	adrp	x0, 412000 <_Z19MD5Hash_simdversionPKNSt7__cxx1112basic_stringIcSt11char_traitsIcESaIcEEEP12__Uint32x4_t+0x1480>
  4033c0:	fd451809 	ldr	d9, [x0, #2608]
  4033c4:	52800013 	mov	w19, #0x0                   	// #0
  4033c8:	f0000076 	adrp	x22, 412000 <_Z19MD5Hash_simdversionPKNSt7__cxx1112basic_stringIcSt11char_traitsIcESaIcEEEP12__Uint32x4_t+0x1480>
  4033cc:	912682d6 	add	x22, x22, #0x9a0
  4033d0:	5292d017 	mov	w23, #0x9680                	// #38528
  4033d4:	72a01317 	movk	w23, #0x98, lsl #16
  4033d8:	1400000d 	b	40340c <main+0x1008>
  4033dc:	f9425fe1 	ldr	x1, [sp, #1208]
  4033e0:	f9425be0 	ldr	x0, [sp, #1200]
  4033e4:	cb000021 	sub	x1, x1, x0
  4033e8:	9345fc21 	asr	x1, x1, #5
  4033ec:	b904abe1 	str	w1, [sp, #1192]
  4033f0:	4b130021 	sub	w1, w1, w19
  4033f4:	6b14003f 	cmp	w1, w20
  4033f8:	5400018c 	b.gt	403428 <main+0x1024>
  4033fc:	52884800 	mov	w0, #0x4240                	// #16960
  403400:	72a001e0 	movk	w0, #0xf, lsl #16
  403404:	6b00027f 	cmp	w19, w0
  403408:	54000c2c 	b.gt	40358c <main+0x1188>
  40340c:	f94193e1 	ldr	x1, [sp, #800]
  403410:	f94197e0 	ldr	x0, [sp, #808]
  403414:	eb00003f 	cmp	x1, x0
  403418:	54001540 	b.eq	4036c0 <main+0x12bc>  // b.none
  40341c:	910c83e0 	add	x0, sp, #0x320
  403420:	94002ee8 	bl	40efc0 <_ZN13PriorityQueue7PopNextEv>
  403424:	17ffffee 	b	4033dc <main+0xfd8>
  403428:	d2800262 	mov	x2, #0x13                  	// #19
  40342c:	aa1603e1 	mov	x1, x22
  403430:	b0000160 	adrp	x0, 430000 <_Znam@GLIBCXX_3.4>
  403434:	91084000 	add	x0, x0, #0x210
  403438:	97fffb2e 	bl	4020f0 <_ZSt16__ostream_insertIcSt11char_traitsIcEERSt13basic_ostreamIT_T0_ES6_PKS3_l@plt>
  40343c:	b944abe1 	ldr	w1, [sp, #1192]
  403440:	0b0102a1 	add	w1, w21, w1
  403444:	b0000160 	adrp	x0, 430000 <_Znam@GLIBCXX_3.4>
  403448:	91084000 	add	x0, x0, #0x210
  40344c:	97fffb81 	bl	402250 <_ZNSolsEi@plt>
  403450:	aa0003f3 	mov	x19, x0
  403454:	f9400000 	ldr	x0, [x0]
  403458:	f85e8000 	ldur	x0, [x0, #-24]
  40345c:	8b000260 	add	x0, x19, x0
  403460:	f940781b 	ldr	x27, [x0, #240]
  403464:	b40000fb 	cbz	x27, 403480 <main+0x107c>
  403468:	3940e360 	ldrb	w0, [x27, #56]
  40346c:	34000100 	cbz	w0, 40348c <main+0x1088>
  403470:	39410f61 	ldrb	w1, [x27, #67]
  403474:	aa1303e0 	mov	x0, x19
  403478:	97fffaa2 	bl	401f00 <_ZNSo3putEc@plt>
  40347c:	1400000d 	b	4034b0 <main+0x10ac>
  403480:	97fffb2c 	bl	402130 <_ZSt16__throw_bad_castv@plt>
  403484:	aa0003f3 	mov	x19, x0
  403488:	14000095 	b	4036dc <main+0x12d8>
  40348c:	aa1b03e0 	mov	x0, x27
  403490:	97fffb1c 	bl	402100 <_ZNKSt5ctypeIcE13_M_widen_initEv@plt>
  403494:	f9400360 	ldr	x0, [x27]
  403498:	f9401802 	ldr	x2, [x0, #48]
  40349c:	52800141 	mov	w1, #0xa                   	// #10
  4034a0:	aa1b03e0 	mov	x0, x27
  4034a4:	d63f0040 	blr	x2
  4034a8:	12001c01 	and	w1, w0, #0xff
  4034ac:	17fffff2 	b	403474 <main+0x1070>
  4034b0:	97fffae4 	bl	402040 <_ZNSo5flushEv@plt>
  4034b4:	b944abf3 	ldr	w19, [sp, #1192]
  4034b8:	0b1302a0 	add	w0, w21, w19
  4034bc:	6b17001f 	cmp	w0, w23
  4034c0:	54fff9ed 	b.le	4033fc <main+0xff8>
  4034c4:	97fffa93 	bl	401f10 <_ZNSt6chrono3_V212system_clock3nowEv@plt>
  4034c8:	cb1a0000 	sub	x0, x0, x26
  4034cc:	d2807d01 	mov	x1, #0x3e8                 	// #1000
  4034d0:	9ac10c00 	sdiv	x0, x0, x1
  4034d4:	9e620009 	scvtf	d9, x0
  4034d8:	d2d09000 	mov	x0, #0x848000000000        	// #145685290680320
  4034dc:	f2e825c0 	movk	x0, #0x412e, lsl #48
  4034e0:	9e670000 	fmov	d0, x0
  4034e4:	1e601929 	fdiv	d9, d9, d0
  4034e8:	f0000061 	adrp	x1, 412000 <_Z19MD5Hash_simdversionPKNSt7__cxx1112basic_stringIcSt11char_traitsIcESaIcEEEP12__Uint32x4_t+0x1480>
  4034ec:	9126e021 	add	x1, x1, #0x9b8
  4034f0:	b0000160 	adrp	x0, 430000 <_Znam@GLIBCXX_3.4>
  4034f4:	91084000 	add	x0, x0, #0x210
  4034f8:	97fffaea 	bl	4020a0 <_ZStlsISt11char_traitsIcEERSt13basic_ostreamIcT_ES5_PKc@plt>
  4034fc:	1e683920 	fsub	d0, d9, d8
  403500:	97fffb44 	bl	402210 <_ZNSo9_M_insertIdEERSoT_@plt>
  403504:	f0000061 	adrp	x1, 412000 <_Z19MD5Hash_simdversionPKNSt7__cxx1112basic_stringIcSt11char_traitsIcESaIcEEEP12__Uint32x4_t+0x1480>
  403508:	91272021 	add	x1, x1, #0x9c8
  40350c:	97fffae5 	bl	4020a0 <_ZStlsISt11char_traitsIcEERSt13basic_ostreamIcT_ES5_PKc@plt>
  403510:	97fffab4 	bl	401fe0 <_ZSt4endlIcSt11char_traitsIcEERSt13basic_ostreamIT_T0_ES6_@plt>
  403514:	f0000061 	adrp	x1, 412000 <_Z19MD5Hash_simdversionPKNSt7__cxx1112basic_stringIcSt11char_traitsIcESaIcEEEP12__Uint32x4_t+0x1480>
  403518:	91274021 	add	x1, x1, #0x9d0
  40351c:	b0000160 	adrp	x0, 430000 <_Znam@GLIBCXX_3.4>
  403520:	91084000 	add	x0, x0, #0x210
  403524:	97fffadf 	bl	4020a0 <_ZStlsISt11char_traitsIcEERSt13basic_ostreamIcT_ES5_PKc@plt>
  403528:	1e604100 	fmov	d0, d8
  40352c:	97fffb39 	bl	402210 <_ZNSo9_M_insertIdEERSoT_@plt>
  403530:	f0000061 	adrp	x1, 412000 <_Z19MD5Hash_simdversionPKNSt7__cxx1112basic_stringIcSt11char_traitsIcESaIcEEEP12__Uint32x4_t+0x1480>
  403534:	91272021 	add	x1, x1, #0x9c8
  403538:	97fffada 	bl	4020a0 <_ZStlsISt11char_traitsIcEERSt13basic_ostreamIcT_ES5_PKc@plt>
  40353c:	97fffaa9 	bl	401fe0 <_ZSt4endlIcSt11char_traitsIcEERSt13basic_ostreamIT_T0_ES6_@plt>
  403540:	f0000061 	adrp	x1, 412000 <_Z19MD5Hash_simdversionPKNSt7__cxx1112basic_stringIcSt11char_traitsIcESaIcEEEP12__Uint32x4_t+0x1480>
  403544:	91278021 	add	x1, x1, #0x9e0
  403548:	b0000160 	adrp	x0, 430000 <_Znam@GLIBCXX_3.4>
  40354c:	91084000 	add	x0, x0, #0x210
  403550:	97fffad4 	bl	4020a0 <_ZStlsISt11char_traitsIcEERSt13basic_ostreamIcT_ES5_PKc@plt>
  403554:	cb190301 	sub	x1, x24, x25
  403558:	d2807d02 	mov	x2, #0x3e8                 	// #1000
  40355c:	9ac20c21 	sdiv	x1, x1, x2
  403560:	9e620020 	scvtf	d0, x1
  403564:	d2d09001 	mov	x1, #0x848000000000        	// #145685290680320
  403568:	f2e825c1 	movk	x1, #0x412e, lsl #48
  40356c:	9e670021 	fmov	d1, x1
  403570:	1e611800 	fdiv	d0, d0, d1
  403574:	97fffb27 	bl	402210 <_ZNSo9_M_insertIdEERSoT_@plt>
  403578:	f0000061 	adrp	x1, 412000 <_Z19MD5Hash_simdversionPKNSt7__cxx1112basic_stringIcSt11char_traitsIcESaIcEEEP12__Uint32x4_t+0x1480>
  40357c:	91272021 	add	x1, x1, #0x9c8
  403580:	97fffac8 	bl	4020a0 <_ZStlsISt11char_traitsIcEERSt13basic_ostreamIcT_ES5_PKc@plt>
  403584:	97fffa97 	bl	401fe0 <_ZSt4endlIcSt11char_traitsIcEERSt13basic_ostreamIT_T0_ES6_@plt>
  403588:	1400004e 	b	4036c0 <main+0x12bc>
  40358c:	97fffa61 	bl	401f10 <_ZNSt6chrono3_V212system_clock3nowEv@plt>
  403590:	aa0003fb 	mov	x27, x0
  403594:	b940bfe0 	ldr	w0, [sp, #188]
  403598:	34000620 	cbz	w0, 40365c <main+0x1258>
  40359c:	f9425be0 	ldr	x0, [sp, #1200]
  4035a0:	f9425fe1 	ldr	x1, [sp, #1208]
  4035a4:	cb000021 	sub	x1, x1, x0
  4035a8:	d2800017 	mov	x23, #0x0                   	// #0
  4035ac:	f101803f 	cmp	x1, #0x60
  4035b0:	540003a8 	b.hi	403624 <main+0x1220>  // b.pmore
  4035b4:	d2800016 	mov	x22, #0x0                   	// #0
  4035b8:	f9425be0 	ldr	x0, [sp, #1200]
  4035bc:	f9425fe1 	ldr	x1, [sp, #1208]
  4035c0:	cb000021 	sub	x1, x1, x0
  4035c4:	eb8116df 	cmp	x22, x1, asr #5
  4035c8:	54000423 	b.cc	40364c <main+0x1248>  // b.lo, b.ul, b.last
  4035cc:	97fffa51 	bl	401f10 <_ZNSt6chrono3_V212system_clock3nowEv@plt>
  4035d0:	cb1b0000 	sub	x0, x0, x27
  4035d4:	d2807d01 	mov	x1, #0x3e8                 	// #1000
  4035d8:	9ac10c00 	sdiv	x0, x0, x1
  4035dc:	9e620000 	scvtf	d0, x0
  4035e0:	1e691800 	fdiv	d0, d0, d9
  4035e4:	1e602908 	fadd	d8, d8, d0
  4035e8:	0b1302b5 	add	w21, w21, w19
  4035ec:	f9425bf7 	ldr	x23, [sp, #1200]
  4035f0:	f9425ff6 	ldr	x22, [sp, #1208]
  4035f4:	eb1602ff 	cmp	x23, x22
  4035f8:	54ffee60 	b.eq	4033c4 <main+0xfc0>  // b.none
  4035fc:	aa1703f3 	mov	x19, x23
  403600:	14000026 	b	403698 <main+0x1294>
  403604:	910012f6 	add	x22, x23, #0x4
  403608:	f9425be0 	ldr	x0, [sp, #1200]
  40360c:	f9425fe1 	ldr	x1, [sp, #1208]
  403610:	cb000021 	sub	x1, x1, x0
  403614:	91001ef7 	add	x23, x23, #0x7
  403618:	eb8116ff 	cmp	x23, x1, asr #5
  40361c:	54fffce2 	b.cs	4035b8 <main+0x11b4>  // b.hs, b.nlast
  403620:	aa1603f7 	mov	x23, x22
  403624:	910643e1 	add	x1, sp, #0x190
  403628:	8b171400 	add	x0, x0, x23, lsl #5
  40362c:	94003555 	bl	410b80 <_Z19MD5Hash_simdversionPKNSt7__cxx1112basic_stringIcSt11char_traitsIcESaIcEEEP12__Uint32x4_t>
  403630:	17fffff5 	b	403604 <main+0x1200>
  403634:	910006d6 	add	x22, x22, #0x1
  403638:	f9425be0 	ldr	x0, [sp, #1200]
  40363c:	f9425fe1 	ldr	x1, [sp, #1208]
  403640:	cb000021 	sub	x1, x1, x0
  403644:	eb8116df 	cmp	x22, x1, asr #5
  403648:	54fffc22 	b.cs	4035cc <main+0x11c8>  // b.hs, b.nlast
  40364c:	910543e1 	add	x1, sp, #0x150
  403650:	8b161400 	add	x0, x0, x22, lsl #5
  403654:	9400327b 	bl	410040 <_Z7MD5HashRKNSt7__cxx1112basic_stringIcSt11char_traitsIcESaIcEEEPj>
  403658:	17fffff7 	b	403634 <main+0x1230>
  40365c:	f9425bf6 	ldr	x22, [sp, #1200]
  403660:	f9425ff7 	ldr	x23, [sp, #1208]
  403664:	eb1702df 	cmp	x22, x23
  403668:	540000a1 	b.ne	40367c <main+0x1278>  // b.any
  40366c:	17ffffd8 	b	4035cc <main+0x11c8>
  403670:	910082d6 	add	x22, x22, #0x20
  403674:	eb1602ff 	cmp	x23, x22
  403678:	54fffaa0 	b.eq	4035cc <main+0x11c8>  // b.none
  40367c:	910643e1 	add	x1, sp, #0x190
  403680:	aa1603e0 	mov	x0, x22
  403684:	9400326f 	bl	410040 <_Z7MD5HashRKNSt7__cxx1112basic_stringIcSt11char_traitsIcESaIcEEEPj>
  403688:	17fffffa 	b	403670 <main+0x126c>
  40368c:	91008273 	add	x19, x19, #0x20
  403690:	eb1302df 	cmp	x22, x19
  403694:	54000120 	b.eq	4036b8 <main+0x12b4>  // b.none
  403698:	aa1303e1 	mov	x1, x19
  40369c:	f8410420 	ldr	x0, [x1], #16
  4036a0:	eb01001f 	cmp	x0, x1
  4036a4:	54ffff40 	b.eq	40368c <main+0x1288>  // b.none
  4036a8:	f9400a61 	ldr	x1, [x19, #16]
  4036ac:	91000421 	add	x1, x1, #0x1
  4036b0:	97fffa84 	bl	4020c0 <_ZdlPvm@plt>
  4036b4:	17fffff6 	b	40368c <main+0x1288>
  4036b8:	f9025ff7 	str	x23, [sp, #1208]
  4036bc:	17ffff42 	b	4033c4 <main+0xfc0>
  4036c0:	910c83e0 	add	x0, sp, #0x320
  4036c4:	9400008d 	bl	4038f8 <_ZN13PriorityQueueD1Ev>
  4036c8:	52800000 	mov	w0, #0x0                   	// #0
  4036cc:	17fffd68 	b	402c6c <main+0x868>
  4036d0:	aa0003f3 	mov	x19, x0
  4036d4:	910643e0 	add	x0, sp, #0x190
  4036d8:	97fffa8e 	bl	402110 <_ZNSt7__cxx1112basic_stringIcSt11char_traitsIcESaIcEE10_M_disposeEv@plt>
  4036dc:	910c83e0 	add	x0, sp, #0x320
  4036e0:	94000086 	bl	4038f8 <_ZN13PriorityQueueD1Ev>
  4036e4:	aa1303e0 	mov	x0, x19
  4036e8:	97fffade 	bl	402260 <_Unwind_Resume@plt>
  4036ec:	f94063e1 	ldr	x1, [sp, #192]
  4036f0:	f9403be3 	ldr	x3, [sp, #112]
  4036f4:	8b030022 	add	x2, x1, x3
  4036f8:	f9400442 	ldr	x2, [x2, #8]
  4036fc:	f8636821 	ldr	x1, [x1, x3]
  403700:	97fffa7c 	bl	4020f0 <_ZSt16__ostream_insertIcSt11char_traitsIcEERSt13basic_ostreamIT_T0_ES6_PKS3_l@plt>
  403704:	17fffe92 	b	40314c <main+0xd48>
  403708:	f94063e1 	ldr	x1, [sp, #192]
  40370c:	f9403fe3 	ldr	x3, [sp, #120]
  403710:	8b030022 	add	x2, x1, x3
  403714:	f9400442 	ldr	x2, [x2, #8]
  403718:	f8636821 	ldr	x1, [x1, x3]
  40371c:	97fffa75 	bl	4020f0 <_ZSt16__ostream_insertIcSt11char_traitsIcEERSt13basic_ostreamIT_T0_ES6_PKS3_l@plt>
  403720:	17fffd36 	b	402bf8 <main+0x7f4>

0000000000403724 <_GLOBAL__sub_I_main>:
  403724:	a9be7bfd 	stp	x29, x30, [sp, #-32]!
  403728:	910003fd 	mov	x29, sp
  40372c:	f9000bf3 	str	x19, [sp, #16]
  403730:	b0000173 	adrp	x19, 430000 <_Znam@GLIBCXX_3.4>
  403734:	910ca273 	add	x19, x19, #0x328
  403738:	aa1303e0 	mov	x0, x19
  40373c:	97fffaa5 	bl	4021d0 <_ZNSt8ios_base4InitC1Ev@plt>
  403740:	b0000162 	adrp	x2, 430000 <_Znam@GLIBCXX_3.4>
  403744:	9107e042 	add	x2, x2, #0x1f8
  403748:	aa1303e1 	mov	x1, x19
  40374c:	f0ffffe0 	adrp	x0, 402000 <_ZSt20__throw_length_errorPKc@plt>
  403750:	910b0000 	add	x0, x0, #0x2c0
  403754:	97fffa63 	bl	4020e0 <__cxa_atexit@plt>
  403758:	f9400bf3 	ldr	x19, [sp, #16]
  40375c:	a8c27bfd 	ldp	x29, x30, [sp], #32
  403760:	d65f03c0 	ret

0000000000403764 <_ZNSt6vectorINSt7__cxx1112basic_stringIcSt11char_traitsIcESaIcEEESaIS5_EED1Ev>:
  403764:	a9bd7bfd 	stp	x29, x30, [sp, #-48]!
  403768:	910003fd 	mov	x29, sp
  40376c:	a90153f3 	stp	x19, x20, [sp, #16]
  403770:	f90013f5 	str	x21, [sp, #32]
  403774:	aa0003f5 	mov	x21, x0
  403778:	f9400013 	ldr	x19, [x0]
  40377c:	f9400414 	ldr	x20, [x0, #8]
  403780:	eb14027f 	cmp	x19, x20
  403784:	540001a1 	b.ne	4037b8 <_ZNSt6vectorINSt7__cxx1112basic_stringIcSt11char_traitsIcESaIcEEESaIS5_EED1Ev+0x54>  // b.any
  403788:	f94002a0 	ldr	x0, [x21]
  40378c:	b4000080 	cbz	x0, 40379c <_ZNSt6vectorINSt7__cxx1112basic_stringIcSt11char_traitsIcESaIcEEESaIS5_EED1Ev+0x38>
  403790:	f9400aa1 	ldr	x1, [x21, #16]
  403794:	cb000021 	sub	x1, x1, x0
  403798:	97fffa4a 	bl	4020c0 <_ZdlPvm@plt>
  40379c:	a94153f3 	ldp	x19, x20, [sp, #16]
  4037a0:	f94013f5 	ldr	x21, [sp, #32]
  4037a4:	a8c37bfd 	ldp	x29, x30, [sp], #48
  4037a8:	d65f03c0 	ret
  4037ac:	91008273 	add	x19, x19, #0x20
  4037b0:	eb13029f 	cmp	x20, x19
  4037b4:	54fffea0 	b.eq	403788 <_ZNSt6vectorINSt7__cxx1112basic_stringIcSt11char_traitsIcESaIcEEESaIS5_EED1Ev+0x24>  // b.none
  4037b8:	aa1303e1 	mov	x1, x19
  4037bc:	f8410420 	ldr	x0, [x1], #16
  4037c0:	eb01001f 	cmp	x0, x1
  4037c4:	54ffff40 	b.eq	4037ac <_ZNSt6vectorINSt7__cxx1112basic_stringIcSt11char_traitsIcESaIcEEESaIS5_EED1Ev+0x48>  // b.none
  4037c8:	f9400a61 	ldr	x1, [x19, #16]
  4037cc:	91000421 	add	x1, x1, #0x1
  4037d0:	97fffa3c 	bl	4020c0 <_ZdlPvm@plt>
  4037d4:	17fffff6 	b	4037ac <_ZNSt6vectorINSt7__cxx1112basic_stringIcSt11char_traitsIcESaIcEEESaIS5_EED1Ev+0x48>

00000000004037d8 <_ZNSt10_HashtableINSt7__cxx1112basic_stringIcSt11char_traitsIcESaIcEEESt4pairIKS5_iESaIS8_ENSt8__detail10_Select1stESt8equal_toIS5_ESt4hashIS5_ENSA_18_Mod_range_hashingENSA_20_Default_ranged_hashENSA_20_Prime_rehash_policyENSA_17_Hashtable_traitsILb1ELb0ELb1EEEED1Ev>:
  4037d8:	a9bd7bfd 	stp	x29, x30, [sp, #-48]!
  4037dc:	910003fd 	mov	x29, sp
  4037e0:	a90153f3 	stp	x19, x20, [sp, #16]
  4037e4:	a9025bf5 	stp	x21, x22, [sp, #32]
  4037e8:	aa0003f5 	mov	x21, x0
  4037ec:	f9400814 	ldr	x20, [x0, #16]
  4037f0:	b4000234 	cbz	x20, 403834 <_ZNSt10_HashtableINSt7__cxx1112basic_stringIcSt11char_traitsIcESaIcEEESt4pairIKS5_iESaIS8_ENSt8__detail10_Select1stESt8equal_toIS5_ESt4hashIS5_ENSA_18_Mod_range_hashingENSA_20_Default_ranged_hashENSA_20_Prime_rehash_policyENSA_17_Hashtable_traitsILb1ELb0ELb1EEEED1Ev+0x5c>
  4037f4:	d2800716 	mov	x22, #0x38                  	// #56
  4037f8:	14000005 	b	40380c <_ZNSt10_HashtableINSt7__cxx1112basic_stringIcSt11char_traitsIcESaIcEEESt4pairIKS5_iESaIS8_ENSt8__detail10_Select1stESt8equal_toIS5_ESt4hashIS5_ENSA_18_Mod_range_hashingENSA_20_Default_ranged_hashENSA_20_Prime_rehash_policyENSA_17_Hashtable_traitsILb1ELb0ELb1EEEED1Ev+0x34>
  4037fc:	aa1603e1 	mov	x1, x22
  403800:	aa1303e0 	mov	x0, x19
  403804:	97fffa2f 	bl	4020c0 <_ZdlPvm@plt>
  403808:	b4000174 	cbz	x20, 403834 <_ZNSt10_HashtableINSt7__cxx1112basic_stringIcSt11char_traitsIcESaIcEEESt4pairIKS5_iESaIS8_ENSt8__detail10_Select1stESt8equal_toIS5_ESt4hashIS5_ENSA_18_Mod_range_hashingENSA_20_Default_ranged_hashENSA_20_Prime_rehash_policyENSA_17_Hashtable_traitsILb1ELb0ELb1EEEED1Ev+0x5c>
  40380c:	aa1403f3 	mov	x19, x20
  403810:	f9400294 	ldr	x20, [x20]
  403814:	f9400660 	ldr	x0, [x19, #8]
  403818:	91006261 	add	x1, x19, #0x18
  40381c:	eb01001f 	cmp	x0, x1
  403820:	54fffee0 	b.eq	4037fc <_ZNSt10_HashtableINSt7__cxx1112basic_stringIcSt11char_traitsIcESaIcEEESt4pairIKS5_iESaIS8_ENSt8__detail10_Select1stESt8equal_toIS5_ESt4hashIS5_ENSA_18_Mod_range_hashingENSA_20_Default_ranged_hashENSA_20_Prime_rehash_policyENSA_17_Hashtable_traitsILb1ELb0ELb1EEEED1Ev+0x24>  // b.none
  403824:	f9400e61 	ldr	x1, [x19, #24]
  403828:	91000421 	add	x1, x1, #0x1
  40382c:	97fffa25 	bl	4020c0 <_ZdlPvm@plt>
  403830:	17fffff3 	b	4037fc <_ZNSt10_HashtableINSt7__cxx1112basic_stringIcSt11char_traitsIcESaIcEEESt4pairIKS5_iESaIS8_ENSt8__detail10_Select1stESt8equal_toIS5_ESt4hashIS5_ENSA_18_Mod_range_hashingENSA_20_Default_ranged_hashENSA_20_Prime_rehash_policyENSA_17_Hashtable_traitsILb1ELb0ELb1EEEED1Ev+0x24>
  403834:	f94006a2 	ldr	x2, [x21, #8]
  403838:	d37df042 	lsl	x2, x2, #3
  40383c:	52800001 	mov	w1, #0x0                   	// #0
  403840:	f94002a0 	ldr	x0, [x21]
  403844:	97fff9f7 	bl	402020 <memset@plt>
  403848:	f9000ebf 	str	xzr, [x21, #24]
  40384c:	f9000abf 	str	xzr, [x21, #16]
  403850:	f94002a0 	ldr	x0, [x21]
  403854:	f94006a1 	ldr	x1, [x21, #8]
  403858:	9100c2b5 	add	x21, x21, #0x30
  40385c:	eb15001f 	cmp	x0, x21
  403860:	54000060 	b.eq	40386c <_ZNSt10_HashtableINSt7__cxx1112basic_stringIcSt11char_traitsIcESaIcEEESt4pairIKS5_iESaIS8_ENSt8__detail10_Select1stESt8equal_toIS5_ESt4hashIS5_ENSA_18_Mod_range_hashingENSA_20_Default_ranged_hashENSA_20_Prime_rehash_policyENSA_17_Hashtable_traitsILb1ELb0ELb1EEEED1Ev+0x94>  // b.none
  403864:	d37df021 	lsl	x1, x1, #3
  403868:	97fffa16 	bl	4020c0 <_ZdlPvm@plt>
  40386c:	a94153f3 	ldp	x19, x20, [sp, #16]
  403870:	a9425bf5 	ldp	x21, x22, [sp, #32]
  403874:	a8c37bfd 	ldp	x29, x30, [sp], #48
  403878:	d65f03c0 	ret

000000000040387c <_ZNSt10_HashtableIiSt4pairIKiiESaIS2_ENSt8__detail10_Select1stESt8equal_toIiESt4hashIiENS4_18_Mod_range_hashingENS4_20_Default_ranged_hashENS4_20_Prime_rehash_policyENS4_17_Hashtable_traitsILb0ELb0ELb1EEEED1Ev>:
  40387c:	a9bd7bfd 	stp	x29, x30, [sp, #-48]!
  403880:	910003fd 	mov	x29, sp
  403884:	a90153f3 	stp	x19, x20, [sp, #16]
  403888:	aa0003f4 	mov	x20, x0
  40388c:	f9400813 	ldr	x19, [x0, #16]
  403890:	b4000133 	cbz	x19, 4038b4 <_ZNSt10_HashtableIiSt4pairIKiiESaIS2_ENSt8__detail10_Select1stESt8equal_toIiESt4hashIiENS4_18_Mod_range_hashingENS4_20_Default_ranged_hashENS4_20_Prime_rehash_policyENS4_17_Hashtable_traitsILb0ELb0ELb1EEEED1Ev+0x38>
  403894:	f90013f5 	str	x21, [sp, #32]
  403898:	d2800215 	mov	x21, #0x10                  	// #16
  40389c:	aa1303e0 	mov	x0, x19
  4038a0:	f9400273 	ldr	x19, [x19]
  4038a4:	aa1503e1 	mov	x1, x21
  4038a8:	97fffa06 	bl	4020c0 <_ZdlPvm@plt>
  4038ac:	b5ffff93 	cbnz	x19, 40389c <_ZNSt10_HashtableIiSt4pairIKiiESaIS2_ENSt8__detail10_Select1stESt8equal_toIiESt4hashIiENS4_18_Mod_range_hashingENS4_20_Default_ranged_hashENS4_20_Prime_rehash_policyENS4_17_Hashtable_traitsILb0ELb0ELb1EEEED1Ev+0x20>
  4038b0:	f94013f5 	ldr	x21, [sp, #32]
  4038b4:	f9400682 	ldr	x2, [x20, #8]
  4038b8:	d37df042 	lsl	x2, x2, #3
  4038bc:	52800001 	mov	w1, #0x0                   	// #0
  4038c0:	f9400280 	ldr	x0, [x20]
  4038c4:	97fff9d7 	bl	402020 <memset@plt>
  4038c8:	f9000e9f 	str	xzr, [x20, #24]
  4038cc:	f9000a9f 	str	xzr, [x20, #16]
  4038d0:	f9400280 	ldr	x0, [x20]
  4038d4:	f9400681 	ldr	x1, [x20, #8]
  4038d8:	9100c294 	add	x20, x20, #0x30
  4038dc:	eb14001f 	cmp	x0, x20
  4038e0:	54000060 	b.eq	4038ec <_ZNSt10_HashtableIiSt4pairIKiiESaIS2_ENSt8__detail10_Select1stESt8equal_toIiESt4hashIiENS4_18_Mod_range_hashingENS4_20_Default_ranged_hashENS4_20_Prime_rehash_policyENS4_17_Hashtable_traitsILb0ELb0ELb1EEEED1Ev+0x70>  // b.none
  4038e4:	d37df021 	lsl	x1, x1, #3
  4038e8:	97fff9f6 	bl	4020c0 <_ZdlPvm@plt>
  4038ec:	a94153f3 	ldp	x19, x20, [sp, #16]
  4038f0:	a8c37bfd 	ldp	x29, x30, [sp], #48
  4038f4:	d65f03c0 	ret

00000000004038f8 <_ZN13PriorityQueueD1Ev>:
  4038f8:	a9bb7bfd 	stp	x29, x30, [sp, #-80]!
  4038fc:	910003fd 	mov	x29, sp
  403900:	a90153f3 	stp	x19, x20, [sp, #16]
  403904:	a9025bf5 	stp	x21, x22, [sp, #32]
  403908:	a90363f7 	stp	x23, x24, [sp, #48]
  40390c:	f90023f9 	str	x25, [sp, #64]
  403910:	aa0003f4 	mov	x20, x0
  403914:	f940c813 	ldr	x19, [x0, #400]
  403918:	f940cc15 	ldr	x21, [x0, #408]
  40391c:	eb15027f 	cmp	x19, x21
  403920:	540009a1 	b.ne	403a54 <_ZN13PriorityQueueD1Ev+0x15c>  // b.any
  403924:	f940ca80 	ldr	x0, [x20, #400]
  403928:	b4000080 	cbz	x0, 403938 <_ZN13PriorityQueueD1Ev+0x40>
  40392c:	f940d281 	ldr	x1, [x20, #416]
  403930:	cb000021 	sub	x1, x1, x0
  403934:	97fff9e3 	bl	4020c0 <_ZdlPvm@plt>
  403938:	f940ba98 	ldr	x24, [x20, #368]
  40393c:	f940be99 	ldr	x25, [x20, #376]
  403940:	eb19031f 	cmp	x24, x25
  403944:	54000ea1 	b.ne	403b18 <_ZN13PriorityQueueD1Ev+0x220>  // b.any
  403948:	f940ba80 	ldr	x0, [x20, #368]
  40394c:	b4000080 	cbz	x0, 40395c <_ZN13PriorityQueueD1Ev+0x64>
  403950:	f940c281 	ldr	x1, [x20, #384]
  403954:	cb000021 	sub	x1, x1, x0
  403958:	97fff9da 	bl	4020c0 <_ZdlPvm@plt>
  40395c:	9104e280 	add	x0, x20, #0x138
  403960:	97ffffc7 	bl	40387c <_ZNSt10_HashtableIiSt4pairIKiiESaIS2_ENSt8__detail10_Select1stESt8equal_toIiESt4hashIiENS4_18_Mod_range_hashingENS4_20_Default_ranged_hashENS4_20_Prime_rehash_policyENS4_17_Hashtable_traitsILb0ELb0ELb1EEEED1Ev>
  403964:	91040280 	add	x0, x20, #0x100
  403968:	97ffffc5 	bl	40387c <_ZNSt10_HashtableIiSt4pairIKiiESaIS2_ENSt8__detail10_Select1stESt8equal_toIiESt4hashIiENS4_18_Mod_range_hashingENS4_20_Default_ranged_hashENS4_20_Prime_rehash_policyENS4_17_Hashtable_traitsILb0ELb0ELb1EEEED1Ev>
  40396c:	91032280 	add	x0, x20, #0xc8
  403970:	97ffffc3 	bl	40387c <_ZNSt10_HashtableIiSt4pairIKiiESaIS2_ENSt8__detail10_Select1stESt8equal_toIiESt4hashIiENS4_18_Mod_range_hashingENS4_20_Default_ranged_hashENS4_20_Prime_rehash_policyENS4_17_Hashtable_traitsILb0ELb0ELb1EEEED1Ev>
  403974:	91024280 	add	x0, x20, #0x90
  403978:	97ffffc1 	bl	40387c <_ZNSt10_HashtableIiSt4pairIKiiESaIS2_ENSt8__detail10_Select1stESt8equal_toIiESt4hashIiENS4_18_Mod_range_hashingENS4_20_Default_ranged_hashENS4_20_Prime_rehash_policyENS4_17_Hashtable_traitsILb0ELb0ELb1EEEED1Ev>
  40397c:	f9403e96 	ldr	x22, [x20, #120]
  403980:	f9404297 	ldr	x23, [x20, #128]
  403984:	eb1702df 	cmp	x22, x23
  403988:	540010c1 	b.ne	403ba0 <_ZN13PriorityQueueD1Ev+0x2a8>  // b.any
  40398c:	f9403e80 	ldr	x0, [x20, #120]
  403990:	b4000080 	cbz	x0, 4039a0 <_ZN13PriorityQueueD1Ev+0xa8>
  403994:	f9404681 	ldr	x1, [x20, #136]
  403998:	cb000021 	sub	x1, x1, x0
  40399c:	97fff9c9 	bl	4020c0 <_ZdlPvm@plt>
  4039a0:	f9403296 	ldr	x22, [x20, #96]
  4039a4:	f9403697 	ldr	x23, [x20, #104]
  4039a8:	eb1702df 	cmp	x22, x23
  4039ac:	540013c1 	b.ne	403c24 <_ZN13PriorityQueueD1Ev+0x32c>  // b.any
  4039b0:	f9403280 	ldr	x0, [x20, #96]
  4039b4:	b4000080 	cbz	x0, 4039c4 <_ZN13PriorityQueueD1Ev+0xcc>
  4039b8:	f9403a81 	ldr	x1, [x20, #112]
  4039bc:	cb000021 	sub	x1, x1, x0
  4039c0:	97fff9c0 	bl	4020c0 <_ZdlPvm@plt>
  4039c4:	f9402696 	ldr	x22, [x20, #72]
  4039c8:	f9402a97 	ldr	x23, [x20, #80]
  4039cc:	eb1702df 	cmp	x22, x23
  4039d0:	540016c1 	b.ne	403ca8 <_ZN13PriorityQueueD1Ev+0x3b0>  // b.any
  4039d4:	f9402680 	ldr	x0, [x20, #72]
  4039d8:	b4000080 	cbz	x0, 4039e8 <_ZN13PriorityQueueD1Ev+0xf0>
  4039dc:	f9402e81 	ldr	x1, [x20, #88]
  4039e0:	cb000021 	sub	x1, x1, x0
  4039e4:	97fff9b7 	bl	4020c0 <_ZdlPvm@plt>
  4039e8:	f9401a98 	ldr	x24, [x20, #48]
  4039ec:	f9401e99 	ldr	x25, [x20, #56]
  4039f0:	eb19031f 	cmp	x24, x25
  4039f4:	54001c81 	b.ne	403d84 <_ZN13PriorityQueueD1Ev+0x48c>  // b.any
  4039f8:	f9401a80 	ldr	x0, [x20, #48]
  4039fc:	b4000080 	cbz	x0, 403a0c <_ZN13PriorityQueueD1Ev+0x114>
  403a00:	f9402281 	ldr	x1, [x20, #64]
  403a04:	cb000021 	sub	x1, x1, x0
  403a08:	97fff9ae 	bl	4020c0 <_ZdlPvm@plt>
  403a0c:	f9400298 	ldr	x24, [x20]
  403a10:	f9400699 	ldr	x25, [x20, #8]
  403a14:	eb19031f 	cmp	x24, x25
  403a18:	54002261 	b.ne	403e64 <_ZN13PriorityQueueD1Ev+0x56c>  // b.any
  403a1c:	f9400280 	ldr	x0, [x20]
  403a20:	b4000080 	cbz	x0, 403a30 <_ZN13PriorityQueueD1Ev+0x138>
  403a24:	f9400a81 	ldr	x1, [x20, #16]
  403a28:	cb000021 	sub	x1, x1, x0
  403a2c:	97fff9a5 	bl	4020c0 <_ZdlPvm@plt>
  403a30:	a94153f3 	ldp	x19, x20, [sp, #16]
  403a34:	a9425bf5 	ldp	x21, x22, [sp, #32]
  403a38:	a94363f7 	ldp	x23, x24, [sp, #48]
  403a3c:	f94023f9 	ldr	x25, [sp, #64]
  403a40:	a8c57bfd 	ldp	x29, x30, [sp], #80
  403a44:	d65f03c0 	ret
  403a48:	91008273 	add	x19, x19, #0x20
  403a4c:	eb1302bf 	cmp	x21, x19
  403a50:	54fff6a0 	b.eq	403924 <_ZN13PriorityQueueD1Ev+0x2c>  // b.none
  403a54:	aa1303e1 	mov	x1, x19
  403a58:	f8410420 	ldr	x0, [x1], #16
  403a5c:	eb01001f 	cmp	x0, x1
  403a60:	54ffff40 	b.eq	403a48 <_ZN13PriorityQueueD1Ev+0x150>  // b.none
  403a64:	f9400a61 	ldr	x1, [x19, #16]
  403a68:	91000421 	add	x1, x1, #0x1
  403a6c:	97fff995 	bl	4020c0 <_ZdlPvm@plt>
  403a70:	17fffff6 	b	403a48 <_ZN13PriorityQueueD1Ev+0x150>
  403a74:	910082b5 	add	x21, x21, #0x20
  403a78:	eb1502df 	cmp	x22, x21
  403a7c:	54000120 	b.eq	403aa0 <_ZN13PriorityQueueD1Ev+0x1a8>  // b.none
  403a80:	aa1503e1 	mov	x1, x21
  403a84:	f8410420 	ldr	x0, [x1], #16
  403a88:	eb01001f 	cmp	x0, x1
  403a8c:	54ffff40 	b.eq	403a74 <_ZN13PriorityQueueD1Ev+0x17c>  // b.none
  403a90:	f9400aa1 	ldr	x1, [x21, #16]
  403a94:	91000421 	add	x1, x1, #0x1
  403a98:	97fff98a 	bl	4020c0 <_ZdlPvm@plt>
  403a9c:	17fffff6 	b	403a74 <_ZN13PriorityQueueD1Ev+0x17c>
  403aa0:	f9400660 	ldr	x0, [x19, #8]
  403aa4:	b4000080 	cbz	x0, 403ab4 <_ZN13PriorityQueueD1Ev+0x1bc>
  403aa8:	f9400e61 	ldr	x1, [x19, #24]
  403aac:	cb000021 	sub	x1, x1, x0
  403ab0:	97fff984 	bl	4020c0 <_ZdlPvm@plt>
  403ab4:	9102c273 	add	x19, x19, #0xb0
  403ab8:	eb1302ff 	cmp	x23, x19
  403abc:	540001e0 	b.eq	403af8 <_ZN13PriorityQueueD1Ev+0x200>  // b.none
  403ac0:	9101e260 	add	x0, x19, #0x78
  403ac4:	97ffff6e 	bl	40387c <_ZNSt10_HashtableIiSt4pairIKiiESaIS2_ENSt8__detail10_Select1stESt8equal_toIiESt4hashIiENS4_18_Mod_range_hashingENS4_20_Default_ranged_hashENS4_20_Prime_rehash_policyENS4_17_Hashtable_traitsILb0ELb0ELb1EEEED1Ev>
  403ac8:	91010260 	add	x0, x19, #0x40
  403acc:	97ffff43 	bl	4037d8 <_ZNSt10_HashtableINSt7__cxx1112basic_stringIcSt11char_traitsIcESaIcEEESt4pairIKS5_iESaIS8_ENSt8__detail10_Select1stESt8equal_toIS5_ESt4hashIS5_ENSA_18_Mod_range_hashingENSA_20_Default_ranged_hashENSA_20_Prime_rehash_policyENSA_17_Hashtable_traitsILb1ELb0ELb1EEEED1Ev>
  403ad0:	f9401260 	ldr	x0, [x19, #32]
  403ad4:	b4000080 	cbz	x0, 403ae4 <_ZN13PriorityQueueD1Ev+0x1ec>
  403ad8:	f9401a61 	ldr	x1, [x19, #48]
  403adc:	cb000021 	sub	x1, x1, x0
  403ae0:	97fff978 	bl	4020c0 <_ZdlPvm@plt>
  403ae4:	f9400675 	ldr	x21, [x19, #8]
  403ae8:	f9400a76 	ldr	x22, [x19, #16]
  403aec:	eb1602bf 	cmp	x21, x22
  403af0:	54fffc81 	b.ne	403a80 <_ZN13PriorityQueueD1Ev+0x188>  // b.any
  403af4:	17ffffeb 	b	403aa0 <_ZN13PriorityQueueD1Ev+0x1a8>
  403af8:	f9400300 	ldr	x0, [x24]
  403afc:	b4000080 	cbz	x0, 403b0c <_ZN13PriorityQueueD1Ev+0x214>
  403b00:	f9400b01 	ldr	x1, [x24, #16]
  403b04:	cb000021 	sub	x1, x1, x0
  403b08:	97fff96e 	bl	4020c0 <_ZdlPvm@plt>
  403b0c:	91016318 	add	x24, x24, #0x58
  403b10:	eb18033f 	cmp	x25, x24
  403b14:	54fff1a0 	b.eq	403948 <_ZN13PriorityQueueD1Ev+0x50>  // b.none
  403b18:	f9401f00 	ldr	x0, [x24, #56]
  403b1c:	b4000080 	cbz	x0, 403b2c <_ZN13PriorityQueueD1Ev+0x234>
  403b20:	f9402701 	ldr	x1, [x24, #72]
  403b24:	cb000021 	sub	x1, x1, x0
  403b28:	97fff966 	bl	4020c0 <_ZdlPvm@plt>
  403b2c:	f9401300 	ldr	x0, [x24, #32]
  403b30:	b4000080 	cbz	x0, 403b40 <_ZN13PriorityQueueD1Ev+0x248>
  403b34:	f9401b01 	ldr	x1, [x24, #48]
  403b38:	cb000021 	sub	x1, x1, x0
  403b3c:	97fff961 	bl	4020c0 <_ZdlPvm@plt>
  403b40:	f9400313 	ldr	x19, [x24]
  403b44:	f9400717 	ldr	x23, [x24, #8]
  403b48:	eb17027f 	cmp	x19, x23
  403b4c:	54fffba1 	b.ne	403ac0 <_ZN13PriorityQueueD1Ev+0x1c8>  // b.any
  403b50:	17ffffea 	b	403af8 <_ZN13PriorityQueueD1Ev+0x200>
  403b54:	91008273 	add	x19, x19, #0x20
  403b58:	eb1302bf 	cmp	x21, x19
  403b5c:	54000120 	b.eq	403b80 <_ZN13PriorityQueueD1Ev+0x288>  // b.none
  403b60:	aa1303e1 	mov	x1, x19
  403b64:	f8410420 	ldr	x0, [x1], #16
  403b68:	eb01001f 	cmp	x0, x1
  403b6c:	54ffff40 	b.eq	403b54 <_ZN13PriorityQueueD1Ev+0x25c>  // b.none
  403b70:	f9400a61 	ldr	x1, [x19, #16]
  403b74:	91000421 	add	x1, x1, #0x1
  403b78:	97fff952 	bl	4020c0 <_ZdlPvm@plt>
  403b7c:	17fffff6 	b	403b54 <_ZN13PriorityQueueD1Ev+0x25c>
  403b80:	f94006c0 	ldr	x0, [x22, #8]
  403b84:	b4000080 	cbz	x0, 403b94 <_ZN13PriorityQueueD1Ev+0x29c>
  403b88:	f9400ec1 	ldr	x1, [x22, #24]
  403b8c:	cb000021 	sub	x1, x1, x0
  403b90:	97fff94c 	bl	4020c0 <_ZdlPvm@plt>
  403b94:	9102c2d6 	add	x22, x22, #0xb0
  403b98:	eb1602ff 	cmp	x23, x22
  403b9c:	54ffef80 	b.eq	40398c <_ZN13PriorityQueueD1Ev+0x94>  // b.none
  403ba0:	9101e2c0 	add	x0, x22, #0x78
  403ba4:	97ffff36 	bl	40387c <_ZNSt10_HashtableIiSt4pairIKiiESaIS2_ENSt8__detail10_Select1stESt8equal_toIiESt4hashIiENS4_18_Mod_range_hashingENS4_20_Default_ranged_hashENS4_20_Prime_rehash_policyENS4_17_Hashtable_traitsILb0ELb0ELb1EEEED1Ev>
  403ba8:	910102c0 	add	x0, x22, #0x40
  403bac:	97ffff0b 	bl	4037d8 <_ZNSt10_HashtableINSt7__cxx1112basic_stringIcSt11char_traitsIcESaIcEEESt4pairIKS5_iESaIS8_ENSt8__detail10_Select1stESt8equal_toIS5_ESt4hashIS5_ENSA_18_Mod_range_hashingENSA_20_Default_ranged_hashENSA_20_Prime_rehash_policyENSA_17_Hashtable_traitsILb1ELb0ELb1EEEED1Ev>
  403bb0:	f94012c0 	ldr	x0, [x22, #32]
  403bb4:	b4000080 	cbz	x0, 403bc4 <_ZN13PriorityQueueD1Ev+0x2cc>
  403bb8:	f9401ac1 	ldr	x1, [x22, #48]
  403bbc:	cb000021 	sub	x1, x1, x0
  403bc0:	97fff940 	bl	4020c0 <_ZdlPvm@plt>
  403bc4:	f94006d3 	ldr	x19, [x22, #8]
  403bc8:	f9400ad5 	ldr	x21, [x22, #16]
  403bcc:	eb15027f 	cmp	x19, x21
  403bd0:	54fffc81 	b.ne	403b60 <_ZN13PriorityQueueD1Ev+0x268>  // b.any
  403bd4:	17ffffeb 	b	403b80 <_ZN13PriorityQueueD1Ev+0x288>
  403bd8:	91008273 	add	x19, x19, #0x20
  403bdc:	eb1302bf 	cmp	x21, x19
  403be0:	54000120 	b.eq	403c04 <_ZN13PriorityQueueD1Ev+0x30c>  // b.none
  403be4:	aa1303e1 	mov	x1, x19
  403be8:	f8410420 	ldr	x0, [x1], #16
  403bec:	eb01001f 	cmp	x0, x1
  403bf0:	54ffff40 	b.eq	403bd8 <_ZN13PriorityQueueD1Ev+0x2e0>  // b.none
  403bf4:	f9400a61 	ldr	x1, [x19, #16]
  403bf8:	91000421 	add	x1, x1, #0x1
  403bfc:	97fff931 	bl	4020c0 <_ZdlPvm@plt>
  403c00:	17fffff6 	b	403bd8 <_ZN13PriorityQueueD1Ev+0x2e0>
  403c04:	f94006c0 	ldr	x0, [x22, #8]
  403c08:	b4000080 	cbz	x0, 403c18 <_ZN13PriorityQueueD1Ev+0x320>
  403c0c:	f9400ec1 	ldr	x1, [x22, #24]
  403c10:	cb000021 	sub	x1, x1, x0
  403c14:	97fff92b 	bl	4020c0 <_ZdlPvm@plt>
  403c18:	9102c2d6 	add	x22, x22, #0xb0
  403c1c:	eb1602ff 	cmp	x23, x22
  403c20:	54ffec80 	b.eq	4039b0 <_ZN13PriorityQueueD1Ev+0xb8>  // b.none
  403c24:	9101e2c0 	add	x0, x22, #0x78
  403c28:	97ffff15 	bl	40387c <_ZNSt10_HashtableIiSt4pairIKiiESaIS2_ENSt8__detail10_Select1stESt8equal_toIiESt4hashIiENS4_18_Mod_range_hashingENS4_20_Default_ranged_hashENS4_20_Prime_rehash_policyENS4_17_Hashtable_traitsILb0ELb0ELb1EEEED1Ev>
  403c2c:	910102c0 	add	x0, x22, #0x40
  403c30:	97fffeea 	bl	4037d8 <_ZNSt10_HashtableINSt7__cxx1112basic_stringIcSt11char_traitsIcESaIcEEESt4pairIKS5_iESaIS8_ENSt8__detail10_Select1stESt8equal_toIS5_ESt4hashIS5_ENSA_18_Mod_range_hashingENSA_20_Default_ranged_hashENSA_20_Prime_rehash_policyENSA_17_Hashtable_traitsILb1ELb0ELb1EEEED1Ev>
  403c34:	f94012c0 	ldr	x0, [x22, #32]
  403c38:	b4000080 	cbz	x0, 403c48 <_ZN13PriorityQueueD1Ev+0x350>
  403c3c:	f9401ac1 	ldr	x1, [x22, #48]
  403c40:	cb000021 	sub	x1, x1, x0
  403c44:	97fff91f 	bl	4020c0 <_ZdlPvm@plt>
  403c48:	f94006d3 	ldr	x19, [x22, #8]
  403c4c:	f9400ad5 	ldr	x21, [x22, #16]
  403c50:	eb15027f 	cmp	x19, x21
  403c54:	54fffc81 	b.ne	403be4 <_ZN13PriorityQueueD1Ev+0x2ec>  // b.any
  403c58:	17ffffeb 	b	403c04 <_ZN13PriorityQueueD1Ev+0x30c>
  403c5c:	91008273 	add	x19, x19, #0x20
  403c60:	eb1302bf 	cmp	x21, x19
  403c64:	54000120 	b.eq	403c88 <_ZN13PriorityQueueD1Ev+0x390>  // b.none
  403c68:	aa1303e1 	mov	x1, x19
  403c6c:	f8410420 	ldr	x0, [x1], #16
  403c70:	eb01001f 	cmp	x0, x1
  403c74:	54ffff40 	b.eq	403c5c <_ZN13PriorityQueueD1Ev+0x364>  // b.none
  403c78:	f9400a61 	ldr	x1, [x19, #16]
  403c7c:	91000421 	add	x1, x1, #0x1
  403c80:	97fff910 	bl	4020c0 <_ZdlPvm@plt>
  403c84:	17fffff6 	b	403c5c <_ZN13PriorityQueueD1Ev+0x364>
  403c88:	f94006c0 	ldr	x0, [x22, #8]
  403c8c:	b4000080 	cbz	x0, 403c9c <_ZN13PriorityQueueD1Ev+0x3a4>
  403c90:	f9400ec1 	ldr	x1, [x22, #24]
  403c94:	cb000021 	sub	x1, x1, x0
  403c98:	97fff90a 	bl	4020c0 <_ZdlPvm@plt>
  403c9c:	9102c2d6 	add	x22, x22, #0xb0
  403ca0:	eb1602ff 	cmp	x23, x22
  403ca4:	54ffe980 	b.eq	4039d4 <_ZN13PriorityQueueD1Ev+0xdc>  // b.none
  403ca8:	9101e2c0 	add	x0, x22, #0x78
  403cac:	97fffef4 	bl	40387c <_ZNSt10_HashtableIiSt4pairIKiiESaIS2_ENSt8__detail10_Select1stESt8equal_toIiESt4hashIiENS4_18_Mod_range_hashingENS4_20_Default_ranged_hashENS4_20_Prime_rehash_policyENS4_17_Hashtable_traitsILb0ELb0ELb1EEEED1Ev>
  403cb0:	910102c0 	add	x0, x22, #0x40
  403cb4:	97fffec9 	bl	4037d8 <_ZNSt10_HashtableINSt7__cxx1112basic_stringIcSt11char_traitsIcESaIcEEESt4pairIKS5_iESaIS8_ENSt8__detail10_Select1stESt8equal_toIS5_ESt4hashIS5_ENSA_18_Mod_range_hashingENSA_20_Default_ranged_hashENSA_20_Prime_rehash_policyENSA_17_Hashtable_traitsILb1ELb0ELb1EEEED1Ev>
  403cb8:	f94012c0 	ldr	x0, [x22, #32]
  403cbc:	b4000080 	cbz	x0, 403ccc <_ZN13PriorityQueueD1Ev+0x3d4>
  403cc0:	f9401ac1 	ldr	x1, [x22, #48]
  403cc4:	cb000021 	sub	x1, x1, x0
  403cc8:	97fff8fe 	bl	4020c0 <_ZdlPvm@plt>
  403ccc:	f94006d3 	ldr	x19, [x22, #8]
  403cd0:	f9400ad5 	ldr	x21, [x22, #16]
  403cd4:	eb15027f 	cmp	x19, x21
  403cd8:	54fffc81 	b.ne	403c68 <_ZN13PriorityQueueD1Ev+0x370>  // b.any
  403cdc:	17ffffeb 	b	403c88 <_ZN13PriorityQueueD1Ev+0x390>
  403ce0:	910082b5 	add	x21, x21, #0x20
  403ce4:	eb1502df 	cmp	x22, x21
  403ce8:	54000120 	b.eq	403d0c <_ZN13PriorityQueueD1Ev+0x414>  // b.none
  403cec:	aa1503e1 	mov	x1, x21
  403cf0:	f8410420 	ldr	x0, [x1], #16
  403cf4:	eb01001f 	cmp	x0, x1
  403cf8:	54ffff40 	b.eq	403ce0 <_ZN13PriorityQueueD1Ev+0x3e8>  // b.none
  403cfc:	f9400aa1 	ldr	x1, [x21, #16]
  403d00:	91000421 	add	x1, x1, #0x1
  403d04:	97fff8ef 	bl	4020c0 <_ZdlPvm@plt>
  403d08:	17fffff6 	b	403ce0 <_ZN13PriorityQueueD1Ev+0x3e8>
  403d0c:	f9400660 	ldr	x0, [x19, #8]
  403d10:	b4000080 	cbz	x0, 403d20 <_ZN13PriorityQueueD1Ev+0x428>
  403d14:	f9400e61 	ldr	x1, [x19, #24]
  403d18:	cb000021 	sub	x1, x1, x0
  403d1c:	97fff8e9 	bl	4020c0 <_ZdlPvm@plt>
  403d20:	9102c273 	add	x19, x19, #0xb0
  403d24:	eb1302ff 	cmp	x23, x19
  403d28:	540001e0 	b.eq	403d64 <_ZN13PriorityQueueD1Ev+0x46c>  // b.none
  403d2c:	9101e260 	add	x0, x19, #0x78
  403d30:	97fffed3 	bl	40387c <_ZNSt10_HashtableIiSt4pairIKiiESaIS2_ENSt8__detail10_Select1stESt8equal_toIiESt4hashIiENS4_18_Mod_range_hashingENS4_20_Default_ranged_hashENS4_20_Prime_rehash_policyENS4_17_Hashtable_traitsILb0ELb0ELb1EEEED1Ev>
  403d34:	91010260 	add	x0, x19, #0x40
  403d38:	97fffea8 	bl	4037d8 <_ZNSt10_HashtableINSt7__cxx1112basic_stringIcSt11char_traitsIcESaIcEEESt4pairIKS5_iESaIS8_ENSt8__detail10_Select1stESt8equal_toIS5_ESt4hashIS5_ENSA_18_Mod_range_hashingENSA_20_Default_ranged_hashENSA_20_Prime_rehash_policyENSA_17_Hashtable_traitsILb1ELb0ELb1EEEED1Ev>
  403d3c:	f9401260 	ldr	x0, [x19, #32]
  403d40:	b4000080 	cbz	x0, 403d50 <_ZN13PriorityQueueD1Ev+0x458>
  403d44:	f9401a61 	ldr	x1, [x19, #48]
  403d48:	cb000021 	sub	x1, x1, x0
  403d4c:	97fff8dd 	bl	4020c0 <_ZdlPvm@plt>
  403d50:	f9400675 	ldr	x21, [x19, #8]
  403d54:	f9400a76 	ldr	x22, [x19, #16]
  403d58:	eb1602bf 	cmp	x21, x22
  403d5c:	54fffc81 	b.ne	403cec <_ZN13PriorityQueueD1Ev+0x3f4>  // b.any
  403d60:	17ffffeb 	b	403d0c <_ZN13PriorityQueueD1Ev+0x414>
  403d64:	f9400300 	ldr	x0, [x24]
  403d68:	b4000080 	cbz	x0, 403d78 <_ZN13PriorityQueueD1Ev+0x480>
  403d6c:	f9400b01 	ldr	x1, [x24, #16]
  403d70:	cb000021 	sub	x1, x1, x0
  403d74:	97fff8d3 	bl	4020c0 <_ZdlPvm@plt>
  403d78:	91016318 	add	x24, x24, #0x58
  403d7c:	eb18033f 	cmp	x25, x24
  403d80:	54ffe3c0 	b.eq	4039f8 <_ZN13PriorityQueueD1Ev+0x100>  // b.none
  403d84:	f9401f00 	ldr	x0, [x24, #56]
  403d88:	b4000080 	cbz	x0, 403d98 <_ZN13PriorityQueueD1Ev+0x4a0>
  403d8c:	f9402701 	ldr	x1, [x24, #72]
  403d90:	cb000021 	sub	x1, x1, x0
  403d94:	97fff8cb 	bl	4020c0 <_ZdlPvm@plt>
  403d98:	f9401300 	ldr	x0, [x24, #32]
  403d9c:	b4000080 	cbz	x0, 403dac <_ZN13PriorityQueueD1Ev+0x4b4>
  403da0:	f9401b01 	ldr	x1, [x24, #48]
  403da4:	cb000021 	sub	x1, x1, x0
  403da8:	97fff8c6 	bl	4020c0 <_ZdlPvm@plt>
  403dac:	f9400313 	ldr	x19, [x24]
  403db0:	f9400717 	ldr	x23, [x24, #8]
  403db4:	eb17027f 	cmp	x19, x23
  403db8:	54fffba1 	b.ne	403d2c <_ZN13PriorityQueueD1Ev+0x434>  // b.any
  403dbc:	17ffffea 	b	403d64 <_ZN13PriorityQueueD1Ev+0x46c>
  403dc0:	910082b5 	add	x21, x21, #0x20
  403dc4:	eb1502df 	cmp	x22, x21
  403dc8:	54000120 	b.eq	403dec <_ZN13PriorityQueueD1Ev+0x4f4>  // b.none
  403dcc:	aa1503e1 	mov	x1, x21
  403dd0:	f8410420 	ldr	x0, [x1], #16
  403dd4:	eb01001f 	cmp	x0, x1
  403dd8:	54ffff40 	b.eq	403dc0 <_ZN13PriorityQueueD1Ev+0x4c8>  // b.none
  403ddc:	f9400aa1 	ldr	x1, [x21, #16]
  403de0:	91000421 	add	x1, x1, #0x1
  403de4:	97fff8b7 	bl	4020c0 <_ZdlPvm@plt>
  403de8:	17fffff6 	b	403dc0 <_ZN13PriorityQueueD1Ev+0x4c8>
  403dec:	f9400660 	ldr	x0, [x19, #8]
  403df0:	b4000080 	cbz	x0, 403e00 <_ZN13PriorityQueueD1Ev+0x508>
  403df4:	f9400e61 	ldr	x1, [x19, #24]
  403df8:	cb000021 	sub	x1, x1, x0
  403dfc:	97fff8b1 	bl	4020c0 <_ZdlPvm@plt>
  403e00:	9102c273 	add	x19, x19, #0xb0
  403e04:	eb1302ff 	cmp	x23, x19
  403e08:	540001e0 	b.eq	403e44 <_ZN13PriorityQueueD1Ev+0x54c>  // b.none
  403e0c:	9101e260 	add	x0, x19, #0x78
  403e10:	97fffe9b 	bl	40387c <_ZNSt10_HashtableIiSt4pairIKiiESaIS2_ENSt8__detail10_Select1stESt8equal_toIiESt4hashIiENS4_18_Mod_range_hashingENS4_20_Default_ranged_hashENS4_20_Prime_rehash_policyENS4_17_Hashtable_traitsILb0ELb0ELb1EEEED1Ev>
  403e14:	91010260 	add	x0, x19, #0x40
  403e18:	97fffe70 	bl	4037d8 <_ZNSt10_HashtableINSt7__cxx1112basic_stringIcSt11char_traitsIcESaIcEEESt4pairIKS5_iESaIS8_ENSt8__detail10_Select1stESt8equal_toIS5_ESt4hashIS5_ENSA_18_Mod_range_hashingENSA_20_Default_ranged_hashENSA_20_Prime_rehash_policyENSA_17_Hashtable_traitsILb1ELb0ELb1EEEED1Ev>
  403e1c:	f9401260 	ldr	x0, [x19, #32]
  403e20:	b4000080 	cbz	x0, 403e30 <_ZN13PriorityQueueD1Ev+0x538>
  403e24:	f9401a61 	ldr	x1, [x19, #48]
  403e28:	cb000021 	sub	x1, x1, x0
  403e2c:	97fff8a5 	bl	4020c0 <_ZdlPvm@plt>
  403e30:	f9400675 	ldr	x21, [x19, #8]
  403e34:	f9400a76 	ldr	x22, [x19, #16]
  403e38:	eb1602bf 	cmp	x21, x22
  403e3c:	54fffc81 	b.ne	403dcc <_ZN13PriorityQueueD1Ev+0x4d4>  // b.any
  403e40:	17ffffeb 	b	403dec <_ZN13PriorityQueueD1Ev+0x4f4>
  403e44:	f9400300 	ldr	x0, [x24]
  403e48:	b4000080 	cbz	x0, 403e58 <_ZN13PriorityQueueD1Ev+0x560>
  403e4c:	f9400b01 	ldr	x1, [x24, #16]
  403e50:	cb000021 	sub	x1, x1, x0
  403e54:	97fff89b 	bl	4020c0 <_ZdlPvm@plt>
  403e58:	91016318 	add	x24, x24, #0x58
  403e5c:	eb18033f 	cmp	x25, x24
  403e60:	54ffdde0 	b.eq	403a1c <_ZN13PriorityQueueD1Ev+0x124>  // b.none
  403e64:	f9401f00 	ldr	x0, [x24, #56]
  403e68:	b4000080 	cbz	x0, 403e78 <_ZN13PriorityQueueD1Ev+0x580>
  403e6c:	f9402701 	ldr	x1, [x24, #72]
  403e70:	cb000021 	sub	x1, x1, x0
  403e74:	97fff893 	bl	4020c0 <_ZdlPvm@plt>
  403e78:	f9401300 	ldr	x0, [x24, #32]
  403e7c:	b4000080 	cbz	x0, 403e8c <_ZN13PriorityQueueD1Ev+0x594>
  403e80:	f9401b01 	ldr	x1, [x24, #48]
  403e84:	cb000021 	sub	x1, x1, x0
  403e88:	97fff88e 	bl	4020c0 <_ZdlPvm@plt>
  403e8c:	f9400313 	ldr	x19, [x24]
  403e90:	f9400717 	ldr	x23, [x24, #8]
  403e94:	eb17027f 	cmp	x19, x23
  403e98:	54fffba1 	b.ne	403e0c <_ZN13PriorityQueueD1Ev+0x514>  // b.any
  403e9c:	17ffffea 	b	403e44 <_ZN13PriorityQueueD1Ev+0x54c>

0000000000403ea0 <_ZNSt7__cxx1115basic_stringbufIcSt11char_traitsIcESaIcEED1Ev>:
  403ea0:	a9be7bfd 	stp	x29, x30, [sp, #-32]!
  403ea4:	910003fd 	mov	x29, sp
  403ea8:	f9000bf3 	str	x19, [sp, #16]
  403eac:	aa0003f3 	mov	x19, x0
  403eb0:	90000160 	adrp	x0, 42f000 <__FRAME_END__+0x1a654>
  403eb4:	91356000 	add	x0, x0, #0xd58
  403eb8:	f9000260 	str	x0, [x19]
  403ebc:	f9402660 	ldr	x0, [x19, #72]
  403ec0:	91016261 	add	x1, x19, #0x58
  403ec4:	eb01001f 	cmp	x0, x1
  403ec8:	54000080 	b.eq	403ed8 <_ZNSt7__cxx1115basic_stringbufIcSt11char_traitsIcESaIcEED1Ev+0x38>  // b.none
  403ecc:	f9402e61 	ldr	x1, [x19, #88]
  403ed0:	91000421 	add	x1, x1, #0x1
  403ed4:	97fff87b 	bl	4020c0 <_ZdlPvm@plt>
  403ed8:	aa1303e0 	mov	x0, x19
  403edc:	90000161 	adrp	x1, 42f000 <__FRAME_END__+0x1a654>
  403ee0:	912dc021 	add	x1, x1, #0xb70
  403ee4:	f8038401 	str	x1, [x0], #56
  403ee8:	97fff8ae 	bl	4021a0 <_ZNSt6localeD1Ev@plt>
  403eec:	f9400bf3 	ldr	x19, [sp, #16]
  403ef0:	a8c27bfd 	ldp	x29, x30, [sp], #32
  403ef4:	d65f03c0 	ret

0000000000403ef8 <_ZNSt7__cxx1115basic_stringbufIcSt11char_traitsIcESaIcEED0Ev>:
  403ef8:	a9be7bfd 	stp	x29, x30, [sp, #-32]!
  403efc:	910003fd 	mov	x29, sp
  403f00:	f9000bf3 	str	x19, [sp, #16]
  403f04:	aa0003f3 	mov	x19, x0
  403f08:	90000160 	adrp	x0, 42f000 <__FRAME_END__+0x1a654>
  403f0c:	91356000 	add	x0, x0, #0xd58
  403f10:	f9000260 	str	x0, [x19]
  403f14:	f9402660 	ldr	x0, [x19, #72]
  403f18:	91016261 	add	x1, x19, #0x58
  403f1c:	eb01001f 	cmp	x0, x1
  403f20:	54000080 	b.eq	403f30 <_ZNSt7__cxx1115basic_stringbufIcSt11char_traitsIcESaIcEED0Ev+0x38>  // b.none
  403f24:	f9402e61 	ldr	x1, [x19, #88]
  403f28:	91000421 	add	x1, x1, #0x1
  403f2c:	97fff865 	bl	4020c0 <_ZdlPvm@plt>
  403f30:	aa1303e0 	mov	x0, x19
  403f34:	90000161 	adrp	x1, 42f000 <__FRAME_END__+0x1a654>
  403f38:	912dc021 	add	x1, x1, #0xb70
  403f3c:	f8038401 	str	x1, [x0], #56
  403f40:	97fff898 	bl	4021a0 <_ZNSt6localeD1Ev@plt>
  403f44:	d2800d01 	mov	x1, #0x68                  	// #104
  403f48:	aa1303e0 	mov	x0, x19
  403f4c:	97fff85d 	bl	4020c0 <_ZdlPvm@plt>
  403f50:	f9400bf3 	ldr	x19, [sp, #16]
  403f54:	a8c27bfd 	ldp	x29, x30, [sp], #32
  403f58:	d65f03c0 	ret

0000000000403f5c <_ZNSt6vectorINSt7__cxx1112basic_stringIcSt11char_traitsIcESaIcEEESaIS5_EEC1ESt16initializer_listIS5_ERKS6_>:
  403f5c:	a9ba7bfd 	stp	x29, x30, [sp, #-96]!
  403f60:	910003fd 	mov	x29, sp
  403f64:	a90153f3 	stp	x19, x20, [sp, #16]
  403f68:	a9025bf5 	stp	x21, x22, [sp, #32]
  403f6c:	a90363f7 	stp	x23, x24, [sp, #48]
  403f70:	f90023f9 	str	x25, [sp, #64]
  403f74:	aa0003f8 	mov	x24, x0
  403f78:	f900001f 	str	xzr, [x0]
  403f7c:	f900041f 	str	xzr, [x0, #8]
  403f80:	f900081f 	str	xzr, [x0, #16]
  403f84:	d37be853 	lsl	x19, x2, #5
  403f88:	8b130037 	add	x23, x1, x19
  403f8c:	b27be7e0 	mov	x0, #0x7fffffffffffffe0    	// #9223372036854775776
  403f90:	eb00027f 	cmp	x19, x0
  403f94:	540000e8 	b.hi	403fb0 <_ZNSt6vectorINSt7__cxx1112basic_stringIcSt11char_traitsIcESaIcEEESaIS5_EEC1ESt16initializer_listIS5_ERKS6_+0x54>  // b.pmore
  403f98:	aa0103f4 	mov	x20, x1
  403f9c:	aa0103f5 	mov	x21, x1
  403fa0:	b4000933 	cbz	x19, 4040c4 <_ZNSt6vectorINSt7__cxx1112basic_stringIcSt11char_traitsIcESaIcEEESaIS5_EEC1ESt16initializer_listIS5_ERKS6_+0x168>
  403fa4:	aa1303e0 	mov	x0, x19
  403fa8:	97fff842 	bl	4020b0 <_Znwm@plt>
  403fac:	14000006 	b	403fc4 <_ZNSt6vectorINSt7__cxx1112basic_stringIcSt11char_traitsIcESaIcEEESaIS5_EEC1ESt16initializer_listIS5_ERKS6_+0x68>
  403fb0:	f0000060 	adrp	x0, 412000 <_Z19MD5Hash_simdversionPKNSt7__cxx1112basic_stringIcSt11char_traitsIcESaIcEEEP12__Uint32x4_t+0x1480>
  403fb4:	911aa000 	add	x0, x0, #0x6a8
  403fb8:	97fff812 	bl	402000 <_ZSt20__throw_length_errorPKc@plt>
  403fbc:	aa0003f3 	mov	x19, x0
  403fc0:	1400003a 	b	4040a8 <_ZNSt6vectorINSt7__cxx1112basic_stringIcSt11char_traitsIcESaIcEEESaIS5_EEC1ESt16initializer_listIS5_ERKS6_+0x14c>
  403fc4:	aa0003f9 	mov	x25, x0
  403fc8:	f9000300 	str	x0, [x24]
  403fcc:	8b130013 	add	x19, x0, x19
  403fd0:	f9000b13 	str	x19, [x24, #16]
  403fd4:	eb1402ff 	cmp	x23, x20
  403fd8:	540005e0 	b.eq	404094 <_ZNSt6vectorINSt7__cxx1112basic_stringIcSt11char_traitsIcESaIcEEESaIS5_EEC1ESt16initializer_listIS5_ERKS6_+0x138>  // b.none
  403fdc:	aa0003f3 	mov	x19, x0
  403fe0:	1400001f 	b	40405c <_ZNSt6vectorINSt7__cxx1112basic_stringIcSt11char_traitsIcESaIcEEESaIS5_EEC1ESt16initializer_listIS5_ERKS6_+0x100>
  403fe4:	f0000060 	adrp	x0, 412000 <_Z19MD5Hash_simdversionPKNSt7__cxx1112basic_stringIcSt11char_traitsIcESaIcEEEP12__Uint32x4_t+0x1480>
  403fe8:	911b8000 	add	x0, x0, #0x6e0
  403fec:	97fff819 	bl	402050 <_ZSt19__throw_logic_errorPKc@plt>
  403ff0:	97fff7f8 	bl	401fd0 <__cxa_begin_catch@plt>
  403ff4:	eb19027f 	cmp	x19, x25
  403ff8:	54000520 	b.eq	40409c <_ZNSt6vectorINSt7__cxx1112basic_stringIcSt11char_traitsIcESaIcEEESaIS5_EEC1ESt16initializer_listIS5_ERKS6_+0x140>  // b.none
  403ffc:	aa1903e0 	mov	x0, x25
  404000:	97fff844 	bl	402110 <_ZNSt7__cxx1112basic_stringIcSt11char_traitsIcESaIcEE10_M_disposeEv@plt>
  404004:	91008339 	add	x25, x25, #0x20
  404008:	17fffffb 	b	403ff4 <_ZNSt6vectorINSt7__cxx1112basic_stringIcSt11char_traitsIcESaIcEEESaIS5_EEC1ESt16initializer_listIS5_ERKS6_+0x98>
  40400c:	d2800002 	mov	x2, #0x0                   	// #0
  404010:	910163e1 	add	x1, sp, #0x58
  404014:	aa1303e0 	mov	x0, x19
  404018:	97fff896 	bl	402270 <_ZNSt7__cxx1112basic_stringIcSt11char_traitsIcESaIcEE9_M_createERmm@plt>
  40401c:	f9000260 	str	x0, [x19]
  404020:	f9402fe1 	ldr	x1, [sp, #88]
  404024:	f9000a61 	str	x1, [x19, #16]
  404028:	aa1403e2 	mov	x2, x20
  40402c:	aa1603e1 	mov	x1, x22
  404030:	97fff7bc 	bl	401f20 <memcpy@plt>
  404034:	14000003 	b	404040 <_ZNSt6vectorINSt7__cxx1112basic_stringIcSt11char_traitsIcESaIcEEESaIS5_EEC1ESt16initializer_listIS5_ERKS6_+0xe4>
  404038:	394002c1 	ldrb	w1, [x22]
  40403c:	39000001 	strb	w1, [x0]
  404040:	f9402fe1 	ldr	x1, [sp, #88]
  404044:	f9000661 	str	x1, [x19, #8]
  404048:	f8420660 	ldr	x0, [x19], #32
  40404c:	3821681f 	strb	wzr, [x0, x1]
  404050:	910082b5 	add	x21, x21, #0x20
  404054:	eb1502ff 	cmp	x23, x21
  404058:	540003c0 	b.eq	4040d0 <_ZNSt6vectorINSt7__cxx1112basic_stringIcSt11char_traitsIcESaIcEEESaIS5_EEC1ESt16initializer_listIS5_ERKS6_+0x174>  // b.none
  40405c:	91004260 	add	x0, x19, #0x10
  404060:	f9000260 	str	x0, [x19]
  404064:	f94002b6 	ldr	x22, [x21]
  404068:	f94006b4 	ldr	x20, [x21, #8]
  40406c:	f100029f 	cmp	x20, #0x0
  404070:	fa401ac0 	ccmp	x22, #0x0, #0x0, ne  // ne = any
  404074:	54fffb80 	b.eq	403fe4 <_ZNSt6vectorINSt7__cxx1112basic_stringIcSt11char_traitsIcESaIcEEESaIS5_EEC1ESt16initializer_listIS5_ERKS6_+0x88>  // b.none
  404078:	f9002ff4 	str	x20, [sp, #88]
  40407c:	f1003e9f 	cmp	x20, #0xf
  404080:	54fffc68 	b.hi	40400c <_ZNSt6vectorINSt7__cxx1112basic_stringIcSt11char_traitsIcESaIcEEESaIS5_EEC1ESt16initializer_listIS5_ERKS6_+0xb0>  // b.pmore
  404084:	f100069f 	cmp	x20, #0x1
  404088:	54fffd80 	b.eq	404038 <_ZNSt6vectorINSt7__cxx1112basic_stringIcSt11char_traitsIcESaIcEEESaIS5_EEC1ESt16initializer_listIS5_ERKS6_+0xdc>  // b.none
  40408c:	b4fffdb4 	cbz	x20, 404040 <_ZNSt6vectorINSt7__cxx1112basic_stringIcSt11char_traitsIcESaIcEEESaIS5_EEC1ESt16initializer_listIS5_ERKS6_+0xe4>
  404090:	17ffffe6 	b	404028 <_ZNSt6vectorINSt7__cxx1112basic_stringIcSt11char_traitsIcESaIcEEESaIS5_EEC1ESt16initializer_listIS5_ERKS6_+0xcc>
  404094:	aa0003f3 	mov	x19, x0
  404098:	1400000e 	b	4040d0 <_ZNSt6vectorINSt7__cxx1112basic_stringIcSt11char_traitsIcESaIcEEESaIS5_EEC1ESt16initializer_listIS5_ERKS6_+0x174>
  40409c:	97fff849 	bl	4021c0 <__cxa_rethrow@plt>
  4040a0:	aa0003f3 	mov	x19, x0
  4040a4:	97fff85f 	bl	402220 <__cxa_end_catch@plt>
  4040a8:	f9400300 	ldr	x0, [x24]
  4040ac:	f9400b01 	ldr	x1, [x24, #16]
  4040b0:	cb000021 	sub	x1, x1, x0
  4040b4:	b4000040 	cbz	x0, 4040bc <_ZNSt6vectorINSt7__cxx1112basic_stringIcSt11char_traitsIcESaIcEEESaIS5_EEC1ESt16initializer_listIS5_ERKS6_+0x160>
  4040b8:	97fff802 	bl	4020c0 <_ZdlPvm@plt>
  4040bc:	aa1303e0 	mov	x0, x19
  4040c0:	97fff868 	bl	402260 <_Unwind_Resume@plt>
  4040c4:	f900031f 	str	xzr, [x24]
  4040c8:	f9000b13 	str	x19, [x24, #16]
  4040cc:	d2800013 	mov	x19, #0x0                   	// #0
  4040d0:	f9000713 	str	x19, [x24, #8]
  4040d4:	a94153f3 	ldp	x19, x20, [sp, #16]
  4040d8:	a9425bf5 	ldp	x21, x22, [sp, #32]
  4040dc:	a94363f7 	ldp	x23, x24, [sp, #48]
  4040e0:	f94023f9 	ldr	x25, [sp, #64]
  4040e4:	a8c67bfd 	ldp	x29, x30, [sp], #96
  4040e8:	d65f03c0 	ret

00000000004040ec <_Z20compareByPretermProbRK2PTS1_>:
  4040ec:	bd405001 	ldr	s1, [x0, #80]
  4040f0:	bd405020 	ldr	s0, [x1, #80]
  4040f4:	1e202030 	fcmpe	s1, s0
  4040f8:	1a9fd7e0 	cset	w0, gt
  4040fc:	d65f03c0 	ret

0000000000404100 <_ZN5model6FindPTE2PT>:
  404100:	f9400c07 	ldr	x7, [x0, #24]
  404104:	f940100c 	ldr	x12, [x0, #32]
  404108:	cb07018c 	sub	x12, x12, x7
  40410c:	9343fd8c 	asr	x12, x12, #3
  404110:	d2917460 	mov	x0, #0x8ba3                	// #35747
  404114:	f2b745c0 	movk	x0, #0xba2e, lsl #16
  404118:	f2d45d00 	movk	x0, #0xa2e8, lsl #32
  40411c:	f2e5d160 	movk	x0, #0x2e8b, lsl #48
  404120:	9b007d8c 	mul	x12, x12, x0
  404124:	b40004ec 	cbz	x12, 4041c0 <_ZN5model6FindPTE2PT+0xc0>
  404128:	f9400029 	ldr	x9, [x1]
  40412c:	f940042d 	ldr	x13, [x1, #8]
  404130:	cb0901ad 	sub	x13, x13, x9
  404134:	d2800008 	mov	x8, #0x0                   	// #0
  404138:	aa0003ee 	mov	x14, x0
  40413c:	9100112b 	add	x11, x9, #0x4
  404140:	14000005 	b	404154 <_ZN5model6FindPTE2PT+0x54>
  404144:	91000508 	add	x8, x8, #0x1
  404148:	910160e7 	add	x7, x7, #0x58
  40414c:	eb08019f 	cmp	x12, x8
  404150:	54000340 	b.eq	4041b8 <_ZN5model6FindPTE2PT+0xb8>  // b.none
  404154:	2a0803e0 	mov	w0, w8
  404158:	f94000e6 	ldr	x6, [x7]
  40415c:	f94004e2 	ldr	x2, [x7, #8]
  404160:	cb060042 	sub	x2, x2, x6
  404164:	eb0201bf 	cmp	x13, x2
  404168:	54fffee1 	b.ne	404144 <_ZN5model6FindPTE2PT+0x44>  // b.any
  40416c:	9344fc42 	asr	x2, x2, #4
  404170:	9b0e7c42 	mul	x2, x2, x14
  404174:	b4000202 	cbz	x2, 4041b4 <_ZN5model6FindPTE2PT+0xb4>
  404178:	d2800001 	mov	x1, #0x0                   	// #0
  40417c:	d2800003 	mov	x3, #0x0                   	// #0
  404180:	910010ca 	add	x10, x6, #0x4
  404184:	b86168c5 	ldr	w5, [x6, x1]
  404188:	b8616924 	ldr	w4, [x9, x1]
  40418c:	6b0400bf 	cmp	w5, w4
  404190:	54fffda1 	b.ne	404144 <_ZN5model6FindPTE2PT+0x44>  // b.any
  404194:	b8616945 	ldr	w5, [x10, x1]
  404198:	b8616964 	ldr	w4, [x11, x1]
  40419c:	6b0400bf 	cmp	w5, w4
  4041a0:	54fffd21 	b.ne	404144 <_ZN5model6FindPTE2PT+0x44>  // b.any
  4041a4:	91000463 	add	x3, x3, #0x1
  4041a8:	9102c021 	add	x1, x1, #0xb0
  4041ac:	eb02007f 	cmp	x3, x2
  4041b0:	54fffea1 	b.ne	404184 <_ZN5model6FindPTE2PT+0x84>  // b.any
  4041b4:	d65f03c0 	ret
  4041b8:	12800000 	mov	w0, #0xffffffff            	// #-1
  4041bc:	17fffffe 	b	4041b4 <_ZN5model6FindPTE2PT+0xb4>
  4041c0:	12800000 	mov	w0, #0xffffffff            	// #-1
  4041c4:	17fffffc 	b	4041b4 <_ZN5model6FindPTE2PT+0xb4>

00000000004041c8 <_ZN5model10FindLetterE7segment>:
  4041c8:	f9401802 	ldr	x2, [x0, #48]
  4041cc:	f9401c04 	ldr	x4, [x0, #56]
  4041d0:	cb020084 	sub	x4, x4, x2
  4041d4:	9344fc84 	asr	x4, x4, #4
  4041d8:	d2917460 	mov	x0, #0x8ba3                	// #35747
  4041dc:	f2b745c0 	movk	x0, #0xba2e, lsl #16
  4041e0:	f2d45d00 	movk	x0, #0xa2e8, lsl #32
  4041e4:	f2e5d160 	movk	x0, #0x2e8b, lsl #48
  4041e8:	9b007c84 	mul	x4, x4, x0
  4041ec:	b40001c4 	cbz	x4, 404224 <_ZN5model10FindLetterE7segment+0x5c>
  4041f0:	b9400425 	ldr	w5, [x1, #4]
  4041f4:	91001042 	add	x2, x2, #0x4
  4041f8:	d2800001 	mov	x1, #0x0                   	// #0
  4041fc:	2a0103e0 	mov	w0, w1
  404200:	b9400043 	ldr	w3, [x2]
  404204:	6b05007f 	cmp	w3, w5
  404208:	540000c0 	b.eq	404220 <_ZN5model10FindLetterE7segment+0x58>  // b.none
  40420c:	91000421 	add	x1, x1, #0x1
  404210:	9102c042 	add	x2, x2, #0xb0
  404214:	eb04003f 	cmp	x1, x4
  404218:	54ffff21 	b.ne	4041fc <_ZN5model10FindLetterE7segment+0x34>  // b.any
  40421c:	12800000 	mov	w0, #0xffffffff            	// #-1
  404220:	d65f03c0 	ret
  404224:	12800000 	mov	w0, #0xffffffff            	// #-1
  404228:	17fffffe 	b	404220 <_ZN5model10FindLetterE7segment+0x58>

000000000040422c <_ZN5model9FindDigitE7segment>:
  40422c:	f9402402 	ldr	x2, [x0, #72]
  404230:	f9402804 	ldr	x4, [x0, #80]
  404234:	cb020084 	sub	x4, x4, x2
  404238:	9344fc84 	asr	x4, x4, #4
  40423c:	d2917460 	mov	x0, #0x8ba3                	// #35747
  404240:	f2b745c0 	movk	x0, #0xba2e, lsl #16
  404244:	f2d45d00 	movk	x0, #0xa2e8, lsl #32
  404248:	f2e5d160 	movk	x0, #0x2e8b, lsl #48
  40424c:	9b007c84 	mul	x4, x4, x0
  404250:	b40001c4 	cbz	x4, 404288 <_ZN5model9FindDigitE7segment+0x5c>
  404254:	b9400425 	ldr	w5, [x1, #4]
  404258:	91001042 	add	x2, x2, #0x4
  40425c:	d2800001 	mov	x1, #0x0                   	// #0
  404260:	2a0103e0 	mov	w0, w1
  404264:	b9400043 	ldr	w3, [x2]
  404268:	6b05007f 	cmp	w3, w5
  40426c:	540000c0 	b.eq	404284 <_ZN5model9FindDigitE7segment+0x58>  // b.none
  404270:	91000421 	add	x1, x1, #0x1
  404274:	9102c042 	add	x2, x2, #0xb0
  404278:	eb04003f 	cmp	x1, x4
  40427c:	54ffff21 	b.ne	404260 <_ZN5model9FindDigitE7segment+0x34>  // b.any
  404280:	12800000 	mov	w0, #0xffffffff            	// #-1
  404284:	d65f03c0 	ret
  404288:	12800000 	mov	w0, #0xffffffff            	// #-1
  40428c:	17fffffe 	b	404284 <_ZN5model9FindDigitE7segment+0x58>

0000000000404290 <_ZN5model10FindSymbolE7segment>:
  404290:	f9403002 	ldr	x2, [x0, #96]
  404294:	f9403404 	ldr	x4, [x0, #104]
  404298:	cb020084 	sub	x4, x4, x2
  40429c:	9344fc84 	asr	x4, x4, #4
  4042a0:	d2917460 	mov	x0, #0x8ba3                	// #35747
  4042a4:	f2b745c0 	movk	x0, #0xba2e, lsl #16
  4042a8:	f2d45d00 	movk	x0, #0xa2e8, lsl #32
  4042ac:	f2e5d160 	movk	x0, #0x2e8b, lsl #48
  4042b0:	9b007c84 	mul	x4, x4, x0
  4042b4:	b40001c4 	cbz	x4, 4042ec <_ZN5model10FindSymbolE7segment+0x5c>
  4042b8:	b9400425 	ldr	w5, [x1, #4]
  4042bc:	91001042 	add	x2, x2, #0x4
  4042c0:	d2800001 	mov	x1, #0x0                   	// #0
  4042c4:	2a0103e0 	mov	w0, w1
  4042c8:	b9400043 	ldr	w3, [x2]
  4042cc:	6b05007f 	cmp	w3, w5
  4042d0:	540000c0 	b.eq	4042e8 <_ZN5model10FindSymbolE7segment+0x58>  // b.none
  4042d4:	91000421 	add	x1, x1, #0x1
  4042d8:	9102c042 	add	x2, x2, #0xb0
  4042dc:	eb04003f 	cmp	x1, x4
  4042e0:	54ffff21 	b.ne	4042c4 <_ZN5model10FindSymbolE7segment+0x34>  // b.any
  4042e4:	12800000 	mov	w0, #0xffffffff            	// #-1
  4042e8:	d65f03c0 	ret
  4042ec:	12800000 	mov	w0, #0xffffffff            	// #-1
  4042f0:	17fffffe 	b	4042e8 <_ZN5model10FindSymbolE7segment+0x58>

00000000004042f4 <_ZN7segment8PrintSegEv>:
  4042f4:	a9be7bfd 	stp	x29, x30, [sp, #-32]!
  4042f8:	910003fd 	mov	x29, sp
  4042fc:	a90153f3 	stp	x19, x20, [sp, #16]
  404300:	aa0003f3 	mov	x19, x0
  404304:	b9400000 	ldr	w0, [x0]
  404308:	7100041f 	cmp	w0, #0x1
  40430c:	54000140 	b.eq	404334 <_ZN7segment8PrintSegEv+0x40>  // b.none
  404310:	b9400260 	ldr	w0, [x19]
  404314:	7100081f 	cmp	w0, #0x2
  404318:	54000240 	b.eq	404360 <_ZN7segment8PrintSegEv+0x6c>  // b.none
  40431c:	b9400260 	ldr	w0, [x19]
  404320:	71000c1f 	cmp	w0, #0x3
  404324:	54000340 	b.eq	40438c <_ZN7segment8PrintSegEv+0x98>  // b.none
  404328:	a94153f3 	ldp	x19, x20, [sp, #16]
  40432c:	a8c27bfd 	ldp	x29, x30, [sp], #32
  404330:	d65f03c0 	ret
  404334:	90000174 	adrp	x20, 430000 <_Znam@GLIBCXX_3.4>
  404338:	91084294 	add	x20, x20, #0x210
  40433c:	d2800022 	mov	x2, #0x1                   	// #1
  404340:	d0000061 	adrp	x1, 412000 <_Z19MD5Hash_simdversionPKNSt7__cxx1112basic_stringIcSt11char_traitsIcESaIcEEEP12__Uint32x4_t+0x1480>
  404344:	9128e021 	add	x1, x1, #0xa38
  404348:	aa1403e0 	mov	x0, x20
  40434c:	97fff769 	bl	4020f0 <_ZSt16__ostream_insertIcSt11char_traitsIcEERSt13basic_ostreamIT_T0_ES6_PKS3_l@plt>
  404350:	b9400661 	ldr	w1, [x19, #4]
  404354:	aa1403e0 	mov	x0, x20
  404358:	97fff7be 	bl	402250 <_ZNSolsEi@plt>
  40435c:	17ffffed 	b	404310 <_ZN7segment8PrintSegEv+0x1c>
  404360:	90000174 	adrp	x20, 430000 <_Znam@GLIBCXX_3.4>
  404364:	91084294 	add	x20, x20, #0x210
  404368:	d2800022 	mov	x2, #0x1                   	// #1
  40436c:	d0000061 	adrp	x1, 412000 <_Z19MD5Hash_simdversionPKNSt7__cxx1112basic_stringIcSt11char_traitsIcESaIcEEEP12__Uint32x4_t+0x1480>
  404370:	91290021 	add	x1, x1, #0xa40
  404374:	aa1403e0 	mov	x0, x20
  404378:	97fff75e 	bl	4020f0 <_ZSt16__ostream_insertIcSt11char_traitsIcEERSt13basic_ostreamIT_T0_ES6_PKS3_l@plt>
  40437c:	b9400661 	ldr	w1, [x19, #4]
  404380:	aa1403e0 	mov	x0, x20
  404384:	97fff7b3 	bl	402250 <_ZNSolsEi@plt>
  404388:	17ffffe5 	b	40431c <_ZN7segment8PrintSegEv+0x28>
  40438c:	90000174 	adrp	x20, 430000 <_Znam@GLIBCXX_3.4>
  404390:	91084294 	add	x20, x20, #0x210
  404394:	d2800022 	mov	x2, #0x1                   	// #1
  404398:	d0000061 	adrp	x1, 412000 <_Z19MD5Hash_simdversionPKNSt7__cxx1112basic_stringIcSt11char_traitsIcESaIcEEEP12__Uint32x4_t+0x1480>
  40439c:	91292021 	add	x1, x1, #0xa48
  4043a0:	aa1403e0 	mov	x0, x20
  4043a4:	97fff753 	bl	4020f0 <_ZSt16__ostream_insertIcSt11char_traitsIcEERSt13basic_ostreamIT_T0_ES6_PKS3_l@plt>
  4043a8:	b9400661 	ldr	w1, [x19, #4]
  4043ac:	aa1403e0 	mov	x0, x20
  4043b0:	97fff7a8 	bl	402250 <_ZNSolsEi@plt>
  4043b4:	17ffffdd 	b	404328 <_ZN7segment8PrintSegEv+0x34>

00000000004043b8 <_ZSt25__unguarded_linear_insertIN9__gnu_cxx17__normal_iteratorIPNSt7__cxx1112basic_stringIcSt11char_traitsIcESaIcEEESt6vectorIS7_SaIS7_EEEENS0_5__ops14_Val_comp_iterIZN7segment5orderEvEUlRKS7_SH_E_EEEvT_T0_>:
  4043b8:	a9ba7bfd 	stp	x29, x30, [sp, #-96]!
  4043bc:	910003fd 	mov	x29, sp
  4043c0:	a90153f3 	stp	x19, x20, [sp, #16]
  4043c4:	a9025bf5 	stp	x21, x22, [sp, #32]
  4043c8:	a90363f7 	stp	x23, x24, [sp, #48]
  4043cc:	910143e2 	add	x2, sp, #0x50
  4043d0:	f90023e2 	str	x2, [sp, #64]
  4043d4:	aa0003e2 	mov	x2, x0
  4043d8:	f8410443 	ldr	x3, [x2], #16
  4043dc:	eb03005f 	cmp	x2, x3
  4043e0:	540001a0 	b.eq	404414 <_ZSt25__unguarded_linear_insertIN9__gnu_cxx17__normal_iteratorIPNSt7__cxx1112basic_stringIcSt11char_traitsIcESaIcEEESt6vectorIS7_SaIS7_EEEENS0_5__ops14_Val_comp_iterIZN7segment5orderEvEUlRKS7_SH_E_EEEvT_T0_+0x5c>  // b.none
  4043e4:	f90023e3 	str	x3, [sp, #64]
  4043e8:	f9400803 	ldr	x3, [x0, #16]
  4043ec:	f9002be3 	str	x3, [sp, #80]
  4043f0:	f9400403 	ldr	x3, [x0, #8]
  4043f4:	f90027e3 	str	x3, [sp, #72]
  4043f8:	f9000002 	str	x2, [x0]
  4043fc:	f900041f 	str	xzr, [x0, #8]
  404400:	3900401f 	strb	wzr, [x0, #16]
  404404:	d1004013 	sub	x19, x0, #0x10
  404408:	91010036 	add	x22, x1, #0x40
  40440c:	9101e035 	add	x21, x1, #0x78
  404410:	14000026 	b	4044a8 <_ZSt25__unguarded_linear_insertIN9__gnu_cxx17__normal_iteratorIPNSt7__cxx1112basic_stringIcSt11char_traitsIcESaIcEEESt6vectorIS7_SaIS7_EEEENS0_5__ops14_Val_comp_iterIZN7segment5orderEvEUlRKS7_SH_E_EEEvT_T0_+0xf0>
  404414:	a9411404 	ldp	x4, x5, [x0, #16]
  404418:	a90517e4 	stp	x4, x5, [sp, #80]
  40441c:	17fffff5 	b	4043f0 <_ZSt25__unguarded_linear_insertIN9__gnu_cxx17__normal_iteratorIPNSt7__cxx1112basic_stringIcSt11char_traitsIcESaIcEEESt6vectorIS7_SaIS7_EEEENS0_5__ops14_Val_comp_iterIZN7segment5orderEvEUlRKS7_SH_E_EEEvT_T0_+0x38>
  404420:	aa0003e1 	mov	x1, x0
  404424:	aa1503e0 	mov	x0, x21
  404428:	940016fe 	bl	40a020 <_ZNSt8__detail9_Map_baseIiSt4pairIKiiESaIS3_ENS_10_Select1stESt8equal_toIiESt4hashIiENS_18_Mod_range_hashingENS_20_Default_ranged_hashENS_20_Prime_rehash_policyENS_17_Hashtable_traitsILb0ELb0ELb1EEELb1EE2atERS2_>
  40442c:	b9400014 	ldr	w20, [x0]
  404430:	aa1703e1 	mov	x1, x23
  404434:	aa1603e0 	mov	x0, x22
  404438:	9400175e 	bl	40a1b0 <_ZNSt8__detail9_Map_baseINSt7__cxx1112basic_stringIcSt11char_traitsIcESaIcEEESt4pairIKS6_iESaIS9_ENS_10_Select1stESt8equal_toIS6_ESt4hashIS6_ENS_18_Mod_range_hashingENS_20_Default_ranged_hashENS_20_Prime_rehash_policyENS_17_Hashtable_traitsILb1ELb0ELb1EEELb1EEixERS8_>
  40443c:	aa0003e1 	mov	x1, x0
  404440:	aa1503e0 	mov	x0, x21
  404444:	940016f7 	bl	40a020 <_ZNSt8__detail9_Map_baseIiSt4pairIKiiESaIS3_ENS_10_Select1stESt8equal_toIiESt4hashIiENS_18_Mod_range_hashingENS_20_Default_ranged_hashENS_20_Prime_rehash_policyENS_17_Hashtable_traitsILb0ELb0ELb1EEELb1EE2atERS2_>
  404448:	b9400000 	ldr	w0, [x0]
  40444c:	6b00029f 	cmp	w20, w0
  404450:	5400056d 	b.le	4044fc <_ZSt25__unguarded_linear_insertIN9__gnu_cxx17__normal_iteratorIPNSt7__cxx1112basic_stringIcSt11char_traitsIcESaIcEEESt6vectorIS7_SaIS7_EEEENS0_5__ops14_Val_comp_iterIZN7segment5orderEvEUlRKS7_SH_E_EEEvT_T0_+0x144>
  404454:	aa1303f4 	mov	x20, x19
  404458:	f9400a60 	ldr	x0, [x19, #16]
  40445c:	f85f0261 	ldur	x1, [x19, #-16]
  404460:	eb13003f 	cmp	x1, x19
  404464:	540002e0 	b.eq	4044c0 <_ZSt25__unguarded_linear_insertIN9__gnu_cxx17__normal_iteratorIPNSt7__cxx1112basic_stringIcSt11char_traitsIcESaIcEEESt6vectorIS7_SaIS7_EEEENS0_5__ops14_Val_comp_iterIZN7segment5orderEvEUlRKS7_SH_E_EEEvT_T0_+0x108>  // b.none
  404468:	91008262 	add	x2, x19, #0x20
  40446c:	eb02001f 	cmp	x0, x2
  404470:	54000ae0 	b.eq	4045cc <_ZSt25__unguarded_linear_insertIN9__gnu_cxx17__normal_iteratorIPNSt7__cxx1112basic_stringIcSt11char_traitsIcESaIcEEESt6vectorIS7_SaIS7_EEEENS0_5__ops14_Val_comp_iterIZN7segment5orderEvEUlRKS7_SH_E_EEEvT_T0_+0x214>  // b.none
  404474:	f9401262 	ldr	x2, [x19, #32]
  404478:	f9000a61 	str	x1, [x19, #16]
  40447c:	f85f8261 	ldur	x1, [x19, #-8]
  404480:	f9000e61 	str	x1, [x19, #24]
  404484:	f9400261 	ldr	x1, [x19]
  404488:	f9001261 	str	x1, [x19, #32]
  40448c:	b4000aa0 	cbz	x0, 4045e0 <_ZSt25__unguarded_linear_insertIN9__gnu_cxx17__normal_iteratorIPNSt7__cxx1112basic_stringIcSt11char_traitsIcESaIcEEESt6vectorIS7_SaIS7_EEEENS0_5__ops14_Val_comp_iterIZN7segment5orderEvEUlRKS7_SH_E_EEEvT_T0_+0x228>
  404490:	f81f0260 	stur	x0, [x19, #-16]
  404494:	f9000262 	str	x2, [x19]
  404498:	f81f829f 	stur	xzr, [x20, #-8]
  40449c:	f85f0280 	ldur	x0, [x20, #-16]
  4044a0:	3900001f 	strb	wzr, [x0]
  4044a4:	d1008273 	sub	x19, x19, #0x20
  4044a8:	d1004277 	sub	x23, x19, #0x10
  4044ac:	91004278 	add	x24, x19, #0x10
  4044b0:	910103e1 	add	x1, sp, #0x40
  4044b4:	aa1603e0 	mov	x0, x22
  4044b8:	9400173e 	bl	40a1b0 <_ZNSt8__detail9_Map_baseINSt7__cxx1112basic_stringIcSt11char_traitsIcESaIcEEESt4pairIKS6_iESaIS9_ENS_10_Select1stESt8equal_toIS6_ESt4hashIS6_ENS_18_Mod_range_hashingENS_20_Default_ranged_hashENS_20_Prime_rehash_policyENS_17_Hashtable_traitsILb1ELb0ELb1EEELb1EEixERS8_>
  4044bc:	17ffffd9 	b	404420 <_ZSt25__unguarded_linear_insertIN9__gnu_cxx17__normal_iteratorIPNSt7__cxx1112basic_stringIcSt11char_traitsIcESaIcEEESt6vectorIS7_SaIS7_EEEENS0_5__ops14_Val_comp_iterIZN7segment5orderEvEUlRKS7_SH_E_EEEvT_T0_+0x68>
  4044c0:	f85f8262 	ldur	x2, [x19, #-8]
  4044c4:	b50000c2 	cbnz	x2, 4044dc <_ZSt25__unguarded_linear_insertIN9__gnu_cxx17__normal_iteratorIPNSt7__cxx1112basic_stringIcSt11char_traitsIcESaIcEEESt6vectorIS7_SaIS7_EEEENS0_5__ops14_Val_comp_iterIZN7segment5orderEvEUlRKS7_SH_E_EEEvT_T0_+0x124>
  4044c8:	f85f8280 	ldur	x0, [x20, #-8]
  4044cc:	f9000e80 	str	x0, [x20, #24]
  4044d0:	f9400a81 	ldr	x1, [x20, #16]
  4044d4:	3820683f 	strb	wzr, [x1, x0]
  4044d8:	17fffff0 	b	404498 <_ZSt25__unguarded_linear_insertIN9__gnu_cxx17__normal_iteratorIPNSt7__cxx1112basic_stringIcSt11char_traitsIcESaIcEEESt6vectorIS7_SaIS7_EEEENS0_5__ops14_Val_comp_iterIZN7segment5orderEvEUlRKS7_SH_E_EEEvT_T0_+0xe0>
  4044dc:	f100045f 	cmp	x2, #0x1
  4044e0:	54000080 	b.eq	4044f0 <_ZSt25__unguarded_linear_insertIN9__gnu_cxx17__normal_iteratorIPNSt7__cxx1112basic_stringIcSt11char_traitsIcESaIcEEESt6vectorIS7_SaIS7_EEEENS0_5__ops14_Val_comp_iterIZN7segment5orderEvEUlRKS7_SH_E_EEEvT_T0_+0x138>  // b.none
  4044e4:	aa1303e1 	mov	x1, x19
  4044e8:	97fff68e 	bl	401f20 <memcpy@plt>
  4044ec:	17fffff7 	b	4044c8 <_ZSt25__unguarded_linear_insertIN9__gnu_cxx17__normal_iteratorIPNSt7__cxx1112basic_stringIcSt11char_traitsIcESaIcEEESt6vectorIS7_SaIS7_EEEENS0_5__ops14_Val_comp_iterIZN7segment5orderEvEUlRKS7_SH_E_EEEvT_T0_+0x110>
  4044f0:	39400261 	ldrb	w1, [x19]
  4044f4:	39000001 	strb	w1, [x0]
  4044f8:	17fffff4 	b	4044c8 <_ZSt25__unguarded_linear_insertIN9__gnu_cxx17__normal_iteratorIPNSt7__cxx1112basic_stringIcSt11char_traitsIcESaIcEEESt6vectorIS7_SaIS7_EEEENS0_5__ops14_Val_comp_iterIZN7segment5orderEvEUlRKS7_SH_E_EEEvT_T0_+0x110>
  4044fc:	f9400300 	ldr	x0, [x24]
  404500:	f94023e1 	ldr	x1, [sp, #64]
  404504:	910143e2 	add	x2, sp, #0x50
  404508:	eb02003f 	cmp	x1, x2
  40450c:	54000380 	b.eq	40457c <_ZSt25__unguarded_linear_insertIN9__gnu_cxx17__normal_iteratorIPNSt7__cxx1112basic_stringIcSt11char_traitsIcESaIcEEESt6vectorIS7_SaIS7_EEEENS0_5__ops14_Val_comp_iterIZN7segment5orderEvEUlRKS7_SH_E_EEEvT_T0_+0x1c4>  // b.none
  404510:	91004302 	add	x2, x24, #0x10
  404514:	eb02001f 	cmp	x0, x2
  404518:	54000680 	b.eq	4045e8 <_ZSt25__unguarded_linear_insertIN9__gnu_cxx17__normal_iteratorIPNSt7__cxx1112basic_stringIcSt11char_traitsIcESaIcEEESt6vectorIS7_SaIS7_EEEENS0_5__ops14_Val_comp_iterIZN7segment5orderEvEUlRKS7_SH_E_EEEvT_T0_+0x230>  // b.none
  40451c:	f9400b02 	ldr	x2, [x24, #16]
  404520:	f9000301 	str	x1, [x24]
  404524:	f94027e1 	ldr	x1, [sp, #72]
  404528:	f9000701 	str	x1, [x24, #8]
  40452c:	f9402be1 	ldr	x1, [sp, #80]
  404530:	f9000b01 	str	x1, [x24, #16]
  404534:	b4000640 	cbz	x0, 4045fc <_ZSt25__unguarded_linear_insertIN9__gnu_cxx17__normal_iteratorIPNSt7__cxx1112basic_stringIcSt11char_traitsIcESaIcEEESt6vectorIS7_SaIS7_EEEENS0_5__ops14_Val_comp_iterIZN7segment5orderEvEUlRKS7_SH_E_EEEvT_T0_+0x244>
  404538:	f90023e0 	str	x0, [sp, #64]
  40453c:	f9002be2 	str	x2, [sp, #80]
  404540:	f90027ff 	str	xzr, [sp, #72]
  404544:	f94023e0 	ldr	x0, [sp, #64]
  404548:	3900001f 	strb	wzr, [x0]
  40454c:	f94023e0 	ldr	x0, [sp, #64]
  404550:	910143e1 	add	x1, sp, #0x50
  404554:	eb01001f 	cmp	x0, x1
  404558:	54000080 	b.eq	404568 <_ZSt25__unguarded_linear_insertIN9__gnu_cxx17__normal_iteratorIPNSt7__cxx1112basic_stringIcSt11char_traitsIcESaIcEEESt6vectorIS7_SaIS7_EEEENS0_5__ops14_Val_comp_iterIZN7segment5orderEvEUlRKS7_SH_E_EEEvT_T0_+0x1b0>  // b.none
  40455c:	f9402be1 	ldr	x1, [sp, #80]
  404560:	91000421 	add	x1, x1, #0x1
  404564:	97fff6d7 	bl	4020c0 <_ZdlPvm@plt>
  404568:	a94153f3 	ldp	x19, x20, [sp, #16]
  40456c:	a9425bf5 	ldp	x21, x22, [sp, #32]
  404570:	a94363f7 	ldp	x23, x24, [sp, #48]
  404574:	a8c67bfd 	ldp	x29, x30, [sp], #96
  404578:	d65f03c0 	ret
  40457c:	f94027e2 	ldr	x2, [sp, #72]
  404580:	b50000c2 	cbnz	x2, 404598 <_ZSt25__unguarded_linear_insertIN9__gnu_cxx17__normal_iteratorIPNSt7__cxx1112basic_stringIcSt11char_traitsIcESaIcEEESt6vectorIS7_SaIS7_EEEENS0_5__ops14_Val_comp_iterIZN7segment5orderEvEUlRKS7_SH_E_EEEvT_T0_+0x1e0>
  404584:	f94027e0 	ldr	x0, [sp, #72]
  404588:	f9000700 	str	x0, [x24, #8]
  40458c:	f9400301 	ldr	x1, [x24]
  404590:	3820683f 	strb	wzr, [x1, x0]
  404594:	17ffffeb 	b	404540 <_ZSt25__unguarded_linear_insertIN9__gnu_cxx17__normal_iteratorIPNSt7__cxx1112basic_stringIcSt11char_traitsIcESaIcEEESt6vectorIS7_SaIS7_EEEENS0_5__ops14_Val_comp_iterIZN7segment5orderEvEUlRKS7_SH_E_EEEvT_T0_+0x188>
  404598:	f100045f 	cmp	x2, #0x1
  40459c:	54000080 	b.eq	4045ac <_ZSt25__unguarded_linear_insertIN9__gnu_cxx17__normal_iteratorIPNSt7__cxx1112basic_stringIcSt11char_traitsIcESaIcEEESt6vectorIS7_SaIS7_EEEENS0_5__ops14_Val_comp_iterIZN7segment5orderEvEUlRKS7_SH_E_EEEvT_T0_+0x1f4>  // b.none
  4045a0:	910143e1 	add	x1, sp, #0x50
  4045a4:	97fff65f 	bl	401f20 <memcpy@plt>
  4045a8:	17fffff7 	b	404584 <_ZSt25__unguarded_linear_insertIN9__gnu_cxx17__normal_iteratorIPNSt7__cxx1112basic_stringIcSt11char_traitsIcESaIcEEESt6vectorIS7_SaIS7_EEEENS0_5__ops14_Val_comp_iterIZN7segment5orderEvEUlRKS7_SH_E_EEEvT_T0_+0x1cc>
  4045ac:	394143e1 	ldrb	w1, [sp, #80]
  4045b0:	39000001 	strb	w1, [x0]
  4045b4:	17fffff4 	b	404584 <_ZSt25__unguarded_linear_insertIN9__gnu_cxx17__normal_iteratorIPNSt7__cxx1112basic_stringIcSt11char_traitsIcESaIcEEESt6vectorIS7_SaIS7_EEEENS0_5__ops14_Val_comp_iterIZN7segment5orderEvEUlRKS7_SH_E_EEEvT_T0_+0x1cc>
  4045b8:	aa0003f3 	mov	x19, x0
  4045bc:	910103e0 	add	x0, sp, #0x40
  4045c0:	97fff6d4 	bl	402110 <_ZNSt7__cxx1112basic_stringIcSt11char_traitsIcESaIcEE10_M_disposeEv@plt>
  4045c4:	aa1303e0 	mov	x0, x19
  4045c8:	97fff726 	bl	402260 <_Unwind_Resume@plt>
  4045cc:	f9000a61 	str	x1, [x19, #16]
  4045d0:	f85f8260 	ldur	x0, [x19, #-8]
  4045d4:	f9000e60 	str	x0, [x19, #24]
  4045d8:	f9400260 	ldr	x0, [x19]
  4045dc:	f9001260 	str	x0, [x19, #32]
  4045e0:	f81f0294 	stur	x20, [x20, #-16]
  4045e4:	17ffffad 	b	404498 <_ZSt25__unguarded_linear_insertIN9__gnu_cxx17__normal_iteratorIPNSt7__cxx1112basic_stringIcSt11char_traitsIcESaIcEEESt6vectorIS7_SaIS7_EEEENS0_5__ops14_Val_comp_iterIZN7segment5orderEvEUlRKS7_SH_E_EEEvT_T0_+0xe0>
  4045e8:	f9000301 	str	x1, [x24]
  4045ec:	f94027e0 	ldr	x0, [sp, #72]
  4045f0:	f9000700 	str	x0, [x24, #8]
  4045f4:	f9402be0 	ldr	x0, [sp, #80]
  4045f8:	f9000b00 	str	x0, [x24, #16]
  4045fc:	910143e0 	add	x0, sp, #0x50
  404600:	f90023e0 	str	x0, [sp, #64]
  404604:	17ffffcf 	b	404540 <_ZSt25__unguarded_linear_insertIN9__gnu_cxx17__normal_iteratorIPNSt7__cxx1112basic_stringIcSt11char_traitsIcESaIcEEESt6vectorIS7_SaIS7_EEEENS0_5__ops14_Val_comp_iterIZN7segment5orderEvEUlRKS7_SH_E_EEEvT_T0_+0x188>

0000000000404608 <_ZSt13__adjust_heapIN9__gnu_cxx17__normal_iteratorIPNSt7__cxx1112basic_stringIcSt11char_traitsIcESaIcEEESt6vectorIS7_SaIS7_EEEElS7_NS0_5__ops15_Iter_comp_iterIZN7segment5orderEvEUlRKS7_SH_E_EEEvT_T0_SL_T1_T2_>:
  404608:	a9b67bfd 	stp	x29, x30, [sp, #-160]!
  40460c:	910003fd 	mov	x29, sp
  404610:	a90153f3 	stp	x19, x20, [sp, #16]
  404614:	a9025bf5 	stp	x21, x22, [sp, #32]
  404618:	a90363f7 	stp	x23, x24, [sp, #48]
  40461c:	a9046bf9 	stp	x25, x26, [sp, #64]
  404620:	a90573fb 	stp	x27, x28, [sp, #80]
  404624:	aa0003f3 	mov	x19, x0
  404628:	aa0103fb 	mov	x27, x1
  40462c:	f9003be2 	str	x2, [sp, #112]
  404630:	f90037e3 	str	x3, [sp, #104]
  404634:	f9003fe4 	str	x4, [sp, #120]
  404638:	d100045a 	sub	x26, x2, #0x1
  40463c:	8b5aff5a 	add	x26, x26, x26, lsr #63
  404640:	9341ff5a 	asr	x26, x26, #1
  404644:	eb1a003f 	cmp	x1, x26
  404648:	5400086a 	b.ge	404754 <_ZSt13__adjust_heapIN9__gnu_cxx17__normal_iteratorIPNSt7__cxx1112basic_stringIcSt11char_traitsIcESaIcEEESt6vectorIS7_SaIS7_EEEElS7_NS0_5__ops15_Iter_comp_iterIZN7segment5orderEvEUlRKS7_SH_E_EEEvT_T0_SL_T1_T2_+0x14c>  // b.tcont
  40464c:	aa0103f7 	mov	x23, x1
  404650:	91010099 	add	x25, x4, #0x40
  404654:	9101e098 	add	x24, x4, #0x78
  404658:	1400000d 	b	40468c <_ZSt13__adjust_heapIN9__gnu_cxx17__normal_iteratorIPNSt7__cxx1112basic_stringIcSt11char_traitsIcESaIcEEESt6vectorIS7_SaIS7_EEEElS7_NS0_5__ops15_Iter_comp_iterIZN7segment5orderEvEUlRKS7_SH_E_EEEvT_T0_SL_T1_T2_+0x84>
  40465c:	f94006a2 	ldr	x2, [x21, #8]
  404660:	b50006c2 	cbnz	x2, 404738 <_ZSt13__adjust_heapIN9__gnu_cxx17__normal_iteratorIPNSt7__cxx1112basic_stringIcSt11char_traitsIcESaIcEEESt6vectorIS7_SaIS7_EEEElS7_NS0_5__ops15_Iter_comp_iterIZN7segment5orderEvEUlRKS7_SH_E_EEEvT_T0_SL_T1_T2_+0x130>
  404664:	f94006a0 	ldr	x0, [x21, #8]
  404668:	f9000780 	str	x0, [x28, #8]
  40466c:	f8776a61 	ldr	x1, [x19, x23]
  404670:	3820683f 	strb	wzr, [x1, x0]
  404674:	f90006bf 	str	xzr, [x21, #8]
  404678:	f8766a60 	ldr	x0, [x19, x22]
  40467c:	3900001f 	strb	wzr, [x0]
  404680:	eb1a029f 	cmp	x20, x26
  404684:	540006aa 	b.ge	404758 <_ZSt13__adjust_heapIN9__gnu_cxx17__normal_iteratorIPNSt7__cxx1112basic_stringIcSt11char_traitsIcESaIcEEESt6vectorIS7_SaIS7_EEEElS7_NS0_5__ops15_Iter_comp_iterIZN7segment5orderEvEUlRKS7_SH_E_EEEvT_T0_SL_T1_T2_+0x150>  // b.tcont
  404688:	aa1403f7 	mov	x23, x20
  40468c:	910006f5 	add	x21, x23, #0x1
  404690:	d37ffab4 	lsl	x20, x21, #1
  404694:	d1000694 	sub	x20, x20, #0x1
  404698:	8b14167c 	add	x28, x19, x20, lsl #5
  40469c:	8b151a61 	add	x1, x19, x21, lsl #6
  4046a0:	aa1903e0 	mov	x0, x25
  4046a4:	940016c3 	bl	40a1b0 <_ZNSt8__detail9_Map_baseINSt7__cxx1112basic_stringIcSt11char_traitsIcESaIcEEESt4pairIKS6_iESaIS9_ENS_10_Select1stESt8equal_toIS6_ESt4hashIS6_ENS_18_Mod_range_hashingENS_20_Default_ranged_hashENS_20_Prime_rehash_policyENS_17_Hashtable_traitsILb1ELb0ELb1EEELb1EEixERS8_>
  4046a8:	aa0003e1 	mov	x1, x0
  4046ac:	aa1803e0 	mov	x0, x24
  4046b0:	9400165c 	bl	40a020 <_ZNSt8__detail9_Map_baseIiSt4pairIKiiESaIS3_ENS_10_Select1stESt8equal_toIiESt4hashIiENS_18_Mod_range_hashingENS_20_Default_ranged_hashENS_20_Prime_rehash_policyENS_17_Hashtable_traitsILb0ELb0ELb1EEELb1EE2atERS2_>
  4046b4:	b9400016 	ldr	w22, [x0]
  4046b8:	aa1c03e1 	mov	x1, x28
  4046bc:	aa1903e0 	mov	x0, x25
  4046c0:	940016bc 	bl	40a1b0 <_ZNSt8__detail9_Map_baseINSt7__cxx1112basic_stringIcSt11char_traitsIcESaIcEEESt4pairIKS6_iESaIS9_ENS_10_Select1stESt8equal_toIS6_ESt4hashIS6_ENS_18_Mod_range_hashingENS_20_Default_ranged_hashENS_20_Prime_rehash_policyENS_17_Hashtable_traitsILb1ELb0ELb1EEELb1EEixERS8_>
  4046c4:	aa0003e1 	mov	x1, x0
  4046c8:	aa1803e0 	mov	x0, x24
  4046cc:	94001655 	bl	40a020 <_ZNSt8__detail9_Map_baseIiSt4pairIKiiESaIS3_ENS_10_Select1stESt8equal_toIiESt4hashIiENS_18_Mod_range_hashingENS_20_Default_ranged_hashENS_20_Prime_rehash_policyENS_17_Hashtable_traitsILb0ELb0ELb1EEELb1EE2atERS2_>
  4046d0:	b9400000 	ldr	w0, [x0]
  4046d4:	d37ffab5 	lsl	x21, x21, #1
  4046d8:	6b0002df 	cmp	w22, w0
  4046dc:	9a94d2b4 	csel	x20, x21, x20, le
  4046e0:	d37beaf7 	lsl	x23, x23, #5
  4046e4:	8b17027c 	add	x28, x19, x23
  4046e8:	d37bea96 	lsl	x22, x20, #5
  4046ec:	8b160275 	add	x21, x19, x22
  4046f0:	f8776a60 	ldr	x0, [x19, x23]
  4046f4:	f8766a62 	ldr	x2, [x19, x22]
  4046f8:	910042a1 	add	x1, x21, #0x10
  4046fc:	eb01005f 	cmp	x2, x1
  404700:	54fffae0 	b.eq	40465c <_ZSt13__adjust_heapIN9__gnu_cxx17__normal_iteratorIPNSt7__cxx1112basic_stringIcSt11char_traitsIcESaIcEEESt6vectorIS7_SaIS7_EEEElS7_NS0_5__ops15_Iter_comp_iterIZN7segment5orderEvEUlRKS7_SH_E_EEEvT_T0_SL_T1_T2_+0x54>  // b.none
  404704:	91004383 	add	x3, x28, #0x10
  404708:	eb03001f 	cmp	x0, x3
  40470c:	54001d60 	b.eq	404ab8 <_ZSt13__adjust_heapIN9__gnu_cxx17__normal_iteratorIPNSt7__cxx1112basic_stringIcSt11char_traitsIcESaIcEEESt6vectorIS7_SaIS7_EEEElS7_NS0_5__ops15_Iter_comp_iterIZN7segment5orderEvEUlRKS7_SH_E_EEEvT_T0_SL_T1_T2_+0x4b0>  // b.none
  404710:	f9400b83 	ldr	x3, [x28, #16]
  404714:	f8376a62 	str	x2, [x19, x23]
  404718:	f94006a2 	ldr	x2, [x21, #8]
  40471c:	f9000782 	str	x2, [x28, #8]
  404720:	f9400aa2 	ldr	x2, [x21, #16]
  404724:	f9000b82 	str	x2, [x28, #16]
  404728:	b4001d20 	cbz	x0, 404acc <_ZSt13__adjust_heapIN9__gnu_cxx17__normal_iteratorIPNSt7__cxx1112basic_stringIcSt11char_traitsIcESaIcEEESt6vectorIS7_SaIS7_EEEElS7_NS0_5__ops15_Iter_comp_iterIZN7segment5orderEvEUlRKS7_SH_E_EEEvT_T0_SL_T1_T2_+0x4c4>
  40472c:	f8366a60 	str	x0, [x19, x22]
  404730:	f9000aa3 	str	x3, [x21, #16]
  404734:	17ffffd0 	b	404674 <_ZSt13__adjust_heapIN9__gnu_cxx17__normal_iteratorIPNSt7__cxx1112basic_stringIcSt11char_traitsIcESaIcEEESt6vectorIS7_SaIS7_EEEElS7_NS0_5__ops15_Iter_comp_iterIZN7segment5orderEvEUlRKS7_SH_E_EEEvT_T0_SL_T1_T2_+0x6c>
  404738:	f100045f 	cmp	x2, #0x1
  40473c:	54000060 	b.eq	404748 <_ZSt13__adjust_heapIN9__gnu_cxx17__normal_iteratorIPNSt7__cxx1112basic_stringIcSt11char_traitsIcESaIcEEESt6vectorIS7_SaIS7_EEEElS7_NS0_5__ops15_Iter_comp_iterIZN7segment5orderEvEUlRKS7_SH_E_EEEvT_T0_SL_T1_T2_+0x140>  // b.none
  404740:	97fff5f8 	bl	401f20 <memcpy@plt>
  404744:	17ffffc8 	b	404664 <_ZSt13__adjust_heapIN9__gnu_cxx17__normal_iteratorIPNSt7__cxx1112basic_stringIcSt11char_traitsIcESaIcEEESt6vectorIS7_SaIS7_EEEElS7_NS0_5__ops15_Iter_comp_iterIZN7segment5orderEvEUlRKS7_SH_E_EEEvT_T0_SL_T1_T2_+0x5c>
  404748:	394042a1 	ldrb	w1, [x21, #16]
  40474c:	39000001 	strb	w1, [x0]
  404750:	17ffffc5 	b	404664 <_ZSt13__adjust_heapIN9__gnu_cxx17__normal_iteratorIPNSt7__cxx1112basic_stringIcSt11char_traitsIcESaIcEEESt6vectorIS7_SaIS7_EEEElS7_NS0_5__ops15_Iter_comp_iterIZN7segment5orderEvEUlRKS7_SH_E_EEEvT_T0_SL_T1_T2_+0x5c>
  404754:	aa0103f4 	mov	x20, x1
  404758:	f9403be0 	ldr	x0, [sp, #112]
  40475c:	370000a0 	tbnz	w0, #0, 404770 <_ZSt13__adjust_heapIN9__gnu_cxx17__normal_iteratorIPNSt7__cxx1112basic_stringIcSt11char_traitsIcESaIcEEESt6vectorIS7_SaIS7_EEEElS7_NS0_5__ops15_Iter_comp_iterIZN7segment5orderEvEUlRKS7_SH_E_EEEvT_T0_SL_T1_T2_+0x168>
  404760:	d1000800 	sub	x0, x0, #0x2
  404764:	8b40fc00 	add	x0, x0, x0, lsr #63
  404768:	eb80069f 	cmp	x20, x0, asr #1
  40476c:	54000340 	b.eq	4047d4 <_ZSt13__adjust_heapIN9__gnu_cxx17__normal_iteratorIPNSt7__cxx1112basic_stringIcSt11char_traitsIcESaIcEEESt6vectorIS7_SaIS7_EEEElS7_NS0_5__ops15_Iter_comp_iterIZN7segment5orderEvEUlRKS7_SH_E_EEEvT_T0_SL_T1_T2_+0x1cc>  // b.none
  404770:	910243e0 	add	x0, sp, #0x90
  404774:	f90043e0 	str	x0, [sp, #128]
  404778:	f94037e0 	ldr	x0, [sp, #104]
  40477c:	f8410401 	ldr	x1, [x0], #16
  404780:	eb00003f 	cmp	x1, x0
  404784:	540007a0 	b.eq	404878 <_ZSt13__adjust_heapIN9__gnu_cxx17__normal_iteratorIPNSt7__cxx1112basic_stringIcSt11char_traitsIcESaIcEEESt6vectorIS7_SaIS7_EEEElS7_NS0_5__ops15_Iter_comp_iterIZN7segment5orderEvEUlRKS7_SH_E_EEEvT_T0_SL_T1_T2_+0x270>  // b.none
  404788:	f90043e1 	str	x1, [sp, #128]
  40478c:	f94037e1 	ldr	x1, [sp, #104]
  404790:	f9400821 	ldr	x1, [x1, #16]
  404794:	f9004be1 	str	x1, [sp, #144]
  404798:	f94037e2 	ldr	x2, [sp, #104]
  40479c:	f9400441 	ldr	x1, [x2, #8]
  4047a0:	f90047e1 	str	x1, [sp, #136]
  4047a4:	f9000040 	str	x0, [x2]
  4047a8:	f900045f 	str	xzr, [x2, #8]
  4047ac:	3900405f 	strb	wzr, [x2, #16]
  4047b0:	d1000696 	sub	x22, x20, #0x1
  4047b4:	8b56fed6 	add	x22, x22, x22, lsr #63
  4047b8:	9341fed6 	asr	x22, x22, #1
  4047bc:	eb1b029f 	cmp	x20, x27
  4047c0:	54000e0d 	b.le	404980 <_ZSt13__adjust_heapIN9__gnu_cxx17__normal_iteratorIPNSt7__cxx1112basic_stringIcSt11char_traitsIcESaIcEEESt6vectorIS7_SaIS7_EEEElS7_NS0_5__ops15_Iter_comp_iterIZN7segment5orderEvEUlRKS7_SH_E_EEEvT_T0_SL_T1_T2_+0x378>
  4047c4:	f9403fe0 	ldr	x0, [sp, #120]
  4047c8:	91010017 	add	x23, x0, #0x40
  4047cc:	9101e018 	add	x24, x0, #0x78
  4047d0:	14000058 	b	404930 <_ZSt13__adjust_heapIN9__gnu_cxx17__normal_iteratorIPNSt7__cxx1112basic_stringIcSt11char_traitsIcESaIcEEESt6vectorIS7_SaIS7_EEEElS7_NS0_5__ops15_Iter_comp_iterIZN7segment5orderEvEUlRKS7_SH_E_EEEvT_T0_SL_T1_T2_+0x328>
  4047d4:	d37bea97 	lsl	x23, x20, #5
  4047d8:	8b170278 	add	x24, x19, x23
  4047dc:	d37ffa94 	lsl	x20, x20, #1
  4047e0:	91000694 	add	x20, x20, #0x1
  4047e4:	d37bea96 	lsl	x22, x20, #5
  4047e8:	8b160275 	add	x21, x19, x22
  4047ec:	f8776a60 	ldr	x0, [x19, x23]
  4047f0:	f8766a62 	ldr	x2, [x19, x22]
  4047f4:	910042a1 	add	x1, x21, #0x10
  4047f8:	eb01005f 	cmp	x2, x1
  4047fc:	54000220 	b.eq	404840 <_ZSt13__adjust_heapIN9__gnu_cxx17__normal_iteratorIPNSt7__cxx1112basic_stringIcSt11char_traitsIcESaIcEEESt6vectorIS7_SaIS7_EEEElS7_NS0_5__ops15_Iter_comp_iterIZN7segment5orderEvEUlRKS7_SH_E_EEEvT_T0_SL_T1_T2_+0x238>  // b.none
  404800:	91004303 	add	x3, x24, #0x10
  404804:	eb03001f 	cmp	x0, x3
  404808:	540014a0 	b.eq	404a9c <_ZSt13__adjust_heapIN9__gnu_cxx17__normal_iteratorIPNSt7__cxx1112basic_stringIcSt11char_traitsIcESaIcEEESt6vectorIS7_SaIS7_EEEElS7_NS0_5__ops15_Iter_comp_iterIZN7segment5orderEvEUlRKS7_SH_E_EEEvT_T0_SL_T1_T2_+0x494>  // b.none
  40480c:	f9400b03 	ldr	x3, [x24, #16]
  404810:	f8376a62 	str	x2, [x19, x23]
  404814:	f94006a2 	ldr	x2, [x21, #8]
  404818:	f9000702 	str	x2, [x24, #8]
  40481c:	f9400aa2 	ldr	x2, [x21, #16]
  404820:	f9000b02 	str	x2, [x24, #16]
  404824:	b4001460 	cbz	x0, 404ab0 <_ZSt13__adjust_heapIN9__gnu_cxx17__normal_iteratorIPNSt7__cxx1112basic_stringIcSt11char_traitsIcESaIcEEESt6vectorIS7_SaIS7_EEEElS7_NS0_5__ops15_Iter_comp_iterIZN7segment5orderEvEUlRKS7_SH_E_EEEvT_T0_SL_T1_T2_+0x4a8>
  404828:	f8366a60 	str	x0, [x19, x22]
  40482c:	f9000aa3 	str	x3, [x21, #16]
  404830:	f90006bf 	str	xzr, [x21, #8]
  404834:	f8766a60 	ldr	x0, [x19, x22]
  404838:	3900001f 	strb	wzr, [x0]
  40483c:	17ffffcd 	b	404770 <_ZSt13__adjust_heapIN9__gnu_cxx17__normal_iteratorIPNSt7__cxx1112basic_stringIcSt11char_traitsIcESaIcEEESt6vectorIS7_SaIS7_EEEElS7_NS0_5__ops15_Iter_comp_iterIZN7segment5orderEvEUlRKS7_SH_E_EEEvT_T0_SL_T1_T2_+0x168>
  404840:	f94006a2 	ldr	x2, [x21, #8]
  404844:	b50000c2 	cbnz	x2, 40485c <_ZSt13__adjust_heapIN9__gnu_cxx17__normal_iteratorIPNSt7__cxx1112basic_stringIcSt11char_traitsIcESaIcEEESt6vectorIS7_SaIS7_EEEElS7_NS0_5__ops15_Iter_comp_iterIZN7segment5orderEvEUlRKS7_SH_E_EEEvT_T0_SL_T1_T2_+0x254>
  404848:	f94006a0 	ldr	x0, [x21, #8]
  40484c:	f9000700 	str	x0, [x24, #8]
  404850:	f8776a61 	ldr	x1, [x19, x23]
  404854:	3820683f 	strb	wzr, [x1, x0]
  404858:	17fffff6 	b	404830 <_ZSt13__adjust_heapIN9__gnu_cxx17__normal_iteratorIPNSt7__cxx1112basic_stringIcSt11char_traitsIcESaIcEEESt6vectorIS7_SaIS7_EEEElS7_NS0_5__ops15_Iter_comp_iterIZN7segment5orderEvEUlRKS7_SH_E_EEEvT_T0_SL_T1_T2_+0x228>
  40485c:	f100045f 	cmp	x2, #0x1
  404860:	54000060 	b.eq	40486c <_ZSt13__adjust_heapIN9__gnu_cxx17__normal_iteratorIPNSt7__cxx1112basic_stringIcSt11char_traitsIcESaIcEEESt6vectorIS7_SaIS7_EEEElS7_NS0_5__ops15_Iter_comp_iterIZN7segment5orderEvEUlRKS7_SH_E_EEEvT_T0_SL_T1_T2_+0x264>  // b.none
  404864:	97fff5af 	bl	401f20 <memcpy@plt>
  404868:	17fffff8 	b	404848 <_ZSt13__adjust_heapIN9__gnu_cxx17__normal_iteratorIPNSt7__cxx1112basic_stringIcSt11char_traitsIcESaIcEEESt6vectorIS7_SaIS7_EEEElS7_NS0_5__ops15_Iter_comp_iterIZN7segment5orderEvEUlRKS7_SH_E_EEEvT_T0_SL_T1_T2_+0x240>
  40486c:	394042a1 	ldrb	w1, [x21, #16]
  404870:	39000001 	strb	w1, [x0]
  404874:	17fffff5 	b	404848 <_ZSt13__adjust_heapIN9__gnu_cxx17__normal_iteratorIPNSt7__cxx1112basic_stringIcSt11char_traitsIcESaIcEEESt6vectorIS7_SaIS7_EEEElS7_NS0_5__ops15_Iter_comp_iterIZN7segment5orderEvEUlRKS7_SH_E_EEEvT_T0_SL_T1_T2_+0x240>
  404878:	f94037e1 	ldr	x1, [sp, #104]
  40487c:	a9410c22 	ldp	x2, x3, [x1, #16]
  404880:	a9090fe2 	stp	x2, x3, [sp, #144]
  404884:	17ffffc5 	b	404798 <_ZSt13__adjust_heapIN9__gnu_cxx17__normal_iteratorIPNSt7__cxx1112basic_stringIcSt11char_traitsIcESaIcEEESt6vectorIS7_SaIS7_EEEElS7_NS0_5__ops15_Iter_comp_iterIZN7segment5orderEvEUlRKS7_SH_E_EEEvT_T0_SL_T1_T2_+0x190>
  404888:	aa0003e1 	mov	x1, x0
  40488c:	aa1803e0 	mov	x0, x24
  404890:	940015e4 	bl	40a020 <_ZNSt8__detail9_Map_baseIiSt4pairIKiiESaIS3_ENS_10_Select1stESt8equal_toIiESt4hashIiENS_18_Mod_range_hashingENS_20_Default_ranged_hashENS_20_Prime_rehash_policyENS_17_Hashtable_traitsILb0ELb0ELb1EEELb1EE2atERS2_>
  404894:	b940001a 	ldr	w26, [x0]
  404898:	910203e1 	add	x1, sp, #0x80
  40489c:	aa1703e0 	mov	x0, x23
  4048a0:	94001644 	bl	40a1b0 <_ZNSt8__detail9_Map_baseINSt7__cxx1112basic_stringIcSt11char_traitsIcESaIcEEESt4pairIKS6_iESaIS9_ENS_10_Select1stESt8equal_toIS6_ESt4hashIS6_ENS_18_Mod_range_hashingENS_20_Default_ranged_hashENS_20_Prime_rehash_policyENS_17_Hashtable_traitsILb1ELb0ELb1EEELb1EEixERS8_>
  4048a4:	aa0003e1 	mov	x1, x0
  4048a8:	aa1803e0 	mov	x0, x24
  4048ac:	940015dd 	bl	40a020 <_ZNSt8__detail9_Map_baseIiSt4pairIKiiESaIS3_ENS_10_Select1stESt8equal_toIiESt4hashIiENS_18_Mod_range_hashingENS_20_Default_ranged_hashENS_20_Prime_rehash_policyENS_17_Hashtable_traitsILb0ELb0ELb1EEELb1EE2atERS2_>
  4048b0:	b9400000 	ldr	w0, [x0]
  4048b4:	6b00035f 	cmp	w26, w0
  4048b8:	5400064d 	b.le	404980 <_ZSt13__adjust_heapIN9__gnu_cxx17__normal_iteratorIPNSt7__cxx1112basic_stringIcSt11char_traitsIcESaIcEEESt6vectorIS7_SaIS7_EEEElS7_NS0_5__ops15_Iter_comp_iterIZN7segment5orderEvEUlRKS7_SH_E_EEEvT_T0_SL_T1_T2_+0x378>
  4048bc:	d37bea94 	lsl	x20, x20, #5
  4048c0:	8b14027a 	add	x26, x19, x20
  4048c4:	f8746a60 	ldr	x0, [x19, x20]
  4048c8:	f8796a62 	ldr	x2, [x19, x25]
  4048cc:	910042a1 	add	x1, x21, #0x10
  4048d0:	eb01005f 	cmp	x2, x1
  4048d4:	540003a0 	b.eq	404948 <_ZSt13__adjust_heapIN9__gnu_cxx17__normal_iteratorIPNSt7__cxx1112basic_stringIcSt11char_traitsIcESaIcEEESt6vectorIS7_SaIS7_EEEElS7_NS0_5__ops15_Iter_comp_iterIZN7segment5orderEvEUlRKS7_SH_E_EEEvT_T0_SL_T1_T2_+0x340>  // b.none
  4048d8:	91004343 	add	x3, x26, #0x10
  4048dc:	eb03001f 	cmp	x0, x3
  4048e0:	54000d00 	b.eq	404a80 <_ZSt13__adjust_heapIN9__gnu_cxx17__normal_iteratorIPNSt7__cxx1112basic_stringIcSt11char_traitsIcESaIcEEESt6vectorIS7_SaIS7_EEEElS7_NS0_5__ops15_Iter_comp_iterIZN7segment5orderEvEUlRKS7_SH_E_EEEvT_T0_SL_T1_T2_+0x478>  // b.none
  4048e4:	f9400b43 	ldr	x3, [x26, #16]
  4048e8:	f8346a62 	str	x2, [x19, x20]
  4048ec:	f94006a2 	ldr	x2, [x21, #8]
  4048f0:	f9000742 	str	x2, [x26, #8]
  4048f4:	f9400aa2 	ldr	x2, [x21, #16]
  4048f8:	f9000b42 	str	x2, [x26, #16]
  4048fc:	b4000cc0 	cbz	x0, 404a94 <_ZSt13__adjust_heapIN9__gnu_cxx17__normal_iteratorIPNSt7__cxx1112basic_stringIcSt11char_traitsIcESaIcEEESt6vectorIS7_SaIS7_EEEElS7_NS0_5__ops15_Iter_comp_iterIZN7segment5orderEvEUlRKS7_SH_E_EEEvT_T0_SL_T1_T2_+0x48c>
  404900:	f8396a60 	str	x0, [x19, x25]
  404904:	f9000aa3 	str	x3, [x21, #16]
  404908:	f90006bf 	str	xzr, [x21, #8]
  40490c:	f8796a60 	ldr	x0, [x19, x25]
  404910:	3900001f 	strb	wzr, [x0]
  404914:	d10006c0 	sub	x0, x22, #0x1
  404918:	8b40fc00 	add	x0, x0, x0, lsr #63
  40491c:	9341fc00 	asr	x0, x0, #1
  404920:	aa1603f4 	mov	x20, x22
  404924:	eb16037f 	cmp	x27, x22
  404928:	540002ca 	b.ge	404980 <_ZSt13__adjust_heapIN9__gnu_cxx17__normal_iteratorIPNSt7__cxx1112basic_stringIcSt11char_traitsIcESaIcEEESt6vectorIS7_SaIS7_EEEElS7_NS0_5__ops15_Iter_comp_iterIZN7segment5orderEvEUlRKS7_SH_E_EEEvT_T0_SL_T1_T2_+0x378>  // b.tcont
  40492c:	aa0003f6 	mov	x22, x0
  404930:	d37bead9 	lsl	x25, x22, #5
  404934:	8b190275 	add	x21, x19, x25
  404938:	aa1503e1 	mov	x1, x21
  40493c:	aa1703e0 	mov	x0, x23
  404940:	9400161c 	bl	40a1b0 <_ZNSt8__detail9_Map_baseINSt7__cxx1112basic_stringIcSt11char_traitsIcESaIcEEESt4pairIKS6_iESaIS9_ENS_10_Select1stESt8equal_toIS6_ESt4hashIS6_ENS_18_Mod_range_hashingENS_20_Default_ranged_hashENS_20_Prime_rehash_policyENS_17_Hashtable_traitsILb1ELb0ELb1EEELb1EEixERS8_>
  404944:	17ffffd1 	b	404888 <_ZSt13__adjust_heapIN9__gnu_cxx17__normal_iteratorIPNSt7__cxx1112basic_stringIcSt11char_traitsIcESaIcEEESt6vectorIS7_SaIS7_EEEElS7_NS0_5__ops15_Iter_comp_iterIZN7segment5orderEvEUlRKS7_SH_E_EEEvT_T0_SL_T1_T2_+0x280>
  404948:	f94006a2 	ldr	x2, [x21, #8]
  40494c:	b50000c2 	cbnz	x2, 404964 <_ZSt13__adjust_heapIN9__gnu_cxx17__normal_iteratorIPNSt7__cxx1112basic_stringIcSt11char_traitsIcESaIcEEESt6vectorIS7_SaIS7_EEEElS7_NS0_5__ops15_Iter_comp_iterIZN7segment5orderEvEUlRKS7_SH_E_EEEvT_T0_SL_T1_T2_+0x35c>
  404950:	f94006a0 	ldr	x0, [x21, #8]
  404954:	f9000740 	str	x0, [x26, #8]
  404958:	f8746a61 	ldr	x1, [x19, x20]
  40495c:	3820683f 	strb	wzr, [x1, x0]
  404960:	17ffffea 	b	404908 <_ZSt13__adjust_heapIN9__gnu_cxx17__normal_iteratorIPNSt7__cxx1112basic_stringIcSt11char_traitsIcESaIcEEESt6vectorIS7_SaIS7_EEEElS7_NS0_5__ops15_Iter_comp_iterIZN7segment5orderEvEUlRKS7_SH_E_EEEvT_T0_SL_T1_T2_+0x300>
  404964:	f100045f 	cmp	x2, #0x1
  404968:	54000060 	b.eq	404974 <_ZSt13__adjust_heapIN9__gnu_cxx17__normal_iteratorIPNSt7__cxx1112basic_stringIcSt11char_traitsIcESaIcEEESt6vectorIS7_SaIS7_EEEElS7_NS0_5__ops15_Iter_comp_iterIZN7segment5orderEvEUlRKS7_SH_E_EEEvT_T0_SL_T1_T2_+0x36c>  // b.none
  40496c:	97fff56d 	bl	401f20 <memcpy@plt>
  404970:	17fffff8 	b	404950 <_ZSt13__adjust_heapIN9__gnu_cxx17__normal_iteratorIPNSt7__cxx1112basic_stringIcSt11char_traitsIcESaIcEEESt6vectorIS7_SaIS7_EEEElS7_NS0_5__ops15_Iter_comp_iterIZN7segment5orderEvEUlRKS7_SH_E_EEEvT_T0_SL_T1_T2_+0x348>
  404974:	394042a1 	ldrb	w1, [x21, #16]
  404978:	39000001 	strb	w1, [x0]
  40497c:	17fffff5 	b	404950 <_ZSt13__adjust_heapIN9__gnu_cxx17__normal_iteratorIPNSt7__cxx1112basic_stringIcSt11char_traitsIcESaIcEEESt6vectorIS7_SaIS7_EEEElS7_NS0_5__ops15_Iter_comp_iterIZN7segment5orderEvEUlRKS7_SH_E_EEEvT_T0_SL_T1_T2_+0x348>
  404980:	d37bea94 	lsl	x20, x20, #5
  404984:	8b140275 	add	x21, x19, x20
  404988:	f8746a60 	ldr	x0, [x19, x20]
  40498c:	f94043e1 	ldr	x1, [sp, #128]
  404990:	910243e2 	add	x2, sp, #0x90
  404994:	eb02003f 	cmp	x1, x2
  404998:	540003c0 	b.eq	404a10 <_ZSt13__adjust_heapIN9__gnu_cxx17__normal_iteratorIPNSt7__cxx1112basic_stringIcSt11char_traitsIcESaIcEEESt6vectorIS7_SaIS7_EEEElS7_NS0_5__ops15_Iter_comp_iterIZN7segment5orderEvEUlRKS7_SH_E_EEEvT_T0_SL_T1_T2_+0x408>  // b.none
  40499c:	910042a2 	add	x2, x21, #0x10
  4049a0:	eb02001f 	cmp	x0, x2
  4049a4:	540005e0 	b.eq	404a60 <_ZSt13__adjust_heapIN9__gnu_cxx17__normal_iteratorIPNSt7__cxx1112basic_stringIcSt11char_traitsIcESaIcEEESt6vectorIS7_SaIS7_EEEElS7_NS0_5__ops15_Iter_comp_iterIZN7segment5orderEvEUlRKS7_SH_E_EEEvT_T0_SL_T1_T2_+0x458>  // b.none
  4049a8:	f9400aa2 	ldr	x2, [x21, #16]
  4049ac:	f8346a61 	str	x1, [x19, x20]
  4049b0:	f94047e1 	ldr	x1, [sp, #136]
  4049b4:	f90006a1 	str	x1, [x21, #8]
  4049b8:	f9404be1 	ldr	x1, [sp, #144]
  4049bc:	f9000aa1 	str	x1, [x21, #16]
  4049c0:	b40005a0 	cbz	x0, 404a74 <_ZSt13__adjust_heapIN9__gnu_cxx17__normal_iteratorIPNSt7__cxx1112basic_stringIcSt11char_traitsIcESaIcEEESt6vectorIS7_SaIS7_EEEElS7_NS0_5__ops15_Iter_comp_iterIZN7segment5orderEvEUlRKS7_SH_E_EEEvT_T0_SL_T1_T2_+0x46c>
  4049c4:	f90043e0 	str	x0, [sp, #128]
  4049c8:	f9004be2 	str	x2, [sp, #144]
  4049cc:	f90047ff 	str	xzr, [sp, #136]
  4049d0:	f94043e0 	ldr	x0, [sp, #128]
  4049d4:	3900001f 	strb	wzr, [x0]
  4049d8:	f94043e0 	ldr	x0, [sp, #128]
  4049dc:	910243e1 	add	x1, sp, #0x90
  4049e0:	eb01001f 	cmp	x0, x1
  4049e4:	54000080 	b.eq	4049f4 <_ZSt13__adjust_heapIN9__gnu_cxx17__normal_iteratorIPNSt7__cxx1112basic_stringIcSt11char_traitsIcESaIcEEESt6vectorIS7_SaIS7_EEEElS7_NS0_5__ops15_Iter_comp_iterIZN7segment5orderEvEUlRKS7_SH_E_EEEvT_T0_SL_T1_T2_+0x3ec>  // b.none
  4049e8:	f9404be1 	ldr	x1, [sp, #144]
  4049ec:	91000421 	add	x1, x1, #0x1
  4049f0:	97fff5b4 	bl	4020c0 <_ZdlPvm@plt>
  4049f4:	a94153f3 	ldp	x19, x20, [sp, #16]
  4049f8:	a9425bf5 	ldp	x21, x22, [sp, #32]
  4049fc:	a94363f7 	ldp	x23, x24, [sp, #48]
  404a00:	a9446bf9 	ldp	x25, x26, [sp, #64]
  404a04:	a94573fb 	ldp	x27, x28, [sp, #80]
  404a08:	a8ca7bfd 	ldp	x29, x30, [sp], #160
  404a0c:	d65f03c0 	ret
  404a10:	f94047e2 	ldr	x2, [sp, #136]
  404a14:	b50000c2 	cbnz	x2, 404a2c <_ZSt13__adjust_heapIN9__gnu_cxx17__normal_iteratorIPNSt7__cxx1112basic_stringIcSt11char_traitsIcESaIcEEESt6vectorIS7_SaIS7_EEEElS7_NS0_5__ops15_Iter_comp_iterIZN7segment5orderEvEUlRKS7_SH_E_EEEvT_T0_SL_T1_T2_+0x424>
  404a18:	f94047e0 	ldr	x0, [sp, #136]
  404a1c:	f90006a0 	str	x0, [x21, #8]
  404a20:	f8746a61 	ldr	x1, [x19, x20]
  404a24:	3820683f 	strb	wzr, [x1, x0]
  404a28:	17ffffe9 	b	4049cc <_ZSt13__adjust_heapIN9__gnu_cxx17__normal_iteratorIPNSt7__cxx1112basic_stringIcSt11char_traitsIcESaIcEEESt6vectorIS7_SaIS7_EEEElS7_NS0_5__ops15_Iter_comp_iterIZN7segment5orderEvEUlRKS7_SH_E_EEEvT_T0_SL_T1_T2_+0x3c4>
  404a2c:	f100045f 	cmp	x2, #0x1
  404a30:	54000080 	b.eq	404a40 <_ZSt13__adjust_heapIN9__gnu_cxx17__normal_iteratorIPNSt7__cxx1112basic_stringIcSt11char_traitsIcESaIcEEESt6vectorIS7_SaIS7_EEEElS7_NS0_5__ops15_Iter_comp_iterIZN7segment5orderEvEUlRKS7_SH_E_EEEvT_T0_SL_T1_T2_+0x438>  // b.none
  404a34:	910243e1 	add	x1, sp, #0x90
  404a38:	97fff53a 	bl	401f20 <memcpy@plt>
  404a3c:	17fffff7 	b	404a18 <_ZSt13__adjust_heapIN9__gnu_cxx17__normal_iteratorIPNSt7__cxx1112basic_stringIcSt11char_traitsIcESaIcEEESt6vectorIS7_SaIS7_EEEElS7_NS0_5__ops15_Iter_comp_iterIZN7segment5orderEvEUlRKS7_SH_E_EEEvT_T0_SL_T1_T2_+0x410>
  404a40:	394243e1 	ldrb	w1, [sp, #144]
  404a44:	39000001 	strb	w1, [x0]
  404a48:	17fffff4 	b	404a18 <_ZSt13__adjust_heapIN9__gnu_cxx17__normal_iteratorIPNSt7__cxx1112basic_stringIcSt11char_traitsIcESaIcEEESt6vectorIS7_SaIS7_EEEElS7_NS0_5__ops15_Iter_comp_iterIZN7segment5orderEvEUlRKS7_SH_E_EEEvT_T0_SL_T1_T2_+0x410>
  404a4c:	aa0003f3 	mov	x19, x0
  404a50:	910203e0 	add	x0, sp, #0x80
  404a54:	97fff5af 	bl	402110 <_ZNSt7__cxx1112basic_stringIcSt11char_traitsIcESaIcEE10_M_disposeEv@plt>
  404a58:	aa1303e0 	mov	x0, x19
  404a5c:	97fff601 	bl	402260 <_Unwind_Resume@plt>
  404a60:	f8346a61 	str	x1, [x19, x20]
  404a64:	f94047e0 	ldr	x0, [sp, #136]
  404a68:	f90006a0 	str	x0, [x21, #8]
  404a6c:	f9404be0 	ldr	x0, [sp, #144]
  404a70:	f9000aa0 	str	x0, [x21, #16]
  404a74:	910243e0 	add	x0, sp, #0x90
  404a78:	f90043e0 	str	x0, [sp, #128]
  404a7c:	17ffffd4 	b	4049cc <_ZSt13__adjust_heapIN9__gnu_cxx17__normal_iteratorIPNSt7__cxx1112basic_stringIcSt11char_traitsIcESaIcEEESt6vectorIS7_SaIS7_EEEElS7_NS0_5__ops15_Iter_comp_iterIZN7segment5orderEvEUlRKS7_SH_E_EEEvT_T0_SL_T1_T2_+0x3c4>
  404a80:	f8346a62 	str	x2, [x19, x20]
  404a84:	f94006a0 	ldr	x0, [x21, #8]
  404a88:	f9000740 	str	x0, [x26, #8]
  404a8c:	f9400aa0 	ldr	x0, [x21, #16]
  404a90:	f9000b40 	str	x0, [x26, #16]
  404a94:	f8396a61 	str	x1, [x19, x25]
  404a98:	17ffff9c 	b	404908 <_ZSt13__adjust_heapIN9__gnu_cxx17__normal_iteratorIPNSt7__cxx1112basic_stringIcSt11char_traitsIcESaIcEEESt6vectorIS7_SaIS7_EEEElS7_NS0_5__ops15_Iter_comp_iterIZN7segment5orderEvEUlRKS7_SH_E_EEEvT_T0_SL_T1_T2_+0x300>
  404a9c:	f8376a62 	str	x2, [x19, x23]
  404aa0:	f94006a0 	ldr	x0, [x21, #8]
  404aa4:	f9000700 	str	x0, [x24, #8]
  404aa8:	f9400aa0 	ldr	x0, [x21, #16]
  404aac:	f9000b00 	str	x0, [x24, #16]
  404ab0:	f8366a61 	str	x1, [x19, x22]
  404ab4:	17ffff5f 	b	404830 <_ZSt13__adjust_heapIN9__gnu_cxx17__normal_iteratorIPNSt7__cxx1112basic_stringIcSt11char_traitsIcESaIcEEESt6vectorIS7_SaIS7_EEEElS7_NS0_5__ops15_Iter_comp_iterIZN7segment5orderEvEUlRKS7_SH_E_EEEvT_T0_SL_T1_T2_+0x228>
  404ab8:	f8376a62 	str	x2, [x19, x23]
  404abc:	f94006a0 	ldr	x0, [x21, #8]
  404ac0:	f9000780 	str	x0, [x28, #8]
  404ac4:	f9400aa0 	ldr	x0, [x21, #16]
  404ac8:	f9000b80 	str	x0, [x28, #16]
  404acc:	f8366a61 	str	x1, [x19, x22]
  404ad0:	17fffee9 	b	404674 <_ZSt13__adjust_heapIN9__gnu_cxx17__normal_iteratorIPNSt7__cxx1112basic_stringIcSt11char_traitsIcESaIcEEESt6vectorIS7_SaIS7_EEEElS7_NS0_5__ops15_Iter_comp_iterIZN7segment5orderEvEUlRKS7_SH_E_EEEvT_T0_SL_T1_T2_+0x6c>

0000000000404ad4 <_ZSt16__insertion_sortIN9__gnu_cxx17__normal_iteratorIPNSt7__cxx1112basic_stringIcSt11char_traitsIcESaIcEEESt6vectorIS7_SaIS7_EEEENS0_5__ops15_Iter_comp_iterIZN7segment5orderEvEUlRKS7_SH_E_EEEvT_SK_T0_>:
  404ad4:	a9b67bfd 	stp	x29, x30, [sp, #-160]!
  404ad8:	910003fd 	mov	x29, sp
  404adc:	a90363f7 	stp	x23, x24, [sp, #48]
  404ae0:	aa0003f8 	mov	x24, x0
  404ae4:	f90037e1 	str	x1, [sp, #104]
  404ae8:	f9003fe2 	str	x2, [sp, #120]
  404aec:	eb01001f 	cmp	x0, x1
  404af0:	54001240 	b.eq	404d38 <_ZSt16__insertion_sortIN9__gnu_cxx17__normal_iteratorIPNSt7__cxx1112basic_stringIcSt11char_traitsIcESaIcEEESt6vectorIS7_SaIS7_EEEENS0_5__ops15_Iter_comp_iterIZN7segment5orderEvEUlRKS7_SH_E_EEEvT_SK_T0_+0x264>  // b.none
  404af4:	91008017 	add	x23, x0, #0x20
  404af8:	eb0102ff 	cmp	x23, x1
  404afc:	540011e0 	b.eq	404d38 <_ZSt16__insertion_sortIN9__gnu_cxx17__normal_iteratorIPNSt7__cxx1112basic_stringIcSt11char_traitsIcESaIcEEESt6vectorIS7_SaIS7_EEEENS0_5__ops15_Iter_comp_iterIZN7segment5orderEvEUlRKS7_SH_E_EEEvT_SK_T0_+0x264>  // b.none
  404b00:	a90153f3 	stp	x19, x20, [sp, #16]
  404b04:	a9025bf5 	stp	x21, x22, [sp, #32]
  404b08:	a9046bf9 	stp	x25, x26, [sp, #64]
  404b0c:	a90573fb 	stp	x27, x28, [sp, #80]
  404b10:	9100c319 	add	x25, x24, #0x30
  404b14:	9101005c 	add	x28, x2, #0x40
  404b18:	9101e05b 	add	x27, x2, #0x78
  404b1c:	910243fa 	add	x26, sp, #0x90
  404b20:	91004300 	add	x0, x24, #0x10
  404b24:	f9003be0 	str	x0, [sp, #112]
  404b28:	14000049 	b	404c4c <_ZSt16__insertion_sortIN9__gnu_cxx17__normal_iteratorIPNSt7__cxx1112basic_stringIcSt11char_traitsIcESaIcEEESt6vectorIS7_SaIS7_EEEENS0_5__ops15_Iter_comp_iterIZN7segment5orderEvEUlRKS7_SH_E_EEEvT_SK_T0_+0x178>
  404b2c:	a9400f22 	ldp	x2, x3, [x25]
  404b30:	a9090fe2 	stp	x2, x3, [sp, #144]
  404b34:	1400005f 	b	404cb0 <_ZSt16__insertion_sortIN9__gnu_cxx17__normal_iteratorIPNSt7__cxx1112basic_stringIcSt11char_traitsIcESaIcEEESt6vectorIS7_SaIS7_EEEENS0_5__ops15_Iter_comp_iterIZN7segment5orderEvEUlRKS7_SH_E_EEEvT_SK_T0_+0x1dc>
  404b38:	f85f82a2 	ldur	x2, [x21, #-8]
  404b3c:	b50003c2 	cbnz	x2, 404bb4 <_ZSt16__insertion_sortIN9__gnu_cxx17__normal_iteratorIPNSt7__cxx1112basic_stringIcSt11char_traitsIcESaIcEEESt6vectorIS7_SaIS7_EEEENS0_5__ops15_Iter_comp_iterIZN7segment5orderEvEUlRKS7_SH_E_EEEvT_SK_T0_+0xe0>
  404b40:	f85f82a0 	ldur	x0, [x21, #-8]
  404b44:	f9000ea0 	str	x0, [x21, #24]
  404b48:	f9400aa1 	ldr	x1, [x21, #16]
  404b4c:	3820683f 	strb	wzr, [x1, x0]
  404b50:	f81f827f 	stur	xzr, [x19, #-8]
  404b54:	f85f0260 	ldur	x0, [x19, #-16]
  404b58:	3900001f 	strb	wzr, [x0]
  404b5c:	d10006d6 	sub	x22, x22, #0x1
  404b60:	d1008294 	sub	x20, x20, #0x20
  404b64:	f10002df 	cmp	x22, #0x0
  404b68:	5400036d 	b.le	404bd4 <_ZSt16__insertion_sortIN9__gnu_cxx17__normal_iteratorIPNSt7__cxx1112basic_stringIcSt11char_traitsIcESaIcEEESt6vectorIS7_SaIS7_EEEENS0_5__ops15_Iter_comp_iterIZN7segment5orderEvEUlRKS7_SH_E_EEEvT_SK_T0_+0x100>
  404b6c:	aa1403f3 	mov	x19, x20
  404b70:	f9400a80 	ldr	x0, [x20, #16]
  404b74:	f85f0295 	ldur	x21, [x20, #-16]
  404b78:	eb15029f 	cmp	x20, x21
  404b7c:	54fffde0 	b.eq	404b38 <_ZSt16__insertion_sortIN9__gnu_cxx17__normal_iteratorIPNSt7__cxx1112basic_stringIcSt11char_traitsIcESaIcEEESt6vectorIS7_SaIS7_EEEENS0_5__ops15_Iter_comp_iterIZN7segment5orderEvEUlRKS7_SH_E_EEEvT_SK_T0_+0x64>  // b.none
  404b80:	91008281 	add	x1, x20, #0x20
  404b84:	eb01001f 	cmp	x0, x1
  404b88:	54000ec0 	b.eq	404d60 <_ZSt16__insertion_sortIN9__gnu_cxx17__normal_iteratorIPNSt7__cxx1112basic_stringIcSt11char_traitsIcESaIcEEESt6vectorIS7_SaIS7_EEEENS0_5__ops15_Iter_comp_iterIZN7segment5orderEvEUlRKS7_SH_E_EEEvT_SK_T0_+0x28c>  // b.none
  404b8c:	f9401281 	ldr	x1, [x20, #32]
  404b90:	f9000a95 	str	x21, [x20, #16]
  404b94:	f85f8282 	ldur	x2, [x20, #-8]
  404b98:	f9000e82 	str	x2, [x20, #24]
  404b9c:	f9400282 	ldr	x2, [x20]
  404ba0:	f9001282 	str	x2, [x20, #32]
  404ba4:	b4000e80 	cbz	x0, 404d74 <_ZSt16__insertion_sortIN9__gnu_cxx17__normal_iteratorIPNSt7__cxx1112basic_stringIcSt11char_traitsIcESaIcEEESt6vectorIS7_SaIS7_EEEENS0_5__ops15_Iter_comp_iterIZN7segment5orderEvEUlRKS7_SH_E_EEEvT_SK_T0_+0x2a0>
  404ba8:	f81f0280 	stur	x0, [x20, #-16]
  404bac:	f9000281 	str	x1, [x20]
  404bb0:	17ffffe8 	b	404b50 <_ZSt16__insertion_sortIN9__gnu_cxx17__normal_iteratorIPNSt7__cxx1112basic_stringIcSt11char_traitsIcESaIcEEESt6vectorIS7_SaIS7_EEEENS0_5__ops15_Iter_comp_iterIZN7segment5orderEvEUlRKS7_SH_E_EEEvT_SK_T0_+0x7c>
  404bb4:	f100045f 	cmp	x2, #0x1
  404bb8:	54000080 	b.eq	404bc8 <_ZSt16__insertion_sortIN9__gnu_cxx17__normal_iteratorIPNSt7__cxx1112basic_stringIcSt11char_traitsIcESaIcEEESt6vectorIS7_SaIS7_EEEENS0_5__ops15_Iter_comp_iterIZN7segment5orderEvEUlRKS7_SH_E_EEEvT_SK_T0_+0xf4>  // b.none
  404bbc:	aa1503e1 	mov	x1, x21
  404bc0:	97fff4d8 	bl	401f20 <memcpy@plt>
  404bc4:	17ffffdf 	b	404b40 <_ZSt16__insertion_sortIN9__gnu_cxx17__normal_iteratorIPNSt7__cxx1112basic_stringIcSt11char_traitsIcESaIcEEESt6vectorIS7_SaIS7_EEEENS0_5__ops15_Iter_comp_iterIZN7segment5orderEvEUlRKS7_SH_E_EEEvT_SK_T0_+0x6c>
  404bc8:	394002a1 	ldrb	w1, [x21]
  404bcc:	39000001 	strb	w1, [x0]
  404bd0:	17ffffdc 	b	404b40 <_ZSt16__insertion_sortIN9__gnu_cxx17__normal_iteratorIPNSt7__cxx1112basic_stringIcSt11char_traitsIcESaIcEEESt6vectorIS7_SaIS7_EEEENS0_5__ops15_Iter_comp_iterIZN7segment5orderEvEUlRKS7_SH_E_EEEvT_SK_T0_+0x6c>
  404bd4:	f9400300 	ldr	x0, [x24]
  404bd8:	f94043e1 	ldr	x1, [sp, #128]
  404bdc:	eb1a003f 	cmp	x1, x26
  404be0:	540007e0 	b.eq	404cdc <_ZSt16__insertion_sortIN9__gnu_cxx17__normal_iteratorIPNSt7__cxx1112basic_stringIcSt11char_traitsIcESaIcEEESt6vectorIS7_SaIS7_EEEENS0_5__ops15_Iter_comp_iterIZN7segment5orderEvEUlRKS7_SH_E_EEEvT_SK_T0_+0x208>  // b.none
  404be4:	f9403be2 	ldr	x2, [sp, #112]
  404be8:	eb02001f 	cmp	x0, x2
  404bec:	54000ac0 	b.eq	404d44 <_ZSt16__insertion_sortIN9__gnu_cxx17__normal_iteratorIPNSt7__cxx1112basic_stringIcSt11char_traitsIcESaIcEEESt6vectorIS7_SaIS7_EEEENS0_5__ops15_Iter_comp_iterIZN7segment5orderEvEUlRKS7_SH_E_EEEvT_SK_T0_+0x270>  // b.none
  404bf0:	f9400b02 	ldr	x2, [x24, #16]
  404bf4:	f9000301 	str	x1, [x24]
  404bf8:	f94047e1 	ldr	x1, [sp, #136]
  404bfc:	f9000701 	str	x1, [x24, #8]
  404c00:	f9404be1 	ldr	x1, [sp, #144]
  404c04:	f9000b01 	str	x1, [x24, #16]
  404c08:	b4000a80 	cbz	x0, 404d58 <_ZSt16__insertion_sortIN9__gnu_cxx17__normal_iteratorIPNSt7__cxx1112basic_stringIcSt11char_traitsIcESaIcEEESt6vectorIS7_SaIS7_EEEENS0_5__ops15_Iter_comp_iterIZN7segment5orderEvEUlRKS7_SH_E_EEEvT_SK_T0_+0x284>
  404c0c:	f90043e0 	str	x0, [sp, #128]
  404c10:	f9004be2 	str	x2, [sp, #144]
  404c14:	f90047ff 	str	xzr, [sp, #136]
  404c18:	f94043e0 	ldr	x0, [sp, #128]
  404c1c:	3900001f 	strb	wzr, [x0]
  404c20:	f94043e0 	ldr	x0, [sp, #128]
  404c24:	eb1a001f 	cmp	x0, x26
  404c28:	54000080 	b.eq	404c38 <_ZSt16__insertion_sortIN9__gnu_cxx17__normal_iteratorIPNSt7__cxx1112basic_stringIcSt11char_traitsIcESaIcEEESt6vectorIS7_SaIS7_EEEENS0_5__ops15_Iter_comp_iterIZN7segment5orderEvEUlRKS7_SH_E_EEEvT_SK_T0_+0x164>  // b.none
  404c2c:	f9404be1 	ldr	x1, [sp, #144]
  404c30:	91000421 	add	x1, x1, #0x1
  404c34:	97fff523 	bl	4020c0 <_ZdlPvm@plt>
  404c38:	910082f7 	add	x23, x23, #0x20
  404c3c:	91008339 	add	x25, x25, #0x20
  404c40:	f94037e0 	ldr	x0, [sp, #104]
  404c44:	eb17001f 	cmp	x0, x23
  404c48:	54000700 	b.eq	404d28 <_ZSt16__insertion_sortIN9__gnu_cxx17__normal_iteratorIPNSt7__cxx1112basic_stringIcSt11char_traitsIcESaIcEEESt6vectorIS7_SaIS7_EEEENS0_5__ops15_Iter_comp_iterIZN7segment5orderEvEUlRKS7_SH_E_EEEvT_SK_T0_+0x254>  // b.none
  404c4c:	aa1703f3 	mov	x19, x23
  404c50:	aa1703e1 	mov	x1, x23
  404c54:	aa1c03e0 	mov	x0, x28
  404c58:	94001556 	bl	40a1b0 <_ZNSt8__detail9_Map_baseINSt7__cxx1112basic_stringIcSt11char_traitsIcESaIcEEESt4pairIKS6_iESaIS9_ENS_10_Select1stESt8equal_toIS6_ESt4hashIS6_ENS_18_Mod_range_hashingENS_20_Default_ranged_hashENS_20_Prime_rehash_policyENS_17_Hashtable_traitsILb1ELb0ELb1EEELb1EEixERS8_>
  404c5c:	aa0003e1 	mov	x1, x0
  404c60:	aa1b03e0 	mov	x0, x27
  404c64:	940014ef 	bl	40a020 <_ZNSt8__detail9_Map_baseIiSt4pairIKiiESaIS3_ENS_10_Select1stESt8equal_toIiESt4hashIiENS_18_Mod_range_hashingENS_20_Default_ranged_hashENS_20_Prime_rehash_policyENS_17_Hashtable_traitsILb0ELb0ELb1EEELb1EE2atERS2_>
  404c68:	b9400014 	ldr	w20, [x0]
  404c6c:	aa1803e1 	mov	x1, x24
  404c70:	aa1c03e0 	mov	x0, x28
  404c74:	9400154f 	bl	40a1b0 <_ZNSt8__detail9_Map_baseINSt7__cxx1112basic_stringIcSt11char_traitsIcESaIcEEESt4pairIKS6_iESaIS9_ENS_10_Select1stESt8equal_toIS6_ESt4hashIS6_ENS_18_Mod_range_hashingENS_20_Default_ranged_hashENS_20_Prime_rehash_policyENS_17_Hashtable_traitsILb1ELb0ELb1EEELb1EEixERS8_>
  404c78:	aa0003e1 	mov	x1, x0
  404c7c:	aa1b03e0 	mov	x0, x27
  404c80:	940014e8 	bl	40a020 <_ZNSt8__detail9_Map_baseIiSt4pairIKiiESaIS3_ENS_10_Select1stESt8equal_toIiESt4hashIiENS_18_Mod_range_hashingENS_20_Default_ranged_hashENS_20_Prime_rehash_policyENS_17_Hashtable_traitsILb0ELb0ELb1EEELb1EE2atERS2_>
  404c84:	b9400000 	ldr	w0, [x0]
  404c88:	6b00029f 	cmp	w20, w0
  404c8c:	5400046d 	b.le	404d18 <_ZSt16__insertion_sortIN9__gnu_cxx17__normal_iteratorIPNSt7__cxx1112basic_stringIcSt11char_traitsIcESaIcEEESt6vectorIS7_SaIS7_EEEENS0_5__ops15_Iter_comp_iterIZN7segment5orderEvEUlRKS7_SH_E_EEEvT_SK_T0_+0x244>
  404c90:	f90043fa 	str	x26, [sp, #128]
  404c94:	aa1903e0 	mov	x0, x25
  404c98:	f85f0321 	ldur	x1, [x25, #-16]
  404c9c:	eb19003f 	cmp	x1, x25
  404ca0:	54fff460 	b.eq	404b2c <_ZSt16__insertion_sortIN9__gnu_cxx17__normal_iteratorIPNSt7__cxx1112basic_stringIcSt11char_traitsIcESaIcEEESt6vectorIS7_SaIS7_EEEENS0_5__ops15_Iter_comp_iterIZN7segment5orderEvEUlRKS7_SH_E_EEEvT_SK_T0_+0x58>  // b.none
  404ca4:	f90043e1 	str	x1, [sp, #128]
  404ca8:	f9400321 	ldr	x1, [x25]
  404cac:	f9004be1 	str	x1, [sp, #144]
  404cb0:	f85f8001 	ldur	x1, [x0, #-8]
  404cb4:	f90047e1 	str	x1, [sp, #136]
  404cb8:	f81f0000 	stur	x0, [x0, #-16]
  404cbc:	f81f801f 	stur	xzr, [x0, #-8]
  404cc0:	3900001f 	strb	wzr, [x0]
  404cc4:	cb180273 	sub	x19, x19, x24
  404cc8:	9345fe76 	asr	x22, x19, #5
  404ccc:	f100027f 	cmp	x19, #0x0
  404cd0:	54fff82d 	b.le	404bd4 <_ZSt16__insertion_sortIN9__gnu_cxx17__normal_iteratorIPNSt7__cxx1112basic_stringIcSt11char_traitsIcESaIcEEESt6vectorIS7_SaIS7_EEEENS0_5__ops15_Iter_comp_iterIZN7segment5orderEvEUlRKS7_SH_E_EEEvT_SK_T0_+0x100>
  404cd4:	d10042f4 	sub	x20, x23, #0x10
  404cd8:	17ffffa5 	b	404b6c <_ZSt16__insertion_sortIN9__gnu_cxx17__normal_iteratorIPNSt7__cxx1112basic_stringIcSt11char_traitsIcESaIcEEESt6vectorIS7_SaIS7_EEEENS0_5__ops15_Iter_comp_iterIZN7segment5orderEvEUlRKS7_SH_E_EEEvT_SK_T0_+0x98>
  404cdc:	f94047e2 	ldr	x2, [sp, #136]
  404ce0:	b50000c2 	cbnz	x2, 404cf8 <_ZSt16__insertion_sortIN9__gnu_cxx17__normal_iteratorIPNSt7__cxx1112basic_stringIcSt11char_traitsIcESaIcEEESt6vectorIS7_SaIS7_EEEENS0_5__ops15_Iter_comp_iterIZN7segment5orderEvEUlRKS7_SH_E_EEEvT_SK_T0_+0x224>
  404ce4:	f94047e0 	ldr	x0, [sp, #136]
  404ce8:	f9000700 	str	x0, [x24, #8]
  404cec:	f9400301 	ldr	x1, [x24]
  404cf0:	3820683f 	strb	wzr, [x1, x0]
  404cf4:	17ffffc8 	b	404c14 <_ZSt16__insertion_sortIN9__gnu_cxx17__normal_iteratorIPNSt7__cxx1112basic_stringIcSt11char_traitsIcESaIcEEESt6vectorIS7_SaIS7_EEEENS0_5__ops15_Iter_comp_iterIZN7segment5orderEvEUlRKS7_SH_E_EEEvT_SK_T0_+0x140>
  404cf8:	f100045f 	cmp	x2, #0x1
  404cfc:	54000080 	b.eq	404d0c <_ZSt16__insertion_sortIN9__gnu_cxx17__normal_iteratorIPNSt7__cxx1112basic_stringIcSt11char_traitsIcESaIcEEESt6vectorIS7_SaIS7_EEEENS0_5__ops15_Iter_comp_iterIZN7segment5orderEvEUlRKS7_SH_E_EEEvT_SK_T0_+0x238>  // b.none
  404d00:	aa1a03e1 	mov	x1, x26
  404d04:	97fff487 	bl	401f20 <memcpy@plt>
  404d08:	17fffff7 	b	404ce4 <_ZSt16__insertion_sortIN9__gnu_cxx17__normal_iteratorIPNSt7__cxx1112basic_stringIcSt11char_traitsIcESaIcEEESt6vectorIS7_SaIS7_EEEENS0_5__ops15_Iter_comp_iterIZN7segment5orderEvEUlRKS7_SH_E_EEEvT_SK_T0_+0x210>
  404d0c:	394243e1 	ldrb	w1, [sp, #144]
  404d10:	39000001 	strb	w1, [x0]
  404d14:	17fffff4 	b	404ce4 <_ZSt16__insertion_sortIN9__gnu_cxx17__normal_iteratorIPNSt7__cxx1112basic_stringIcSt11char_traitsIcESaIcEEESt6vectorIS7_SaIS7_EEEENS0_5__ops15_Iter_comp_iterIZN7segment5orderEvEUlRKS7_SH_E_EEEvT_SK_T0_+0x210>
  404d18:	f9403fe1 	ldr	x1, [sp, #120]
  404d1c:	aa1703e0 	mov	x0, x23
  404d20:	97fffda6 	bl	4043b8 <_ZSt25__unguarded_linear_insertIN9__gnu_cxx17__normal_iteratorIPNSt7__cxx1112basic_stringIcSt11char_traitsIcESaIcEEESt6vectorIS7_SaIS7_EEEENS0_5__ops14_Val_comp_iterIZN7segment5orderEvEUlRKS7_SH_E_EEEvT_T0_>
  404d24:	17ffffc5 	b	404c38 <_ZSt16__insertion_sortIN9__gnu_cxx17__normal_iteratorIPNSt7__cxx1112basic_stringIcSt11char_traitsIcESaIcEEESt6vectorIS7_SaIS7_EEEENS0_5__ops15_Iter_comp_iterIZN7segment5orderEvEUlRKS7_SH_E_EEEvT_SK_T0_+0x164>
  404d28:	a94153f3 	ldp	x19, x20, [sp, #16]
  404d2c:	a9425bf5 	ldp	x21, x22, [sp, #32]
  404d30:	a9446bf9 	ldp	x25, x26, [sp, #64]
  404d34:	a94573fb 	ldp	x27, x28, [sp, #80]
  404d38:	a94363f7 	ldp	x23, x24, [sp, #48]
  404d3c:	a8ca7bfd 	ldp	x29, x30, [sp], #160
  404d40:	d65f03c0 	ret
  404d44:	f9000301 	str	x1, [x24]
  404d48:	f94047e0 	ldr	x0, [sp, #136]
  404d4c:	f9000700 	str	x0, [x24, #8]
  404d50:	f9404be0 	ldr	x0, [sp, #144]
  404d54:	f9000b00 	str	x0, [x24, #16]
  404d58:	f90043fa 	str	x26, [sp, #128]
  404d5c:	17ffffae 	b	404c14 <_ZSt16__insertion_sortIN9__gnu_cxx17__normal_iteratorIPNSt7__cxx1112basic_stringIcSt11char_traitsIcESaIcEEESt6vectorIS7_SaIS7_EEEENS0_5__ops15_Iter_comp_iterIZN7segment5orderEvEUlRKS7_SH_E_EEEvT_SK_T0_+0x140>
  404d60:	f9000a95 	str	x21, [x20, #16]
  404d64:	f85f8280 	ldur	x0, [x20, #-8]
  404d68:	f9000e80 	str	x0, [x20, #24]
  404d6c:	f9400280 	ldr	x0, [x20]
  404d70:	f9001280 	str	x0, [x20, #32]
  404d74:	f81f0273 	stur	x19, [x19, #-16]
  404d78:	17ffff76 	b	404b50 <_ZSt16__insertion_sortIN9__gnu_cxx17__normal_iteratorIPNSt7__cxx1112basic_stringIcSt11char_traitsIcESaIcEEESt6vectorIS7_SaIS7_EEEENS0_5__ops15_Iter_comp_iterIZN7segment5orderEvEUlRKS7_SH_E_EEEvT_SK_T0_+0x7c>

0000000000404d7c <_ZSt16__introsort_loopIN9__gnu_cxx17__normal_iteratorIPNSt7__cxx1112basic_stringIcSt11char_traitsIcESaIcEEESt6vectorIS7_SaIS7_EEEElNS0_5__ops15_Iter_comp_iterIZN7segment5orderEvEUlRKS7_SH_E_EEEvT_SK_T0_T1_>:
  404d7c:	a9b57bfd 	stp	x29, x30, [sp, #-176]!
  404d80:	910003fd 	mov	x29, sp
  404d84:	a90363f7 	stp	x23, x24, [sp, #48]
  404d88:	aa0003f7 	mov	x23, x0
  404d8c:	f90037e3 	str	x3, [sp, #104]
  404d90:	cb000020 	sub	x0, x1, x0
  404d94:	f108001f 	cmp	x0, #0x200
  404d98:	5400152d 	b.le	40503c <_ZSt16__introsort_loopIN9__gnu_cxx17__normal_iteratorIPNSt7__cxx1112basic_stringIcSt11char_traitsIcESaIcEEESt6vectorIS7_SaIS7_EEEElNS0_5__ops15_Iter_comp_iterIZN7segment5orderEvEUlRKS7_SH_E_EEEvT_SK_T0_T1_+0x2c0>
  404d9c:	a90153f3 	stp	x19, x20, [sp, #16]
  404da0:	a9025bf5 	stp	x21, x22, [sp, #32]
  404da4:	a9046bf9 	stp	x25, x26, [sp, #64]
  404da8:	a90573fb 	stp	x27, x28, [sp, #80]
  404dac:	aa0203fc 	mov	x28, x2
  404db0:	aa0103fb 	mov	x27, x1
  404db4:	b4002b02 	cbz	x2, 405314 <_ZSt16__introsort_loopIN9__gnu_cxx17__normal_iteratorIPNSt7__cxx1112basic_stringIcSt11char_traitsIcESaIcEEESt6vectorIS7_SaIS7_EEEElNS0_5__ops15_Iter_comp_iterIZN7segment5orderEvEUlRKS7_SH_E_EEEvT_SK_T0_T1_+0x598>
  404db8:	910082e0 	add	x0, x23, #0x20
  404dbc:	f90033e0 	str	x0, [sp, #96]
  404dc0:	91010075 	add	x21, x3, #0x40
  404dc4:	9101e074 	add	x20, x3, #0x78
  404dc8:	14000121 	b	40524c <_ZSt16__introsort_loopIN9__gnu_cxx17__normal_iteratorIPNSt7__cxx1112basic_stringIcSt11char_traitsIcESaIcEEESt6vectorIS7_SaIS7_EEEElNS0_5__ops15_Iter_comp_iterIZN7segment5orderEvEUlRKS7_SH_E_EEEvT_SK_T0_T1_+0x4d0>
  404dcc:	a9400e62 	ldp	x2, x3, [x19]
  404dd0:	a9080fe2 	stp	x2, x3, [sp, #128]
  404dd4:	1400001b 	b	404e40 <_ZSt16__introsort_loopIN9__gnu_cxx17__normal_iteratorIPNSt7__cxx1112basic_stringIcSt11char_traitsIcESaIcEEESt6vectorIS7_SaIS7_EEEElNS0_5__ops15_Iter_comp_iterIZN7segment5orderEvEUlRKS7_SH_E_EEEvT_SK_T0_T1_+0xc4>
  404dd8:	a9480fe2 	ldp	x2, x3, [sp, #128]
  404ddc:	a90a0fe2 	stp	x2, x3, [sp, #160]
  404de0:	14000023 	b	404e6c <_ZSt16__introsort_loopIN9__gnu_cxx17__normal_iteratorIPNSt7__cxx1112basic_stringIcSt11char_traitsIcESaIcEEESt6vectorIS7_SaIS7_EEEElNS0_5__ops15_Iter_comp_iterIZN7segment5orderEvEUlRKS7_SH_E_EEEvT_SK_T0_T1_+0xf0>
  404de4:	f9404be0 	ldr	x0, [sp, #144]
  404de8:	eb16001f 	cmp	x0, x22
  404dec:	54000080 	b.eq	404dfc <_ZSt16__introsort_loopIN9__gnu_cxx17__normal_iteratorIPNSt7__cxx1112basic_stringIcSt11char_traitsIcESaIcEEESt6vectorIS7_SaIS7_EEEElNS0_5__ops15_Iter_comp_iterIZN7segment5orderEvEUlRKS7_SH_E_EEEvT_SK_T0_T1_+0x80>  // b.none
  404df0:	f94053e1 	ldr	x1, [sp, #160]
  404df4:	91000421 	add	x1, x1, #0x1
  404df8:	97fff4b2 	bl	4020c0 <_ZdlPvm@plt>
  404dfc:	b40004f4 	cbz	x20, 404e98 <_ZSt16__introsort_loopIN9__gnu_cxx17__normal_iteratorIPNSt7__cxx1112basic_stringIcSt11char_traitsIcESaIcEEESt6vectorIS7_SaIS7_EEEElNS0_5__ops15_Iter_comp_iterIZN7segment5orderEvEUlRKS7_SH_E_EEEvT_SK_T0_T1_+0x11c>
  404e00:	d1000694 	sub	x20, x20, #0x1
  404e04:	f9403be0 	ldr	x0, [sp, #112]
  404e08:	eb15001f 	cmp	x0, x21
  404e0c:	54000080 	b.eq	404e1c <_ZSt16__introsort_loopIN9__gnu_cxx17__normal_iteratorIPNSt7__cxx1112basic_stringIcSt11char_traitsIcESaIcEEESt6vectorIS7_SaIS7_EEEElNS0_5__ops15_Iter_comp_iterIZN7segment5orderEvEUlRKS7_SH_E_EEEvT_SK_T0_T1_+0xa0>  // b.none
  404e10:	f94043e1 	ldr	x1, [sp, #128]
  404e14:	91000421 	add	x1, x1, #0x1
  404e18:	97fff4aa 	bl	4020c0 <_ZdlPvm@plt>
  404e1c:	d1008273 	sub	x19, x19, #0x20
  404e20:	f9003bf5 	str	x21, [sp, #112]
  404e24:	aa1303e0 	mov	x0, x19
  404e28:	f85f0261 	ldur	x1, [x19, #-16]
  404e2c:	eb13003f 	cmp	x1, x19
  404e30:	54fffce0 	b.eq	404dcc <_ZSt16__introsort_loopIN9__gnu_cxx17__normal_iteratorIPNSt7__cxx1112basic_stringIcSt11char_traitsIcESaIcEEESt6vectorIS7_SaIS7_EEEElNS0_5__ops15_Iter_comp_iterIZN7segment5orderEvEUlRKS7_SH_E_EEEvT_SK_T0_T1_+0x50>  // b.none
  404e34:	f9003be1 	str	x1, [sp, #112]
  404e38:	f9400261 	ldr	x1, [x19]
  404e3c:	f90043e1 	str	x1, [sp, #128]
  404e40:	f85f8001 	ldur	x1, [x0, #-8]
  404e44:	f81f0000 	stur	x0, [x0, #-16]
  404e48:	f81f801f 	stur	xzr, [x0, #-8]
  404e4c:	3900001f 	strb	wzr, [x0]
  404e50:	f9004bf6 	str	x22, [sp, #144]
  404e54:	f9403be0 	ldr	x0, [sp, #112]
  404e58:	eb15001f 	cmp	x0, x21
  404e5c:	54fffbe0 	b.eq	404dd8 <_ZSt16__introsort_loopIN9__gnu_cxx17__normal_iteratorIPNSt7__cxx1112basic_stringIcSt11char_traitsIcESaIcEEESt6vectorIS7_SaIS7_EEEElNS0_5__ops15_Iter_comp_iterIZN7segment5orderEvEUlRKS7_SH_E_EEEvT_SK_T0_T1_+0x5c>  // b.none
  404e60:	f9004be0 	str	x0, [sp, #144]
  404e64:	f94043e0 	ldr	x0, [sp, #128]
  404e68:	f90053e0 	str	x0, [sp, #160]
  404e6c:	f9004fe1 	str	x1, [sp, #152]
  404e70:	f9003bf5 	str	x21, [sp, #112]
  404e74:	f9003fff 	str	xzr, [sp, #120]
  404e78:	390203ff 	strb	wzr, [sp, #128]
  404e7c:	f94037e4 	ldr	x4, [sp, #104]
  404e80:	910243e3 	add	x3, sp, #0x90
  404e84:	aa1803e2 	mov	x2, x24
  404e88:	aa1403e1 	mov	x1, x20
  404e8c:	aa1703e0 	mov	x0, x23
  404e90:	97fffdde 	bl	404608 <_ZSt13__adjust_heapIN9__gnu_cxx17__normal_iteratorIPNSt7__cxx1112basic_stringIcSt11char_traitsIcESaIcEEESt6vectorIS7_SaIS7_EEEElS7_NS0_5__ops15_Iter_comp_iterIZN7segment5orderEvEUlRKS7_SH_E_EEEvT_T0_SL_T1_T2_>
  404e94:	17ffffd4 	b	404de4 <_ZSt16__introsort_loopIN9__gnu_cxx17__normal_iteratorIPNSt7__cxx1112basic_stringIcSt11char_traitsIcESaIcEEESt6vectorIS7_SaIS7_EEEElNS0_5__ops15_Iter_comp_iterIZN7segment5orderEvEUlRKS7_SH_E_EEEvT_SK_T0_T1_+0x68>
  404e98:	f9403be0 	ldr	x0, [sp, #112]
  404e9c:	910203e1 	add	x1, sp, #0x80
  404ea0:	eb01001f 	cmp	x0, x1
  404ea4:	54000080 	b.eq	404eb4 <_ZSt16__introsort_loopIN9__gnu_cxx17__normal_iteratorIPNSt7__cxx1112basic_stringIcSt11char_traitsIcESaIcEEESt6vectorIS7_SaIS7_EEEElNS0_5__ops15_Iter_comp_iterIZN7segment5orderEvEUlRKS7_SH_E_EEEvT_SK_T0_T1_+0x138>  // b.none
  404ea8:	f94043e1 	ldr	x1, [sp, #128]
  404eac:	91000421 	add	x1, x1, #0x1
  404eb0:	97fff484 	bl	4020c0 <_ZdlPvm@plt>
  404eb4:	d100435a 	sub	x26, x26, #0x10
  404eb8:	910203f4 	add	x20, sp, #0x80
  404ebc:	910042f6 	add	x22, x23, #0x10
  404ec0:	910283f5 	add	x21, sp, #0xa0
  404ec4:	1400002c 	b	404f74 <_ZSt16__introsort_loopIN9__gnu_cxx17__normal_iteratorIPNSt7__cxx1112basic_stringIcSt11char_traitsIcESaIcEEESt6vectorIS7_SaIS7_EEEElNS0_5__ops15_Iter_comp_iterIZN7segment5orderEvEUlRKS7_SH_E_EEEvT_SK_T0_T1_+0x1f8>
  404ec8:	aa0003f3 	mov	x19, x0
  404ecc:	910243e0 	add	x0, sp, #0x90
  404ed0:	97fff490 	bl	402110 <_ZNSt7__cxx1112basic_stringIcSt11char_traitsIcESaIcEE10_M_disposeEv@plt>
  404ed4:	9101c3e0 	add	x0, sp, #0x70
  404ed8:	97fff48e 	bl	402110 <_ZNSt7__cxx1112basic_stringIcSt11char_traitsIcESaIcEE10_M_disposeEv@plt>
  404edc:	aa1303e0 	mov	x0, x19
  404ee0:	97fff4e0 	bl	402260 <_Unwind_Resume@plt>
  404ee4:	a9400740 	ldp	x0, x1, [x26]
  404ee8:	a90807e0 	stp	x0, x1, [sp, #128]
  404eec:	1400002b 	b	404f98 <_ZSt16__introsort_loopIN9__gnu_cxx17__normal_iteratorIPNSt7__cxx1112basic_stringIcSt11char_traitsIcESaIcEEESt6vectorIS7_SaIS7_EEEElNS0_5__ops15_Iter_comp_iterIZN7segment5orderEvEUlRKS7_SH_E_EEEvT_SK_T0_T1_+0x21c>
  404ef0:	f94006e2 	ldr	x2, [x23, #8]
  404ef4:	b50000a2 	cbnz	x2, 404f08 <_ZSt16__introsort_loopIN9__gnu_cxx17__normal_iteratorIPNSt7__cxx1112basic_stringIcSt11char_traitsIcESaIcEEESt6vectorIS7_SaIS7_EEEElNS0_5__ops15_Iter_comp_iterIZN7segment5orderEvEUlRKS7_SH_E_EEEvT_SK_T0_T1_+0x18c>
  404ef8:	f94006e0 	ldr	x0, [x23, #8]
  404efc:	f81f8260 	stur	x0, [x19, #-8]
  404f00:	38206a7f 	strb	wzr, [x19, x0]
  404f04:	14000033 	b	404fd0 <_ZSt16__introsort_loopIN9__gnu_cxx17__normal_iteratorIPNSt7__cxx1112basic_stringIcSt11char_traitsIcESaIcEEESt6vectorIS7_SaIS7_EEEElNS0_5__ops15_Iter_comp_iterIZN7segment5orderEvEUlRKS7_SH_E_EEEvT_SK_T0_T1_+0x254>
  404f08:	f100045f 	cmp	x2, #0x1
  404f0c:	540000a0 	b.eq	404f20 <_ZSt16__introsort_loopIN9__gnu_cxx17__normal_iteratorIPNSt7__cxx1112basic_stringIcSt11char_traitsIcESaIcEEESt6vectorIS7_SaIS7_EEEElNS0_5__ops15_Iter_comp_iterIZN7segment5orderEvEUlRKS7_SH_E_EEEvT_SK_T0_T1_+0x1a4>  // b.none
  404f10:	aa1603e1 	mov	x1, x22
  404f14:	aa1303e0 	mov	x0, x19
  404f18:	97fff402 	bl	401f20 <memcpy@plt>
  404f1c:	17fffff7 	b	404ef8 <_ZSt16__introsort_loopIN9__gnu_cxx17__normal_iteratorIPNSt7__cxx1112basic_stringIcSt11char_traitsIcESaIcEEESt6vectorIS7_SaIS7_EEEElNS0_5__ops15_Iter_comp_iterIZN7segment5orderEvEUlRKS7_SH_E_EEEvT_SK_T0_T1_+0x17c>
  404f20:	394042e0 	ldrb	w0, [x23, #16]
  404f24:	39000260 	strb	w0, [x19]
  404f28:	17fffff4 	b	404ef8 <_ZSt16__introsort_loopIN9__gnu_cxx17__normal_iteratorIPNSt7__cxx1112basic_stringIcSt11char_traitsIcESaIcEEESt6vectorIS7_SaIS7_EEEElNS0_5__ops15_Iter_comp_iterIZN7segment5orderEvEUlRKS7_SH_E_EEEvT_SK_T0_T1_+0x17c>
  404f2c:	a94807e0 	ldp	x0, x1, [sp, #128]
  404f30:	a90a07e0 	stp	x0, x1, [sp, #160]
  404f34:	14000033 	b	405000 <_ZSt16__introsort_loopIN9__gnu_cxx17__normal_iteratorIPNSt7__cxx1112basic_stringIcSt11char_traitsIcESaIcEEESt6vectorIS7_SaIS7_EEEElNS0_5__ops15_Iter_comp_iterIZN7segment5orderEvEUlRKS7_SH_E_EEEvT_SK_T0_T1_+0x284>
  404f38:	f9404be0 	ldr	x0, [sp, #144]
  404f3c:	eb15001f 	cmp	x0, x21
  404f40:	54000080 	b.eq	404f50 <_ZSt16__introsort_loopIN9__gnu_cxx17__normal_iteratorIPNSt7__cxx1112basic_stringIcSt11char_traitsIcESaIcEEESt6vectorIS7_SaIS7_EEEElNS0_5__ops15_Iter_comp_iterIZN7segment5orderEvEUlRKS7_SH_E_EEEvT_SK_T0_T1_+0x1d4>  // b.none
  404f44:	f94053e1 	ldr	x1, [sp, #160]
  404f48:	91000421 	add	x1, x1, #0x1
  404f4c:	97fff45d 	bl	4020c0 <_ZdlPvm@plt>
  404f50:	f9403be0 	ldr	x0, [sp, #112]
  404f54:	eb14001f 	cmp	x0, x20
  404f58:	54000080 	b.eq	404f68 <_ZSt16__introsort_loopIN9__gnu_cxx17__normal_iteratorIPNSt7__cxx1112basic_stringIcSt11char_traitsIcESaIcEEESt6vectorIS7_SaIS7_EEEElNS0_5__ops15_Iter_comp_iterIZN7segment5orderEvEUlRKS7_SH_E_EEEvT_SK_T0_T1_+0x1ec>  // b.none
  404f5c:	f94043e1 	ldr	x1, [sp, #128]
  404f60:	91000421 	add	x1, x1, #0x1
  404f64:	97fff457 	bl	4020c0 <_ZdlPvm@plt>
  404f68:	d100835a 	sub	x26, x26, #0x20
  404f6c:	f100831f 	cmp	x24, #0x20
  404f70:	540005ed 	b.le	40502c <_ZSt16__introsort_loopIN9__gnu_cxx17__normal_iteratorIPNSt7__cxx1112basic_stringIcSt11char_traitsIcESaIcEEESt6vectorIS7_SaIS7_EEEElNS0_5__ops15_Iter_comp_iterIZN7segment5orderEvEUlRKS7_SH_E_EEEvT_SK_T0_T1_+0x2b0>
  404f74:	d1004358 	sub	x24, x26, #0x10
  404f78:	f9003bf4 	str	x20, [sp, #112]
  404f7c:	aa1a03f3 	mov	x19, x26
  404f80:	f85f0340 	ldur	x0, [x26, #-16]
  404f84:	eb1a001f 	cmp	x0, x26
  404f88:	54fffae0 	b.eq	404ee4 <_ZSt16__introsort_loopIN9__gnu_cxx17__normal_iteratorIPNSt7__cxx1112basic_stringIcSt11char_traitsIcESaIcEEESt6vectorIS7_SaIS7_EEEElNS0_5__ops15_Iter_comp_iterIZN7segment5orderEvEUlRKS7_SH_E_EEEvT_SK_T0_T1_+0x168>  // b.none
  404f8c:	f9003be0 	str	x0, [sp, #112]
  404f90:	f9400340 	ldr	x0, [x26]
  404f94:	f90043e0 	str	x0, [sp, #128]
  404f98:	f85f8260 	ldur	x0, [x19, #-8]
  404f9c:	f9003fe0 	str	x0, [sp, #120]
  404fa0:	f81f0273 	stur	x19, [x19, #-16]
  404fa4:	f81f827f 	stur	xzr, [x19, #-8]
  404fa8:	3900027f 	strb	wzr, [x19]
  404fac:	f94002e0 	ldr	x0, [x23]
  404fb0:	eb16001f 	cmp	x0, x22
  404fb4:	54fff9e0 	b.eq	404ef0 <_ZSt16__introsort_loopIN9__gnu_cxx17__normal_iteratorIPNSt7__cxx1112basic_stringIcSt11char_traitsIcESaIcEEESt6vectorIS7_SaIS7_EEEElNS0_5__ops15_Iter_comp_iterIZN7segment5orderEvEUlRKS7_SH_E_EEEvT_SK_T0_T1_+0x174>  // b.none
  404fb8:	f81f0260 	stur	x0, [x19, #-16]
  404fbc:	f94006e0 	ldr	x0, [x23, #8]
  404fc0:	f81f8260 	stur	x0, [x19, #-8]
  404fc4:	f9400ae0 	ldr	x0, [x23, #16]
  404fc8:	f9000260 	str	x0, [x19]
  404fcc:	f90002f6 	str	x22, [x23]
  404fd0:	f90006ff 	str	xzr, [x23, #8]
  404fd4:	f94002e0 	ldr	x0, [x23]
  404fd8:	3900001f 	strb	wzr, [x0]
  404fdc:	cb170318 	sub	x24, x24, x23
  404fe0:	9345ff02 	asr	x2, x24, #5
  404fe4:	f9004bf5 	str	x21, [sp, #144]
  404fe8:	f9403be0 	ldr	x0, [sp, #112]
  404fec:	eb14001f 	cmp	x0, x20
  404ff0:	54fff9e0 	b.eq	404f2c <_ZSt16__introsort_loopIN9__gnu_cxx17__normal_iteratorIPNSt7__cxx1112basic_stringIcSt11char_traitsIcESaIcEEESt6vectorIS7_SaIS7_EEEElNS0_5__ops15_Iter_comp_iterIZN7segment5orderEvEUlRKS7_SH_E_EEEvT_SK_T0_T1_+0x1b0>  // b.none
  404ff4:	f9004be0 	str	x0, [sp, #144]
  404ff8:	f94043e0 	ldr	x0, [sp, #128]
  404ffc:	f90053e0 	str	x0, [sp, #160]
  405000:	f9403fe0 	ldr	x0, [sp, #120]
  405004:	f9004fe0 	str	x0, [sp, #152]
  405008:	f9003bf4 	str	x20, [sp, #112]
  40500c:	f9003fff 	str	xzr, [sp, #120]
  405010:	390203ff 	strb	wzr, [sp, #128]
  405014:	f94037e4 	ldr	x4, [sp, #104]
  405018:	910243e3 	add	x3, sp, #0x90
  40501c:	d2800001 	mov	x1, #0x0                   	// #0
  405020:	aa1703e0 	mov	x0, x23
  405024:	97fffd79 	bl	404608 <_ZSt13__adjust_heapIN9__gnu_cxx17__normal_iteratorIPNSt7__cxx1112basic_stringIcSt11char_traitsIcESaIcEEESt6vectorIS7_SaIS7_EEEElS7_NS0_5__ops15_Iter_comp_iterIZN7segment5orderEvEUlRKS7_SH_E_EEEvT_T0_SL_T1_T2_>
  405028:	17ffffc4 	b	404f38 <_ZSt16__introsort_loopIN9__gnu_cxx17__normal_iteratorIPNSt7__cxx1112basic_stringIcSt11char_traitsIcESaIcEEESt6vectorIS7_SaIS7_EEEElNS0_5__ops15_Iter_comp_iterIZN7segment5orderEvEUlRKS7_SH_E_EEEvT_SK_T0_T1_+0x1bc>
  40502c:	a94153f3 	ldp	x19, x20, [sp, #16]
  405030:	a9425bf5 	ldp	x21, x22, [sp, #32]
  405034:	a9446bf9 	ldp	x25, x26, [sp, #64]
  405038:	a94573fb 	ldp	x27, x28, [sp, #80]
  40503c:	a94363f7 	ldp	x23, x24, [sp, #48]
  405040:	a8cb7bfd 	ldp	x29, x30, [sp], #176
  405044:	d65f03c0 	ret
  405048:	aa0003f3 	mov	x19, x0
  40504c:	910243e0 	add	x0, sp, #0x90
  405050:	97fff430 	bl	402110 <_ZNSt7__cxx1112basic_stringIcSt11char_traitsIcESaIcEE10_M_disposeEv@plt>
  405054:	9101c3e0 	add	x0, sp, #0x70
  405058:	97fff42e 	bl	402110 <_ZNSt7__cxx1112basic_stringIcSt11char_traitsIcESaIcEE10_M_disposeEv@plt>
  40505c:	aa1303e0 	mov	x0, x19
  405060:	97fff480 	bl	402260 <_Unwind_Resume@plt>
  405064:	f94033e1 	ldr	x1, [sp, #96]
  405068:	aa1503e0 	mov	x0, x21
  40506c:	94001451 	bl	40a1b0 <_ZNSt8__detail9_Map_baseINSt7__cxx1112basic_stringIcSt11char_traitsIcESaIcEEESt4pairIKS6_iESaIS9_ENS_10_Select1stESt8equal_toIS6_ESt4hashIS6_ENS_18_Mod_range_hashingENS_20_Default_ranged_hashENS_20_Prime_rehash_policyENS_17_Hashtable_traitsILb1ELb0ELb1EEELb1EEixERS8_>
  405070:	aa0003e1 	mov	x1, x0
  405074:	aa1403e0 	mov	x0, x20
  405078:	940013ea 	bl	40a020 <_ZNSt8__detail9_Map_baseIiSt4pairIKiiESaIS3_ENS_10_Select1stESt8equal_toIiESt4hashIiENS_18_Mod_range_hashingENS_20_Default_ranged_hashENS_20_Prime_rehash_policyENS_17_Hashtable_traitsILb0ELb0ELb1EEELb1EE2atERS2_>
  40507c:	b9400013 	ldr	w19, [x0]
  405080:	aa1603e1 	mov	x1, x22
  405084:	aa1503e0 	mov	x0, x21
  405088:	9400144a 	bl	40a1b0 <_ZNSt8__detail9_Map_baseINSt7__cxx1112basic_stringIcSt11char_traitsIcESaIcEEESt4pairIKS6_iESaIS9_ENS_10_Select1stESt8equal_toIS6_ESt4hashIS6_ENS_18_Mod_range_hashingENS_20_Default_ranged_hashENS_20_Prime_rehash_policyENS_17_Hashtable_traitsILb1ELb0ELb1EEELb1EEixERS8_>
  40508c:	aa0003e1 	mov	x1, x0
  405090:	aa1403e0 	mov	x0, x20
  405094:	940013e3 	bl	40a020 <_ZNSt8__detail9_Map_baseIiSt4pairIKiiESaIS3_ENS_10_Select1stESt8equal_toIiESt4hashIiENS_18_Mod_range_hashingENS_20_Default_ranged_hashENS_20_Prime_rehash_policyENS_17_Hashtable_traitsILb0ELb0ELb1EEELb1EE2atERS2_>
  405098:	b9400000 	ldr	w0, [x0]
  40509c:	6b00027f 	cmp	w19, w0
  4050a0:	540000ad 	b.le	4050b4 <_ZSt16__introsort_loopIN9__gnu_cxx17__normal_iteratorIPNSt7__cxx1112basic_stringIcSt11char_traitsIcESaIcEEESt6vectorIS7_SaIS7_EEEElNS0_5__ops15_Iter_comp_iterIZN7segment5orderEvEUlRKS7_SH_E_EEEvT_SK_T0_T1_+0x338>
  4050a4:	aa1603e1 	mov	x1, x22
  4050a8:	aa1703e0 	mov	x0, x23
  4050ac:	97fff3ed 	bl	402060 <_ZNSt7__cxx1112basic_stringIcSt11char_traitsIcESaIcEE4swapERS4_@plt>
  4050b0:	14000091 	b	4052f4 <_ZSt16__introsort_loopIN9__gnu_cxx17__normal_iteratorIPNSt7__cxx1112basic_stringIcSt11char_traitsIcESaIcEEESt6vectorIS7_SaIS7_EEEElNS0_5__ops15_Iter_comp_iterIZN7segment5orderEvEUlRKS7_SH_E_EEEvT_SK_T0_T1_+0x578>
  4050b4:	f94033e1 	ldr	x1, [sp, #96]
  4050b8:	aa1703e0 	mov	x0, x23
  4050bc:	97fff3e9 	bl	402060 <_ZNSt7__cxx1112basic_stringIcSt11char_traitsIcESaIcEE4swapERS4_@plt>
  4050c0:	1400008d 	b	4052f4 <_ZSt16__introsort_loopIN9__gnu_cxx17__normal_iteratorIPNSt7__cxx1112basic_stringIcSt11char_traitsIcESaIcEEESt6vectorIS7_SaIS7_EEEElNS0_5__ops15_Iter_comp_iterIZN7segment5orderEvEUlRKS7_SH_E_EEEvT_SK_T0_T1_+0x578>
  4050c4:	f94033f9 	ldr	x25, [sp, #96]
  4050c8:	aa1903e1 	mov	x1, x25
  4050cc:	aa1503e0 	mov	x0, x21
  4050d0:	94001438 	bl	40a1b0 <_ZNSt8__detail9_Map_baseINSt7__cxx1112basic_stringIcSt11char_traitsIcESaIcEEESt4pairIKS6_iESaIS9_ENS_10_Select1stESt8equal_toIS6_ESt4hashIS6_ENS_18_Mod_range_hashingENS_20_Default_ranged_hashENS_20_Prime_rehash_policyENS_17_Hashtable_traitsILb1ELb0ELb1EEELb1EEixERS8_>
  4050d4:	aa0003e1 	mov	x1, x0
  4050d8:	aa1403e0 	mov	x0, x20
  4050dc:	940013d1 	bl	40a020 <_ZNSt8__detail9_Map_baseIiSt4pairIKiiESaIS3_ENS_10_Select1stESt8equal_toIiESt4hashIiENS_18_Mod_range_hashingENS_20_Default_ranged_hashENS_20_Prime_rehash_policyENS_17_Hashtable_traitsILb0ELb0ELb1EEELb1EE2atERS2_>
  4050e0:	b9400018 	ldr	w24, [x0]
  4050e4:	aa1603e1 	mov	x1, x22
  4050e8:	aa1503e0 	mov	x0, x21
  4050ec:	94001431 	bl	40a1b0 <_ZNSt8__detail9_Map_baseINSt7__cxx1112basic_stringIcSt11char_traitsIcESaIcEEESt4pairIKS6_iESaIS9_ENS_10_Select1stESt8equal_toIS6_ESt4hashIS6_ENS_18_Mod_range_hashingENS_20_Default_ranged_hashENS_20_Prime_rehash_policyENS_17_Hashtable_traitsILb1ELb0ELb1EEELb1EEixERS8_>
  4050f0:	aa0003e1 	mov	x1, x0
  4050f4:	aa1403e0 	mov	x0, x20
  4050f8:	940013ca 	bl	40a020 <_ZNSt8__detail9_Map_baseIiSt4pairIKiiESaIS3_ENS_10_Select1stESt8equal_toIiESt4hashIiENS_18_Mod_range_hashingENS_20_Default_ranged_hashENS_20_Prime_rehash_policyENS_17_Hashtable_traitsILb0ELb0ELb1EEELb1EE2atERS2_>
  4050fc:	b9400000 	ldr	w0, [x0]
  405100:	6b00031f 	cmp	w24, w0
  405104:	540000ad 	b.le	405118 <_ZSt16__introsort_loopIN9__gnu_cxx17__normal_iteratorIPNSt7__cxx1112basic_stringIcSt11char_traitsIcESaIcEEESt6vectorIS7_SaIS7_EEEElNS0_5__ops15_Iter_comp_iterIZN7segment5orderEvEUlRKS7_SH_E_EEEvT_SK_T0_T1_+0x39c>
  405108:	aa1903e1 	mov	x1, x25
  40510c:	aa1703e0 	mov	x0, x23
  405110:	97fff3d4 	bl	402060 <_ZNSt7__cxx1112basic_stringIcSt11char_traitsIcESaIcEE4swapERS4_@plt>
  405114:	14000078 	b	4052f4 <_ZSt16__introsort_loopIN9__gnu_cxx17__normal_iteratorIPNSt7__cxx1112basic_stringIcSt11char_traitsIcESaIcEEESt6vectorIS7_SaIS7_EEEElNS0_5__ops15_Iter_comp_iterIZN7segment5orderEvEUlRKS7_SH_E_EEEvT_SK_T0_T1_+0x578>
  405118:	aa1303e1 	mov	x1, x19
  40511c:	aa1503e0 	mov	x0, x21
  405120:	94001424 	bl	40a1b0 <_ZNSt8__detail9_Map_baseINSt7__cxx1112basic_stringIcSt11char_traitsIcESaIcEEESt4pairIKS6_iESaIS9_ENS_10_Select1stESt8equal_toIS6_ESt4hashIS6_ENS_18_Mod_range_hashingENS_20_Default_ranged_hashENS_20_Prime_rehash_policyENS_17_Hashtable_traitsILb1ELb0ELb1EEELb1EEixERS8_>
  405124:	aa0003e1 	mov	x1, x0
  405128:	aa1403e0 	mov	x0, x20
  40512c:	940013bd 	bl	40a020 <_ZNSt8__detail9_Map_baseIiSt4pairIKiiESaIS3_ENS_10_Select1stESt8equal_toIiESt4hashIiENS_18_Mod_range_hashingENS_20_Default_ranged_hashENS_20_Prime_rehash_policyENS_17_Hashtable_traitsILb0ELb0ELb1EEELb1EE2atERS2_>
  405130:	b9400018 	ldr	w24, [x0]
  405134:	aa1603e1 	mov	x1, x22
  405138:	aa1503e0 	mov	x0, x21
  40513c:	9400141d 	bl	40a1b0 <_ZNSt8__detail9_Map_baseINSt7__cxx1112basic_stringIcSt11char_traitsIcESaIcEEESt4pairIKS6_iESaIS9_ENS_10_Select1stESt8equal_toIS6_ESt4hashIS6_ENS_18_Mod_range_hashingENS_20_Default_ranged_hashENS_20_Prime_rehash_policyENS_17_Hashtable_traitsILb1ELb0ELb1EEELb1EEixERS8_>
  405140:	aa0003e1 	mov	x1, x0
  405144:	aa1403e0 	mov	x0, x20
  405148:	940013b6 	bl	40a020 <_ZNSt8__detail9_Map_baseIiSt4pairIKiiESaIS3_ENS_10_Select1stESt8equal_toIiESt4hashIiENS_18_Mod_range_hashingENS_20_Default_ranged_hashENS_20_Prime_rehash_policyENS_17_Hashtable_traitsILb0ELb0ELb1EEELb1EE2atERS2_>
  40514c:	b9400000 	ldr	w0, [x0]
  405150:	6b00031f 	cmp	w24, w0
  405154:	540000ad 	b.le	405168 <_ZSt16__introsort_loopIN9__gnu_cxx17__normal_iteratorIPNSt7__cxx1112basic_stringIcSt11char_traitsIcESaIcEEESt6vectorIS7_SaIS7_EEEElNS0_5__ops15_Iter_comp_iterIZN7segment5orderEvEUlRKS7_SH_E_EEEvT_SK_T0_T1_+0x3ec>
  405158:	aa1603e1 	mov	x1, x22
  40515c:	aa1703e0 	mov	x0, x23
  405160:	97fff3c0 	bl	402060 <_ZNSt7__cxx1112basic_stringIcSt11char_traitsIcESaIcEE4swapERS4_@plt>
  405164:	14000064 	b	4052f4 <_ZSt16__introsort_loopIN9__gnu_cxx17__normal_iteratorIPNSt7__cxx1112basic_stringIcSt11char_traitsIcESaIcEEESt6vectorIS7_SaIS7_EEEElNS0_5__ops15_Iter_comp_iterIZN7segment5orderEvEUlRKS7_SH_E_EEEvT_SK_T0_T1_+0x578>
  405168:	aa1303e1 	mov	x1, x19
  40516c:	aa1703e0 	mov	x0, x23
  405170:	97fff3bc 	bl	402060 <_ZNSt7__cxx1112basic_stringIcSt11char_traitsIcESaIcEE4swapERS4_@plt>
  405174:	14000060 	b	4052f4 <_ZSt16__introsort_loopIN9__gnu_cxx17__normal_iteratorIPNSt7__cxx1112basic_stringIcSt11char_traitsIcESaIcEEESt6vectorIS7_SaIS7_EEEElNS0_5__ops15_Iter_comp_iterIZN7segment5orderEvEUlRKS7_SH_E_EEEvT_SK_T0_T1_+0x578>
  405178:	91008339 	add	x25, x25, #0x20
  40517c:	aa1903fa 	mov	x26, x25
  405180:	aa1903e1 	mov	x1, x25
  405184:	aa1503e0 	mov	x0, x21
  405188:	9400140a 	bl	40a1b0 <_ZNSt8__detail9_Map_baseINSt7__cxx1112basic_stringIcSt11char_traitsIcESaIcEEESt4pairIKS6_iESaIS9_ENS_10_Select1stESt8equal_toIS6_ESt4hashIS6_ENS_18_Mod_range_hashingENS_20_Default_ranged_hashENS_20_Prime_rehash_policyENS_17_Hashtable_traitsILb1ELb0ELb1EEELb1EEixERS8_>
  40518c:	aa0003e1 	mov	x1, x0
  405190:	aa1403e0 	mov	x0, x20
  405194:	940013a3 	bl	40a020 <_ZNSt8__detail9_Map_baseIiSt4pairIKiiESaIS3_ENS_10_Select1stESt8equal_toIiESt4hashIiENS_18_Mod_range_hashingENS_20_Default_ranged_hashENS_20_Prime_rehash_policyENS_17_Hashtable_traitsILb0ELb0ELb1EEELb1EE2atERS2_>
  405198:	b9400013 	ldr	w19, [x0]
  40519c:	aa1703e1 	mov	x1, x23
  4051a0:	aa1503e0 	mov	x0, x21
  4051a4:	94001403 	bl	40a1b0 <_ZNSt8__detail9_Map_baseINSt7__cxx1112basic_stringIcSt11char_traitsIcESaIcEEESt4pairIKS6_iESaIS9_ENS_10_Select1stESt8equal_toIS6_ESt4hashIS6_ENS_18_Mod_range_hashingENS_20_Default_ranged_hashENS_20_Prime_rehash_policyENS_17_Hashtable_traitsILb1ELb0ELb1EEELb1EEixERS8_>
  4051a8:	aa0003e1 	mov	x1, x0
  4051ac:	aa1403e0 	mov	x0, x20
  4051b0:	9400139c 	bl	40a020 <_ZNSt8__detail9_Map_baseIiSt4pairIKiiESaIS3_ENS_10_Select1stESt8equal_toIiESt4hashIiENS_18_Mod_range_hashingENS_20_Default_ranged_hashENS_20_Prime_rehash_policyENS_17_Hashtable_traitsILb0ELb0ELb1EEELb1EE2atERS2_>
  4051b4:	b9400000 	ldr	w0, [x0]
  4051b8:	6b00027f 	cmp	w19, w0
  4051bc:	54fffdec 	b.gt	405178 <_ZSt16__introsort_loopIN9__gnu_cxx17__normal_iteratorIPNSt7__cxx1112basic_stringIcSt11char_traitsIcESaIcEEESt6vectorIS7_SaIS7_EEEElNS0_5__ops15_Iter_comp_iterIZN7segment5orderEvEUlRKS7_SH_E_EEEvT_SK_T0_T1_+0x3fc>
  4051c0:	d1008313 	sub	x19, x24, #0x20
  4051c4:	aa1303f8 	mov	x24, x19
  4051c8:	aa1703e1 	mov	x1, x23
  4051cc:	aa1503e0 	mov	x0, x21
  4051d0:	940013f8 	bl	40a1b0 <_ZNSt8__detail9_Map_baseINSt7__cxx1112basic_stringIcSt11char_traitsIcESaIcEEESt4pairIKS6_iESaIS9_ENS_10_Select1stESt8equal_toIS6_ESt4hashIS6_ENS_18_Mod_range_hashingENS_20_Default_ranged_hashENS_20_Prime_rehash_policyENS_17_Hashtable_traitsILb1ELb0ELb1EEELb1EEixERS8_>
  4051d4:	aa0003e1 	mov	x1, x0
  4051d8:	aa1403e0 	mov	x0, x20
  4051dc:	94001391 	bl	40a020 <_ZNSt8__detail9_Map_baseIiSt4pairIKiiESaIS3_ENS_10_Select1stESt8equal_toIiESt4hashIiENS_18_Mod_range_hashingENS_20_Default_ranged_hashENS_20_Prime_rehash_policyENS_17_Hashtable_traitsILb0ELb0ELb1EEELb1EE2atERS2_>
  4051e0:	b9400016 	ldr	w22, [x0]
  4051e4:	aa1303e1 	mov	x1, x19
  4051e8:	aa1503e0 	mov	x0, x21
  4051ec:	940013f1 	bl	40a1b0 <_ZNSt8__detail9_Map_baseINSt7__cxx1112basic_stringIcSt11char_traitsIcESaIcEEESt4pairIKS6_iESaIS9_ENS_10_Select1stESt8equal_toIS6_ESt4hashIS6_ENS_18_Mod_range_hashingENS_20_Default_ranged_hashENS_20_Prime_rehash_policyENS_17_Hashtable_traitsILb1ELb0ELb1EEELb1EEixERS8_>
  4051f0:	aa0003e1 	mov	x1, x0
  4051f4:	aa1403e0 	mov	x0, x20
  4051f8:	9400138a 	bl	40a020 <_ZNSt8__detail9_Map_baseIiSt4pairIKiiESaIS3_ENS_10_Select1stESt8equal_toIiESt4hashIiENS_18_Mod_range_hashingENS_20_Default_ranged_hashENS_20_Prime_rehash_policyENS_17_Hashtable_traitsILb0ELb0ELb1EEELb1EE2atERS2_>
  4051fc:	d1008273 	sub	x19, x19, #0x20
  405200:	b9400000 	ldr	w0, [x0]
  405204:	6b0002df 	cmp	w22, w0
  405208:	54fffdec 	b.gt	4051c4 <_ZSt16__introsort_loopIN9__gnu_cxx17__normal_iteratorIPNSt7__cxx1112basic_stringIcSt11char_traitsIcESaIcEEESt6vectorIS7_SaIS7_EEEElNS0_5__ops15_Iter_comp_iterIZN7segment5orderEvEUlRKS7_SH_E_EEEvT_SK_T0_T1_+0x448>
  40520c:	eb18035f 	cmp	x26, x24
  405210:	540000a2 	b.cs	405224 <_ZSt16__introsort_loopIN9__gnu_cxx17__normal_iteratorIPNSt7__cxx1112basic_stringIcSt11char_traitsIcESaIcEEESt6vectorIS7_SaIS7_EEEElNS0_5__ops15_Iter_comp_iterIZN7segment5orderEvEUlRKS7_SH_E_EEEvT_SK_T0_T1_+0x4a8>  // b.hs, b.nlast
  405214:	aa1803e1 	mov	x1, x24
  405218:	aa1a03e0 	mov	x0, x26
  40521c:	97fff391 	bl	402060 <_ZNSt7__cxx1112basic_stringIcSt11char_traitsIcESaIcEE4swapERS4_@plt>
  405220:	17ffffd6 	b	405178 <_ZSt16__introsort_loopIN9__gnu_cxx17__normal_iteratorIPNSt7__cxx1112basic_stringIcSt11char_traitsIcESaIcEEESt6vectorIS7_SaIS7_EEEElNS0_5__ops15_Iter_comp_iterIZN7segment5orderEvEUlRKS7_SH_E_EEEvT_SK_T0_T1_+0x3fc>
  405224:	f94037e3 	ldr	x3, [sp, #104]
  405228:	aa1c03e2 	mov	x2, x28
  40522c:	aa1b03e1 	mov	x1, x27
  405230:	aa1a03e0 	mov	x0, x26
  405234:	97fffed2 	bl	404d7c <_ZSt16__introsort_loopIN9__gnu_cxx17__normal_iteratorIPNSt7__cxx1112basic_stringIcSt11char_traitsIcESaIcEEESt6vectorIS7_SaIS7_EEEElNS0_5__ops15_Iter_comp_iterIZN7segment5orderEvEUlRKS7_SH_E_EEEvT_SK_T0_T1_>
  405238:	cb170340 	sub	x0, x26, x23
  40523c:	f108001f 	cmp	x0, #0x200
  405240:	5400060d 	b.le	405300 <_ZSt16__introsort_loopIN9__gnu_cxx17__normal_iteratorIPNSt7__cxx1112basic_stringIcSt11char_traitsIcESaIcEEESt6vectorIS7_SaIS7_EEEElNS0_5__ops15_Iter_comp_iterIZN7segment5orderEvEUlRKS7_SH_E_EEEvT_SK_T0_T1_+0x584>
  405244:	b40006bc 	cbz	x28, 405318 <_ZSt16__introsort_loopIN9__gnu_cxx17__normal_iteratorIPNSt7__cxx1112basic_stringIcSt11char_traitsIcESaIcEEESt6vectorIS7_SaIS7_EEEElNS0_5__ops15_Iter_comp_iterIZN7segment5orderEvEUlRKS7_SH_E_EEEvT_SK_T0_T1_+0x59c>
  405248:	aa1a03fb 	mov	x27, x26
  40524c:	d100079c 	sub	x28, x28, #0x1
  405250:	cb170360 	sub	x0, x27, x23
  405254:	d37ffc01 	lsr	x1, x0, #63
  405258:	8b801433 	add	x19, x1, x0, asr #5
  40525c:	9341fe73 	asr	x19, x19, #1
  405260:	8b1316f3 	add	x19, x23, x19, lsl #5
  405264:	d1008376 	sub	x22, x27, #0x20
  405268:	f94033e1 	ldr	x1, [sp, #96]
  40526c:	aa1503e0 	mov	x0, x21
  405270:	940013d0 	bl	40a1b0 <_ZNSt8__detail9_Map_baseINSt7__cxx1112basic_stringIcSt11char_traitsIcESaIcEEESt4pairIKS6_iESaIS9_ENS_10_Select1stESt8equal_toIS6_ESt4hashIS6_ENS_18_Mod_range_hashingENS_20_Default_ranged_hashENS_20_Prime_rehash_policyENS_17_Hashtable_traitsILb1ELb0ELb1EEELb1EEixERS8_>
  405274:	aa0003e1 	mov	x1, x0
  405278:	aa1403e0 	mov	x0, x20
  40527c:	94001369 	bl	40a020 <_ZNSt8__detail9_Map_baseIiSt4pairIKiiESaIS3_ENS_10_Select1stESt8equal_toIiESt4hashIiENS_18_Mod_range_hashingENS_20_Default_ranged_hashENS_20_Prime_rehash_policyENS_17_Hashtable_traitsILb0ELb0ELb1EEELb1EE2atERS2_>
  405280:	b9400018 	ldr	w24, [x0]
  405284:	aa1303e1 	mov	x1, x19
  405288:	aa1503e0 	mov	x0, x21
  40528c:	940013c9 	bl	40a1b0 <_ZNSt8__detail9_Map_baseINSt7__cxx1112basic_stringIcSt11char_traitsIcESaIcEEESt4pairIKS6_iESaIS9_ENS_10_Select1stESt8equal_toIS6_ESt4hashIS6_ENS_18_Mod_range_hashingENS_20_Default_ranged_hashENS_20_Prime_rehash_policyENS_17_Hashtable_traitsILb1ELb0ELb1EEELb1EEixERS8_>
  405290:	aa0003e1 	mov	x1, x0
  405294:	aa1403e0 	mov	x0, x20
  405298:	94001362 	bl	40a020 <_ZNSt8__detail9_Map_baseIiSt4pairIKiiESaIS3_ENS_10_Select1stESt8equal_toIiESt4hashIiENS_18_Mod_range_hashingENS_20_Default_ranged_hashENS_20_Prime_rehash_policyENS_17_Hashtable_traitsILb0ELb0ELb1EEELb1EE2atERS2_>
  40529c:	b9400000 	ldr	w0, [x0]
  4052a0:	6b00031f 	cmp	w24, w0
  4052a4:	54fff10d 	b.le	4050c4 <_ZSt16__introsort_loopIN9__gnu_cxx17__normal_iteratorIPNSt7__cxx1112basic_stringIcSt11char_traitsIcESaIcEEESt6vectorIS7_SaIS7_EEEElNS0_5__ops15_Iter_comp_iterIZN7segment5orderEvEUlRKS7_SH_E_EEEvT_SK_T0_T1_+0x348>
  4052a8:	aa1303e1 	mov	x1, x19
  4052ac:	aa1503e0 	mov	x0, x21
  4052b0:	940013c0 	bl	40a1b0 <_ZNSt8__detail9_Map_baseINSt7__cxx1112basic_stringIcSt11char_traitsIcESaIcEEESt4pairIKS6_iESaIS9_ENS_10_Select1stESt8equal_toIS6_ESt4hashIS6_ENS_18_Mod_range_hashingENS_20_Default_ranged_hashENS_20_Prime_rehash_policyENS_17_Hashtable_traitsILb1ELb0ELb1EEELb1EEixERS8_>
  4052b4:	aa0003e1 	mov	x1, x0
  4052b8:	aa1403e0 	mov	x0, x20
  4052bc:	94001359 	bl	40a020 <_ZNSt8__detail9_Map_baseIiSt4pairIKiiESaIS3_ENS_10_Select1stESt8equal_toIiESt4hashIiENS_18_Mod_range_hashingENS_20_Default_ranged_hashENS_20_Prime_rehash_policyENS_17_Hashtable_traitsILb0ELb0ELb1EEELb1EE2atERS2_>
  4052c0:	b9400018 	ldr	w24, [x0]
  4052c4:	aa1603e1 	mov	x1, x22
  4052c8:	aa1503e0 	mov	x0, x21
  4052cc:	940013b9 	bl	40a1b0 <_ZNSt8__detail9_Map_baseINSt7__cxx1112basic_stringIcSt11char_traitsIcESaIcEEESt4pairIKS6_iESaIS9_ENS_10_Select1stESt8equal_toIS6_ESt4hashIS6_ENS_18_Mod_range_hashingENS_20_Default_ranged_hashENS_20_Prime_rehash_policyENS_17_Hashtable_traitsILb1ELb0ELb1EEELb1EEixERS8_>
  4052d0:	aa0003e1 	mov	x1, x0
  4052d4:	aa1403e0 	mov	x0, x20
  4052d8:	94001352 	bl	40a020 <_ZNSt8__detail9_Map_baseIiSt4pairIKiiESaIS3_ENS_10_Select1stESt8equal_toIiESt4hashIiENS_18_Mod_range_hashingENS_20_Default_ranged_hashENS_20_Prime_rehash_policyENS_17_Hashtable_traitsILb0ELb0ELb1EEELb1EE2atERS2_>
  4052dc:	b9400000 	ldr	w0, [x0]
  4052e0:	6b00031f 	cmp	w24, w0
  4052e4:	54ffec0d 	b.le	405064 <_ZSt16__introsort_loopIN9__gnu_cxx17__normal_iteratorIPNSt7__cxx1112basic_stringIcSt11char_traitsIcESaIcEEESt6vectorIS7_SaIS7_EEEElNS0_5__ops15_Iter_comp_iterIZN7segment5orderEvEUlRKS7_SH_E_EEEvT_SK_T0_T1_+0x2e8>
  4052e8:	aa1303e1 	mov	x1, x19
  4052ec:	aa1703e0 	mov	x0, x23
  4052f0:	97fff35c 	bl	402060 <_ZNSt7__cxx1112basic_stringIcSt11char_traitsIcESaIcEE4swapERS4_@plt>
  4052f4:	f94033f9 	ldr	x25, [sp, #96]
  4052f8:	aa1b03f8 	mov	x24, x27
  4052fc:	17ffffa0 	b	40517c <_ZSt16__introsort_loopIN9__gnu_cxx17__normal_iteratorIPNSt7__cxx1112basic_stringIcSt11char_traitsIcESaIcEEESt6vectorIS7_SaIS7_EEEElNS0_5__ops15_Iter_comp_iterIZN7segment5orderEvEUlRKS7_SH_E_EEEvT_SK_T0_T1_+0x400>
  405300:	a94153f3 	ldp	x19, x20, [sp, #16]
  405304:	a9425bf5 	ldp	x21, x22, [sp, #32]
  405308:	a9446bf9 	ldp	x25, x26, [sp, #64]
  40530c:	a94573fb 	ldp	x27, x28, [sp, #80]
  405310:	17ffff4b 	b	40503c <_ZSt16__introsort_loopIN9__gnu_cxx17__normal_iteratorIPNSt7__cxx1112basic_stringIcSt11char_traitsIcESaIcEEESt6vectorIS7_SaIS7_EEEElNS0_5__ops15_Iter_comp_iterIZN7segment5orderEvEUlRKS7_SH_E_EEEvT_SK_T0_T1_+0x2c0>
  405314:	aa0103fa 	mov	x26, x1
  405318:	cb170358 	sub	x24, x26, x23
  40531c:	9345ff18 	asr	x24, x24, #5
  405320:	d1000b00 	sub	x0, x24, #0x2
  405324:	8b40fc00 	add	x0, x0, x0, lsr #63
  405328:	9341fc14 	asr	x20, x0, #1
  40532c:	8b1416f3 	add	x19, x23, x20, lsl #5
  405330:	91004273 	add	x19, x19, #0x10
  405334:	910203f5 	add	x21, sp, #0x80
  405338:	910283f6 	add	x22, sp, #0xa0
  40533c:	17fffeb9 	b	404e20 <_ZSt16__introsort_loopIN9__gnu_cxx17__normal_iteratorIPNSt7__cxx1112basic_stringIcSt11char_traitsIcESaIcEEESt6vectorIS7_SaIS7_EEEElNS0_5__ops15_Iter_comp_iterIZN7segment5orderEvEUlRKS7_SH_E_EEEvT_SK_T0_T1_+0xa4>

0000000000405340 <_ZN7segment5orderEv>:
  405340:	a9b87bfd 	stp	x29, x30, [sp, #-128]!
  405344:	910003fd 	mov	x29, sp
  405348:	a90153f3 	stp	x19, x20, [sp, #16]
  40534c:	a9025bf5 	stp	x21, x22, [sp, #32]
  405350:	a90363f7 	stp	x23, x24, [sp, #48]
  405354:	f90023f9 	str	x25, [sp, #64]
  405358:	aa0003f3 	mov	x19, x0
  40535c:	f9402814 	ldr	x20, [x0, #80]
  405360:	b4000534 	cbz	x20, 405404 <_ZN7segment5orderEv+0xc4>
  405364:	9101a3f6 	add	x22, sp, #0x68
  405368:	1400000c 	b	405398 <_ZN7segment5orderEv+0x58>
  40536c:	f9400a60 	ldr	x0, [x19, #16]
  405370:	91008000 	add	x0, x0, #0x20
  405374:	f9000a60 	str	x0, [x19, #16]
  405378:	f9402fe0 	ldr	x0, [sp, #88]
  40537c:	eb16001f 	cmp	x0, x22
  405380:	54000080 	b.eq	405390 <_ZN7segment5orderEv+0x50>  // b.none
  405384:	f94037e1 	ldr	x1, [sp, #104]
  405388:	91000421 	add	x1, x1, #0x1
  40538c:	97fff34d 	bl	4020c0 <_ZdlPvm@plt>
  405390:	f9400294 	ldr	x20, [x20]
  405394:	b4000394 	cbz	x20, 405404 <_ZN7segment5orderEv+0xc4>
  405398:	f9002ff6 	str	x22, [sp, #88]
  40539c:	91002295 	add	x21, x20, #0x8
  4053a0:	f9400681 	ldr	x1, [x20, #8]
  4053a4:	f94006a2 	ldr	x2, [x21, #8]
  4053a8:	52800003 	mov	w3, #0x0                   	// #0
  4053ac:	8b020022 	add	x2, x1, x2
  4053b0:	910163e0 	add	x0, sp, #0x58
  4053b4:	94001228 	bl	409c54 <_ZNSt7__cxx1112basic_stringIcSt11char_traitsIcESaIcEE12_M_constructIPcEEvT_S7_St20forward_iterator_tag>
  4053b8:	b94022a0 	ldr	w0, [x21, #32]
  4053bc:	b9007be0 	str	w0, [sp, #120]
  4053c0:	f9400a60 	ldr	x0, [x19, #16]
  4053c4:	f9400e61 	ldr	x1, [x19, #24]
  4053c8:	eb01001f 	cmp	x0, x1
  4053cc:	54000120 	b.eq	4053f0 <_ZN7segment5orderEv+0xb0>  // b.none
  4053d0:	91004001 	add	x1, x0, #0x10
  4053d4:	f9000001 	str	x1, [x0]
  4053d8:	f9402fe1 	ldr	x1, [sp, #88]
  4053dc:	52800003 	mov	w3, #0x0                   	// #0
  4053e0:	f94033e2 	ldr	x2, [sp, #96]
  4053e4:	8b020022 	add	x2, x1, x2
  4053e8:	9400121b 	bl	409c54 <_ZNSt7__cxx1112basic_stringIcSt11char_traitsIcESaIcEE12_M_constructIPcEEvT_S7_St20forward_iterator_tag>
  4053ec:	17ffffe0 	b	40536c <_ZN7segment5orderEv+0x2c>
  4053f0:	910163e2 	add	x2, sp, #0x58
  4053f4:	aa0003e1 	mov	x1, x0
  4053f8:	91002260 	add	x0, x19, #0x8
  4053fc:	9400123f 	bl	409cf8 <_ZNSt6vectorINSt7__cxx1112basic_stringIcSt11char_traitsIcESaIcEEESaIS5_EE17_M_realloc_insertIJRS5_EEEvN9__gnu_cxx17__normal_iteratorIPS5_S7_EEDpOT_>
  405400:	17ffffde 	b	405378 <_ZN7segment5orderEv+0x38>
  405404:	f9400676 	ldr	x22, [x19, #8]
  405408:	f9400a75 	ldr	x21, [x19, #16]
  40540c:	eb1602bf 	cmp	x21, x22
  405410:	54000e00 	b.eq	4055d0 <_ZN7segment5orderEv+0x290>  // b.none
  405414:	cb1602b4 	sub	x20, x21, x22
  405418:	9345fe80 	asr	x0, x20, #5
  40541c:	dac01000 	clz	x0, x0
  405420:	528007e2 	mov	w2, #0x3f                  	// #63
  405424:	4b000042 	sub	w2, w2, w0
  405428:	aa1303e3 	mov	x3, x19
  40542c:	937f7c42 	sbfiz	x2, x2, #1, #32
  405430:	aa1503e1 	mov	x1, x21
  405434:	aa1603e0 	mov	x0, x22
  405438:	97fffe51 	bl	404d7c <_ZSt16__introsort_loopIN9__gnu_cxx17__normal_iteratorIPNSt7__cxx1112basic_stringIcSt11char_traitsIcESaIcEEESt6vectorIS7_SaIS7_EEEElNS0_5__ops15_Iter_comp_iterIZN7segment5orderEvEUlRKS7_SH_E_EEEvT_SK_T0_T1_>
  40543c:	f108029f 	cmp	x20, #0x200
  405440:	540001ed 	b.le	40547c <_ZN7segment5orderEv+0x13c>
  405444:	910802d4 	add	x20, x22, #0x200
  405448:	aa1303e2 	mov	x2, x19
  40544c:	aa1403e1 	mov	x1, x20
  405450:	aa1603e0 	mov	x0, x22
  405454:	97fffda0 	bl	404ad4 <_ZSt16__insertion_sortIN9__gnu_cxx17__normal_iteratorIPNSt7__cxx1112basic_stringIcSt11char_traitsIcESaIcEEESt6vectorIS7_SaIS7_EEEENS0_5__ops15_Iter_comp_iterIZN7segment5orderEvEUlRKS7_SH_E_EEEvT_SK_T0_>
  405458:	eb1402bf 	cmp	x21, x20
  40545c:	54000180 	b.eq	40548c <_ZN7segment5orderEv+0x14c>  // b.none
  405460:	aa1303e1 	mov	x1, x19
  405464:	aa1403e0 	mov	x0, x20
  405468:	97fffbd4 	bl	4043b8 <_ZSt25__unguarded_linear_insertIN9__gnu_cxx17__normal_iteratorIPNSt7__cxx1112basic_stringIcSt11char_traitsIcESaIcEEESt6vectorIS7_SaIS7_EEEENS0_5__ops14_Val_comp_iterIZN7segment5orderEvEUlRKS7_SH_E_EEEvT_T0_>
  40546c:	91008294 	add	x20, x20, #0x20
  405470:	eb1402bf 	cmp	x21, x20
  405474:	54ffff61 	b.ne	405460 <_ZN7segment5orderEv+0x120>  // b.any
  405478:	14000005 	b	40548c <_ZN7segment5orderEv+0x14c>
  40547c:	aa1303e2 	mov	x2, x19
  405480:	aa1503e1 	mov	x1, x21
  405484:	aa1603e0 	mov	x0, x22
  405488:	97fffd93 	bl	404ad4 <_ZSt16__insertion_sortIN9__gnu_cxx17__normal_iteratorIPNSt7__cxx1112basic_stringIcSt11char_traitsIcESaIcEEESt6vectorIS7_SaIS7_EEEENS0_5__ops15_Iter_comp_iterIZN7segment5orderEvEUlRKS7_SH_E_EEEvT_SK_T0_>
  40548c:	f9400674 	ldr	x20, [x19, #8]
  405490:	f9400a78 	ldr	x24, [x19, #16]
  405494:	eb14031f 	cmp	x24, x20
  405498:	540009c0 	b.eq	4055d0 <_ZN7segment5orderEv+0x290>  // b.none
  40549c:	91008277 	add	x23, x19, #0x20
  4054a0:	91010275 	add	x21, x19, #0x40
  4054a4:	9101e276 	add	x22, x19, #0x78
  4054a8:	aa1403e1 	mov	x1, x20
  4054ac:	aa1503e0 	mov	x0, x21
  4054b0:	94001340 	bl	40a1b0 <_ZNSt8__detail9_Map_baseINSt7__cxx1112basic_stringIcSt11char_traitsIcESaIcEEESt4pairIKS6_iESaIS9_ENS_10_Select1stESt8equal_toIS6_ESt4hashIS6_ENS_18_Mod_range_hashingENS_20_Default_ranged_hashENS_20_Prime_rehash_policyENS_17_Hashtable_traitsILb1ELb0ELb1EEELb1EEixERS8_>
  4054b4:	aa0003e1 	mov	x1, x0
  4054b8:	aa1603e0 	mov	x0, x22
  4054bc:	940012d9 	bl	40a020 <_ZNSt8__detail9_Map_baseIiSt4pairIKiiESaIS3_ENS_10_Select1stESt8equal_toIiESt4hashIiENS_18_Mod_range_hashingENS_20_Default_ranged_hashENS_20_Prime_rehash_policyENS_17_Hashtable_traitsILb0ELb0ELb1EEELb1EE2atERS2_>
  4054c0:	aa0003e1 	mov	x1, x0
  4054c4:	aa1703e0 	mov	x0, x23
  4054c8:	940010c5 	bl	4097dc <_ZNSt6vectorIiSaIiEE12emplace_backIJRiEEEvDpOT_>
  4054cc:	aa1403e1 	mov	x1, x20
  4054d0:	aa1503e0 	mov	x0, x21
  4054d4:	94001337 	bl	40a1b0 <_ZNSt8__detail9_Map_baseINSt7__cxx1112basic_stringIcSt11char_traitsIcESaIcEEESt4pairIKS6_iESaIS9_ENS_10_Select1stESt8equal_toIS6_ESt4hashIS6_ENS_18_Mod_range_hashingENS_20_Default_ranged_hashENS_20_Prime_rehash_policyENS_17_Hashtable_traitsILb1ELb0ELb1EEELb1EEixERS8_>
  4054d8:	aa0003e1 	mov	x1, x0
  4054dc:	aa1603e0 	mov	x0, x22
  4054e0:	940012d0 	bl	40a020 <_ZNSt8__detail9_Map_baseIiSt4pairIKiiESaIS3_ENS_10_Select1stESt8equal_toIiESt4hashIiENS_18_Mod_range_hashingENS_20_Default_ranged_hashENS_20_Prime_rehash_policyENS_17_Hashtable_traitsILb0ELb0ELb1EEELb1EE2atERS2_>
  4054e4:	b9403a61 	ldr	w1, [x19, #56]
  4054e8:	b9400000 	ldr	w0, [x0]
  4054ec:	0b000021 	add	w1, w1, w0
  4054f0:	b9003a61 	str	w1, [x19, #56]
  4054f4:	91008294 	add	x20, x20, #0x20
  4054f8:	eb14031f 	cmp	x24, x20
  4054fc:	54fffd61 	b.ne	4054a8 <_ZN7segment5orderEv+0x168>  // b.any
  405500:	f9400674 	ldr	x20, [x19, #8]
  405504:	f9400a79 	ldr	x25, [x19, #16]
  405508:	eb14033f 	cmp	x25, x20
  40550c:	54000620 	b.eq	4055d0 <_ZN7segment5orderEv+0x290>  // b.none
  405510:	9101a3f8 	add	x24, sp, #0x68
  405514:	1400001a 	b	40557c <_ZN7segment5orderEv+0x23c>
  405518:	aa0003e1 	mov	x1, x0
  40551c:	aa1603e0 	mov	x0, x22
  405520:	940012c0 	bl	40a020 <_ZNSt8__detail9_Map_baseIiSt4pairIKiiESaIS3_ENS_10_Select1stESt8equal_toIiESt4hashIiENS_18_Mod_range_hashingENS_20_Default_ranged_hashENS_20_Prime_rehash_policyENS_17_Hashtable_traitsILb0ELb0ELb1EEELb1EE2atERS2_>
  405524:	aa0003e1 	mov	x1, x0
  405528:	aa1703e0 	mov	x0, x23
  40552c:	940010ac 	bl	4097dc <_ZNSt6vectorIiSaIiEE12emplace_backIJRiEEEvDpOT_>
  405530:	910163e1 	add	x1, sp, #0x58
  405534:	aa1503e0 	mov	x0, x21
  405538:	9400131e 	bl	40a1b0 <_ZNSt8__detail9_Map_baseINSt7__cxx1112basic_stringIcSt11char_traitsIcESaIcEEESt4pairIKS6_iESaIS9_ENS_10_Select1stESt8equal_toIS6_ESt4hashIS6_ENS_18_Mod_range_hashingENS_20_Default_ranged_hashENS_20_Prime_rehash_policyENS_17_Hashtable_traitsILb1ELb0ELb1EEELb1EEixERS8_>
  40553c:	aa0003e1 	mov	x1, x0
  405540:	aa1603e0 	mov	x0, x22
  405544:	940012b7 	bl	40a020 <_ZNSt8__detail9_Map_baseIiSt4pairIKiiESaIS3_ENS_10_Select1stESt8equal_toIiESt4hashIiENS_18_Mod_range_hashingENS_20_Default_ranged_hashENS_20_Prime_rehash_policyENS_17_Hashtable_traitsILb0ELb0ELb1EEELb1EE2atERS2_>
  405548:	b9403a61 	ldr	w1, [x19, #56]
  40554c:	b9400000 	ldr	w0, [x0]
  405550:	0b000021 	add	w1, w1, w0
  405554:	b9003a61 	str	w1, [x19, #56]
  405558:	f9402fe0 	ldr	x0, [sp, #88]
  40555c:	eb18001f 	cmp	x0, x24
  405560:	54000080 	b.eq	405570 <_ZN7segment5orderEv+0x230>  // b.none
  405564:	f94037e1 	ldr	x1, [sp, #104]
  405568:	91000421 	add	x1, x1, #0x1
  40556c:	97fff2d5 	bl	4020c0 <_ZdlPvm@plt>
  405570:	91008294 	add	x20, x20, #0x20
  405574:	eb14033f 	cmp	x25, x20
  405578:	540002c0 	b.eq	4055d0 <_ZN7segment5orderEv+0x290>  // b.none
  40557c:	f9002ff8 	str	x24, [sp, #88]
  405580:	f9400281 	ldr	x1, [x20]
  405584:	f9400682 	ldr	x2, [x20, #8]
  405588:	52800003 	mov	w3, #0x0                   	// #0
  40558c:	8b020022 	add	x2, x1, x2
  405590:	910163e0 	add	x0, sp, #0x58
  405594:	940011b0 	bl	409c54 <_ZNSt7__cxx1112basic_stringIcSt11char_traitsIcESaIcEE12_M_constructIPcEEvT_S7_St20forward_iterator_tag>
  405598:	910163e1 	add	x1, sp, #0x58
  40559c:	aa1503e0 	mov	x0, x21
  4055a0:	94001304 	bl	40a1b0 <_ZNSt8__detail9_Map_baseINSt7__cxx1112basic_stringIcSt11char_traitsIcESaIcEEESt4pairIKS6_iESaIS9_ENS_10_Select1stESt8equal_toIS6_ESt4hashIS6_ENS_18_Mod_range_hashingENS_20_Default_ranged_hashENS_20_Prime_rehash_policyENS_17_Hashtable_traitsILb1ELb0ELb1EEELb1EEixERS8_>
  4055a4:	17ffffdd 	b	405518 <_ZN7segment5orderEv+0x1d8>
  4055a8:	aa0003f3 	mov	x19, x0
  4055ac:	910163e0 	add	x0, sp, #0x58
  4055b0:	97fff2d8 	bl	402110 <_ZNSt7__cxx1112basic_stringIcSt11char_traitsIcESaIcEE10_M_disposeEv@plt>
  4055b4:	aa1303e0 	mov	x0, x19
  4055b8:	97fff32a 	bl	402260 <_Unwind_Resume@plt>
  4055bc:	aa0003f3 	mov	x19, x0
  4055c0:	910163e0 	add	x0, sp, #0x58
  4055c4:	97fff2d3 	bl	402110 <_ZNSt7__cxx1112basic_stringIcSt11char_traitsIcESaIcEE10_M_disposeEv@plt>
  4055c8:	aa1303e0 	mov	x0, x19
  4055cc:	97fff325 	bl	402260 <_Unwind_Resume@plt>
  4055d0:	a94153f3 	ldp	x19, x20, [sp, #16]
  4055d4:	a9425bf5 	ldp	x21, x22, [sp, #32]
  4055d8:	a94363f7 	ldp	x23, x24, [sp, #48]
  4055dc:	f94023f9 	ldr	x25, [sp, #64]
  4055e0:	a8c87bfd 	ldp	x29, x30, [sp], #128
  4055e4:	d65f03c0 	ret

00000000004055e8 <_ZN2PT7PrintPTEv>:
  4055e8:	a9b17bfd 	stp	x29, x30, [sp, #-240]!
  4055ec:	910003fd 	mov	x29, sp
  4055f0:	a9025bf5 	stp	x21, x22, [sp, #32]
  4055f4:	f9400015 	ldr	x21, [x0]
  4055f8:	f9400416 	ldr	x22, [x0, #8]
  4055fc:	eb1602bf 	cmp	x21, x22
  405600:	540005e0 	b.eq	4056bc <_ZN2PT7PrintPTEv+0xd4>  // b.none
  405604:	a90153f3 	stp	x19, x20, [sp, #16]
  405608:	a90363f7 	stp	x23, x24, [sp, #48]
  40560c:	910103e0 	add	x0, sp, #0x40
  405610:	9102e3f8 	add	x24, sp, #0xb8
  405614:	91010017 	add	x23, x0, #0x40
  405618:	14000016 	b	405670 <_ZN2PT7PrintPTEv+0x88>
  40561c:	aa1803e0 	mov	x0, x24
  405620:	97fff897 	bl	40387c <_ZNSt10_HashtableIiSt4pairIKiiESaIS2_ENSt8__detail10_Select1stESt8equal_toIiESt4hashIiENS4_18_Mod_range_hashingENS4_20_Default_ranged_hashENS4_20_Prime_rehash_policyENS4_17_Hashtable_traitsILb0ELb0ELb1EEEED1Ev>
  405624:	aa1703e0 	mov	x0, x23
  405628:	97fff86c 	bl	4037d8 <_ZNSt10_HashtableINSt7__cxx1112basic_stringIcSt11char_traitsIcESaIcEEESt4pairIKS5_iESaIS8_ENSt8__detail10_Select1stESt8equal_toIS5_ESt4hashIS5_ENSA_18_Mod_range_hashingENSA_20_Default_ranged_hashENSA_20_Prime_rehash_policyENSA_17_Hashtable_traitsILb1ELb0ELb1EEEED1Ev>
  40562c:	f94033e0 	ldr	x0, [sp, #96]
  405630:	b4000080 	cbz	x0, 405640 <_ZN2PT7PrintPTEv+0x58>
  405634:	f9403be1 	ldr	x1, [sp, #112]
  405638:	cb000021 	sub	x1, x1, x0
  40563c:	97fff2a1 	bl	4020c0 <_ZdlPvm@plt>
  405640:	f94027f3 	ldr	x19, [sp, #72]
  405644:	f9402bf4 	ldr	x20, [sp, #80]
  405648:	eb14027f 	cmp	x19, x20
  40564c:	54000241 	b.ne	405694 <_ZN2PT7PrintPTEv+0xac>  // b.any
  405650:	f94027e0 	ldr	x0, [sp, #72]
  405654:	b4000080 	cbz	x0, 405664 <_ZN2PT7PrintPTEv+0x7c>
  405658:	f9402fe1 	ldr	x1, [sp, #88]
  40565c:	cb000021 	sub	x1, x1, x0
  405660:	97fff298 	bl	4020c0 <_ZdlPvm@plt>
  405664:	9102c2b5 	add	x21, x21, #0xb0
  405668:	eb1502df 	cmp	x22, x21
  40566c:	54000240 	b.eq	4056b4 <_ZN2PT7PrintPTEv+0xcc>  // b.none
  405670:	aa1503e1 	mov	x1, x21
  405674:	910103e0 	add	x0, sp, #0x40
  405678:	94001403 	bl	40a684 <_ZN7segmentC1ERKS_>
  40567c:	910103e0 	add	x0, sp, #0x40
  405680:	97fffb1d 	bl	4042f4 <_ZN7segment8PrintSegEv>
  405684:	17ffffe6 	b	40561c <_ZN2PT7PrintPTEv+0x34>
  405688:	91008273 	add	x19, x19, #0x20
  40568c:	eb13029f 	cmp	x20, x19
  405690:	54fffe00 	b.eq	405650 <_ZN2PT7PrintPTEv+0x68>  // b.none
  405694:	aa1303e1 	mov	x1, x19
  405698:	f8410420 	ldr	x0, [x1], #16
  40569c:	eb01001f 	cmp	x0, x1
  4056a0:	54ffff40 	b.eq	405688 <_ZN2PT7PrintPTEv+0xa0>  // b.none
  4056a4:	f9400a61 	ldr	x1, [x19, #16]
  4056a8:	91000421 	add	x1, x1, #0x1
  4056ac:	97fff285 	bl	4020c0 <_ZdlPvm@plt>
  4056b0:	17fffff6 	b	405688 <_ZN2PT7PrintPTEv+0xa0>
  4056b4:	a94153f3 	ldp	x19, x20, [sp, #16]
  4056b8:	a94363f7 	ldp	x23, x24, [sp, #48]
  4056bc:	a9425bf5 	ldp	x21, x22, [sp, #32]
  4056c0:	a8cf7bfd 	ldp	x29, x30, [sp], #240
  4056c4:	d65f03c0 	ret
  4056c8:	aa0003f3 	mov	x19, x0
  4056cc:	910103e0 	add	x0, sp, #0x40
  4056d0:	940010c7 	bl	4099ec <_ZN7segmentD1Ev>
  4056d4:	aa1303e0 	mov	x0, x19
  4056d8:	97fff2e2 	bl	402260 <_Unwind_Resume@plt>

00000000004056dc <_ZN7segment6insertENSt7__cxx1112basic_stringIcSt11char_traitsIcESaIcEEE>:
  4056dc:	a9bd7bfd 	stp	x29, x30, [sp, #-48]!
  4056e0:	910003fd 	mov	x29, sp
  4056e4:	a90153f3 	stp	x19, x20, [sp, #16]
  4056e8:	a9025bf5 	stp	x21, x22, [sp, #32]
  4056ec:	aa0003f5 	mov	x21, x0
  4056f0:	aa0103f3 	mov	x19, x1
  4056f4:	91010014 	add	x20, x0, #0x40
  4056f8:	d28d20e2 	mov	x2, #0x6907                	// #26887
  4056fc:	f2b8e1e2 	movk	x2, #0xc70f, lsl #16
  405700:	f9400421 	ldr	x1, [x1, #8]
  405704:	f9400260 	ldr	x0, [x19]
  405708:	97fff20a 	bl	401f30 <_ZSt11_Hash_bytesPKvmm@plt>
  40570c:	aa0003e3 	mov	x3, x0
  405710:	f9400681 	ldr	x1, [x20, #8]
  405714:	9ac10804 	udiv	x4, x0, x1
  405718:	aa1303e2 	mov	x2, x19
  40571c:	9b018081 	msub	x1, x4, x1, x0
  405720:	aa1403e0 	mov	x0, x20
  405724:	940011f5 	bl	409ef8 <_ZNKSt10_HashtableINSt7__cxx1112basic_stringIcSt11char_traitsIcESaIcEEESt4pairIKS5_iESaIS8_ENSt8__detail10_Select1stESt8equal_toIS5_ESt4hashIS5_ENSA_18_Mod_range_hashingENSA_20_Default_ranged_hashENSA_20_Prime_rehash_policyENSA_17_Hashtable_traitsILb1ELb0ELb1EEEE19_M_find_before_nodeEmRS7_m>
  405728:	b4000200 	cbz	x0, 405768 <_ZN7segment6insertENSt7__cxx1112basic_stringIcSt11char_traitsIcESaIcEEE+0x8c>
  40572c:	f9400000 	ldr	x0, [x0]
  405730:	b40001c0 	cbz	x0, 405768 <_ZN7segment6insertENSt7__cxx1112basic_stringIcSt11char_traitsIcESaIcEEE+0x8c>
  405734:	aa1303e1 	mov	x1, x19
  405738:	aa1403e0 	mov	x0, x20
  40573c:	9400129d 	bl	40a1b0 <_ZNSt8__detail9_Map_baseINSt7__cxx1112basic_stringIcSt11char_traitsIcESaIcEEESt4pairIKS6_iESaIS9_ENS_10_Select1stESt8equal_toIS6_ESt4hashIS6_ENS_18_Mod_range_hashingENS_20_Default_ranged_hashENS_20_Prime_rehash_policyENS_17_Hashtable_traitsILb1ELb0ELb1EEELb1EEixERS8_>
  405740:	aa0003e1 	mov	x1, x0
  405744:	9101e2a0 	add	x0, x21, #0x78
  405748:	94001683 	bl	40b154 <_ZNSt8__detail9_Map_baseIiSt4pairIKiiESaIS3_ENS_10_Select1stESt8equal_toIiESt4hashIiENS_18_Mod_range_hashingENS_20_Default_ranged_hashENS_20_Prime_rehash_policyENS_17_Hashtable_traitsILb0ELb0ELb1EEELb1EEixERS2_>
  40574c:	b9400001 	ldr	w1, [x0]
  405750:	11000421 	add	w1, w1, #0x1
  405754:	b9000001 	str	w1, [x0]
  405758:	a94153f3 	ldp	x19, x20, [sp, #16]
  40575c:	a9425bf5 	ldp	x21, x22, [sp, #32]
  405760:	a8c37bfd 	ldp	x29, x30, [sp], #48
  405764:	d65f03c0 	ret
  405768:	f9402eb6 	ldr	x22, [x21, #88]
  40576c:	aa1303e1 	mov	x1, x19
  405770:	aa1403e0 	mov	x0, x20
  405774:	9400128f 	bl	40a1b0 <_ZNSt8__detail9_Map_baseINSt7__cxx1112basic_stringIcSt11char_traitsIcESaIcEEESt4pairIKS6_iESaIS9_ENS_10_Select1stESt8equal_toIS6_ESt4hashIS6_ENS_18_Mod_range_hashingENS_20_Default_ranged_hashENS_20_Prime_rehash_policyENS_17_Hashtable_traitsILb1ELb0ELb1EEELb1EEixERS8_>
  405778:	b9000016 	str	w22, [x0]
  40577c:	aa1303e1 	mov	x1, x19
  405780:	aa1403e0 	mov	x0, x20
  405784:	9400128b 	bl	40a1b0 <_ZNSt8__detail9_Map_baseINSt7__cxx1112basic_stringIcSt11char_traitsIcESaIcEEESt4pairIKS6_iESaIS9_ENS_10_Select1stESt8equal_toIS6_ESt4hashIS6_ENS_18_Mod_range_hashingENS_20_Default_ranged_hashENS_20_Prime_rehash_policyENS_17_Hashtable_traitsILb1ELb0ELb1EEELb1EEixERS8_>
  405788:	aa0003e1 	mov	x1, x0
  40578c:	9101e2a0 	add	x0, x21, #0x78
  405790:	94001671 	bl	40b154 <_ZNSt8__detail9_Map_baseIiSt4pairIKiiESaIS3_ENS_10_Select1stESt8equal_toIiESt4hashIiENS_18_Mod_range_hashingENS_20_Default_ranged_hashENS_20_Prime_rehash_policyENS_17_Hashtable_traitsILb0ELb0ELb1EEELb1EEixERS2_>
  405794:	52800021 	mov	w1, #0x1                   	// #1
  405798:	b9000001 	str	w1, [x0]
  40579c:	17ffffef 	b	405758 <_ZN7segment6insertENSt7__cxx1112basic_stringIcSt11char_traitsIcESaIcEEE+0x7c>

00000000004057a0 <_ZN7segment11PrintValuesEv>:
  4057a0:	a9b97bfd 	stp	x29, x30, [sp, #-112]!
  4057a4:	910003fd 	mov	x29, sp
  4057a8:	a90153f3 	stp	x19, x20, [sp, #16]
  4057ac:	a9046bf9 	stp	x25, x26, [sp, #64]
  4057b0:	f9400414 	ldr	x20, [x0, #8]
  4057b4:	f940081a 	ldr	x26, [x0, #16]
  4057b8:	eb1a029f 	cmp	x20, x26
  4057bc:	54000940 	b.eq	4058e4 <_ZN7segment11PrintValuesEv+0x144>  // b.none
  4057c0:	a9025bf5 	stp	x21, x22, [sp, #32]
  4057c4:	a90363f7 	stp	x23, x24, [sp, #48]
  4057c8:	aa0003f6 	mov	x22, x0
  4057cc:	910183f7 	add	x23, sp, #0x60
  4057d0:	f0000158 	adrp	x24, 430000 <_Znam@GLIBCXX_3.4>
  4057d4:	91084318 	add	x24, x24, #0x210
  4057d8:	b0000079 	adrp	x25, 412000 <_Z19MD5Hash_simdversionPKNSt7__cxx1112basic_stringIcSt11char_traitsIcESaIcEEEP12__Uint32x4_t+0x1480>
  4057dc:	91294339 	add	x25, x25, #0xa50
  4057e0:	14000033 	b	4058ac <_ZN7segment11PrintValuesEv+0x10c>
  4057e4:	aa0003f3 	mov	x19, x0
  4057e8:	d28000c2 	mov	x2, #0x6                   	// #6
  4057ec:	aa1903e1 	mov	x1, x25
  4057f0:	97fff240 	bl	4020f0 <_ZSt16__ostream_insertIcSt11char_traitsIcEERSt13basic_ostreamIT_T0_ES6_PKS3_l@plt>
  4057f4:	910143e1 	add	x1, sp, #0x50
  4057f8:	910102c0 	add	x0, x22, #0x40
  4057fc:	9400126d 	bl	40a1b0 <_ZNSt8__detail9_Map_baseINSt7__cxx1112basic_stringIcSt11char_traitsIcESaIcEEESt4pairIKS6_iESaIS9_ENS_10_Select1stESt8equal_toIS6_ESt4hashIS6_ENS_18_Mod_range_hashingENS_20_Default_ranged_hashENS_20_Prime_rehash_policyENS_17_Hashtable_traitsILb1ELb0ELb1EEELb1EEixERS8_>
  405800:	aa0003e1 	mov	x1, x0
  405804:	9101e2c0 	add	x0, x22, #0x78
  405808:	94001653 	bl	40b154 <_ZNSt8__detail9_Map_baseIiSt4pairIKiiESaIS3_ENS_10_Select1stESt8equal_toIiESt4hashIiENS_18_Mod_range_hashingENS_20_Default_ranged_hashENS_20_Prime_rehash_policyENS_17_Hashtable_traitsILb0ELb0ELb1EEELb1EEixERS2_>
  40580c:	b9400001 	ldr	w1, [x0]
  405810:	aa1303e0 	mov	x0, x19
  405814:	97fff28f 	bl	402250 <_ZNSolsEi@plt>
  405818:	aa0003f3 	mov	x19, x0
  40581c:	f9400000 	ldr	x0, [x0]
  405820:	f85e8001 	ldur	x1, [x0, #-24]
  405824:	8b010261 	add	x1, x19, x1
  405828:	f9407835 	ldr	x21, [x1, #240]
  40582c:	b40000f5 	cbz	x21, 405848 <_ZN7segment11PrintValuesEv+0xa8>
  405830:	3940e2a0 	ldrb	w0, [x21, #56]
  405834:	34000160 	cbz	w0, 405860 <_ZN7segment11PrintValuesEv+0xc0>
  405838:	39410ea1 	ldrb	w1, [x21, #67]
  40583c:	aa1303e0 	mov	x0, x19
  405840:	97fff1b0 	bl	401f00 <_ZNSo3putEc@plt>
  405844:	14000010 	b	405884 <_ZN7segment11PrintValuesEv+0xe4>
  405848:	97fff23a 	bl	402130 <_ZSt16__throw_bad_castv@plt>
  40584c:	aa0003f3 	mov	x19, x0
  405850:	910143e0 	add	x0, sp, #0x50
  405854:	97fff22f 	bl	402110 <_ZNSt7__cxx1112basic_stringIcSt11char_traitsIcESaIcEE10_M_disposeEv@plt>
  405858:	aa1303e0 	mov	x0, x19
  40585c:	97fff281 	bl	402260 <_Unwind_Resume@plt>
  405860:	aa1503e0 	mov	x0, x21
  405864:	97fff227 	bl	402100 <_ZNKSt5ctypeIcE13_M_widen_initEv@plt>
  405868:	f94002a0 	ldr	x0, [x21]
  40586c:	f9401802 	ldr	x2, [x0, #48]
  405870:	52800141 	mov	w1, #0xa                   	// #10
  405874:	aa1503e0 	mov	x0, x21
  405878:	d63f0040 	blr	x2
  40587c:	12001c01 	and	w1, w0, #0xff
  405880:	17ffffef 	b	40583c <_ZN7segment11PrintValuesEv+0x9c>
  405884:	97fff1ef 	bl	402040 <_ZNSo5flushEv@plt>
  405888:	f9402be0 	ldr	x0, [sp, #80]
  40588c:	eb17001f 	cmp	x0, x23
  405890:	54000080 	b.eq	4058a0 <_ZN7segment11PrintValuesEv+0x100>  // b.none
  405894:	f94033e1 	ldr	x1, [sp, #96]
  405898:	91000421 	add	x1, x1, #0x1
  40589c:	97fff209 	bl	4020c0 <_ZdlPvm@plt>
  4058a0:	91008294 	add	x20, x20, #0x20
  4058a4:	eb14035f 	cmp	x26, x20
  4058a8:	540001a0 	b.eq	4058dc <_ZN7segment11PrintValuesEv+0x13c>  // b.none
  4058ac:	f9002bf7 	str	x23, [sp, #80]
  4058b0:	f9400281 	ldr	x1, [x20]
  4058b4:	f9400682 	ldr	x2, [x20, #8]
  4058b8:	52800003 	mov	w3, #0x0                   	// #0
  4058bc:	8b020022 	add	x2, x1, x2
  4058c0:	910143e0 	add	x0, sp, #0x50
  4058c4:	940010e4 	bl	409c54 <_ZNSt7__cxx1112basic_stringIcSt11char_traitsIcESaIcEE12_M_constructIPcEEvT_S7_St20forward_iterator_tag>
  4058c8:	f9402fe2 	ldr	x2, [sp, #88]
  4058cc:	f9402be1 	ldr	x1, [sp, #80]
  4058d0:	aa1803e0 	mov	x0, x24
  4058d4:	97fff207 	bl	4020f0 <_ZSt16__ostream_insertIcSt11char_traitsIcEERSt13basic_ostreamIT_T0_ES6_PKS3_l@plt>
  4058d8:	17ffffc3 	b	4057e4 <_ZN7segment11PrintValuesEv+0x44>
  4058dc:	a9425bf5 	ldp	x21, x22, [sp, #32]
  4058e0:	a94363f7 	ldp	x23, x24, [sp, #48]
  4058e4:	a94153f3 	ldp	x19, x20, [sp, #16]
  4058e8:	a9446bf9 	ldp	x25, x26, [sp, #64]
  4058ec:	a8c77bfd 	ldp	x29, x30, [sp], #112
  4058f0:	d65f03c0 	ret

00000000004058f4 <_ZN5model5printEv>:
  4058f4:	a9ae7bfd 	stp	x29, x30, [sp, #-288]!
  4058f8:	910003fd 	mov	x29, sp
  4058fc:	a90153f3 	stp	x19, x20, [sp, #16]
  405900:	a9025bf5 	stp	x21, x22, [sp, #32]
  405904:	aa0003f5 	mov	x21, x0
  405908:	f0000154 	adrp	x20, 430000 <_Znam@GLIBCXX_3.4>
  40590c:	91084293 	add	x19, x20, #0x210
  405910:	d28001a2 	mov	x2, #0xd                   	// #13
  405914:	b0000061 	adrp	x1, 412000 <_Z19MD5Hash_simdversionPKNSt7__cxx1112basic_stringIcSt11char_traitsIcESaIcEEEP12__Uint32x4_t+0x1480>
  405918:	91296021 	add	x1, x1, #0xa58
  40591c:	aa1303e0 	mov	x0, x19
  405920:	97fff1f4 	bl	4020f0 <_ZSt16__ostream_insertIcSt11char_traitsIcEERSt13basic_ostreamIT_T0_ES6_PKS3_l@plt>
  405924:	f9410a80 	ldr	x0, [x20, #528]
  405928:	f85e8000 	ldur	x0, [x0, #-24]
  40592c:	8b130000 	add	x0, x0, x19
  405930:	f9407813 	ldr	x19, [x0, #240]
  405934:	b4000333 	cbz	x19, 405998 <_ZN5model5printEv+0xa4>
  405938:	a90363f7 	stp	x23, x24, [sp, #48]
  40593c:	3940e260 	ldrb	w0, [x19, #56]
  405940:	34000340 	cbz	w0, 4059a8 <_ZN5model5printEv+0xb4>
  405944:	39410e61 	ldrb	w1, [x19, #67]
  405948:	f0000140 	adrp	x0, 430000 <_Znam@GLIBCXX_3.4>
  40594c:	91084000 	add	x0, x0, #0x210
  405950:	97fff16c 	bl	401f00 <_ZNSo3putEc@plt>
  405954:	97fff1bb 	bl	402040 <_ZNSo5flushEv@plt>
  405958:	b900c3ff 	str	wzr, [sp, #192]
  40595c:	f9400ea3 	ldr	x3, [x21, #24]
  405960:	f94012a0 	ldr	x0, [x21, #32]
  405964:	eb03001f 	cmp	x0, x3
  405968:	54000940 	b.eq	405a90 <_ZN5model5printEv+0x19c>  // b.none
  40596c:	d2800001 	mov	x1, #0x0                   	// #0
  405970:	b0000074 	adrp	x20, 412000 <_Z19MD5Hash_simdversionPKNSt7__cxx1112basic_stringIcSt11char_traitsIcESaIcEEEP12__Uint32x4_t+0x1480>
  405974:	91294294 	add	x20, x20, #0xa50
  405978:	f0000153 	adrp	x19, 430000 <_Znam@GLIBCXX_3.4>
  40597c:	91084273 	add	x19, x19, #0x210
  405980:	d28000d7 	mov	x23, #0x6                   	// #6
  405984:	d2917476 	mov	x22, #0x8ba3                	// #35747
  405988:	f2b745d6 	movk	x22, #0xba2e, lsl #16
  40598c:	f2d45d16 	movk	x22, #0xa2e8, lsl #32
  405990:	f2e5d176 	movk	x22, #0x2e8b, lsl #48
  405994:	14000027 	b	405a30 <_ZN5model5printEv+0x13c>
  405998:	a90363f7 	stp	x23, x24, [sp, #48]
  40599c:	a9046bf9 	stp	x25, x26, [sp, #64]
  4059a0:	f9002bfb 	str	x27, [sp, #80]
  4059a4:	97fff1e3 	bl	402130 <_ZSt16__throw_bad_castv@plt>
  4059a8:	aa1303e0 	mov	x0, x19
  4059ac:	97fff1d5 	bl	402100 <_ZNKSt5ctypeIcE13_M_widen_initEv@plt>
  4059b0:	f9400260 	ldr	x0, [x19]
  4059b4:	f9401802 	ldr	x2, [x0, #48]
  4059b8:	52800141 	mov	w1, #0xa                   	// #10
  4059bc:	aa1303e0 	mov	x0, x19
  4059c0:	d63f0040 	blr	x2
  4059c4:	12001c01 	and	w1, w0, #0xff
  4059c8:	17ffffe0 	b	405948 <_ZN5model5printEv+0x54>
  4059cc:	a9046bf9 	stp	x25, x26, [sp, #64]
  4059d0:	f9002bfb 	str	x27, [sp, #80]
  4059d4:	97fff1d7 	bl	402130 <_ZSt16__throw_bad_castv@plt>
  4059d8:	aa1803e0 	mov	x0, x24
  4059dc:	97fff1c9 	bl	402100 <_ZNKSt5ctypeIcE13_M_widen_initEv@plt>
  4059e0:	f9400300 	ldr	x0, [x24]
  4059e4:	f9401802 	ldr	x2, [x0, #48]
  4059e8:	52800141 	mov	w1, #0xa                   	// #10
  4059ec:	aa1803e0 	mov	x0, x24
  4059f0:	d63f0040 	blr	x2
  4059f4:	12001c01 	and	w1, w0, #0xff
  4059f8:	aa1303e0 	mov	x0, x19
  4059fc:	97fff141 	bl	401f00 <_ZNSo3putEc@plt>
  405a00:	97fff190 	bl	402040 <_ZNSo5flushEv@plt>
  405a04:	b940c3e1 	ldr	w1, [sp, #192]
  405a08:	11000421 	add	w1, w1, #0x1
  405a0c:	b900c3e1 	str	w1, [sp, #192]
  405a10:	93407c21 	sxtw	x1, w1
  405a14:	f9400ea3 	ldr	x3, [x21, #24]
  405a18:	f94012a2 	ldr	x2, [x21, #32]
  405a1c:	cb030042 	sub	x2, x2, x3
  405a20:	9343fc42 	asr	x2, x2, #3
  405a24:	9b167c42 	mul	x2, x2, x22
  405a28:	eb02003f 	cmp	x1, x2
  405a2c:	54000322 	b.cs	405a90 <_ZN5model5printEv+0x19c>  // b.hs, b.nlast
  405a30:	8b010420 	add	x0, x1, x1, lsl #1
  405a34:	d37ef400 	lsl	x0, x0, #2
  405a38:	cb010000 	sub	x0, x0, x1
  405a3c:	8b000c60 	add	x0, x3, x0, lsl #3
  405a40:	97fffeea 	bl	4055e8 <_ZN2PT7PrintPTEv>
  405a44:	aa1703e2 	mov	x2, x23
  405a48:	aa1403e1 	mov	x1, x20
  405a4c:	aa1303e0 	mov	x0, x19
  405a50:	97fff1a8 	bl	4020f0 <_ZSt16__ostream_insertIcSt11char_traitsIcEERSt13basic_ostreamIT_T0_ES6_PKS3_l@plt>
  405a54:	910303e1 	add	x1, sp, #0xc0
  405a58:	9101e2a0 	add	x0, x21, #0x78
  405a5c:	940015be 	bl	40b154 <_ZNSt8__detail9_Map_baseIiSt4pairIKiiESaIS3_ENS_10_Select1stESt8equal_toIiESt4hashIiENS_18_Mod_range_hashingENS_20_Default_ranged_hashENS_20_Prime_rehash_policyENS_17_Hashtable_traitsILb0ELb0ELb1EEELb1EEixERS2_>
  405a60:	b9400001 	ldr	w1, [x0]
  405a64:	aa1303e0 	mov	x0, x19
  405a68:	97fff1fa 	bl	402250 <_ZNSolsEi@plt>
  405a6c:	f9400260 	ldr	x0, [x19]
  405a70:	f85e8000 	ldur	x0, [x0, #-24]
  405a74:	8b130000 	add	x0, x0, x19
  405a78:	f9407818 	ldr	x24, [x0, #240]
  405a7c:	b4fffa98 	cbz	x24, 4059cc <_ZN5model5printEv+0xd8>
  405a80:	3940e300 	ldrb	w0, [x24, #56]
  405a84:	34fffaa0 	cbz	w0, 4059d8 <_ZN5model5printEv+0xe4>
  405a88:	39410f01 	ldrb	w1, [x24, #67]
  405a8c:	17ffffdb 	b	4059f8 <_ZN5model5printEv+0x104>
  405a90:	a9046bf9 	stp	x25, x26, [sp, #64]
  405a94:	f940aeb7 	ldr	x23, [x21, #344]
  405a98:	f940b2b9 	ldr	x25, [x21, #352]
  405a9c:	eb17033f 	cmp	x25, x23
  405aa0:	54001440 	b.eq	405d28 <_ZN5model5printEv+0x434>  // b.none
  405aa4:	f9002bfb 	str	x27, [sp, #80]
  405aa8:	b0000078 	adrp	x24, 412000 <_Z19MD5Hash_simdversionPKNSt7__cxx1112basic_stringIcSt11char_traitsIcESaIcEEEP12__Uint32x4_t+0x1480>
  405aac:	91294318 	add	x24, x24, #0xa50
  405ab0:	f0000156 	adrp	x22, 430000 <_Znam@GLIBCXX_3.4>
  405ab4:	910842d6 	add	x22, x22, #0x210
  405ab8:	14000074 	b	405c88 <_ZN5model5printEv+0x394>
  405abc:	d28000c2 	mov	x2, #0x6                   	// #6
  405ac0:	aa1803e1 	mov	x1, x24
  405ac4:	aa1603e0 	mov	x0, x22
  405ac8:	97fff18a 	bl	4020f0 <_ZSt16__ostream_insertIcSt11char_traitsIcEERSt13basic_ostreamIT_T0_ES6_PKS3_l@plt>
  405acc:	9101a3e1 	add	x1, sp, #0x68
  405ad0:	910303e0 	add	x0, sp, #0xc0
  405ad4:	94001392 	bl	40a91c <_ZN2PTC1ERKS_>
  405ad8:	910303e1 	add	x1, sp, #0xc0
  405adc:	aa1503e0 	mov	x0, x21
  405ae0:	97fff988 	bl	404100 <_ZN5model6FindPTE2PT>
  405ae4:	b9011fe0 	str	w0, [sp, #284]
  405ae8:	910473e1 	add	x1, sp, #0x11c
  405aec:	9101e2a0 	add	x0, x21, #0x78
  405af0:	940015c7 	bl	40b20c <_ZNSt8__detail9_Map_baseIiSt4pairIKiiESaIS3_ENS_10_Select1stESt8equal_toIiESt4hashIiENS_18_Mod_range_hashingENS_20_Default_ranged_hashENS_20_Prime_rehash_policyENS_17_Hashtable_traitsILb0ELb0ELb1EEELb1EEixEOi>
  405af4:	b9400001 	ldr	w1, [x0]
  405af8:	aa1603e0 	mov	x0, x22
  405afc:	97fff1d5 	bl	402250 <_ZNSolsEi@plt>
  405b00:	f9407fe0 	ldr	x0, [sp, #248]
  405b04:	b4000080 	cbz	x0, 405b14 <_ZN5model5printEv+0x220>
  405b08:	f94087e1 	ldr	x1, [sp, #264]
  405b0c:	cb000021 	sub	x1, x1, x0
  405b10:	97fff16c 	bl	4020c0 <_ZdlPvm@plt>
  405b14:	f94073e0 	ldr	x0, [sp, #224]
  405b18:	b4000080 	cbz	x0, 405b28 <_ZN5model5printEv+0x234>
  405b1c:	f9407be1 	ldr	x1, [sp, #240]
  405b20:	cb000021 	sub	x1, x1, x0
  405b24:	97fff167 	bl	4020c0 <_ZdlPvm@plt>
  405b28:	f94063f4 	ldr	x20, [sp, #192]
  405b2c:	f94067fb 	ldr	x27, [sp, #200]
  405b30:	eb1b029f 	cmp	x20, x27
  405b34:	54000481 	b.ne	405bc4 <_ZN5model5printEv+0x2d0>  // b.any
  405b38:	f94063e0 	ldr	x0, [sp, #192]
  405b3c:	b4000080 	cbz	x0, 405b4c <_ZN5model5printEv+0x258>
  405b40:	f9406be1 	ldr	x1, [sp, #208]
  405b44:	cb000021 	sub	x1, x1, x0
  405b48:	97fff15e 	bl	4020c0 <_ZdlPvm@plt>
  405b4c:	f94002c0 	ldr	x0, [x22]
  405b50:	f85e8000 	ldur	x0, [x0, #-24]
  405b54:	8b160000 	add	x0, x0, x22
  405b58:	f9407813 	ldr	x19, [x0, #240]
  405b5c:	b4000513 	cbz	x19, 405bfc <_ZN5model5printEv+0x308>
  405b60:	3940e260 	ldrb	w0, [x19, #56]
  405b64:	34000520 	cbz	w0, 405c08 <_ZN5model5printEv+0x314>
  405b68:	39410e61 	ldrb	w1, [x19, #67]
  405b6c:	aa1603e0 	mov	x0, x22
  405b70:	97fff0e4 	bl	401f00 <_ZNSo3putEc@plt>
  405b74:	1400002e 	b	405c2c <_ZN5model5printEv+0x338>
  405b78:	f9400a61 	ldr	x1, [x19, #16]
  405b7c:	91000421 	add	x1, x1, #0x1
  405b80:	97fff150 	bl	4020c0 <_ZdlPvm@plt>
  405b84:	91008273 	add	x19, x19, #0x20
  405b88:	eb13035f 	cmp	x26, x19
  405b8c:	540000c0 	b.eq	405ba4 <_ZN5model5printEv+0x2b0>  // b.none
  405b90:	aa1303e1 	mov	x1, x19
  405b94:	f8410420 	ldr	x0, [x1], #16
  405b98:	eb01001f 	cmp	x0, x1
  405b9c:	54fffee1 	b.ne	405b78 <_ZN5model5printEv+0x284>  // b.any
  405ba0:	17fffff9 	b	405b84 <_ZN5model5printEv+0x290>
  405ba4:	f9400680 	ldr	x0, [x20, #8]
  405ba8:	b4000080 	cbz	x0, 405bb8 <_ZN5model5printEv+0x2c4>
  405bac:	f9400e81 	ldr	x1, [x20, #24]
  405bb0:	cb000021 	sub	x1, x1, x0
  405bb4:	97fff143 	bl	4020c0 <_ZdlPvm@plt>
  405bb8:	9102c294 	add	x20, x20, #0xb0
  405bbc:	eb14037f 	cmp	x27, x20
  405bc0:	54fffbc0 	b.eq	405b38 <_ZN5model5printEv+0x244>  // b.none
  405bc4:	9101e280 	add	x0, x20, #0x78
  405bc8:	97fff72d 	bl	40387c <_ZNSt10_HashtableIiSt4pairIKiiESaIS2_ENSt8__detail10_Select1stESt8equal_toIiESt4hashIiENS4_18_Mod_range_hashingENS4_20_Default_ranged_hashENS4_20_Prime_rehash_policyENS4_17_Hashtable_traitsILb0ELb0ELb1EEEED1Ev>
  405bcc:	91010280 	add	x0, x20, #0x40
  405bd0:	97fff702 	bl	4037d8 <_ZNSt10_HashtableINSt7__cxx1112basic_stringIcSt11char_traitsIcESaIcEEESt4pairIKS5_iESaIS8_ENSt8__detail10_Select1stESt8equal_toIS5_ESt4hashIS5_ENSA_18_Mod_range_hashingENSA_20_Default_ranged_hashENSA_20_Prime_rehash_policyENSA_17_Hashtable_traitsILb1ELb0ELb1EEEED1Ev>
  405bd4:	f9401280 	ldr	x0, [x20, #32]
  405bd8:	b4000080 	cbz	x0, 405be8 <_ZN5model5printEv+0x2f4>
  405bdc:	f9401a81 	ldr	x1, [x20, #48]
  405be0:	cb000021 	sub	x1, x1, x0
  405be4:	97fff137 	bl	4020c0 <_ZdlPvm@plt>
  405be8:	f9400693 	ldr	x19, [x20, #8]
  405bec:	f9400a9a 	ldr	x26, [x20, #16]
  405bf0:	eb1a027f 	cmp	x19, x26
  405bf4:	54fffce1 	b.ne	405b90 <_ZN5model5printEv+0x29c>  // b.any
  405bf8:	17ffffeb 	b	405ba4 <_ZN5model5printEv+0x2b0>
  405bfc:	97fff14d 	bl	402130 <_ZSt16__throw_bad_castv@plt>
  405c00:	aa0003f3 	mov	x19, x0
  405c04:	1400012a 	b	4060ac <_ZN5model5printEv+0x7b8>
  405c08:	aa1303e0 	mov	x0, x19
  405c0c:	97fff13d 	bl	402100 <_ZNKSt5ctypeIcE13_M_widen_initEv@plt>
  405c10:	f9400260 	ldr	x0, [x19]
  405c14:	f9401802 	ldr	x2, [x0, #48]
  405c18:	52800141 	mov	w1, #0xa                   	// #10
  405c1c:	aa1303e0 	mov	x0, x19
  405c20:	d63f0040 	blr	x2
  405c24:	12001c01 	and	w1, w0, #0xff
  405c28:	17ffffd1 	b	405b6c <_ZN5model5printEv+0x278>
  405c2c:	97fff105 	bl	402040 <_ZNSo5flushEv@plt>
  405c30:	f94053e0 	ldr	x0, [sp, #160]
  405c34:	b4000080 	cbz	x0, 405c44 <_ZN5model5printEv+0x350>
  405c38:	f9405be1 	ldr	x1, [sp, #176]
  405c3c:	cb000021 	sub	x1, x1, x0
  405c40:	97fff120 	bl	4020c0 <_ZdlPvm@plt>
  405c44:	f94047e0 	ldr	x0, [sp, #136]
  405c48:	b4000080 	cbz	x0, 405c58 <_ZN5model5printEv+0x364>
  405c4c:	f9404fe1 	ldr	x1, [sp, #152]
  405c50:	cb000021 	sub	x1, x1, x0
  405c54:	97fff11b 	bl	4020c0 <_ZdlPvm@plt>
  405c58:	f94037f4 	ldr	x20, [sp, #104]
  405c5c:	f9403bfb 	ldr	x27, [sp, #112]
  405c60:	eb1b029f 	cmp	x20, x27
  405c64:	54000441 	b.ne	405cec <_ZN5model5printEv+0x3f8>  // b.any
  405c68:	f94037e0 	ldr	x0, [sp, #104]
  405c6c:	b4000080 	cbz	x0, 405c7c <_ZN5model5printEv+0x388>
  405c70:	f9403fe1 	ldr	x1, [sp, #120]
  405c74:	cb000021 	sub	x1, x1, x0
  405c78:	97fff112 	bl	4020c0 <_ZdlPvm@plt>
  405c7c:	910162f7 	add	x23, x23, #0x58
  405c80:	eb17033f 	cmp	x25, x23
  405c84:	54000500 	b.eq	405d24 <_ZN5model5printEv+0x430>  // b.none
  405c88:	aa1703e1 	mov	x1, x23
  405c8c:	9101a3e0 	add	x0, sp, #0x68
  405c90:	94001323 	bl	40a91c <_ZN2PTC1ERKS_>
  405c94:	9101a3e0 	add	x0, sp, #0x68
  405c98:	97fffe54 	bl	4055e8 <_ZN2PT7PrintPTEv>
  405c9c:	17ffff88 	b	405abc <_ZN5model5printEv+0x1c8>
  405ca0:	91008273 	add	x19, x19, #0x20
  405ca4:	eb13035f 	cmp	x26, x19
  405ca8:	54000120 	b.eq	405ccc <_ZN5model5printEv+0x3d8>  // b.none
  405cac:	aa1303e1 	mov	x1, x19
  405cb0:	f8410420 	ldr	x0, [x1], #16
  405cb4:	eb01001f 	cmp	x0, x1
  405cb8:	54ffff40 	b.eq	405ca0 <_ZN5model5printEv+0x3ac>  // b.none
  405cbc:	f9400a61 	ldr	x1, [x19, #16]
  405cc0:	91000421 	add	x1, x1, #0x1
  405cc4:	97fff0ff 	bl	4020c0 <_ZdlPvm@plt>
  405cc8:	17fffff6 	b	405ca0 <_ZN5model5printEv+0x3ac>
  405ccc:	f9400680 	ldr	x0, [x20, #8]
  405cd0:	b4000080 	cbz	x0, 405ce0 <_ZN5model5printEv+0x3ec>
  405cd4:	f9400e81 	ldr	x1, [x20, #24]
  405cd8:	cb000021 	sub	x1, x1, x0
  405cdc:	97fff0f9 	bl	4020c0 <_ZdlPvm@plt>
  405ce0:	9102c294 	add	x20, x20, #0xb0
  405ce4:	eb14037f 	cmp	x27, x20
  405ce8:	54fffc00 	b.eq	405c68 <_ZN5model5printEv+0x374>  // b.none
  405cec:	9101e280 	add	x0, x20, #0x78
  405cf0:	97fff6e3 	bl	40387c <_ZNSt10_HashtableIiSt4pairIKiiESaIS2_ENSt8__detail10_Select1stESt8equal_toIiESt4hashIiENS4_18_Mod_range_hashingENS4_20_Default_ranged_hashENS4_20_Prime_rehash_policyENS4_17_Hashtable_traitsILb0ELb0ELb1EEEED1Ev>
  405cf4:	91010280 	add	x0, x20, #0x40
  405cf8:	97fff6b8 	bl	4037d8 <_ZNSt10_HashtableINSt7__cxx1112basic_stringIcSt11char_traitsIcESaIcEEESt4pairIKS5_iESaIS8_ENSt8__detail10_Select1stESt8equal_toIS5_ESt4hashIS5_ENSA_18_Mod_range_hashingENSA_20_Default_ranged_hashENSA_20_Prime_rehash_policyENSA_17_Hashtable_traitsILb1ELb0ELb1EEEED1Ev>
  405cfc:	f9401280 	ldr	x0, [x20, #32]
  405d00:	b4000080 	cbz	x0, 405d10 <_ZN5model5printEv+0x41c>
  405d04:	f9401a81 	ldr	x1, [x20, #48]
  405d08:	cb000021 	sub	x1, x1, x0
  405d0c:	97fff0ed 	bl	4020c0 <_ZdlPvm@plt>
  405d10:	f9400693 	ldr	x19, [x20, #8]
  405d14:	f9400a9a 	ldr	x26, [x20, #16]
  405d18:	eb1a027f 	cmp	x19, x26
  405d1c:	54fffc81 	b.ne	405cac <_ZN5model5printEv+0x3b8>  // b.any
  405d20:	17ffffeb 	b	405ccc <_ZN5model5printEv+0x3d8>
  405d24:	f9402bfb 	ldr	x27, [sp, #80]
  405d28:	f0000154 	adrp	x20, 430000 <_Znam@GLIBCXX_3.4>
  405d2c:	91084293 	add	x19, x20, #0x210
  405d30:	d2800122 	mov	x2, #0x9                   	// #9
  405d34:	b0000061 	adrp	x1, 412000 <_Z19MD5Hash_simdversionPKNSt7__cxx1112basic_stringIcSt11char_traitsIcESaIcEEEP12__Uint32x4_t+0x1480>
  405d38:	9129a021 	add	x1, x1, #0xa68
  405d3c:	aa1303e0 	mov	x0, x19
  405d40:	97fff0ec 	bl	4020f0 <_ZSt16__ostream_insertIcSt11char_traitsIcEERSt13basic_ostreamIT_T0_ES6_PKS3_l@plt>
  405d44:	f9410a80 	ldr	x0, [x20, #528]
  405d48:	f85e8000 	ldur	x0, [x0, #-24]
  405d4c:	8b130000 	add	x0, x0, x19
  405d50:	f9407813 	ldr	x19, [x0, #240]
  405d54:	b4000313 	cbz	x19, 405db4 <_ZN5model5printEv+0x4c0>
  405d58:	3940e260 	ldrb	w0, [x19, #56]
  405d5c:	34000300 	cbz	w0, 405dbc <_ZN5model5printEv+0x4c8>
  405d60:	39410e61 	ldrb	w1, [x19, #67]
  405d64:	f0000140 	adrp	x0, 430000 <_Znam@GLIBCXX_3.4>
  405d68:	91084000 	add	x0, x0, #0x210
  405d6c:	97fff065 	bl	401f00 <_ZNSo3putEc@plt>
  405d70:	97fff0b4 	bl	402040 <_ZNSo5flushEv@plt>
  405d74:	b900c3ff 	str	wzr, [sp, #192]
  405d78:	f9401aa3 	ldr	x3, [x21, #48]
  405d7c:	f9401ea0 	ldr	x0, [x21, #56]
  405d80:	eb03001f 	cmp	x0, x3
  405d84:	540008e0 	b.eq	405ea0 <_ZN5model5printEv+0x5ac>  // b.none
  405d88:	d2800001 	mov	x1, #0x0                   	// #0
  405d8c:	b0000074 	adrp	x20, 412000 <_Z19MD5Hash_simdversionPKNSt7__cxx1112basic_stringIcSt11char_traitsIcESaIcEEEP12__Uint32x4_t+0x1480>
  405d90:	91294294 	add	x20, x20, #0xa50
  405d94:	f0000153 	adrp	x19, 430000 <_Znam@GLIBCXX_3.4>
  405d98:	91084273 	add	x19, x19, #0x210
  405d9c:	d28000d7 	mov	x23, #0x6                   	// #6
  405da0:	d2917476 	mov	x22, #0x8ba3                	// #35747
  405da4:	f2b745d6 	movk	x22, #0xba2e, lsl #16
  405da8:	f2d45d16 	movk	x22, #0xa2e8, lsl #32
  405dac:	f2e5d176 	movk	x22, #0x2e8b, lsl #48
  405db0:	1400001d 	b	405e24 <_ZN5model5printEv+0x530>
  405db4:	f9002bfb 	str	x27, [sp, #80]
  405db8:	97fff0de 	bl	402130 <_ZSt16__throw_bad_castv@plt>
  405dbc:	aa1303e0 	mov	x0, x19
  405dc0:	97fff0d0 	bl	402100 <_ZNKSt5ctypeIcE13_M_widen_initEv@plt>
  405dc4:	f9400260 	ldr	x0, [x19]
  405dc8:	f9401802 	ldr	x2, [x0, #48]
  405dcc:	52800141 	mov	w1, #0xa                   	// #10
  405dd0:	aa1303e0 	mov	x0, x19
  405dd4:	d63f0040 	blr	x2
  405dd8:	12001c01 	and	w1, w0, #0xff
  405ddc:	17ffffe2 	b	405d64 <_ZN5model5printEv+0x470>
  405de0:	f9002bfb 	str	x27, [sp, #80]
  405de4:	97fff0d3 	bl	402130 <_ZSt16__throw_bad_castv@plt>
  405de8:	39410f01 	ldrb	w1, [x24, #67]
  405dec:	aa1303e0 	mov	x0, x19
  405df0:	97fff044 	bl	401f00 <_ZNSo3putEc@plt>
  405df4:	97fff093 	bl	402040 <_ZNSo5flushEv@plt>
  405df8:	b940c3e1 	ldr	w1, [sp, #192]
  405dfc:	11000421 	add	w1, w1, #0x1
  405e00:	b900c3e1 	str	w1, [sp, #192]
  405e04:	93407c21 	sxtw	x1, w1
  405e08:	f9401aa3 	ldr	x3, [x21, #48]
  405e0c:	f9401ea2 	ldr	x2, [x21, #56]
  405e10:	cb030042 	sub	x2, x2, x3
  405e14:	9344fc42 	asr	x2, x2, #4
  405e18:	9b167c42 	mul	x2, x2, x22
  405e1c:	eb02003f 	cmp	x1, x2
  405e20:	54000402 	b.cs	405ea0 <_ZN5model5printEv+0x5ac>  // b.hs, b.nlast
  405e24:	8b010420 	add	x0, x1, x1, lsl #1
  405e28:	d37ef400 	lsl	x0, x0, #2
  405e2c:	cb010000 	sub	x0, x0, x1
  405e30:	8b001060 	add	x0, x3, x0, lsl #4
  405e34:	97fff930 	bl	4042f4 <_ZN7segment8PrintSegEv>
  405e38:	aa1703e2 	mov	x2, x23
  405e3c:	aa1403e1 	mov	x1, x20
  405e40:	aa1303e0 	mov	x0, x19
  405e44:	97fff0ab 	bl	4020f0 <_ZSt16__ostream_insertIcSt11char_traitsIcEERSt13basic_ostreamIT_T0_ES6_PKS3_l@plt>
  405e48:	910303e1 	add	x1, sp, #0xc0
  405e4c:	9102c2a0 	add	x0, x21, #0xb0
  405e50:	940014c1 	bl	40b154 <_ZNSt8__detail9_Map_baseIiSt4pairIKiiESaIS3_ENS_10_Select1stESt8equal_toIiESt4hashIiENS_18_Mod_range_hashingENS_20_Default_ranged_hashENS_20_Prime_rehash_policyENS_17_Hashtable_traitsILb0ELb0ELb1EEELb1EEixERS2_>
  405e54:	b9400001 	ldr	w1, [x0]
  405e58:	aa1303e0 	mov	x0, x19
  405e5c:	97fff0fd 	bl	402250 <_ZNSolsEi@plt>
  405e60:	f9400260 	ldr	x0, [x19]
  405e64:	f85e8000 	ldur	x0, [x0, #-24]
  405e68:	8b130000 	add	x0, x0, x19
  405e6c:	f9407818 	ldr	x24, [x0, #240]
  405e70:	b4fffb98 	cbz	x24, 405de0 <_ZN5model5printEv+0x4ec>
  405e74:	3940e300 	ldrb	w0, [x24, #56]
  405e78:	35fffb80 	cbnz	w0, 405de8 <_ZN5model5printEv+0x4f4>
  405e7c:	aa1803e0 	mov	x0, x24
  405e80:	97fff0a0 	bl	402100 <_ZNKSt5ctypeIcE13_M_widen_initEv@plt>
  405e84:	f9400300 	ldr	x0, [x24]
  405e88:	f9401802 	ldr	x2, [x0, #48]
  405e8c:	52800141 	mov	w1, #0xa                   	// #10
  405e90:	aa1803e0 	mov	x0, x24
  405e94:	d63f0040 	blr	x2
  405e98:	12001c01 	and	w1, w0, #0xff
  405e9c:	17ffffd4 	b	405dec <_ZN5model5printEv+0x4f8>
  405ea0:	b900c3ff 	str	wzr, [sp, #192]
  405ea4:	f94026a3 	ldr	x3, [x21, #72]
  405ea8:	f9402aa0 	ldr	x0, [x21, #80]
  405eac:	eb03001f 	cmp	x0, x3
  405eb0:	54000780 	b.eq	405fa0 <_ZN5model5printEv+0x6ac>  // b.none
  405eb4:	d2800001 	mov	x1, #0x0                   	// #0
  405eb8:	b0000074 	adrp	x20, 412000 <_Z19MD5Hash_simdversionPKNSt7__cxx1112basic_stringIcSt11char_traitsIcESaIcEEEP12__Uint32x4_t+0x1480>
  405ebc:	91294294 	add	x20, x20, #0xa50
  405ec0:	f0000153 	adrp	x19, 430000 <_Znam@GLIBCXX_3.4>
  405ec4:	91084273 	add	x19, x19, #0x210
  405ec8:	d28000d7 	mov	x23, #0x6                   	// #6
  405ecc:	d2917476 	mov	x22, #0x8ba3                	// #35747
  405ed0:	f2b745d6 	movk	x22, #0xba2e, lsl #16
  405ed4:	f2d45d16 	movk	x22, #0xa2e8, lsl #32
  405ed8:	f2e5d176 	movk	x22, #0x2e8b, lsl #48
  405edc:	14000019 	b	405f40 <_ZN5model5printEv+0x64c>
  405ee0:	f9002bfb 	str	x27, [sp, #80]
  405ee4:	97fff093 	bl	402130 <_ZSt16__throw_bad_castv@plt>
  405ee8:	aa1803e0 	mov	x0, x24
  405eec:	97fff085 	bl	402100 <_ZNKSt5ctypeIcE13_M_widen_initEv@plt>
  405ef0:	f9400300 	ldr	x0, [x24]
  405ef4:	f9401802 	ldr	x2, [x0, #48]
  405ef8:	52800141 	mov	w1, #0xa                   	// #10
  405efc:	aa1803e0 	mov	x0, x24
  405f00:	d63f0040 	blr	x2
  405f04:	12001c01 	and	w1, w0, #0xff
  405f08:	aa1303e0 	mov	x0, x19
  405f0c:	97ffeffd 	bl	401f00 <_ZNSo3putEc@plt>
  405f10:	97fff04c 	bl	402040 <_ZNSo5flushEv@plt>
  405f14:	b940c3e1 	ldr	w1, [sp, #192]
  405f18:	11000421 	add	w1, w1, #0x1
  405f1c:	b900c3e1 	str	w1, [sp, #192]
  405f20:	93407c21 	sxtw	x1, w1
  405f24:	f94026a3 	ldr	x3, [x21, #72]
  405f28:	f9402aa2 	ldr	x2, [x21, #80]
  405f2c:	cb030042 	sub	x2, x2, x3
  405f30:	9344fc42 	asr	x2, x2, #4
  405f34:	9b167c42 	mul	x2, x2, x22
  405f38:	eb02003f 	cmp	x1, x2
  405f3c:	54000322 	b.cs	405fa0 <_ZN5model5printEv+0x6ac>  // b.hs, b.nlast
  405f40:	8b010420 	add	x0, x1, x1, lsl #1
  405f44:	d37ef400 	lsl	x0, x0, #2
  405f48:	cb010000 	sub	x0, x0, x1
  405f4c:	8b001060 	add	x0, x3, x0, lsl #4
  405f50:	97fff8e9 	bl	4042f4 <_ZN7segment8PrintSegEv>
  405f54:	aa1703e2 	mov	x2, x23
  405f58:	aa1403e1 	mov	x1, x20
  405f5c:	aa1303e0 	mov	x0, x19
  405f60:	97fff064 	bl	4020f0 <_ZSt16__ostream_insertIcSt11char_traitsIcEERSt13basic_ostreamIT_T0_ES6_PKS3_l@plt>
  405f64:	910303e1 	add	x1, sp, #0xc0
  405f68:	9103a2a0 	add	x0, x21, #0xe8
  405f6c:	9400147a 	bl	40b154 <_ZNSt8__detail9_Map_baseIiSt4pairIKiiESaIS3_ENS_10_Select1stESt8equal_toIiESt4hashIiENS_18_Mod_range_hashingENS_20_Default_ranged_hashENS_20_Prime_rehash_policyENS_17_Hashtable_traitsILb0ELb0ELb1EEELb1EEixERS2_>
  405f70:	b9400001 	ldr	w1, [x0]
  405f74:	aa1303e0 	mov	x0, x19
  405f78:	97fff0b6 	bl	402250 <_ZNSolsEi@plt>
  405f7c:	f9400260 	ldr	x0, [x19]
  405f80:	f85e8000 	ldur	x0, [x0, #-24]
  405f84:	8b130000 	add	x0, x0, x19
  405f88:	f9407818 	ldr	x24, [x0, #240]
  405f8c:	b4fffab8 	cbz	x24, 405ee0 <_ZN5model5printEv+0x5ec>
  405f90:	3940e300 	ldrb	w0, [x24, #56]
  405f94:	34fffaa0 	cbz	w0, 405ee8 <_ZN5model5printEv+0x5f4>
  405f98:	39410f01 	ldrb	w1, [x24, #67]
  405f9c:	17ffffdb 	b	405f08 <_ZN5model5printEv+0x614>
  405fa0:	b900c3ff 	str	wzr, [sp, #192]
  405fa4:	f94032a3 	ldr	x3, [x21, #96]
  405fa8:	f94036a0 	ldr	x0, [x21, #104]
  405fac:	eb03001f 	cmp	x0, x3
  405fb0:	54000860 	b.eq	4060bc <_ZN5model5printEv+0x7c8>  // b.none
  405fb4:	d2800001 	mov	x1, #0x0                   	// #0
  405fb8:	b0000074 	adrp	x20, 412000 <_Z19MD5Hash_simdversionPKNSt7__cxx1112basic_stringIcSt11char_traitsIcESaIcEEEP12__Uint32x4_t+0x1480>
  405fbc:	91294294 	add	x20, x20, #0xa50
  405fc0:	f0000153 	adrp	x19, 430000 <_Znam@GLIBCXX_3.4>
  405fc4:	91084273 	add	x19, x19, #0x210
  405fc8:	d28000d7 	mov	x23, #0x6                   	// #6
  405fcc:	d2917476 	mov	x22, #0x8ba3                	// #35747
  405fd0:	f2b745d6 	movk	x22, #0xba2e, lsl #16
  405fd4:	f2d45d16 	movk	x22, #0xa2e8, lsl #32
  405fd8:	f2e5d176 	movk	x22, #0x2e8b, lsl #48
  405fdc:	14000019 	b	406040 <_ZN5model5printEv+0x74c>
  405fe0:	f9002bfb 	str	x27, [sp, #80]
  405fe4:	97fff053 	bl	402130 <_ZSt16__throw_bad_castv@plt>
  405fe8:	aa1803e0 	mov	x0, x24
  405fec:	97fff045 	bl	402100 <_ZNKSt5ctypeIcE13_M_widen_initEv@plt>
  405ff0:	f9400300 	ldr	x0, [x24]
  405ff4:	f9401802 	ldr	x2, [x0, #48]
  405ff8:	52800141 	mov	w1, #0xa                   	// #10
  405ffc:	aa1803e0 	mov	x0, x24
  406000:	d63f0040 	blr	x2
  406004:	12001c01 	and	w1, w0, #0xff
  406008:	aa1303e0 	mov	x0, x19
  40600c:	97ffefbd 	bl	401f00 <_ZNSo3putEc@plt>
  406010:	97fff00c 	bl	402040 <_ZNSo5flushEv@plt>
  406014:	b940c3e1 	ldr	w1, [sp, #192]
  406018:	11000421 	add	w1, w1, #0x1
  40601c:	b900c3e1 	str	w1, [sp, #192]
  406020:	93407c21 	sxtw	x1, w1
