
main_O0:     file format elf64-littleaarch64


Disassembly of section .init:

0000000000401ce8 <_init>:
  401ce8:	d503201f 	nop
  401cec:	a9bf7bfd 	stp	x29, x30, [sp, #-16]!
  401cf0:	910003fd 	mov	x29, sp
  401cf4:	94000124 	bl	402184 <call_weak_fn>
  401cf8:	a8c17bfd 	ldp	x29, x30, [sp], #16
  401cfc:	d65f03c0 	ret

Disassembly of section .plt:

0000000000401d00 <.plt>:
  401d00:	a9bf7bf0 	stp	x16, x30, [sp, #-16]!
  401d04:	d00001f0 	adrp	x16, 43f000 <__FRAME_END__+0x14e70>
  401d08:	f947fe11 	ldr	x17, [x16, #4088]
  401d0c:	913fe210 	add	x16, x16, #0xff8
  401d10:	d61f0220 	br	x17
  401d14:	d503201f 	nop
  401d18:	d503201f 	nop
  401d1c:	d503201f 	nop

0000000000401d20 <_Znam@plt>:
  401d20:	f00001f0 	adrp	x16, 440000 <_Znam@GLIBCXX_3.4>
  401d24:	f9400211 	ldr	x17, [x16]
  401d28:	91000210 	add	x16, x16, #0x0
  401d2c:	d61f0220 	br	x17

0000000000401d30 <_ZNSt6chrono3_V212system_clock3nowEv@plt>:
  401d30:	f00001f0 	adrp	x16, 440000 <_Znam@GLIBCXX_3.4>
  401d34:	f9400611 	ldr	x17, [x16, #8]
  401d38:	91002210 	add	x16, x16, #0x8
  401d3c:	d61f0220 	br	x17

0000000000401d40 <memcpy@plt>:
  401d40:	f00001f0 	adrp	x16, 440000 <_Znam@GLIBCXX_3.4>
  401d44:	f9400a11 	ldr	x17, [x16, #16]
  401d48:	91004210 	add	x16, x16, #0x10
  401d4c:	d61f0220 	br	x17

0000000000401d50 <_ZSt11_Hash_bytesPKvmm@plt>:
  401d50:	f00001f0 	adrp	x16, 440000 <_Znam@GLIBCXX_3.4>
  401d54:	f9400e11 	ldr	x17, [x16, #24]
  401d58:	91006210 	add	x16, x16, #0x18
  401d5c:	d61f0220 	br	x17

0000000000401d60 <_ZNSolsEm@plt>:
  401d60:	f00001f0 	adrp	x16, 440000 <_Znam@GLIBCXX_3.4>
  401d64:	f9401211 	ldr	x17, [x16, #32]
  401d68:	91008210 	add	x16, x16, #0x20
  401d6c:	d61f0220 	br	x17

0000000000401d70 <_ZNSt14basic_ifstreamIcSt11char_traitsIcEED1Ev@plt>:
  401d70:	f00001f0 	adrp	x16, 440000 <_Znam@GLIBCXX_3.4>
  401d74:	f9401611 	ldr	x17, [x16, #40]
  401d78:	9100a210 	add	x16, x16, #0x28
  401d7c:	d61f0220 	br	x17

0000000000401d80 <_ZNKSt7__cxx1112basic_stringIcSt11char_traitsIcESaIcEE7compareEPKc@plt>:
  401d80:	f00001f0 	adrp	x16, 440000 <_Znam@GLIBCXX_3.4>
  401d84:	f9401a11 	ldr	x17, [x16, #48]
  401d88:	9100c210 	add	x16, x16, #0x30
  401d8c:	d61f0220 	br	x17

0000000000401d90 <_ZNSolsEPFRSt8ios_baseS0_E@plt>:
  401d90:	f00001f0 	adrp	x16, 440000 <_Znam@GLIBCXX_3.4>
  401d94:	f9401e11 	ldr	x17, [x16, #56]
  401d98:	9100e210 	add	x16, x16, #0x38
  401d9c:	d61f0220 	br	x17

0000000000401da0 <_ZSt17__throw_bad_allocv@plt>:
  401da0:	f00001f0 	adrp	x16, 440000 <_Znam@GLIBCXX_3.4>
  401da4:	f9402211 	ldr	x17, [x16, #64]
  401da8:	91010210 	add	x16, x16, #0x40
  401dac:	d61f0220 	br	x17

0000000000401db0 <__cxa_begin_catch@plt>:
  401db0:	f00001f0 	adrp	x16, 440000 <_Znam@GLIBCXX_3.4>
  401db4:	f9402611 	ldr	x17, [x16, #72]
  401db8:	91012210 	add	x16, x16, #0x48
  401dbc:	d61f0220 	br	x17

0000000000401dc0 <_ZNKSt7__cxx1112basic_stringIcSt11char_traitsIcESaIcEE5c_strEv@plt>:
  401dc0:	f00001f0 	adrp	x16, 440000 <_Znam@GLIBCXX_3.4>
  401dc4:	f9402a11 	ldr	x17, [x16, #80]
  401dc8:	91014210 	add	x16, x16, #0x50
  401dcc:	d61f0220 	br	x17

0000000000401dd0 <_ZNSt7__cxx1112basic_stringIcSt11char_traitsIcESaIcEEC1ERKS4_@plt>:
  401dd0:	f00001f0 	adrp	x16, 440000 <_Znam@GLIBCXX_3.4>
  401dd4:	f9402e11 	ldr	x17, [x16, #88]
  401dd8:	91016210 	add	x16, x16, #0x58
  401ddc:	d61f0220 	br	x17

0000000000401de0 <_ZSt4endlIcSt11char_traitsIcEERSt13basic_ostreamIT_T0_ES6_@plt>:
  401de0:	f00001f0 	adrp	x16, 440000 <_Znam@GLIBCXX_3.4>
  401de4:	f9403211 	ldr	x17, [x16, #96]
  401de8:	91018210 	add	x16, x16, #0x60
  401dec:	d61f0220 	br	x17

0000000000401df0 <memcmp@plt>:
  401df0:	f00001f0 	adrp	x16, 440000 <_Znam@GLIBCXX_3.4>
  401df4:	f9403611 	ldr	x17, [x16, #104]
  401df8:	9101a210 	add	x16, x16, #0x68
  401dfc:	d61f0220 	br	x17

0000000000401e00 <__assert_fail@plt>:
  401e00:	f00001f0 	adrp	x16, 440000 <_Znam@GLIBCXX_3.4>
  401e04:	f9403a11 	ldr	x17, [x16, #112]
  401e08:	9101c210 	add	x16, x16, #0x70
  401e0c:	d61f0220 	br	x17

0000000000401e10 <_ZSt20__throw_length_errorPKc@plt>:
  401e10:	f00001f0 	adrp	x16, 440000 <_Znam@GLIBCXX_3.4>
  401e14:	f9403e11 	ldr	x17, [x16, #120]
  401e18:	9101e210 	add	x16, x16, #0x78
  401e1c:	d61f0220 	br	x17

0000000000401e20 <memset@plt>:
  401e20:	f00001f0 	adrp	x16, 440000 <_Znam@GLIBCXX_3.4>
  401e24:	f9404211 	ldr	x17, [x16, #128]
  401e28:	91020210 	add	x16, x16, #0x80
  401e2c:	d61f0220 	br	x17

0000000000401e30 <_ZNSt7__cxx1112basic_stringIcSt11char_traitsIcESaIcEE3endEv@plt>:
  401e30:	f00001f0 	adrp	x16, 440000 <_Znam@GLIBCXX_3.4>
  401e34:	f9404611 	ldr	x17, [x16, #136]
  401e38:	91022210 	add	x16, x16, #0x88
  401e3c:	d61f0220 	br	x17

0000000000401e40 <_ZNSt7__cxx1112basic_stringIcSt11char_traitsIcESaIcEEC1EOS4_@plt>:
  401e40:	f00001f0 	adrp	x16, 440000 <_Znam@GLIBCXX_3.4>
  401e44:	f9404a11 	ldr	x17, [x16, #144]
  401e48:	91024210 	add	x16, x16, #0x90
  401e4c:	d61f0220 	br	x17

0000000000401e50 <_ZNSt7__cxx1112basic_stringIcSt11char_traitsIcESaIcEED1Ev@plt>:
  401e50:	f00001f0 	adrp	x16, 440000 <_Znam@GLIBCXX_3.4>
  401e54:	f9404e11 	ldr	x17, [x16, #152]
  401e58:	91026210 	add	x16, x16, #0x98
  401e5c:	d61f0220 	br	x17

0000000000401e60 <_ZNSt7__cxx1112basic_stringIcSt11char_traitsIcESaIcEEpLEc@plt>:
  401e60:	f00001f0 	adrp	x16, 440000 <_Znam@GLIBCXX_3.4>
  401e64:	f9405211 	ldr	x17, [x16, #160]
  401e68:	91028210 	add	x16, x16, #0xa0
  401e6c:	d61f0220 	br	x17

0000000000401e70 <_ZNKSt7__cxx1112basic_stringIcSt11char_traitsIcESaIcEE4sizeEv@plt>:
  401e70:	f00001f0 	adrp	x16, 440000 <_Znam@GLIBCXX_3.4>
  401e74:	f9405611 	ldr	x17, [x16, #168]
  401e78:	9102a210 	add	x16, x16, #0xa8
  401e7c:	d61f0220 	br	x17

0000000000401e80 <_ZNSt7__cxx1118basic_stringstreamIcSt11char_traitsIcESaIcEEC1Ev@plt>:
  401e80:	f00001f0 	adrp	x16, 440000 <_Znam@GLIBCXX_3.4>
  401e84:	f9405a11 	ldr	x17, [x16, #176]
  401e88:	9102c210 	add	x16, x16, #0xb0
  401e8c:	d61f0220 	br	x17

0000000000401e90 <_ZNSt7__cxx1112basic_stringIcSt11char_traitsIcESaIcEE4swapERS4_@plt>:
  401e90:	f00001f0 	adrp	x16, 440000 <_Znam@GLIBCXX_3.4>
  401e94:	f9405e11 	ldr	x17, [x16, #184]
  401e98:	9102e210 	add	x16, x16, #0xb8
  401e9c:	d61f0220 	br	x17

0000000000401ea0 <__libc_start_main@plt>:
  401ea0:	f00001f0 	adrp	x16, 440000 <_Znam@GLIBCXX_3.4>
  401ea4:	f9406211 	ldr	x17, [x16, #192]
  401ea8:	91030210 	add	x16, x16, #0xc0
  401eac:	d61f0220 	br	x17

0000000000401eb0 <_ZNSt7__cxx1118basic_stringstreamIcSt11char_traitsIcESaIcEED1Ev@plt>:
  401eb0:	f00001f0 	adrp	x16, 440000 <_Znam@GLIBCXX_3.4>
  401eb4:	f9406611 	ldr	x17, [x16, #200]
  401eb8:	91032210 	add	x16, x16, #0xc8
  401ebc:	d61f0220 	br	x17

0000000000401ec0 <_ZNSt7__cxx1112basic_stringIcSt11char_traitsIcESaIcEE5beginEv@plt>:
  401ec0:	f00001f0 	adrp	x16, 440000 <_Znam@GLIBCXX_3.4>
  401ec4:	f9406a11 	ldr	x17, [x16, #208]
  401ec8:	91034210 	add	x16, x16, #0xd0
  401ecc:	d61f0220 	br	x17

0000000000401ed0 <_ZStlsIcSt11char_traitsIcESaIcEERSt13basic_ostreamIT_T0_ES7_RKNSt7__cxx1112basic_stringIS4_S5_T1_EE@plt>:
  401ed0:	f00001f0 	adrp	x16, 440000 <_Znam@GLIBCXX_3.4>
  401ed4:	f9406e11 	ldr	x17, [x16, #216]
  401ed8:	91036210 	add	x16, x16, #0xd8
  401edc:	d61f0220 	br	x17

0000000000401ee0 <_ZNKSt7__cxx1118basic_stringstreamIcSt11char_traitsIcESaIcEE3strEv@plt>:
  401ee0:	f00001f0 	adrp	x16, 440000 <_Znam@GLIBCXX_3.4>
  401ee4:	f9407211 	ldr	x17, [x16, #224]
  401ee8:	91038210 	add	x16, x16, #0xe0
  401eec:	d61f0220 	br	x17

0000000000401ef0 <_ZStlsISt11char_traitsIcEERSt13basic_ostreamIcT_ES5_PKc@plt>:
  401ef0:	f00001f0 	adrp	x16, 440000 <_Znam@GLIBCXX_3.4>
  401ef4:	f9407611 	ldr	x17, [x16, #232]
  401ef8:	9103a210 	add	x16, x16, #0xe8
  401efc:	d61f0220 	br	x17

0000000000401f00 <_Znwm@plt>:
  401f00:	f00001f0 	adrp	x16, 440000 <_Znam@GLIBCXX_3.4>
  401f04:	f9407a11 	ldr	x17, [x16, #240]
  401f08:	9103c210 	add	x16, x16, #0xf0
  401f0c:	d61f0220 	br	x17

0000000000401f10 <_ZdlPvm@plt>:
  401f10:	f00001f0 	adrp	x16, 440000 <_Znam@GLIBCXX_3.4>
  401f14:	f9407e11 	ldr	x17, [x16, #248]
  401f18:	9103e210 	add	x16, x16, #0xf8
  401f1c:	d61f0220 	br	x17

0000000000401f20 <_ZNSolsEPFRSoS_E@plt>:
  401f20:	f00001f0 	adrp	x16, 440000 <_Znam@GLIBCXX_3.4>
  401f24:	f9408211 	ldr	x17, [x16, #256]
  401f28:	91040210 	add	x16, x16, #0x100
  401f2c:	d61f0220 	br	x17

0000000000401f30 <_ZNSaIcED1Ev@plt>:
  401f30:	f00001f0 	adrp	x16, 440000 <_Znam@GLIBCXX_3.4>
  401f34:	f9408611 	ldr	x17, [x16, #264]
  401f38:	91042210 	add	x16, x16, #0x108
  401f3c:	d61f0220 	br	x17

0000000000401f40 <__cxa_atexit@plt>:
  401f40:	f00001f0 	adrp	x16, 440000 <_Znam@GLIBCXX_3.4>
  401f44:	f9408a11 	ldr	x17, [x16, #272]
  401f48:	91044210 	add	x16, x16, #0x110
  401f4c:	d61f0220 	br	x17

0000000000401f50 <_ZStlsIcSt11char_traitsIcEERSt13basic_ostreamIT_T0_ES6_St5_Setw@plt>:
  401f50:	f00001f0 	adrp	x16, 440000 <_Znam@GLIBCXX_3.4>
  401f54:	f9408e11 	ldr	x17, [x16, #280]
  401f58:	91046210 	add	x16, x16, #0x118
  401f5c:	d61f0220 	br	x17

0000000000401f60 <_ZNSt7__cxx1112basic_stringIcSt11char_traitsIcESaIcEEaSEOS4_@plt>:
  401f60:	f00001f0 	adrp	x16, 440000 <_Znam@GLIBCXX_3.4>
  401f64:	f9409211 	ldr	x17, [x16, #288]
  401f68:	91048210 	add	x16, x16, #0x120
  401f6c:	d61f0220 	br	x17

0000000000401f70 <memmove@plt>:
  401f70:	f00001f0 	adrp	x16, 440000 <_Znam@GLIBCXX_3.4>
  401f74:	f9409611 	ldr	x17, [x16, #296]
  401f78:	9104a210 	add	x16, x16, #0x128
  401f7c:	d61f0220 	br	x17

0000000000401f80 <_ZNKSt9basic_iosIcSt11char_traitsIcEEcvbEv@plt>:
  401f80:	f00001f0 	adrp	x16, 440000 <_Znam@GLIBCXX_3.4>
  401f84:	f9409a11 	ldr	x17, [x16, #304]
  401f88:	9104c210 	add	x16, x16, #0x130
  401f8c:	d61f0220 	br	x17

0000000000401f90 <isalpha@plt>:
  401f90:	f00001f0 	adrp	x16, 440000 <_Znam@GLIBCXX_3.4>
  401f94:	f9409e11 	ldr	x17, [x16, #312]
  401f98:	9104e210 	add	x16, x16, #0x138
  401f9c:	d61f0220 	br	x17

0000000000401fa0 <_ZStrsIcSt11char_traitsIcESaIcEERSt13basic_istreamIT_T0_ES7_RNSt7__cxx1112basic_stringIS4_S5_T1_EE@plt>:
  401fa0:	f00001f0 	adrp	x16, 440000 <_Znam@GLIBCXX_3.4>
  401fa4:	f940a211 	ldr	x17, [x16, #320]
  401fa8:	91050210 	add	x16, x16, #0x140
  401fac:	d61f0220 	br	x17

0000000000401fb0 <_ZNSt7__cxx1112basic_stringIcSt11char_traitsIcESaIcEEpLERKS4_@plt>:
  401fb0:	f00001f0 	adrp	x16, 440000 <_Znam@GLIBCXX_3.4>
  401fb4:	f940a611 	ldr	x17, [x16, #328]
  401fb8:	91052210 	add	x16, x16, #0x148
  401fbc:	d61f0220 	br	x17

0000000000401fc0 <_ZdaPv@plt>:
  401fc0:	f00001f0 	adrp	x16, 440000 <_Znam@GLIBCXX_3.4>
  401fc4:	f940aa11 	ldr	x17, [x16, #336]
  401fc8:	91054210 	add	x16, x16, #0x150
  401fcc:	d61f0220 	br	x17

0000000000401fd0 <_ZNKSt7__cxx1112basic_stringIcSt11char_traitsIcESaIcEE4dataEv@plt>:
  401fd0:	f00001f0 	adrp	x16, 440000 <_Znam@GLIBCXX_3.4>
  401fd4:	f940ae11 	ldr	x17, [x16, #344]
  401fd8:	91056210 	add	x16, x16, #0x158
  401fdc:	d61f0220 	br	x17

0000000000401fe0 <_ZNSt7__cxx1112basic_stringIcSt11char_traitsIcESaIcEE5clearEv@plt>:
  401fe0:	f00001f0 	adrp	x16, 440000 <_Znam@GLIBCXX_3.4>
  401fe4:	f940b211 	ldr	x17, [x16, #352]
  401fe8:	91058210 	add	x16, x16, #0x160
  401fec:	d61f0220 	br	x17

0000000000401ff0 <_ZNKSt8__detail20_Prime_rehash_policy14_M_need_rehashEmmm@plt>:
  401ff0:	f00001f0 	adrp	x16, 440000 <_Znam@GLIBCXX_3.4>
  401ff4:	f940b611 	ldr	x17, [x16, #360]
  401ff8:	9105a210 	add	x16, x16, #0x168
  401ffc:	d61f0220 	br	x17

0000000000402000 <_ZNSolsEj@plt>:
  402000:	d00001f0 	adrp	x16, 440000 <_Znam@GLIBCXX_3.4>
  402004:	f940ba11 	ldr	x17, [x16, #368]
  402008:	9105c210 	add	x16, x16, #0x170
  40200c:	d61f0220 	br	x17

0000000000402010 <_ZNSt7__cxx1112basic_stringIcSt11char_traitsIcESaIcEEC1EPKcRKS3_@plt>:
  402010:	d00001f0 	adrp	x16, 440000 <_Znam@GLIBCXX_3.4>
  402014:	f940be11 	ldr	x17, [x16, #376]
  402018:	9105e210 	add	x16, x16, #0x178
  40201c:	d61f0220 	br	x17

0000000000402020 <_ZNSt7__cxx1112basic_stringIcSt11char_traitsIcESaIcEEC1Ev@plt>:
  402020:	d00001f0 	adrp	x16, 440000 <_Znam@GLIBCXX_3.4>
  402024:	f940c211 	ldr	x17, [x16, #384]
  402028:	91060210 	add	x16, x16, #0x180
  40202c:	d61f0220 	br	x17

0000000000402030 <_ZSt20__throw_out_of_rangePKc@plt>:
  402030:	d00001f0 	adrp	x16, 440000 <_Znam@GLIBCXX_3.4>
  402034:	f940c611 	ldr	x17, [x16, #392]
  402038:	91062210 	add	x16, x16, #0x188
  40203c:	d61f0220 	br	x17

0000000000402040 <__cxa_rethrow@plt>:
  402040:	d00001f0 	adrp	x16, 440000 <_Znam@GLIBCXX_3.4>
  402044:	f940ca11 	ldr	x17, [x16, #400]
  402048:	91064210 	add	x16, x16, #0x190
  40204c:	d61f0220 	br	x17

0000000000402050 <_ZNKSt7__cxx1112basic_stringIcSt11char_traitsIcESaIcEE6lengthEv@plt>:
  402050:	d00001f0 	adrp	x16, 440000 <_Znam@GLIBCXX_3.4>
  402054:	f940ce11 	ldr	x17, [x16, #408]
  402058:	91066210 	add	x16, x16, #0x198
  40205c:	d61f0220 	br	x17

0000000000402060 <_ZNSt8ios_base4InitC1Ev@plt>:
  402060:	d00001f0 	adrp	x16, 440000 <_Znam@GLIBCXX_3.4>
  402064:	f940d211 	ldr	x17, [x16, #416]
  402068:	91068210 	add	x16, x16, #0x1a0
  40206c:	d61f0220 	br	x17

0000000000402070 <_ZStlsIcSt11char_traitsIcEERSt13basic_ostreamIT_T0_ES6_St8_SetfillIS3_E@plt>:
  402070:	d00001f0 	adrp	x16, 440000 <_Znam@GLIBCXX_3.4>
  402074:	f940d611 	ldr	x17, [x16, #424]
  402078:	9106a210 	add	x16, x16, #0x1a8
  40207c:	d61f0220 	br	x17

0000000000402080 <abort@plt>:
  402080:	d00001f0 	adrp	x16, 440000 <_Znam@GLIBCXX_3.4>
  402084:	f940da11 	ldr	x17, [x16, #432]
  402088:	9106c210 	add	x16, x16, #0x1b0
  40208c:	d61f0220 	br	x17

0000000000402090 <_ZNSt14basic_ifstreamIcSt11char_traitsIcEEC1ERKNSt7__cxx1112basic_stringIcS1_SaIcEEESt13_Ios_Openmode@plt>:
  402090:	d00001f0 	adrp	x16, 440000 <_Znam@GLIBCXX_3.4>
  402094:	f940de11 	ldr	x17, [x16, #440]
  402098:	9106e210 	add	x16, x16, #0x1b8
  40209c:	d61f0220 	br	x17

00000000004020a0 <__cxa_end_catch@plt>:
  4020a0:	d00001f0 	adrp	x16, 440000 <_Znam@GLIBCXX_3.4>
  4020a4:	f940e211 	ldr	x17, [x16, #448]
  4020a8:	91070210 	add	x16, x16, #0x1c0
  4020ac:	d61f0220 	br	x17

00000000004020b0 <__gxx_personality_v0@plt>:
  4020b0:	d00001f0 	adrp	x16, 440000 <_Znam@GLIBCXX_3.4>
  4020b4:	f940e611 	ldr	x17, [x16, #456]
  4020b8:	91072210 	add	x16, x16, #0x1c8
  4020bc:	d61f0220 	br	x17

00000000004020c0 <_ZNKSt7__cxx1112basic_stringIcSt11char_traitsIcESaIcEE5emptyEv@plt>:
  4020c0:	d00001f0 	adrp	x16, 440000 <_Znam@GLIBCXX_3.4>
  4020c4:	f940ea11 	ldr	x17, [x16, #464]
  4020c8:	91074210 	add	x16, x16, #0x1d0
  4020cc:	d61f0220 	br	x17

00000000004020d0 <_ZNSolsEi@plt>:
  4020d0:	d00001f0 	adrp	x16, 440000 <_Znam@GLIBCXX_3.4>
  4020d4:	f940ee11 	ldr	x17, [x16, #472]
  4020d8:	91076210 	add	x16, x16, #0x1d8
  4020dc:	d61f0220 	br	x17

00000000004020e0 <_Unwind_Resume@plt>:
  4020e0:	d00001f0 	adrp	x16, 440000 <_Znam@GLIBCXX_3.4>
  4020e4:	f940f211 	ldr	x17, [x16, #480]
  4020e8:	91078210 	add	x16, x16, #0x1e0
  4020ec:	d61f0220 	br	x17

00000000004020f0 <_ZNSaIcEC1Ev@plt>:
  4020f0:	d00001f0 	adrp	x16, 440000 <_Znam@GLIBCXX_3.4>
  4020f4:	f940f611 	ldr	x17, [x16, #488]
  4020f8:	9107a210 	add	x16, x16, #0x1e8
  4020fc:	d61f0220 	br	x17

0000000000402100 <__gmon_start__@plt>:
  402100:	d00001f0 	adrp	x16, 440000 <_Znam@GLIBCXX_3.4>
  402104:	f940fa11 	ldr	x17, [x16, #496]
  402108:	9107c210 	add	x16, x16, #0x1f0
  40210c:	d61f0220 	br	x17

0000000000402110 <_ZNSolsEd@plt>:
  402110:	d00001f0 	adrp	x16, 440000 <_Znam@GLIBCXX_3.4>
  402114:	f940fe11 	ldr	x17, [x16, #504]
  402118:	9107e210 	add	x16, x16, #0x1f8
  40211c:	d61f0220 	br	x17

0000000000402120 <_ZNSt7__cxx1112basic_stringIcSt11char_traitsIcESaIcEE6appendERKS4_@plt>:
  402120:	d00001f0 	adrp	x16, 440000 <_Znam@GLIBCXX_3.4>
  402124:	f9410211 	ldr	x17, [x16, #512]
  402128:	91080210 	add	x16, x16, #0x200
  40212c:	d61f0220 	br	x17

0000000000402130 <_ZNSt8ios_base4InitD1Ev@plt>:
  402130:	d00001f0 	adrp	x16, 440000 <_Znam@GLIBCXX_3.4>
  402134:	f9410611 	ldr	x17, [x16, #520]
  402138:	91082210 	add	x16, x16, #0x208
  40213c:	d61f0220 	br	x17

Disassembly of section .text:

0000000000402140 <_start>:
  402140:	d503201f 	nop
  402144:	d280001d 	mov	x29, #0x0                   	// #0
  402148:	d280001e 	mov	x30, #0x0                   	// #0
  40214c:	aa0003e5 	mov	x5, x0
  402150:	f94003e1 	ldr	x1, [sp]
  402154:	910023e2 	add	x2, sp, #0x8
  402158:	910003e6 	mov	x6, sp
  40215c:	90000000 	adrp	x0, 402000 <_ZNSolsEj@plt>
  402160:	9105d000 	add	x0, x0, #0x174
  402164:	d2800003 	mov	x3, #0x0                   	// #0
  402168:	d2800004 	mov	x4, #0x0                   	// #0
  40216c:	97ffff4d 	bl	401ea0 <__libc_start_main@plt>
  402170:	97ffffc4 	bl	402080 <abort@plt>

0000000000402174 <__wrap_main>:
  402174:	d503201f 	nop
  402178:	1400039e 	b	402ff0 <main>
  40217c:	d503201f 	nop

0000000000402180 <_dl_relocate_static_pie>:
  402180:	d65f03c0 	ret

0000000000402184 <call_weak_fn>:
  402184:	b00001e0 	adrp	x0, 43f000 <__FRAME_END__+0x14e70>
  402188:	f947ec00 	ldr	x0, [x0, #4056]
  40218c:	b4000040 	cbz	x0, 402194 <call_weak_fn+0x10>
  402190:	17ffffdc 	b	402100 <__gmon_start__@plt>
  402194:	d65f03c0 	ret
  402198:	d503201f 	nop
  40219c:	d503201f 	nop

00000000004021a0 <deregister_tm_clones>:
  4021a0:	d00001e0 	adrp	x0, 440000 <_Znam@GLIBCXX_3.4>
  4021a4:	9108a000 	add	x0, x0, #0x228
  4021a8:	d00001e1 	adrp	x1, 440000 <_Znam@GLIBCXX_3.4>
  4021ac:	9108a021 	add	x1, x1, #0x228
  4021b0:	eb00003f 	cmp	x1, x0
  4021b4:	540000c0 	b.eq	4021cc <deregister_tm_clones+0x2c>  // b.none
  4021b8:	b00001e1 	adrp	x1, 43f000 <__FRAME_END__+0x14e70>
  4021bc:	f947e821 	ldr	x1, [x1, #4048]
  4021c0:	b4000061 	cbz	x1, 4021cc <deregister_tm_clones+0x2c>
  4021c4:	aa0103f0 	mov	x16, x1
  4021c8:	d61f0200 	br	x16
  4021cc:	d65f03c0 	ret

00000000004021d0 <register_tm_clones>:
  4021d0:	d00001e0 	adrp	x0, 440000 <_Znam@GLIBCXX_3.4>
  4021d4:	9108a000 	add	x0, x0, #0x228
  4021d8:	d00001e1 	adrp	x1, 440000 <_Znam@GLIBCXX_3.4>
  4021dc:	9108a021 	add	x1, x1, #0x228
  4021e0:	cb000021 	sub	x1, x1, x0
  4021e4:	d37ffc22 	lsr	x2, x1, #63
  4021e8:	8b810c41 	add	x1, x2, x1, asr #3
  4021ec:	9341fc21 	asr	x1, x1, #1
  4021f0:	b40000c1 	cbz	x1, 402208 <register_tm_clones+0x38>
  4021f4:	b00001e2 	adrp	x2, 43f000 <__FRAME_END__+0x14e70>
  4021f8:	f947f042 	ldr	x2, [x2, #4064]
  4021fc:	b4000062 	cbz	x2, 402208 <register_tm_clones+0x38>
  402200:	aa0203f0 	mov	x16, x2
  402204:	d61f0200 	br	x16
  402208:	d65f03c0 	ret
  40220c:	d503201f 	nop

0000000000402210 <__do_global_dtors_aux>:
  402210:	a9be7bfd 	stp	x29, x30, [sp, #-32]!
  402214:	910003fd 	mov	x29, sp
  402218:	f9000bf3 	str	x19, [sp, #16]
  40221c:	d00001f3 	adrp	x19, 440000 <_Znam@GLIBCXX_3.4>
  402220:	394d0260 	ldrb	w0, [x19, #832]
  402224:	35000080 	cbnz	w0, 402234 <__do_global_dtors_aux+0x24>
  402228:	97ffffde 	bl	4021a0 <deregister_tm_clones>
  40222c:	52800020 	mov	w0, #0x1                   	// #1
  402230:	390d0260 	strb	w0, [x19, #832]
  402234:	f9400bf3 	ldr	x19, [sp, #16]
  402238:	a8c27bfd 	ldp	x29, x30, [sp], #32
  40223c:	d65f03c0 	ret

0000000000402240 <frame_dummy>:
  402240:	17ffffe4 	b	4021d0 <register_tm_clones>

0000000000402244 <_ZL13Md5StateToHexPKj>:
  402244:	a9a47bfd 	stp	x29, x30, [sp, #-448]!
  402248:	910003fd 	mov	x29, sp
  40224c:	a90153f3 	stp	x19, x20, [sp, #16]
  402250:	aa0803f3 	mov	x19, x8
  402254:	f90017e0 	str	x0, [sp, #40]
  402258:	9100c3e0 	add	x0, sp, #0x30
  40225c:	97ffff09 	bl	401e80 <_ZNSt7__cxx1118basic_stringstreamIcSt11char_traitsIcESaIcEEC1Ev@plt>
  402260:	b901bfff 	str	wzr, [sp, #444]
  402264:	b941bfe0 	ldr	w0, [sp, #444]
  402268:	71000c1f 	cmp	w0, #0x3
  40226c:	540003ec 	b.gt	4022e8 <_ZL13Md5StateToHexPKj+0xa4>
  402270:	52800100 	mov	w0, #0x8                   	// #8
  402274:	940005ae 	bl	40392c <_ZSt4setwi>
  402278:	2a0003e1 	mov	w1, w0
  40227c:	9100c3e0 	add	x0, sp, #0x30
  402280:	91004000 	add	x0, x0, #0x10
  402284:	97ffff33 	bl	401f50 <_ZStlsIcSt11char_traitsIcEERSt13basic_ostreamIT_T0_ES6_St5_Setw@plt>
  402288:	aa0003f4 	mov	x20, x0
  40228c:	52800600 	mov	w0, #0x30                  	// #48
  402290:	9400071f 	bl	403f0c <_ZSt7setfillIcESt8_SetfillIT_ES1_>
  402294:	2a0003e1 	mov	w1, w0
  402298:	aa1403e0 	mov	x0, x20
  40229c:	97ffff75 	bl	402070 <_ZStlsIcSt11char_traitsIcEERSt13basic_ostreamIT_T0_ES6_St8_SetfillIS3_E@plt>
  4022a0:	aa0003e2 	mov	x2, x0
  4022a4:	b0000000 	adrp	x0, 403000 <main+0x10>
  4022a8:	9118f001 	add	x1, x0, #0x63c
  4022ac:	aa0203e0 	mov	x0, x2
  4022b0:	97fffeb8 	bl	401d90 <_ZNSolsEPFRSt8ios_baseS0_E@plt>
  4022b4:	aa0003e2 	mov	x2, x0
  4022b8:	b981bfe0 	ldrsw	x0, [sp, #444]
  4022bc:	d37ef400 	lsl	x0, x0, #2
  4022c0:	f94017e1 	ldr	x1, [sp, #40]
  4022c4:	8b000020 	add	x0, x1, x0
  4022c8:	b9400000 	ldr	w0, [x0]
  4022cc:	2a0003e1 	mov	w1, w0
  4022d0:	aa0203e0 	mov	x0, x2
  4022d4:	97ffff4b 	bl	402000 <_ZNSolsEj@plt>
  4022d8:	b941bfe0 	ldr	w0, [sp, #444]
  4022dc:	11000400 	add	w0, w0, #0x1
  4022e0:	b901bfe0 	str	w0, [sp, #444]
  4022e4:	17ffffe0 	b	402264 <_ZL13Md5StateToHexPKj+0x20>
  4022e8:	9100c3e0 	add	x0, sp, #0x30
  4022ec:	aa1303e8 	mov	x8, x19
  4022f0:	97fffefc 	bl	401ee0 <_ZNKSt7__cxx1118basic_stringstreamIcSt11char_traitsIcESaIcEE3strEv@plt>
  4022f4:	d503201f 	nop
  4022f8:	9100c3e0 	add	x0, sp, #0x30
  4022fc:	97fffeed 	bl	401eb0 <_ZNSt7__cxx1118basic_stringstreamIcSt11char_traitsIcESaIcEED1Ev@plt>
  402300:	14000006 	b	402318 <_ZL13Md5StateToHexPKj+0xd4>
  402304:	aa0003f3 	mov	x19, x0
  402308:	9100c3e0 	add	x0, sp, #0x30
  40230c:	97fffee9 	bl	401eb0 <_ZNSt7__cxx1118basic_stringstreamIcSt11char_traitsIcESaIcEED1Ev@plt>
  402310:	aa1303e0 	mov	x0, x19
  402314:	97ffff73 	bl	4020e0 <_Unwind_Resume@plt>
  402318:	aa1303e0 	mov	x0, x19
  40231c:	a94153f3 	ldp	x19, x20, [sp, #16]
  402320:	a8dc7bfd 	ldp	x29, x30, [sp], #448
  402324:	d65f03c0 	ret

0000000000402328 <_ZL13SimdLaneToHexP12__Uint32x4_ti>:
  402328:	d10883ff 	sub	sp, sp, #0x220
  40232c:	a9007bfd 	stp	x29, x30, [sp]
  402330:	910003fd 	mov	x29, sp
  402334:	a90153f3 	stp	x19, x20, [sp, #16]
  402338:	aa0803f3 	mov	x19, x8
  40233c:	f90017e0 	str	x0, [sp, #40]
  402340:	b90027e1 	str	w1, [sp, #36]
  402344:	b9021fff 	str	wzr, [sp, #540]
  402348:	b9421fe0 	ldr	w0, [sp, #540]
  40234c:	71000c1f 	cmp	w0, #0x3
  402350:	5400028c 	b.gt	4023a0 <_ZL13SimdLaneToHexP12__Uint32x4_ti+0x78>
  402354:	910703e1 	add	x1, sp, #0x1c0
  402358:	b9821fe0 	ldrsw	x0, [sp, #540]
  40235c:	d37cec00 	lsl	x0, x0, #4
  402360:	8b000020 	add	x0, x1, x0
  402364:	b9821fe1 	ldrsw	x1, [sp, #540]
  402368:	d37cec21 	lsl	x1, x1, #4
  40236c:	f94017e2 	ldr	x2, [sp, #40]
  402370:	8b010041 	add	x1, x2, x1
  402374:	3dc00020 	ldr	q0, [x1]
  402378:	f9010be0 	str	x0, [sp, #528]
  40237c:	3d8083e0 	str	q0, [sp, #512]
  402380:	3dc083e0 	ldr	q0, [sp, #512]
  402384:	f9410be0 	ldr	x0, [sp, #528]
  402388:	3d800000 	str	q0, [x0]
  40238c:	d503201f 	nop
  402390:	b9421fe0 	ldr	w0, [sp, #540]
  402394:	11000400 	add	w0, w0, #0x1
  402398:	b9021fe0 	str	w0, [sp, #540]
  40239c:	17ffffeb 	b	402348 <_ZL13SimdLaneToHexP12__Uint32x4_ti+0x20>
  4023a0:	9100e3e0 	add	x0, sp, #0x38
  4023a4:	97fffeb7 	bl	401e80 <_ZNSt7__cxx1118basic_stringstreamIcSt11char_traitsIcESaIcEEC1Ev@plt>
  4023a8:	b9021bff 	str	wzr, [sp, #536]
  4023ac:	b9421be0 	ldr	w0, [sp, #536]
  4023b0:	71000c1f 	cmp	w0, #0x3
  4023b4:	5400042c 	b.gt	402438 <_ZL13SimdLaneToHexP12__Uint32x4_ti+0x110>
  4023b8:	52800100 	mov	w0, #0x8                   	// #8
  4023bc:	9400055c 	bl	40392c <_ZSt4setwi>
  4023c0:	2a0003e1 	mov	w1, w0
  4023c4:	9100e3e0 	add	x0, sp, #0x38
  4023c8:	91004000 	add	x0, x0, #0x10
  4023cc:	97fffee1 	bl	401f50 <_ZStlsIcSt11char_traitsIcEERSt13basic_ostreamIT_T0_ES6_St5_Setw@plt>
  4023d0:	aa0003f4 	mov	x20, x0
  4023d4:	52800600 	mov	w0, #0x30                  	// #48
  4023d8:	940006cd 	bl	403f0c <_ZSt7setfillIcESt8_SetfillIT_ES1_>
  4023dc:	2a0003e1 	mov	w1, w0
  4023e0:	aa1403e0 	mov	x0, x20
  4023e4:	97ffff23 	bl	402070 <_ZStlsIcSt11char_traitsIcEERSt13basic_ostreamIT_T0_ES6_St8_SetfillIS3_E@plt>
  4023e8:	aa0003e2 	mov	x2, x0
  4023ec:	b0000000 	adrp	x0, 403000 <main+0x10>
  4023f0:	9118f001 	add	x1, x0, #0x63c
  4023f4:	aa0203e0 	mov	x0, x2
  4023f8:	97fffe66 	bl	401d90 <_ZNSolsEPFRSt8ios_baseS0_E@plt>
  4023fc:	aa0003e2 	mov	x2, x0
  402400:	b98027e0 	ldrsw	x0, [sp, #36]
  402404:	b9821be1 	ldrsw	x1, [sp, #536]
  402408:	d37ef421 	lsl	x1, x1, #2
  40240c:	8b000020 	add	x0, x1, x0
  402410:	d37ef400 	lsl	x0, x0, #2
  402414:	910703e1 	add	x1, sp, #0x1c0
  402418:	b8606820 	ldr	w0, [x1, x0]
  40241c:	2a0003e1 	mov	w1, w0
  402420:	aa0203e0 	mov	x0, x2
  402424:	97fffef7 	bl	402000 <_ZNSolsEj@plt>
  402428:	b9421be0 	ldr	w0, [sp, #536]
  40242c:	11000400 	add	w0, w0, #0x1
  402430:	b9021be0 	str	w0, [sp, #536]
  402434:	17ffffde 	b	4023ac <_ZL13SimdLaneToHexP12__Uint32x4_ti+0x84>
  402438:	9100e3e0 	add	x0, sp, #0x38
  40243c:	aa1303e8 	mov	x8, x19
  402440:	97fffea8 	bl	401ee0 <_ZNKSt7__cxx1118basic_stringstreamIcSt11char_traitsIcESaIcEE3strEv@plt>
  402444:	d503201f 	nop
  402448:	9100e3e0 	add	x0, sp, #0x38
  40244c:	97fffe99 	bl	401eb0 <_ZNSt7__cxx1118basic_stringstreamIcSt11char_traitsIcESaIcEED1Ev@plt>
  402450:	14000006 	b	402468 <_ZL13SimdLaneToHexP12__Uint32x4_ti+0x140>
  402454:	aa0003f3 	mov	x19, x0
  402458:	9100e3e0 	add	x0, sp, #0x38
  40245c:	97fffe95 	bl	401eb0 <_ZNSt7__cxx1118basic_stringstreamIcSt11char_traitsIcESaIcEED1Ev@plt>
  402460:	aa1303e0 	mov	x0, x19
  402464:	97ffff1f 	bl	4020e0 <_Unwind_Resume@plt>
  402468:	aa1303e0 	mov	x0, x19
  40246c:	a94153f3 	ldp	x19, x20, [sp, #16]
  402470:	a9407bfd 	ldp	x29, x30, [sp]
  402474:	910883ff 	add	sp, sp, #0x220
  402478:	d65f03c0 	ret

000000000040247c <_ZL19RunCorrectnessTestsv>:
  40247c:	d10e43ff 	sub	sp, sp, #0x390
  402480:	a9007bfd 	stp	x29, x30, [sp]
  402484:	910003fd 	mov	x29, sp
  402488:	a90153f3 	stp	x19, x20, [sp, #16]
  40248c:	a9025bf5 	stp	x21, x22, [sp, #32]
  402490:	a90363f7 	stp	x23, x24, [sp, #48]
  402494:	52800018 	mov	w24, #0x0                   	// #0
  402498:	910783e0 	add	x0, sp, #0x1e0
  40249c:	97ffff15 	bl	4020f0 <_ZNSaIcEC1Ev@plt>
  4024a0:	910783e0 	add	x0, sp, #0x1e0
  4024a4:	910383e3 	add	x3, sp, #0xe0
  4024a8:	aa0003e2 	mov	x2, x0
  4024ac:	d00000e0 	adrp	x0, 420000 <_Z19MD5Hash_simdversionPKNSt7__cxx1112basic_stringIcSt11char_traitsIcESaIcEEEP12__Uint32x4_t+0x3adc>
  4024b0:	912f2001 	add	x1, x0, #0xbc8
  4024b4:	aa0303e0 	mov	x0, x3
  4024b8:	97fffed6 	bl	402010 <_ZNSt7__cxx1112basic_stringIcSt11char_traitsIcESaIcEEC1EPKcRKS3_@plt>
  4024bc:	9107a3e0 	add	x0, sp, #0x1e8
  4024c0:	97ffff0c 	bl	4020f0 <_ZNSaIcEC1Ev@plt>
  4024c4:	9107a3e1 	add	x1, sp, #0x1e8
  4024c8:	910383e0 	add	x0, sp, #0xe0
  4024cc:	91008003 	add	x3, x0, #0x20
  4024d0:	aa0103e2 	mov	x2, x1
  4024d4:	d00000e0 	adrp	x0, 420000 <_Z19MD5Hash_simdversionPKNSt7__cxx1112basic_stringIcSt11char_traitsIcESaIcEEEP12__Uint32x4_t+0x3adc>
  4024d8:	912f4001 	add	x1, x0, #0xbd0
  4024dc:	aa0303e0 	mov	x0, x3
  4024e0:	97fffecc 	bl	402010 <_ZNSt7__cxx1112basic_stringIcSt11char_traitsIcESaIcEEC1EPKcRKS3_@plt>
  4024e4:	9107c3e0 	add	x0, sp, #0x1f0
  4024e8:	97ffff02 	bl	4020f0 <_ZNSaIcEC1Ev@plt>
  4024ec:	9107c3e1 	add	x1, sp, #0x1f0
  4024f0:	910383e0 	add	x0, sp, #0xe0
  4024f4:	91010003 	add	x3, x0, #0x40
  4024f8:	aa0103e2 	mov	x2, x1
  4024fc:	d00000e0 	adrp	x0, 420000 <_Z19MD5Hash_simdversionPKNSt7__cxx1112basic_stringIcSt11char_traitsIcESaIcEEEP12__Uint32x4_t+0x3adc>
  402500:	912f8001 	add	x1, x0, #0xbe0
  402504:	aa0303e0 	mov	x0, x3
  402508:	97fffec2 	bl	402010 <_ZNSt7__cxx1112basic_stringIcSt11char_traitsIcESaIcEEC1EPKcRKS3_@plt>
  40250c:	9107e3e0 	add	x0, sp, #0x1f8
  402510:	97fffef8 	bl	4020f0 <_ZNSaIcEC1Ev@plt>
  402514:	9107e3e1 	add	x1, sp, #0x1f8
  402518:	910383e0 	add	x0, sp, #0xe0
  40251c:	91018003 	add	x3, x0, #0x60
  402520:	aa0103e2 	mov	x2, x1
  402524:	d00000e0 	adrp	x0, 420000 <_Z19MD5Hash_simdversionPKNSt7__cxx1112basic_stringIcSt11char_traitsIcESaIcEEEP12__Uint32x4_t+0x3adc>
  402528:	912fc001 	add	x1, x0, #0xbf0
  40252c:	aa0303e0 	mov	x0, x3
  402530:	97fffeb8 	bl	402010 <_ZNSt7__cxx1112basic_stringIcSt11char_traitsIcESaIcEEC1EPKcRKS3_@plt>
  402534:	910803e0 	add	x0, sp, #0x200
  402538:	97fffeee 	bl	4020f0 <_ZNSaIcEC1Ev@plt>
  40253c:	910803e1 	add	x1, sp, #0x200
  402540:	910383e0 	add	x0, sp, #0xe0
  402544:	91020003 	add	x3, x0, #0x80
  402548:	aa0103e2 	mov	x2, x1
  40254c:	d00000e0 	adrp	x0, 420000 <_Z19MD5Hash_simdversionPKNSt7__cxx1112basic_stringIcSt11char_traitsIcESaIcEEEP12__Uint32x4_t+0x3adc>
  402550:	912fe001 	add	x1, x0, #0xbf8
  402554:	aa0303e0 	mov	x0, x3
  402558:	97fffeae 	bl	402010 <_ZNSt7__cxx1112basic_stringIcSt11char_traitsIcESaIcEEC1EPKcRKS3_@plt>
  40255c:	910823e0 	add	x0, sp, #0x208
  402560:	97fffee4 	bl	4020f0 <_ZNSaIcEC1Ev@plt>
  402564:	910823e1 	add	x1, sp, #0x208
  402568:	910383e0 	add	x0, sp, #0xe0
  40256c:	91028003 	add	x3, x0, #0xa0
  402570:	aa0103e2 	mov	x2, x1
  402574:	d00000e0 	adrp	x0, 420000 <_Z19MD5Hash_simdversionPKNSt7__cxx1112basic_stringIcSt11char_traitsIcESaIcEEEP12__Uint32x4_t+0x3adc>
  402578:	91302001 	add	x1, x0, #0xc08
  40257c:	aa0303e0 	mov	x0, x3
  402580:	97fffea4 	bl	402010 <_ZNSt7__cxx1112basic_stringIcSt11char_traitsIcESaIcEEC1EPKcRKS3_@plt>
  402584:	910843e0 	add	x0, sp, #0x210
  402588:	97fffeda 	bl	4020f0 <_ZNSaIcEC1Ev@plt>
  40258c:	910843e1 	add	x1, sp, #0x210
  402590:	910383e0 	add	x0, sp, #0xe0
  402594:	91030003 	add	x3, x0, #0xc0
  402598:	aa0103e2 	mov	x2, x1
  40259c:	d00000e0 	adrp	x0, 420000 <_Z19MD5Hash_simdversionPKNSt7__cxx1112basic_stringIcSt11char_traitsIcESaIcEEEP12__Uint32x4_t+0x3adc>
  4025a0:	91304001 	add	x1, x0, #0xc10
  4025a4:	aa0303e0 	mov	x0, x3
  4025a8:	97fffe9a 	bl	402010 <_ZNSt7__cxx1112basic_stringIcSt11char_traitsIcESaIcEEC1EPKcRKS3_@plt>
  4025ac:	910863e0 	add	x0, sp, #0x218
  4025b0:	97fffed0 	bl	4020f0 <_ZNSaIcEC1Ev@plt>
  4025b4:	910863e1 	add	x1, sp, #0x218
  4025b8:	910383e0 	add	x0, sp, #0xe0
  4025bc:	91038003 	add	x3, x0, #0xe0
  4025c0:	aa0103e2 	mov	x2, x1
  4025c4:	d00000e0 	adrp	x0, 420000 <_Z19MD5Hash_simdversionPKNSt7__cxx1112basic_stringIcSt11char_traitsIcESaIcEEEP12__Uint32x4_t+0x3adc>
  4025c8:	91306001 	add	x1, x0, #0xc18
  4025cc:	aa0303e0 	mov	x0, x3
  4025d0:	97fffe90 	bl	402010 <_ZNSt7__cxx1112basic_stringIcSt11char_traitsIcESaIcEEC1EPKcRKS3_@plt>
  4025d4:	910383e0 	add	x0, sp, #0xe0
  4025d8:	aa0003f6 	mov	x22, x0
  4025dc:	d2800117 	mov	x23, #0x8                   	// #8
  4025e0:	910883e0 	add	x0, sp, #0x220
  4025e4:	9400064f 	bl	403f20 <_ZNSaINSt7__cxx1112basic_stringIcSt11char_traitsIcESaIcEEEEC1Ev>
  4025e8:	910883e1 	add	x1, sp, #0x220
  4025ec:	910323e0 	add	x0, sp, #0xc8
  4025f0:	aa0103e3 	mov	x3, x1
  4025f4:	aa1603e1 	mov	x1, x22
  4025f8:	aa1703e2 	mov	x2, x23
  4025fc:	94000651 	bl	403f40 <_ZNSt6vectorINSt7__cxx1112basic_stringIcSt11char_traitsIcESaIcEEESaIS5_EEC1ESt16initializer_listIS5_ERKS6_>
  402600:	910883e0 	add	x0, sp, #0x220
  402604:	940005b2 	bl	403ccc <_ZNSaINSt7__cxx1112basic_stringIcSt11char_traitsIcESaIcEEEED1Ev>
  402608:	910383f3 	add	x19, sp, #0xe0
  40260c:	91040273 	add	x19, x19, #0x100
  402610:	910383e0 	add	x0, sp, #0xe0
  402614:	eb00027f 	cmp	x19, x0
  402618:	540000a0 	b.eq	40262c <_ZL19RunCorrectnessTestsv+0x1b0>  // b.none
  40261c:	d1008273 	sub	x19, x19, #0x20
  402620:	aa1303e0 	mov	x0, x19
  402624:	97fffe0b 	bl	401e50 <_ZNSt7__cxx1112basic_stringIcSt11char_traitsIcESaIcEED1Ev@plt>
  402628:	17fffffa 	b	402610 <_ZL19RunCorrectnessTestsv+0x194>
  40262c:	910863e0 	add	x0, sp, #0x218
  402630:	97fffe40 	bl	401f30 <_ZNSaIcED1Ev@plt>
  402634:	910843e0 	add	x0, sp, #0x210
  402638:	97fffe3e 	bl	401f30 <_ZNSaIcED1Ev@plt>
  40263c:	910823e0 	add	x0, sp, #0x208
  402640:	97fffe3c 	bl	401f30 <_ZNSaIcED1Ev@plt>
  402644:	910803e0 	add	x0, sp, #0x200
  402648:	97fffe3a 	bl	401f30 <_ZNSaIcED1Ev@plt>
  40264c:	9107e3e0 	add	x0, sp, #0x1f8
  402650:	97fffe38 	bl	401f30 <_ZNSaIcED1Ev@plt>
  402654:	9107c3e0 	add	x0, sp, #0x1f0
  402658:	97fffe36 	bl	401f30 <_ZNSaIcED1Ev@plt>
  40265c:	9107a3e0 	add	x0, sp, #0x1e8
  402660:	97fffe34 	bl	401f30 <_ZNSaIcED1Ev@plt>
  402664:	910783e0 	add	x0, sp, #0x1e0
  402668:	97fffe32 	bl	401f30 <_ZNSaIcED1Ev@plt>
  40266c:	910ca3e0 	add	x0, sp, #0x328
  402670:	97fffea0 	bl	4020f0 <_ZNSaIcEC1Ev@plt>
  402674:	910ca3e0 	add	x0, sp, #0x328
  402678:	9108a3e3 	add	x3, sp, #0x228
  40267c:	aa0003e2 	mov	x2, x0
  402680:	d00000e0 	adrp	x0, 420000 <_Z19MD5Hash_simdversionPKNSt7__cxx1112basic_stringIcSt11char_traitsIcESaIcEEEP12__Uint32x4_t+0x3adc>
  402684:	91308001 	add	x1, x0, #0xc20
  402688:	aa0303e0 	mov	x0, x3
  40268c:	97fffe61 	bl	402010 <_ZNSt7__cxx1112basic_stringIcSt11char_traitsIcESaIcEEC1EPKcRKS3_@plt>
  402690:	910cc3e0 	add	x0, sp, #0x330
  402694:	97fffe97 	bl	4020f0 <_ZNSaIcEC1Ev@plt>
  402698:	910cc3e1 	add	x1, sp, #0x330
  40269c:	9108a3e0 	add	x0, sp, #0x228
  4026a0:	91008003 	add	x3, x0, #0x20
  4026a4:	aa0103e2 	mov	x2, x1
  4026a8:	d00000e0 	adrp	x0, 420000 <_Z19MD5Hash_simdversionPKNSt7__cxx1112basic_stringIcSt11char_traitsIcESaIcEEEP12__Uint32x4_t+0x3adc>
  4026ac:	91312001 	add	x1, x0, #0xc48
  4026b0:	aa0303e0 	mov	x0, x3
  4026b4:	97fffe57 	bl	402010 <_ZNSt7__cxx1112basic_stringIcSt11char_traitsIcESaIcEEC1EPKcRKS3_@plt>
  4026b8:	910ce3e0 	add	x0, sp, #0x338
  4026bc:	97fffe8d 	bl	4020f0 <_ZNSaIcEC1Ev@plt>
  4026c0:	910ce3e1 	add	x1, sp, #0x338
  4026c4:	9108a3e0 	add	x0, sp, #0x228
  4026c8:	91010003 	add	x3, x0, #0x40
  4026cc:	aa0103e2 	mov	x2, x1
  4026d0:	d00000e0 	adrp	x0, 420000 <_Z19MD5Hash_simdversionPKNSt7__cxx1112basic_stringIcSt11char_traitsIcESaIcEEEP12__Uint32x4_t+0x3adc>
  4026d4:	9131c001 	add	x1, x0, #0xc70
  4026d8:	aa0303e0 	mov	x0, x3
  4026dc:	97fffe4d 	bl	402010 <_ZNSt7__cxx1112basic_stringIcSt11char_traitsIcESaIcEEC1EPKcRKS3_@plt>
  4026e0:	910d03e0 	add	x0, sp, #0x340
  4026e4:	97fffe83 	bl	4020f0 <_ZNSaIcEC1Ev@plt>
  4026e8:	910d03e1 	add	x1, sp, #0x340
  4026ec:	9108a3e0 	add	x0, sp, #0x228
  4026f0:	91018003 	add	x3, x0, #0x60
  4026f4:	aa0103e2 	mov	x2, x1
  4026f8:	d00000e0 	adrp	x0, 420000 <_Z19MD5Hash_simdversionPKNSt7__cxx1112basic_stringIcSt11char_traitsIcESaIcEEEP12__Uint32x4_t+0x3adc>
  4026fc:	91326001 	add	x1, x0, #0xc98
  402700:	aa0303e0 	mov	x0, x3
  402704:	97fffe43 	bl	402010 <_ZNSt7__cxx1112basic_stringIcSt11char_traitsIcESaIcEEC1EPKcRKS3_@plt>
  402708:	910d23e0 	add	x0, sp, #0x348
  40270c:	97fffe79 	bl	4020f0 <_ZNSaIcEC1Ev@plt>
  402710:	910d23e1 	add	x1, sp, #0x348
  402714:	9108a3e0 	add	x0, sp, #0x228
  402718:	91020003 	add	x3, x0, #0x80
  40271c:	aa0103e2 	mov	x2, x1
  402720:	d00000e0 	adrp	x0, 420000 <_Z19MD5Hash_simdversionPKNSt7__cxx1112basic_stringIcSt11char_traitsIcESaIcEEEP12__Uint32x4_t+0x3adc>
  402724:	91330001 	add	x1, x0, #0xcc0
  402728:	aa0303e0 	mov	x0, x3
  40272c:	97fffe39 	bl	402010 <_ZNSt7__cxx1112basic_stringIcSt11char_traitsIcESaIcEEC1EPKcRKS3_@plt>
  402730:	910d43e0 	add	x0, sp, #0x350
  402734:	97fffe6f 	bl	4020f0 <_ZNSaIcEC1Ev@plt>
  402738:	910d43e1 	add	x1, sp, #0x350
  40273c:	9108a3e0 	add	x0, sp, #0x228
  402740:	91028003 	add	x3, x0, #0xa0
  402744:	aa0103e2 	mov	x2, x1
  402748:	d00000e0 	adrp	x0, 420000 <_Z19MD5Hash_simdversionPKNSt7__cxx1112basic_stringIcSt11char_traitsIcESaIcEEEP12__Uint32x4_t+0x3adc>
  40274c:	9133a001 	add	x1, x0, #0xce8
  402750:	aa0303e0 	mov	x0, x3
  402754:	97fffe2f 	bl	402010 <_ZNSt7__cxx1112basic_stringIcSt11char_traitsIcESaIcEEC1EPKcRKS3_@plt>
  402758:	910d63e0 	add	x0, sp, #0x358
  40275c:	97fffe65 	bl	4020f0 <_ZNSaIcEC1Ev@plt>
  402760:	910d63e1 	add	x1, sp, #0x358
  402764:	9108a3e0 	add	x0, sp, #0x228
  402768:	91030003 	add	x3, x0, #0xc0
  40276c:	aa0103e2 	mov	x2, x1
  402770:	d00000e0 	adrp	x0, 420000 <_Z19MD5Hash_simdversionPKNSt7__cxx1112basic_stringIcSt11char_traitsIcESaIcEEEP12__Uint32x4_t+0x3adc>
  402774:	91344001 	add	x1, x0, #0xd10
  402778:	aa0303e0 	mov	x0, x3
  40277c:	97fffe25 	bl	402010 <_ZNSt7__cxx1112basic_stringIcSt11char_traitsIcESaIcEEC1EPKcRKS3_@plt>
  402780:	910d83e0 	add	x0, sp, #0x360
  402784:	97fffe5b 	bl	4020f0 <_ZNSaIcEC1Ev@plt>
  402788:	910d83e1 	add	x1, sp, #0x360
  40278c:	9108a3e0 	add	x0, sp, #0x228
  402790:	91038003 	add	x3, x0, #0xe0
  402794:	aa0103e2 	mov	x2, x1
  402798:	d00000e0 	adrp	x0, 420000 <_Z19MD5Hash_simdversionPKNSt7__cxx1112basic_stringIcSt11char_traitsIcESaIcEEEP12__Uint32x4_t+0x3adc>
  40279c:	9134e001 	add	x1, x0, #0xd38
  4027a0:	aa0303e0 	mov	x0, x3
  4027a4:	97fffe1b 	bl	402010 <_ZNSt7__cxx1112basic_stringIcSt11char_traitsIcESaIcEEC1EPKcRKS3_@plt>
  4027a8:	9108a3e0 	add	x0, sp, #0x228
  4027ac:	aa0003f4 	mov	x20, x0
  4027b0:	d2800115 	mov	x21, #0x8                   	// #8
  4027b4:	910da3e0 	add	x0, sp, #0x368
  4027b8:	940005da 	bl	403f20 <_ZNSaINSt7__cxx1112basic_stringIcSt11char_traitsIcESaIcEEEEC1Ev>
  4027bc:	910da3e1 	add	x1, sp, #0x368
  4027c0:	9102c3e0 	add	x0, sp, #0xb0
  4027c4:	aa0103e3 	mov	x3, x1
  4027c8:	aa1403e1 	mov	x1, x20
  4027cc:	aa1503e2 	mov	x2, x21
  4027d0:	940005dc 	bl	403f40 <_ZNSt6vectorINSt7__cxx1112basic_stringIcSt11char_traitsIcESaIcEEESaIS5_EEC1ESt16initializer_listIS5_ERKS6_>
  4027d4:	910da3e0 	add	x0, sp, #0x368
  4027d8:	9400053d 	bl	403ccc <_ZNSaINSt7__cxx1112basic_stringIcSt11char_traitsIcESaIcEEEED1Ev>
  4027dc:	9108a3f3 	add	x19, sp, #0x228
  4027e0:	91040273 	add	x19, x19, #0x100
  4027e4:	9108a3e0 	add	x0, sp, #0x228
  4027e8:	eb00027f 	cmp	x19, x0
  4027ec:	540000a0 	b.eq	402800 <_ZL19RunCorrectnessTestsv+0x384>  // b.none
  4027f0:	d1008273 	sub	x19, x19, #0x20
  4027f4:	aa1303e0 	mov	x0, x19
  4027f8:	97fffd96 	bl	401e50 <_ZNSt7__cxx1112basic_stringIcSt11char_traitsIcESaIcEED1Ev@plt>
  4027fc:	17fffffa 	b	4027e4 <_ZL19RunCorrectnessTestsv+0x368>
  402800:	910d83e0 	add	x0, sp, #0x360
  402804:	97fffdcb 	bl	401f30 <_ZNSaIcED1Ev@plt>
  402808:	910d63e0 	add	x0, sp, #0x358
  40280c:	97fffdc9 	bl	401f30 <_ZNSaIcED1Ev@plt>
  402810:	910d43e0 	add	x0, sp, #0x350
  402814:	97fffdc7 	bl	401f30 <_ZNSaIcED1Ev@plt>
  402818:	910d23e0 	add	x0, sp, #0x348
  40281c:	97fffdc5 	bl	401f30 <_ZNSaIcED1Ev@plt>
  402820:	910d03e0 	add	x0, sp, #0x340
  402824:	97fffdc3 	bl	401f30 <_ZNSaIcED1Ev@plt>
  402828:	910ce3e0 	add	x0, sp, #0x338
  40282c:	97fffdc1 	bl	401f30 <_ZNSaIcED1Ev@plt>
  402830:	910cc3e0 	add	x0, sp, #0x330
  402834:	97fffdbf 	bl	401f30 <_ZNSaIcED1Ev@plt>
  402838:	910ca3e0 	add	x0, sp, #0x328
  40283c:	97fffdbd 	bl	401f30 <_ZNSaIcED1Ev@plt>
  402840:	d00000e0 	adrp	x0, 420000 <_Z19MD5Hash_simdversionPKNSt7__cxx1112basic_stringIcSt11char_traitsIcESaIcEEEP12__Uint32x4_t+0x3adc>
  402844:	91358001 	add	x1, x0, #0xd60
  402848:	d00001e0 	adrp	x0, 440000 <_Znam@GLIBCXX_3.4>
  40284c:	9108c000 	add	x0, x0, #0x230
  402850:	97fffda8 	bl	401ef0 <_ZStlsISt11char_traitsIcEERSt13basic_ostreamIcT_ES5_PKc@plt>
  402854:	aa0003e2 	mov	x2, x0
  402858:	f0ffffe0 	adrp	x0, 401000 <__abi_tag+0xd88>
  40285c:	91378001 	add	x1, x0, #0xde0
  402860:	aa0203e0 	mov	x0, x2
  402864:	97fffdaf 	bl	401f20 <_ZNSolsEPFRSoS_E@plt>
  402868:	f901c7ff 	str	xzr, [sp, #904]
  40286c:	910323e0 	add	x0, sp, #0xc8
  402870:	940005d0 	bl	403fb0 <_ZNKSt6vectorINSt7__cxx1112basic_stringIcSt11char_traitsIcESaIcEEESaIS5_EE4sizeEv>
  402874:	aa0003e1 	mov	x1, x0
  402878:	f941c7e0 	ldr	x0, [sp, #904]
  40287c:	eb01001f 	cmp	x0, x1
  402880:	1a9f27e0 	cset	w0, cc  // cc = lo, ul, last
  402884:	12001c00 	and	w0, w0, #0xff
  402888:	7100001f 	cmp	w0, #0x0
  40288c:	54000a60 	b.eq	4029d8 <_ZL19RunCorrectnessTestsv+0x55c>  // b.none
  402890:	910323e0 	add	x0, sp, #0xc8
  402894:	f941c7e1 	ldr	x1, [sp, #904]
  402898:	940005d0 	bl	403fd8 <_ZNSt6vectorINSt7__cxx1112basic_stringIcSt11char_traitsIcESaIcEEESaIS5_EEixEm>
  40289c:	aa0003e2 	mov	x2, x0
  4028a0:	910283e0 	add	x0, sp, #0xa0
  4028a4:	aa0003e1 	mov	x1, x0
  4028a8:	aa0203e0 	mov	x0, x2
  4028ac:	94004dbd 	bl	415fa0 <_Z7MD5HashRKNSt7__cxx1112basic_stringIcSt11char_traitsIcESaIcEEEPj>
  4028b0:	910283e0 	add	x0, sp, #0xa0
  4028b4:	910183e1 	add	x1, sp, #0x60
  4028b8:	aa0103e8 	mov	x8, x1
  4028bc:	97fffe62 	bl	402244 <_ZL13Md5StateToHexPKj>
  4028c0:	9102c3e0 	add	x0, sp, #0xb0
  4028c4:	f941c7e1 	ldr	x1, [sp, #904]
  4028c8:	940005c4 	bl	403fd8 <_ZNSt6vectorINSt7__cxx1112basic_stringIcSt11char_traitsIcESaIcEEESaIS5_EEixEm>
  4028cc:	aa0003e1 	mov	x1, x0
  4028d0:	910183e0 	add	x0, sp, #0x60
  4028d4:	940005cb 	bl	404000 <_ZStneIcSt11char_traitsIcESaIcEEbRKNSt7__cxx1112basic_stringIT_T0_T1_EESA_>
  4028d8:	12001c00 	and	w0, w0, #0xff
  4028dc:	7100001f 	cmp	w0, #0x0
  4028e0:	540006a0 	b.eq	4029b4 <_ZL19RunCorrectnessTestsv+0x538>  // b.none
  4028e4:	d00000e0 	adrp	x0, 420000 <_Z19MD5Hash_simdversionPKNSt7__cxx1112basic_stringIcSt11char_traitsIcESaIcEEEP12__Uint32x4_t+0x3adc>
  4028e8:	91360001 	add	x1, x0, #0xd80
  4028ec:	d00001e0 	adrp	x0, 440000 <_Znam@GLIBCXX_3.4>
  4028f0:	9108c000 	add	x0, x0, #0x230
  4028f4:	97fffd7f 	bl	401ef0 <_ZStlsISt11char_traitsIcEERSt13basic_ostreamIcT_ES5_PKc@plt>
  4028f8:	aa0003f3 	mov	x19, x0
  4028fc:	910323e0 	add	x0, sp, #0xc8
  402900:	f941c7e1 	ldr	x1, [sp, #904]
  402904:	940005b5 	bl	403fd8 <_ZNSt6vectorINSt7__cxx1112basic_stringIcSt11char_traitsIcESaIcEEESaIS5_EEixEm>
  402908:	aa0003e1 	mov	x1, x0
  40290c:	aa1303e0 	mov	x0, x19
  402910:	97fffd70 	bl	401ed0 <_ZStlsIcSt11char_traitsIcESaIcEERSt13basic_ostreamIT_T0_ES7_RKNSt7__cxx1112basic_stringIS4_S5_T1_EE@plt>
  402914:	aa0003e2 	mov	x2, x0
  402918:	d00000e0 	adrp	x0, 420000 <_Z19MD5Hash_simdversionPKNSt7__cxx1112basic_stringIcSt11char_traitsIcESaIcEEEP12__Uint32x4_t+0x3adc>
  40291c:	91368001 	add	x1, x0, #0xda0
  402920:	aa0203e0 	mov	x0, x2
  402924:	97fffd73 	bl	401ef0 <_ZStlsISt11char_traitsIcEERSt13basic_ostreamIcT_ES5_PKc@plt>
  402928:	aa0003e2 	mov	x2, x0
  40292c:	f0ffffe0 	adrp	x0, 401000 <__abi_tag+0xd88>
  402930:	91378001 	add	x1, x0, #0xde0
  402934:	aa0203e0 	mov	x0, x2
  402938:	97fffd7a 	bl	401f20 <_ZNSolsEPFRSoS_E@plt>
  40293c:	d00000e0 	adrp	x0, 420000 <_Z19MD5Hash_simdversionPKNSt7__cxx1112basic_stringIcSt11char_traitsIcESaIcEEEP12__Uint32x4_t+0x3adc>
  402940:	9136a001 	add	x1, x0, #0xda8
  402944:	d00001e0 	adrp	x0, 440000 <_Znam@GLIBCXX_3.4>
  402948:	9108c000 	add	x0, x0, #0x230
  40294c:	97fffd69 	bl	401ef0 <_ZStlsISt11char_traitsIcEERSt13basic_ostreamIcT_ES5_PKc@plt>
  402950:	aa0003f3 	mov	x19, x0
  402954:	9102c3e0 	add	x0, sp, #0xb0
  402958:	f941c7e1 	ldr	x1, [sp, #904]
  40295c:	9400059f 	bl	403fd8 <_ZNSt6vectorINSt7__cxx1112basic_stringIcSt11char_traitsIcESaIcEEESaIS5_EEixEm>
  402960:	aa0003e1 	mov	x1, x0
  402964:	aa1303e0 	mov	x0, x19
  402968:	97fffd5a 	bl	401ed0 <_ZStlsIcSt11char_traitsIcESaIcEERSt13basic_ostreamIT_T0_ES7_RKNSt7__cxx1112basic_stringIS4_S5_T1_EE@plt>
  40296c:	aa0003e2 	mov	x2, x0
  402970:	d00000e0 	adrp	x0, 420000 <_Z19MD5Hash_simdversionPKNSt7__cxx1112basic_stringIcSt11char_traitsIcESaIcEEEP12__Uint32x4_t+0x3adc>
  402974:	9136e001 	add	x1, x0, #0xdb8
  402978:	aa0203e0 	mov	x0, x2
  40297c:	97fffd5d 	bl	401ef0 <_ZStlsISt11char_traitsIcEERSt13basic_ostreamIcT_ES5_PKc@plt>
  402980:	aa0003e2 	mov	x2, x0
  402984:	910183e0 	add	x0, sp, #0x60
  402988:	aa0003e1 	mov	x1, x0
  40298c:	aa0203e0 	mov	x0, x2
  402990:	97fffd50 	bl	401ed0 <_ZStlsIcSt11char_traitsIcESaIcEERSt13basic_ostreamIT_T0_ES7_RKNSt7__cxx1112basic_stringIS4_S5_T1_EE@plt>
  402994:	aa0003e2 	mov	x2, x0
  402998:	f0ffffe0 	adrp	x0, 401000 <__abi_tag+0xd88>
  40299c:	91378001 	add	x1, x0, #0xde0
  4029a0:	aa0203e0 	mov	x0, x2
  4029a4:	97fffd5f 	bl	401f20 <_ZNSolsEPFRSoS_E@plt>
  4029a8:	52800018 	mov	w24, #0x0                   	// #0
  4029ac:	52800013 	mov	w19, #0x0                   	// #0
  4029b0:	14000002 	b	4029b8 <_ZL19RunCorrectnessTestsv+0x53c>
  4029b4:	52800033 	mov	w19, #0x1                   	// #1
  4029b8:	910183e0 	add	x0, sp, #0x60
  4029bc:	97fffd25 	bl	401e50 <_ZNSt7__cxx1112basic_stringIcSt11char_traitsIcESaIcEED1Ev@plt>
  4029c0:	7100067f 	cmp	w19, #0x1
  4029c4:	540011a1 	b.ne	402bf8 <_ZL19RunCorrectnessTestsv+0x77c>  // b.any
  4029c8:	f941c7e0 	ldr	x0, [sp, #904]
  4029cc:	91000400 	add	x0, x0, #0x1
  4029d0:	f901c7e0 	str	x0, [sp, #904]
  4029d4:	17ffffa6 	b	40286c <_ZL19RunCorrectnessTestsv+0x3f0>
  4029d8:	d00000e0 	adrp	x0, 420000 <_Z19MD5Hash_simdversionPKNSt7__cxx1112basic_stringIcSt11char_traitsIcESaIcEEEP12__Uint32x4_t+0x3adc>
  4029dc:	91372001 	add	x1, x0, #0xdc8
  4029e0:	d00001e0 	adrp	x0, 440000 <_Znam@GLIBCXX_3.4>
  4029e4:	9108c000 	add	x0, x0, #0x230
  4029e8:	97fffd42 	bl	401ef0 <_ZStlsISt11char_traitsIcEERSt13basic_ostreamIcT_ES5_PKc@plt>
  4029ec:	aa0003e2 	mov	x2, x0
  4029f0:	f0ffffe0 	adrp	x0, 401000 <__abi_tag+0xd88>
  4029f4:	91378001 	add	x1, x0, #0xde0
  4029f8:	aa0203e0 	mov	x0, x2
  4029fc:	97fffd49 	bl	401f20 <_ZNSolsEPFRSoS_E@plt>
  402a00:	d00000e0 	adrp	x0, 420000 <_Z19MD5Hash_simdversionPKNSt7__cxx1112basic_stringIcSt11char_traitsIcESaIcEEEP12__Uint32x4_t+0x3adc>
  402a04:	91378001 	add	x1, x0, #0xde0
  402a08:	d00001e0 	adrp	x0, 440000 <_Znam@GLIBCXX_3.4>
  402a0c:	9108c000 	add	x0, x0, #0x230
  402a10:	97fffd38 	bl	401ef0 <_ZStlsISt11char_traitsIcEERSt13basic_ostreamIcT_ES5_PKc@plt>
  402a14:	aa0003e2 	mov	x2, x0
  402a18:	f0ffffe0 	adrp	x0, 401000 <__abi_tag+0xd88>
  402a1c:	91378001 	add	x1, x0, #0xde0
  402a20:	aa0203e0 	mov	x0, x2
  402a24:	97fffd3f 	bl	401f20 <_ZNSolsEPFRSoS_E@plt>
  402a28:	f901c3ff 	str	xzr, [sp, #896]
  402a2c:	910323e0 	add	x0, sp, #0xc8
  402a30:	94000560 	bl	403fb0 <_ZNKSt6vectorINSt7__cxx1112basic_stringIcSt11char_traitsIcESaIcEEESaIS5_EE4sizeEv>
  402a34:	aa0003e1 	mov	x1, x0
  402a38:	f941c3e0 	ldr	x0, [sp, #896]
  402a3c:	eb01001f 	cmp	x0, x1
  402a40:	1a9f27e0 	cset	w0, cc  // cc = lo, ul, last
  402a44:	12001c00 	and	w0, w0, #0xff
  402a48:	7100001f 	cmp	w0, #0x0
  402a4c:	54000c00 	b.eq	402bcc <_ZL19RunCorrectnessTestsv+0x750>  // b.none
  402a50:	910323e0 	add	x0, sp, #0xc8
  402a54:	f941c3e1 	ldr	x1, [sp, #896]
  402a58:	94000560 	bl	403fd8 <_ZNSt6vectorINSt7__cxx1112basic_stringIcSt11char_traitsIcESaIcEEESaIS5_EEixEm>
  402a5c:	aa0003e2 	mov	x2, x0
  402a60:	910183e0 	add	x0, sp, #0x60
  402a64:	aa0003e1 	mov	x1, x0
  402a68:	aa0203e0 	mov	x0, x2
  402a6c:	940066ae 	bl	41c524 <_Z19MD5Hash_simdversionPKNSt7__cxx1112basic_stringIcSt11char_traitsIcESaIcEEEP12__Uint32x4_t>
  402a70:	b9037fff 	str	wzr, [sp, #892]
  402a74:	b9437fe0 	ldr	w0, [sp, #892]
  402a78:	71000c1f 	cmp	w0, #0x3
  402a7c:	54000a0c 	b.gt	402bbc <_ZL19RunCorrectnessTestsv+0x740>
  402a80:	b9837fe0 	ldrsw	x0, [sp, #892]
  402a84:	f941c3e1 	ldr	x1, [sp, #896]
  402a88:	8b000020 	add	x0, x1, x0
  402a8c:	f901bbe0 	str	x0, [sp, #880]
  402a90:	910183e0 	add	x0, sp, #0x60
  402a94:	910103e1 	add	x1, sp, #0x40
  402a98:	aa0103e8 	mov	x8, x1
  402a9c:	b9437fe1 	ldr	w1, [sp, #892]
  402aa0:	97fffe22 	bl	402328 <_ZL13SimdLaneToHexP12__Uint32x4_ti>
  402aa4:	9102c3e0 	add	x0, sp, #0xb0
  402aa8:	f941bbe1 	ldr	x1, [sp, #880]
  402aac:	9400054b 	bl	403fd8 <_ZNSt6vectorINSt7__cxx1112basic_stringIcSt11char_traitsIcESaIcEEESaIS5_EEixEm>
  402ab0:	aa0003e1 	mov	x1, x0
  402ab4:	910103e0 	add	x0, sp, #0x40
  402ab8:	94000552 	bl	404000 <_ZStneIcSt11char_traitsIcESaIcEEbRKNSt7__cxx1112basic_stringIT_T0_T1_EESA_>
  402abc:	12001c00 	and	w0, w0, #0xff
  402ac0:	7100001f 	cmp	w0, #0x0
  402ac4:	540006a0 	b.eq	402b98 <_ZL19RunCorrectnessTestsv+0x71c>  // b.none
  402ac8:	d00000e0 	adrp	x0, 420000 <_Z19MD5Hash_simdversionPKNSt7__cxx1112basic_stringIcSt11char_traitsIcESaIcEEEP12__Uint32x4_t+0x3adc>
  402acc:	91384001 	add	x1, x0, #0xe10
  402ad0:	d00001e0 	adrp	x0, 440000 <_Znam@GLIBCXX_3.4>
  402ad4:	9108c000 	add	x0, x0, #0x230
  402ad8:	97fffd06 	bl	401ef0 <_ZStlsISt11char_traitsIcEERSt13basic_ostreamIcT_ES5_PKc@plt>
  402adc:	aa0003f3 	mov	x19, x0
  402ae0:	910323e0 	add	x0, sp, #0xc8
  402ae4:	f941bbe1 	ldr	x1, [sp, #880]
  402ae8:	9400053c 	bl	403fd8 <_ZNSt6vectorINSt7__cxx1112basic_stringIcSt11char_traitsIcESaIcEEESaIS5_EEixEm>
  402aec:	aa0003e1 	mov	x1, x0
  402af0:	aa1303e0 	mov	x0, x19
  402af4:	97fffcf7 	bl	401ed0 <_ZStlsIcSt11char_traitsIcESaIcEERSt13basic_ostreamIT_T0_ES7_RKNSt7__cxx1112basic_stringIS4_S5_T1_EE@plt>
  402af8:	aa0003e2 	mov	x2, x0
  402afc:	d00000e0 	adrp	x0, 420000 <_Z19MD5Hash_simdversionPKNSt7__cxx1112basic_stringIcSt11char_traitsIcESaIcEEEP12__Uint32x4_t+0x3adc>
  402b00:	91368001 	add	x1, x0, #0xda0
  402b04:	aa0203e0 	mov	x0, x2
  402b08:	97fffcfa 	bl	401ef0 <_ZStlsISt11char_traitsIcEERSt13basic_ostreamIcT_ES5_PKc@plt>
  402b0c:	aa0003e2 	mov	x2, x0
  402b10:	f0ffffe0 	adrp	x0, 401000 <__abi_tag+0xd88>
  402b14:	91378001 	add	x1, x0, #0xde0
  402b18:	aa0203e0 	mov	x0, x2
  402b1c:	97fffd01 	bl	401f20 <_ZNSolsEPFRSoS_E@plt>
  402b20:	d00000e0 	adrp	x0, 420000 <_Z19MD5Hash_simdversionPKNSt7__cxx1112basic_stringIcSt11char_traitsIcESaIcEEEP12__Uint32x4_t+0x3adc>
  402b24:	9136a001 	add	x1, x0, #0xda8
  402b28:	d00001e0 	adrp	x0, 440000 <_Znam@GLIBCXX_3.4>
  402b2c:	9108c000 	add	x0, x0, #0x230
  402b30:	97fffcf0 	bl	401ef0 <_ZStlsISt11char_traitsIcEERSt13basic_ostreamIcT_ES5_PKc@plt>
  402b34:	aa0003f3 	mov	x19, x0
  402b38:	9102c3e0 	add	x0, sp, #0xb0
  402b3c:	f941bbe1 	ldr	x1, [sp, #880]
  402b40:	94000526 	bl	403fd8 <_ZNSt6vectorINSt7__cxx1112basic_stringIcSt11char_traitsIcESaIcEEESaIS5_EEixEm>
  402b44:	aa0003e1 	mov	x1, x0
  402b48:	aa1303e0 	mov	x0, x19
  402b4c:	97fffce1 	bl	401ed0 <_ZStlsIcSt11char_traitsIcESaIcEERSt13basic_ostreamIT_T0_ES7_RKNSt7__cxx1112basic_stringIS4_S5_T1_EE@plt>
  402b50:	aa0003e2 	mov	x2, x0
  402b54:	d00000e0 	adrp	x0, 420000 <_Z19MD5Hash_simdversionPKNSt7__cxx1112basic_stringIcSt11char_traitsIcESaIcEEEP12__Uint32x4_t+0x3adc>
  402b58:	9136e001 	add	x1, x0, #0xdb8
  402b5c:	aa0203e0 	mov	x0, x2
  402b60:	97fffce4 	bl	401ef0 <_ZStlsISt11char_traitsIcEERSt13basic_ostreamIcT_ES5_PKc@plt>
  402b64:	aa0003e2 	mov	x2, x0
  402b68:	910103e0 	add	x0, sp, #0x40
  402b6c:	aa0003e1 	mov	x1, x0
  402b70:	aa0203e0 	mov	x0, x2
  402b74:	97fffcd7 	bl	401ed0 <_ZStlsIcSt11char_traitsIcESaIcEERSt13basic_ostreamIT_T0_ES7_RKNSt7__cxx1112basic_stringIS4_S5_T1_EE@plt>
  402b78:	aa0003e2 	mov	x2, x0
  402b7c:	f0ffffe0 	adrp	x0, 401000 <__abi_tag+0xd88>
  402b80:	91378001 	add	x1, x0, #0xde0
  402b84:	aa0203e0 	mov	x0, x2
  402b88:	97fffce6 	bl	401f20 <_ZNSolsEPFRSoS_E@plt>
  402b8c:	52800018 	mov	w24, #0x0                   	// #0
  402b90:	52800013 	mov	w19, #0x0                   	// #0
  402b94:	14000002 	b	402b9c <_ZL19RunCorrectnessTestsv+0x720>
  402b98:	52800033 	mov	w19, #0x1                   	// #1
  402b9c:	910103e0 	add	x0, sp, #0x40
  402ba0:	97fffcac 	bl	401e50 <_ZNSt7__cxx1112basic_stringIcSt11char_traitsIcESaIcEED1Ev@plt>
  402ba4:	7100067f 	cmp	w19, #0x1
  402ba8:	54000281 	b.ne	402bf8 <_ZL19RunCorrectnessTestsv+0x77c>  // b.any
  402bac:	b9437fe0 	ldr	w0, [sp, #892]
  402bb0:	11000400 	add	w0, w0, #0x1
  402bb4:	b9037fe0 	str	w0, [sp, #892]
  402bb8:	17ffffaf 	b	402a74 <_ZL19RunCorrectnessTestsv+0x5f8>
  402bbc:	f941c3e0 	ldr	x0, [sp, #896]
  402bc0:	91001000 	add	x0, x0, #0x4
  402bc4:	f901c3e0 	str	x0, [sp, #896]
  402bc8:	17ffff99 	b	402a2c <_ZL19RunCorrectnessTestsv+0x5b0>
  402bcc:	d00000e0 	adrp	x0, 420000 <_Z19MD5Hash_simdversionPKNSt7__cxx1112basic_stringIcSt11char_traitsIcESaIcEEEP12__Uint32x4_t+0x3adc>
  402bd0:	9138c001 	add	x1, x0, #0xe30
  402bd4:	d00001e0 	adrp	x0, 440000 <_Znam@GLIBCXX_3.4>
  402bd8:	9108c000 	add	x0, x0, #0x230
  402bdc:	97fffcc5 	bl	401ef0 <_ZStlsISt11char_traitsIcEERSt13basic_ostreamIcT_ES5_PKc@plt>
  402be0:	aa0003e2 	mov	x2, x0
  402be4:	f0ffffe0 	adrp	x0, 401000 <__abi_tag+0xd88>
  402be8:	91378001 	add	x1, x0, #0xde0
  402bec:	aa0203e0 	mov	x0, x2
  402bf0:	97fffccc 	bl	401f20 <_ZNSolsEPFRSoS_E@plt>
  402bf4:	52800038 	mov	w24, #0x1                   	// #1
  402bf8:	9102c3e0 	add	x0, sp, #0xb0
  402bfc:	94000450 	bl	403d3c <_ZNSt6vectorINSt7__cxx1112basic_stringIcSt11char_traitsIcESaIcEEESaIS5_EED1Ev>
  402c00:	910323e0 	add	x0, sp, #0xc8
  402c04:	9400044e 	bl	403d3c <_ZNSt6vectorINSt7__cxx1112basic_stringIcSt11char_traitsIcESaIcEEESaIS5_EED1Ev>
  402c08:	2a1803e0 	mov	w0, w24
  402c0c:	1400006f 	b	402dc8 <_ZL19RunCorrectnessTestsv+0x94c>
  402c10:	aa0003f3 	mov	x19, x0
  402c14:	910883e0 	add	x0, sp, #0x220
  402c18:	9400042d 	bl	403ccc <_ZNSaINSt7__cxx1112basic_stringIcSt11char_traitsIcESaIcEEEED1Ev>
  402c1c:	aa1303f4 	mov	x20, x19
  402c20:	910383f3 	add	x19, sp, #0xe0
  402c24:	91040273 	add	x19, x19, #0x100
  402c28:	910383e0 	add	x0, sp, #0xe0
  402c2c:	eb00027f 	cmp	x19, x0
  402c30:	540000a0 	b.eq	402c44 <_ZL19RunCorrectnessTestsv+0x7c8>  // b.none
  402c34:	d1008273 	sub	x19, x19, #0x20
  402c38:	aa1303e0 	mov	x0, x19
  402c3c:	97fffc85 	bl	401e50 <_ZNSt7__cxx1112basic_stringIcSt11char_traitsIcESaIcEED1Ev@plt>
  402c40:	17fffffa 	b	402c28 <_ZL19RunCorrectnessTestsv+0x7ac>
  402c44:	aa1403f3 	mov	x19, x20
  402c48:	14000002 	b	402c50 <_ZL19RunCorrectnessTestsv+0x7d4>
  402c4c:	aa0003f3 	mov	x19, x0
  402c50:	910863e0 	add	x0, sp, #0x218
  402c54:	97fffcb7 	bl	401f30 <_ZNSaIcED1Ev@plt>
  402c58:	14000002 	b	402c60 <_ZL19RunCorrectnessTestsv+0x7e4>
  402c5c:	aa0003f3 	mov	x19, x0
  402c60:	910843e0 	add	x0, sp, #0x210
  402c64:	97fffcb3 	bl	401f30 <_ZNSaIcED1Ev@plt>
  402c68:	14000002 	b	402c70 <_ZL19RunCorrectnessTestsv+0x7f4>
  402c6c:	aa0003f3 	mov	x19, x0
  402c70:	910823e0 	add	x0, sp, #0x208
  402c74:	97fffcaf 	bl	401f30 <_ZNSaIcED1Ev@plt>
  402c78:	14000002 	b	402c80 <_ZL19RunCorrectnessTestsv+0x804>
  402c7c:	aa0003f3 	mov	x19, x0
  402c80:	910803e0 	add	x0, sp, #0x200
  402c84:	97fffcab 	bl	401f30 <_ZNSaIcED1Ev@plt>
  402c88:	14000002 	b	402c90 <_ZL19RunCorrectnessTestsv+0x814>
  402c8c:	aa0003f3 	mov	x19, x0
  402c90:	9107e3e0 	add	x0, sp, #0x1f8
  402c94:	97fffca7 	bl	401f30 <_ZNSaIcED1Ev@plt>
  402c98:	14000002 	b	402ca0 <_ZL19RunCorrectnessTestsv+0x824>
  402c9c:	aa0003f3 	mov	x19, x0
  402ca0:	9107c3e0 	add	x0, sp, #0x1f0
  402ca4:	97fffca3 	bl	401f30 <_ZNSaIcED1Ev@plt>
  402ca8:	14000002 	b	402cb0 <_ZL19RunCorrectnessTestsv+0x834>
  402cac:	aa0003f3 	mov	x19, x0
  402cb0:	9107a3e0 	add	x0, sp, #0x1e8
  402cb4:	97fffc9f 	bl	401f30 <_ZNSaIcED1Ev@plt>
  402cb8:	14000002 	b	402cc0 <_ZL19RunCorrectnessTestsv+0x844>
  402cbc:	aa0003f3 	mov	x19, x0
  402cc0:	910783e0 	add	x0, sp, #0x1e0
  402cc4:	97fffc9b 	bl	401f30 <_ZNSaIcED1Ev@plt>
  402cc8:	aa1303e0 	mov	x0, x19
  402ccc:	97fffd05 	bl	4020e0 <_Unwind_Resume@plt>
  402cd0:	aa0003f3 	mov	x19, x0
  402cd4:	910da3e0 	add	x0, sp, #0x368
  402cd8:	940003fd 	bl	403ccc <_ZNSaINSt7__cxx1112basic_stringIcSt11char_traitsIcESaIcEEEED1Ev>
  402cdc:	aa1303f4 	mov	x20, x19
  402ce0:	9108a3f3 	add	x19, sp, #0x228
  402ce4:	91040273 	add	x19, x19, #0x100
  402ce8:	9108a3e0 	add	x0, sp, #0x228
  402cec:	eb00027f 	cmp	x19, x0
  402cf0:	540000a0 	b.eq	402d04 <_ZL19RunCorrectnessTestsv+0x888>  // b.none
  402cf4:	d1008273 	sub	x19, x19, #0x20
  402cf8:	aa1303e0 	mov	x0, x19
  402cfc:	97fffc55 	bl	401e50 <_ZNSt7__cxx1112basic_stringIcSt11char_traitsIcESaIcEED1Ev@plt>
  402d00:	17fffffa 	b	402ce8 <_ZL19RunCorrectnessTestsv+0x86c>
  402d04:	aa1403f3 	mov	x19, x20
  402d08:	14000002 	b	402d10 <_ZL19RunCorrectnessTestsv+0x894>
  402d0c:	aa0003f3 	mov	x19, x0
  402d10:	910d83e0 	add	x0, sp, #0x360
  402d14:	97fffc87 	bl	401f30 <_ZNSaIcED1Ev@plt>
  402d18:	14000002 	b	402d20 <_ZL19RunCorrectnessTestsv+0x8a4>
  402d1c:	aa0003f3 	mov	x19, x0
  402d20:	910d63e0 	add	x0, sp, #0x358
  402d24:	97fffc83 	bl	401f30 <_ZNSaIcED1Ev@plt>
  402d28:	14000002 	b	402d30 <_ZL19RunCorrectnessTestsv+0x8b4>
  402d2c:	aa0003f3 	mov	x19, x0
  402d30:	910d43e0 	add	x0, sp, #0x350
  402d34:	97fffc7f 	bl	401f30 <_ZNSaIcED1Ev@plt>
  402d38:	14000002 	b	402d40 <_ZL19RunCorrectnessTestsv+0x8c4>
  402d3c:	aa0003f3 	mov	x19, x0
  402d40:	910d23e0 	add	x0, sp, #0x348
  402d44:	97fffc7b 	bl	401f30 <_ZNSaIcED1Ev@plt>
  402d48:	14000002 	b	402d50 <_ZL19RunCorrectnessTestsv+0x8d4>
  402d4c:	aa0003f3 	mov	x19, x0
  402d50:	910d03e0 	add	x0, sp, #0x340
  402d54:	97fffc77 	bl	401f30 <_ZNSaIcED1Ev@plt>
  402d58:	14000002 	b	402d60 <_ZL19RunCorrectnessTestsv+0x8e4>
  402d5c:	aa0003f3 	mov	x19, x0
  402d60:	910ce3e0 	add	x0, sp, #0x338
  402d64:	97fffc73 	bl	401f30 <_ZNSaIcED1Ev@plt>
  402d68:	14000002 	b	402d70 <_ZL19RunCorrectnessTestsv+0x8f4>
  402d6c:	aa0003f3 	mov	x19, x0
  402d70:	910cc3e0 	add	x0, sp, #0x330
  402d74:	97fffc6f 	bl	401f30 <_ZNSaIcED1Ev@plt>
  402d78:	14000002 	b	402d80 <_ZL19RunCorrectnessTestsv+0x904>
  402d7c:	aa0003f3 	mov	x19, x0
  402d80:	910ca3e0 	add	x0, sp, #0x328
  402d84:	97fffc6b 	bl	401f30 <_ZNSaIcED1Ev@plt>
  402d88:	1400000c 	b	402db8 <_ZL19RunCorrectnessTestsv+0x93c>
  402d8c:	aa0003f3 	mov	x19, x0
  402d90:	910183e0 	add	x0, sp, #0x60
  402d94:	97fffc2f 	bl	401e50 <_ZNSt7__cxx1112basic_stringIcSt11char_traitsIcESaIcEED1Ev@plt>
  402d98:	14000006 	b	402db0 <_ZL19RunCorrectnessTestsv+0x934>
  402d9c:	aa0003f3 	mov	x19, x0
  402da0:	910103e0 	add	x0, sp, #0x40
  402da4:	97fffc2b 	bl	401e50 <_ZNSt7__cxx1112basic_stringIcSt11char_traitsIcESaIcEED1Ev@plt>
  402da8:	14000002 	b	402db0 <_ZL19RunCorrectnessTestsv+0x934>
  402dac:	aa0003f3 	mov	x19, x0
  402db0:	9102c3e0 	add	x0, sp, #0xb0
  402db4:	940003e2 	bl	403d3c <_ZNSt6vectorINSt7__cxx1112basic_stringIcSt11char_traitsIcESaIcEEESaIS5_EED1Ev>
  402db8:	910323e0 	add	x0, sp, #0xc8
  402dbc:	940003e0 	bl	403d3c <_ZNSt6vectorINSt7__cxx1112basic_stringIcSt11char_traitsIcESaIcEEESaIS5_EED1Ev>
  402dc0:	aa1303e0 	mov	x0, x19
  402dc4:	97fffcc7 	bl	4020e0 <_Unwind_Resume@plt>
  402dc8:	a94153f3 	ldp	x19, x20, [sp, #16]
  402dcc:	a9425bf5 	ldp	x21, x22, [sp, #32]
  402dd0:	a94363f7 	ldp	x23, x24, [sp, #48]
  402dd4:	a9407bfd 	ldp	x29, x30, [sp]
  402dd8:	910e43ff 	add	sp, sp, #0x390
  402ddc:	d65f03c0 	ret

0000000000402de0 <_ZL11UseSimdHashiPPc>:
  402de0:	a9ba7bfd 	stp	x29, x30, [sp, #-96]!
  402de4:	910003fd 	mov	x29, sp
  402de8:	f9000bf3 	str	x19, [sp, #16]
  402dec:	b9002fe0 	str	w0, [sp, #44]
  402df0:	f90013e1 	str	x1, [sp, #32]
  402df4:	52800020 	mov	w0, #0x1                   	// #1
  402df8:	b9005fe0 	str	w0, [sp, #92]
  402dfc:	b9405fe1 	ldr	w1, [sp, #92]
  402e00:	b9402fe0 	ldr	w0, [sp, #44]
  402e04:	6b00003f 	cmp	w1, w0
  402e08:	540003ea 	b.ge	402e84 <_ZL11UseSimdHashiPPc+0xa4>  // b.tcont
  402e0c:	b9805fe0 	ldrsw	x0, [sp, #92]
  402e10:	d37df000 	lsl	x0, x0, #3
  402e14:	f94013e1 	ldr	x1, [sp, #32]
  402e18:	8b000020 	add	x0, x1, x0
  402e1c:	f9400013 	ldr	x19, [x0]
  402e20:	910163e0 	add	x0, sp, #0x58
  402e24:	97fffcb3 	bl	4020f0 <_ZNSaIcEC1Ev@plt>
  402e28:	910163e1 	add	x1, sp, #0x58
  402e2c:	9100e3e0 	add	x0, sp, #0x38
  402e30:	aa0103e2 	mov	x2, x1
  402e34:	aa1303e1 	mov	x1, x19
  402e38:	97fffc76 	bl	402010 <_ZNSt7__cxx1112basic_stringIcSt11char_traitsIcESaIcEEC1EPKcRKS3_@plt>
  402e3c:	9100e3e2 	add	x2, sp, #0x38
  402e40:	d00000e0 	adrp	x0, 420000 <_Z19MD5Hash_simdversionPKNSt7__cxx1112basic_stringIcSt11char_traitsIcESaIcEEEP12__Uint32x4_t+0x3adc>
  402e44:	91396001 	add	x1, x0, #0xe58
  402e48:	aa0203e0 	mov	x0, x2
  402e4c:	94000479 	bl	404030 <_ZSteqIcSt11char_traitsIcESaIcEEbRKNSt7__cxx1112basic_stringIT_T0_T1_EEPKS5_>
  402e50:	12001c13 	and	w19, w0, #0xff
  402e54:	9100e3e0 	add	x0, sp, #0x38
  402e58:	97fffbfe 	bl	401e50 <_ZNSt7__cxx1112basic_stringIcSt11char_traitsIcESaIcEED1Ev@plt>
  402e5c:	910163e0 	add	x0, sp, #0x58
  402e60:	97fffc34 	bl	401f30 <_ZNSaIcED1Ev@plt>
  402e64:	7100027f 	cmp	w19, #0x0
  402e68:	54000060 	b.eq	402e74 <_ZL11UseSimdHashiPPc+0x94>  // b.none
  402e6c:	52800000 	mov	w0, #0x0                   	// #0
  402e70:	1400000c 	b	402ea0 <_ZL11UseSimdHashiPPc+0xc0>
  402e74:	b9405fe0 	ldr	w0, [sp, #92]
  402e78:	11000400 	add	w0, w0, #0x1
  402e7c:	b9005fe0 	str	w0, [sp, #92]
  402e80:	17ffffdf 	b	402dfc <_ZL11UseSimdHashiPPc+0x1c>
  402e84:	52800020 	mov	w0, #0x1                   	// #1
  402e88:	14000006 	b	402ea0 <_ZL11UseSimdHashiPPc+0xc0>
  402e8c:	aa0003f3 	mov	x19, x0
  402e90:	910163e0 	add	x0, sp, #0x58
  402e94:	97fffc27 	bl	401f30 <_ZNSaIcED1Ev@plt>
  402e98:	aa1303e0 	mov	x0, x19
  402e9c:	97fffc91 	bl	4020e0 <_Unwind_Resume@plt>
  402ea0:	f9400bf3 	ldr	x19, [sp, #16]
  402ea4:	a8c67bfd 	ldp	x29, x30, [sp], #96
  402ea8:	d65f03c0 	ret

0000000000402eac <_ZL17HashGuessesSerialRKSt6vectorINSt7__cxx1112basic_stringIcSt11char_traitsIcESaIcEEESaIS5_EE>:
  402eac:	a9bb7bfd 	stp	x29, x30, [sp, #-80]!
  402eb0:	910003fd 	mov	x29, sp
  402eb4:	f9000fe0 	str	x0, [sp, #24]
  402eb8:	f9400fe0 	ldr	x0, [sp, #24]
  402ebc:	f90027e0 	str	x0, [sp, #72]
  402ec0:	f94027e0 	ldr	x0, [sp, #72]
  402ec4:	94000467 	bl	404060 <_ZNKSt6vectorINSt7__cxx1112basic_stringIcSt11char_traitsIcESaIcEEESaIS5_EE5beginEv>
  402ec8:	f90017e0 	str	x0, [sp, #40]
  402ecc:	f94027e0 	ldr	x0, [sp, #72]
  402ed0:	9400046d 	bl	404084 <_ZNKSt6vectorINSt7__cxx1112basic_stringIcSt11char_traitsIcESaIcEEESaIS5_EE3endEv>
  402ed4:	f90013e0 	str	x0, [sp, #32]
  402ed8:	910083e1 	add	x1, sp, #0x20
  402edc:	9100a3e0 	add	x0, sp, #0x28
  402ee0:	94000473 	bl	4040ac <_ZN9__gnu_cxxneIPKNSt7__cxx1112basic_stringIcSt11char_traitsIcESaIcEEESt6vectorIS6_SaIS6_EEEEbRKNS_17__normal_iteratorIT_T0_EESH_>
  402ee4:	12001c00 	and	w0, w0, #0xff
  402ee8:	7100001f 	cmp	w0, #0x0
  402eec:	54000160 	b.eq	402f18 <_ZL17HashGuessesSerialRKSt6vectorINSt7__cxx1112basic_stringIcSt11char_traitsIcESaIcEEESaIS5_EE+0x6c>  // b.none
  402ef0:	9100a3e0 	add	x0, sp, #0x28
  402ef4:	94000489 	bl	404118 <_ZNK9__gnu_cxx17__normal_iteratorIPKNSt7__cxx1112basic_stringIcSt11char_traitsIcESaIcEEESt6vectorIS6_SaIS6_EEEdeEv>
  402ef8:	f90023e0 	str	x0, [sp, #64]
  402efc:	9100c3e0 	add	x0, sp, #0x30
  402f00:	aa0003e1 	mov	x1, x0
  402f04:	f94023e0 	ldr	x0, [sp, #64]
  402f08:	94004c26 	bl	415fa0 <_Z7MD5HashRKNSt7__cxx1112basic_stringIcSt11char_traitsIcESaIcEEEPj>
  402f0c:	9100a3e0 	add	x0, sp, #0x28
  402f10:	94000478 	bl	4040f0 <_ZN9__gnu_cxx17__normal_iteratorIPKNSt7__cxx1112basic_stringIcSt11char_traitsIcESaIcEEESt6vectorIS6_SaIS6_EEEppEv>
  402f14:	17fffff1 	b	402ed8 <_ZL17HashGuessesSerialRKSt6vectorINSt7__cxx1112basic_stringIcSt11char_traitsIcESaIcEEESaIS5_EE+0x2c>
  402f18:	d503201f 	nop
  402f1c:	a8c57bfd 	ldp	x29, x30, [sp], #80
  402f20:	d65f03c0 	ret

0000000000402f24 <_ZL15HashGuessesSimdRKSt6vectorINSt7__cxx1112basic_stringIcSt11char_traitsIcESaIcEEESaIS5_EE>:
  402f24:	a9b77bfd 	stp	x29, x30, [sp, #-144]!
  402f28:	910003fd 	mov	x29, sp
  402f2c:	f9000bf3 	str	x19, [sp, #16]
  402f30:	f90017e0 	str	x0, [sp, #40]
  402f34:	f90047ff 	str	xzr, [sp, #136]
  402f38:	f94047e0 	ldr	x0, [sp, #136]
  402f3c:	91000c13 	add	x19, x0, #0x3
  402f40:	f94017e0 	ldr	x0, [sp, #40]
  402f44:	9400041b 	bl	403fb0 <_ZNKSt6vectorINSt7__cxx1112basic_stringIcSt11char_traitsIcESaIcEEESaIS5_EE4sizeEv>
  402f48:	eb00027f 	cmp	x19, x0
  402f4c:	1a9f27e0 	cset	w0, cc  // cc = lo, ul, last
  402f50:	12001c00 	and	w0, w0, #0xff
  402f54:	7100001f 	cmp	w0, #0x0
  402f58:	540001a0 	b.eq	402f8c <_ZL15HashGuessesSimdRKSt6vectorINSt7__cxx1112basic_stringIcSt11char_traitsIcESaIcEEESaIS5_EE+0x68>  // b.none
  402f5c:	f94047e1 	ldr	x1, [sp, #136]
  402f60:	f94017e0 	ldr	x0, [sp, #40]
  402f64:	94000473 	bl	404130 <_ZNKSt6vectorINSt7__cxx1112basic_stringIcSt11char_traitsIcESaIcEEESaIS5_EEixEm>
  402f68:	aa0003e2 	mov	x2, x0
  402f6c:	910103e0 	add	x0, sp, #0x40
  402f70:	aa0003e1 	mov	x1, x0
  402f74:	aa0203e0 	mov	x0, x2
  402f78:	9400656b 	bl	41c524 <_Z19MD5Hash_simdversionPKNSt7__cxx1112basic_stringIcSt11char_traitsIcESaIcEEEP12__Uint32x4_t>
  402f7c:	f94047e0 	ldr	x0, [sp, #136]
  402f80:	91001000 	add	x0, x0, #0x4
  402f84:	f90047e0 	str	x0, [sp, #136]
  402f88:	17ffffec 	b	402f38 <_ZL15HashGuessesSimdRKSt6vectorINSt7__cxx1112basic_stringIcSt11char_traitsIcESaIcEEESaIS5_EE+0x14>
  402f8c:	f94017e0 	ldr	x0, [sp, #40]
  402f90:	94000408 	bl	403fb0 <_ZNKSt6vectorINSt7__cxx1112basic_stringIcSt11char_traitsIcESaIcEEESaIS5_EE4sizeEv>
  402f94:	aa0003e1 	mov	x1, x0
  402f98:	f94047e0 	ldr	x0, [sp, #136]
  402f9c:	eb01001f 	cmp	x0, x1
  402fa0:	1a9f27e0 	cset	w0, cc  // cc = lo, ul, last
  402fa4:	12001c00 	and	w0, w0, #0xff
  402fa8:	7100001f 	cmp	w0, #0x0
  402fac:	540001a0 	b.eq	402fe0 <_ZL15HashGuessesSimdRKSt6vectorINSt7__cxx1112basic_stringIcSt11char_traitsIcESaIcEEESaIS5_EE+0xbc>  // b.none
  402fb0:	f94047e1 	ldr	x1, [sp, #136]
  402fb4:	f94017e0 	ldr	x0, [sp, #40]
  402fb8:	9400045e 	bl	404130 <_ZNKSt6vectorINSt7__cxx1112basic_stringIcSt11char_traitsIcESaIcEEESaIS5_EEixEm>
  402fbc:	aa0003e2 	mov	x2, x0
  402fc0:	9100c3e0 	add	x0, sp, #0x30
  402fc4:	aa0003e1 	mov	x1, x0
  402fc8:	aa0203e0 	mov	x0, x2
  402fcc:	94004bf5 	bl	415fa0 <_Z7MD5HashRKNSt7__cxx1112basic_stringIcSt11char_traitsIcESaIcEEEPj>
  402fd0:	f94047e0 	ldr	x0, [sp, #136]
  402fd4:	91000400 	add	x0, x0, #0x1
  402fd8:	f90047e0 	str	x0, [sp, #136]
  402fdc:	17ffffec 	b	402f8c <_ZL15HashGuessesSimdRKSt6vectorINSt7__cxx1112basic_stringIcSt11char_traitsIcESaIcEEESaIS5_EE+0x68>
  402fe0:	d503201f 	nop
  402fe4:	f9400bf3 	ldr	x19, [sp, #16]
  402fe8:	a8c97bfd 	ldp	x29, x30, [sp], #144
  402fec:	d65f03c0 	ret

0000000000402ff0 <main>:
  402ff0:	d10a43ff 	sub	sp, sp, #0x290
  402ff4:	a9007bfd 	stp	x29, x30, [sp]
  402ff8:	910003fd 	mov	x29, sp
  402ffc:	f9000bf3 	str	x19, [sp, #16]
  403000:	b9002fe0 	str	w0, [sp, #44]
  403004:	f90013e1 	str	x1, [sp, #32]
  403008:	f94013e1 	ldr	x1, [sp, #32]
  40300c:	b9402fe0 	ldr	w0, [sp, #44]
  403010:	97ffff74 	bl	402de0 <_ZL11UseSimdHashiPPc>
  403014:	12001c00 	and	w0, w0, #0xff
  403018:	3909ffe0 	strb	w0, [sp, #639]
  40301c:	97fffd18 	bl	40247c <_ZL19RunCorrectnessTestsv>
  403020:	12001c00 	and	w0, w0, #0xff
  403024:	52000000 	eor	w0, w0, #0x1
  403028:	12001c00 	and	w0, w0, #0xff
  40302c:	7100001f 	cmp	w0, #0x0
  403030:	54000060 	b.eq	40303c <main+0x4c>  // b.none
  403034:	52800020 	mov	w0, #0x1                   	// #1
  403038:	140000f3 	b	403404 <main+0x414>
  40303c:	f90147ff 	str	xzr, [sp, #648]
  403040:	f9013bff 	str	xzr, [sp, #624]
  403044:	f90137ff 	str	xzr, [sp, #616]
  403048:	9101e3e0 	add	x0, sp, #0x78
  40304c:	940002bd 	bl	403b40 <_ZN13PriorityQueueC1Ev>
  403050:	97fffb38 	bl	401d30 <_ZNSt6chrono3_V212system_clock3nowEv@plt>
  403054:	f9003be0 	str	x0, [sp, #112]
  403058:	910903e0 	add	x0, sp, #0x240
  40305c:	97fffc25 	bl	4020f0 <_ZNSaIcEC1Ev@plt>
  403060:	910903e0 	add	x0, sp, #0x240
  403064:	910883e3 	add	x3, sp, #0x220
  403068:	aa0003e2 	mov	x2, x0
  40306c:	b00000e0 	adrp	x0, 420000 <_Z19MD5Hash_simdversionPKNSt7__cxx1112basic_stringIcSt11char_traitsIcESaIcEEEP12__Uint32x4_t+0x3adc>
  403070:	9139a001 	add	x1, x0, #0xe68
  403074:	aa0303e0 	mov	x0, x3
  403078:	97fffbe6 	bl	402010 <_ZNSt7__cxx1112basic_stringIcSt11char_traitsIcESaIcEEC1EPKcRKS3_@plt>
  40307c:	910883e1 	add	x1, sp, #0x220
  403080:	9101e3e0 	add	x0, sp, #0x78
  403084:	91006000 	add	x0, x0, #0x18
  403088:	94000b18 	bl	405ce8 <_ZN5model5trainENSt7__cxx1112basic_stringIcSt11char_traitsIcESaIcEEE>
  40308c:	910883e0 	add	x0, sp, #0x220
  403090:	97fffb70 	bl	401e50 <_ZNSt7__cxx1112basic_stringIcSt11char_traitsIcESaIcEED1Ev@plt>
  403094:	910903e0 	add	x0, sp, #0x240
  403098:	97fffba6 	bl	401f30 <_ZNSaIcED1Ev@plt>
  40309c:	9101e3e0 	add	x0, sp, #0x78
  4030a0:	91006000 	add	x0, x0, #0x18
  4030a4:	940013f9 	bl	408088 <_ZN5model5orderEv>
  4030a8:	97fffb22 	bl	401d30 <_ZNSt6chrono3_V212system_clock3nowEv@plt>
  4030ac:	f90037e0 	str	x0, [sp, #104]
  4030b0:	9101c3e1 	add	x1, sp, #0x70
  4030b4:	9101a3e0 	add	x0, sp, #0x68
  4030b8:	940002c7 	bl	403bd4 <_ZNSt6chronomiINS_3_V212system_clockENS_8durationIlSt5ratioILl1ELl1000000000EEEES6_EENSt11common_typeIJT0_T1_EE4typeERKNS_10time_pointIT_S8_EERKNSC_ISD_S9_EE>
  4030bc:	f90127e0 	str	x0, [sp, #584]
  4030c0:	910923e0 	add	x0, sp, #0x248
  4030c4:	940002bd 	bl	403bb8 <_ZNSt6chrono13duration_castINS_8durationIlSt5ratioILl1ELl1000000EEEElS2_ILl1ELl1000000000EEEENSt9enable_ifIXsrNS_13__is_durationIT_EE5valueES8_E4typeERKNS1_IT0_T1_EE>
  4030c8:	f90033e0 	str	x0, [sp, #96]
  4030cc:	910183e0 	add	x0, sp, #0x60
  4030d0:	940002ef 	bl	403c8c <_ZNKSt6chrono8durationIlSt5ratioILl1ELl1000000EEE5countEv>
  4030d4:	9e620000 	scvtf	d0, x0
  4030d8:	d2d09000 	mov	x0, #0x848000000000        	// #145685290680320
  4030dc:	f2e825c0 	movk	x0, #0x412e, lsl #48
  4030e0:	9e670001 	fmov	d1, x0
  4030e4:	1e611800 	fdiv	d0, d0, d1
  4030e8:	fd0137e0 	str	d0, [sp, #616]
  4030ec:	9101e3e0 	add	x0, sp, #0x78
  4030f0:	94004407 	bl	41410c <_ZN13PriorityQueue4initEv>
  4030f4:	b00000e0 	adrp	x0, 420000 <_Z19MD5Hash_simdversionPKNSt7__cxx1112basic_stringIcSt11char_traitsIcESaIcEEEP12__Uint32x4_t+0x3adc>
  4030f8:	913a4001 	add	x1, x0, #0xe90
  4030fc:	b00001e0 	adrp	x0, 440000 <_Znam@GLIBCXX_3.4>
  403100:	9108c000 	add	x0, x0, #0x230
  403104:	97fffb7b 	bl	401ef0 <_ZStlsISt11char_traitsIcEERSt13basic_ostreamIcT_ES5_PKc@plt>
  403108:	aa0003e2 	mov	x2, x0
  40310c:	d0ffffe0 	adrp	x0, 401000 <__abi_tag+0xd88>
  403110:	91378001 	add	x1, x0, #0xde0
  403114:	aa0203e0 	mov	x0, x2
  403118:	97fffb82 	bl	401f20 <_ZNSolsEPFRSoS_E@plt>
  40311c:	b90287ff 	str	wzr, [sp, #644]
  403120:	97fffb04 	bl	401d30 <_ZNSt6chrono3_V212system_clock3nowEv@plt>
  403124:	f9002fe0 	str	x0, [sp, #88]
  403128:	b90283ff 	str	wzr, [sp, #640]
  40312c:	9101e3e0 	add	x0, sp, #0x78
  403130:	9400049c 	bl	4043a0 <_ZNKSt6vectorI2PTSaIS0_EE5emptyEv>
  403134:	12001c00 	and	w0, w0, #0xff
  403138:	52000000 	eor	w0, w0, #0x1
  40313c:	12001c00 	and	w0, w0, #0xff
  403140:	7100001f 	cmp	w0, #0x0
  403144:	540013e0 	b.eq	4033c0 <main+0x3d0>  // b.none
  403148:	9101e3e0 	add	x0, sp, #0x78
  40314c:	940044b5 	bl	414420 <_ZN13PriorityQueue7PopNextEv>
  403150:	9101e3e0 	add	x0, sp, #0x78
  403154:	91064000 	add	x0, x0, #0x190
  403158:	94000396 	bl	403fb0 <_ZNKSt6vectorINSt7__cxx1112basic_stringIcSt11char_traitsIcESaIcEEESaIS5_EE4sizeEv>
  40315c:	b90203e0 	str	w0, [sp, #512]
  403160:	b94203e1 	ldr	w1, [sp, #512]
  403164:	b94287e0 	ldr	w0, [sp, #644]
  403168:	4b000021 	sub	w1, w1, w0
  40316c:	5290d3e0 	mov	w0, #0x869f                	// #34463
  403170:	72a00020 	movk	w0, #0x1, lsl #16
  403174:	6b00003f 	cmp	w1, w0
  403178:	54000cad 	b.le	40330c <main+0x31c>
  40317c:	b00000e0 	adrp	x0, 420000 <_Z19MD5Hash_simdversionPKNSt7__cxx1112basic_stringIcSt11char_traitsIcESaIcEEEP12__Uint32x4_t+0x3adc>
  403180:	913a6001 	add	x1, x0, #0xe98
  403184:	b00001e0 	adrp	x0, 440000 <_Znam@GLIBCXX_3.4>
  403188:	9108c000 	add	x0, x0, #0x230
  40318c:	97fffb59 	bl	401ef0 <_ZStlsISt11char_traitsIcEERSt13basic_ostreamIcT_ES5_PKc@plt>
  403190:	aa0003e2 	mov	x2, x0
  403194:	b94203e1 	ldr	w1, [sp, #512]
  403198:	b94283e0 	ldr	w0, [sp, #640]
  40319c:	0b000020 	add	w0, w1, w0
  4031a0:	2a0003e1 	mov	w1, w0
  4031a4:	aa0203e0 	mov	x0, x2
  4031a8:	97fffbca 	bl	4020d0 <_ZNSolsEi@plt>
  4031ac:	aa0003e2 	mov	x2, x0
  4031b0:	d0ffffe0 	adrp	x0, 401000 <__abi_tag+0xd88>
  4031b4:	91378001 	add	x1, x0, #0xde0
  4031b8:	aa0203e0 	mov	x0, x2
  4031bc:	97fffb59 	bl	401f20 <_ZNSolsEPFRSoS_E@plt>
  4031c0:	b94203e0 	ldr	w0, [sp, #512]
  4031c4:	b90287e0 	str	w0, [sp, #644]
  4031c8:	5292d000 	mov	w0, #0x9680                	// #38528
  4031cc:	72a01300 	movk	w0, #0x98, lsl #16
  4031d0:	b90267e0 	str	w0, [sp, #612]
  4031d4:	b94203e1 	ldr	w1, [sp, #512]
  4031d8:	b94283e0 	ldr	w0, [sp, #640]
  4031dc:	0b000021 	add	w1, w1, w0
  4031e0:	5292d000 	mov	w0, #0x9680                	// #38528
  4031e4:	72a01300 	movk	w0, #0x98, lsl #16
  4031e8:	6b00003f 	cmp	w1, w0
  4031ec:	5400090d 	b.le	40330c <main+0x31c>
  4031f0:	97fffad0 	bl	401d30 <_ZNSt6chrono3_V212system_clock3nowEv@plt>
  4031f4:	f9002be0 	str	x0, [sp, #80]
  4031f8:	910163e1 	add	x1, sp, #0x58
  4031fc:	910143e0 	add	x0, sp, #0x50
  403200:	94000275 	bl	403bd4 <_ZNSt6chronomiINS_3_V212system_clockENS_8durationIlSt5ratioILl1ELl1000000000EEEES6_EENSt11common_typeIJT0_T1_EE4typeERKNS_10time_pointIT_S8_EERKNSC_ISD_S9_EE>
  403204:	f9012be0 	str	x0, [sp, #592]
  403208:	910943e0 	add	x0, sp, #0x250
  40320c:	9400026b 	bl	403bb8 <_ZNSt6chrono13duration_castINS_8durationIlSt5ratioILl1ELl1000000EEEElS2_ILl1ELl1000000000EEEENSt9enable_ifIXsrNS_13__is_durationIT_EE5valueES8_E4typeERKNS1_IT0_T1_EE>
  403210:	f90027e0 	str	x0, [sp, #72]
  403214:	910123e0 	add	x0, sp, #0x48
  403218:	9400029d 	bl	403c8c <_ZNKSt6chrono8durationIlSt5ratioILl1ELl1000000EEE5countEv>
  40321c:	9e620000 	scvtf	d0, x0
  403220:	d2d09000 	mov	x0, #0x848000000000        	// #145685290680320
  403224:	f2e825c0 	movk	x0, #0x412e, lsl #48
  403228:	9e670001 	fmov	d1, x0
  40322c:	1e611800 	fdiv	d0, d0, d1
  403230:	fd013be0 	str	d0, [sp, #624]
  403234:	b00000e0 	adrp	x0, 420000 <_Z19MD5Hash_simdversionPKNSt7__cxx1112basic_stringIcSt11char_traitsIcESaIcEEEP12__Uint32x4_t+0x3adc>
  403238:	913ac001 	add	x1, x0, #0xeb0
  40323c:	b00001e0 	adrp	x0, 440000 <_Znam@GLIBCXX_3.4>
  403240:	9108c000 	add	x0, x0, #0x230
  403244:	97fffb2b 	bl	401ef0 <_ZStlsISt11char_traitsIcEERSt13basic_ostreamIcT_ES5_PKc@plt>
  403248:	fd413be1 	ldr	d1, [sp, #624]
  40324c:	fd4147e0 	ldr	d0, [sp, #648]
  403250:	1e603820 	fsub	d0, d1, d0
  403254:	97fffbaf 	bl	402110 <_ZNSolsEd@plt>
  403258:	aa0003e2 	mov	x2, x0
  40325c:	b00000e0 	adrp	x0, 420000 <_Z19MD5Hash_simdversionPKNSt7__cxx1112basic_stringIcSt11char_traitsIcESaIcEEEP12__Uint32x4_t+0x3adc>
  403260:	913b0001 	add	x1, x0, #0xec0
  403264:	aa0203e0 	mov	x0, x2
  403268:	97fffb22 	bl	401ef0 <_ZStlsISt11char_traitsIcEERSt13basic_ostreamIcT_ES5_PKc@plt>
  40326c:	aa0003e2 	mov	x2, x0
  403270:	d0ffffe0 	adrp	x0, 401000 <__abi_tag+0xd88>
  403274:	91378001 	add	x1, x0, #0xde0
  403278:	aa0203e0 	mov	x0, x2
  40327c:	97fffb29 	bl	401f20 <_ZNSolsEPFRSoS_E@plt>
  403280:	b00000e0 	adrp	x0, 420000 <_Z19MD5Hash_simdversionPKNSt7__cxx1112basic_stringIcSt11char_traitsIcESaIcEEEP12__Uint32x4_t+0x3adc>
  403284:	913b2001 	add	x1, x0, #0xec8
  403288:	b00001e0 	adrp	x0, 440000 <_Znam@GLIBCXX_3.4>
  40328c:	9108c000 	add	x0, x0, #0x230
  403290:	97fffb18 	bl	401ef0 <_ZStlsISt11char_traitsIcEERSt13basic_ostreamIcT_ES5_PKc@plt>
  403294:	fd4147e0 	ldr	d0, [sp, #648]
  403298:	97fffb9e 	bl	402110 <_ZNSolsEd@plt>
  40329c:	aa0003e2 	mov	x2, x0
  4032a0:	b00000e0 	adrp	x0, 420000 <_Z19MD5Hash_simdversionPKNSt7__cxx1112basic_stringIcSt11char_traitsIcESaIcEEEP12__Uint32x4_t+0x3adc>
  4032a4:	913b0001 	add	x1, x0, #0xec0
  4032a8:	aa0203e0 	mov	x0, x2
  4032ac:	97fffb11 	bl	401ef0 <_ZStlsISt11char_traitsIcEERSt13basic_ostreamIcT_ES5_PKc@plt>
  4032b0:	aa0003e2 	mov	x2, x0
  4032b4:	d0ffffe0 	adrp	x0, 401000 <__abi_tag+0xd88>
  4032b8:	91378001 	add	x1, x0, #0xde0
  4032bc:	aa0203e0 	mov	x0, x2
  4032c0:	97fffb18 	bl	401f20 <_ZNSolsEPFRSoS_E@plt>
  4032c4:	b00000e0 	adrp	x0, 420000 <_Z19MD5Hash_simdversionPKNSt7__cxx1112basic_stringIcSt11char_traitsIcESaIcEEEP12__Uint32x4_t+0x3adc>
  4032c8:	913b6001 	add	x1, x0, #0xed8
  4032cc:	b00001e0 	adrp	x0, 440000 <_Znam@GLIBCXX_3.4>
  4032d0:	9108c000 	add	x0, x0, #0x230
  4032d4:	97fffb07 	bl	401ef0 <_ZStlsISt11char_traitsIcEERSt13basic_ostreamIcT_ES5_PKc@plt>
  4032d8:	fd4137e0 	ldr	d0, [sp, #616]
  4032dc:	97fffb8d 	bl	402110 <_ZNSolsEd@plt>
  4032e0:	aa0003e2 	mov	x2, x0
  4032e4:	b00000e0 	adrp	x0, 420000 <_Z19MD5Hash_simdversionPKNSt7__cxx1112basic_stringIcSt11char_traitsIcESaIcEEEP12__Uint32x4_t+0x3adc>
  4032e8:	913b0001 	add	x1, x0, #0xec0
  4032ec:	aa0203e0 	mov	x0, x2
  4032f0:	97fffb00 	bl	401ef0 <_ZStlsISt11char_traitsIcEERSt13basic_ostreamIcT_ES5_PKc@plt>
  4032f4:	aa0003e2 	mov	x2, x0
  4032f8:	d0ffffe0 	adrp	x0, 401000 <__abi_tag+0xd88>
  4032fc:	91378001 	add	x1, x0, #0xde0
  403300:	aa0203e0 	mov	x0, x2
  403304:	97fffb07 	bl	401f20 <_ZNSolsEPFRSoS_E@plt>
  403308:	1400002e 	b	4033c0 <main+0x3d0>
  40330c:	b94287e1 	ldr	w1, [sp, #644]
  403310:	52884800 	mov	w0, #0x4240                	// #16960
  403314:	72a001e0 	movk	w0, #0xf, lsl #16
  403318:	6b00003f 	cmp	w1, w0
  40331c:	54fff08d 	b.le	40312c <main+0x13c>
  403320:	97fffa84 	bl	401d30 <_ZNSt6chrono3_V212system_clock3nowEv@plt>
  403324:	f90023e0 	str	x0, [sp, #64]
  403328:	3949ffe0 	ldrb	w0, [sp, #639]
  40332c:	7100001f 	cmp	w0, #0x0
  403330:	540000a0 	b.eq	403344 <main+0x354>  // b.none
  403334:	9101e3e0 	add	x0, sp, #0x78
  403338:	91064000 	add	x0, x0, #0x190
  40333c:	97fffefa 	bl	402f24 <_ZL15HashGuessesSimdRKSt6vectorINSt7__cxx1112basic_stringIcSt11char_traitsIcESaIcEEESaIS5_EE>
  403340:	14000004 	b	403350 <main+0x360>
  403344:	9101e3e0 	add	x0, sp, #0x78
  403348:	91064000 	add	x0, x0, #0x190
  40334c:	97fffed8 	bl	402eac <_ZL17HashGuessesSerialRKSt6vectorINSt7__cxx1112basic_stringIcSt11char_traitsIcESaIcEEESaIS5_EE>
  403350:	97fffa78 	bl	401d30 <_ZNSt6chrono3_V212system_clock3nowEv@plt>
  403354:	f9001fe0 	str	x0, [sp, #56]
  403358:	910103e1 	add	x1, sp, #0x40
  40335c:	9100e3e0 	add	x0, sp, #0x38
  403360:	9400021d 	bl	403bd4 <_ZNSt6chronomiINS_3_V212system_clockENS_8durationIlSt5ratioILl1ELl1000000000EEEES6_EENSt11common_typeIJT0_T1_EE4typeERKNS_10time_pointIT_S8_EERKNSC_ISD_S9_EE>
  403364:	f9012fe0 	str	x0, [sp, #600]
  403368:	910963e0 	add	x0, sp, #0x258
  40336c:	94000213 	bl	403bb8 <_ZNSt6chrono13duration_castINS_8durationIlSt5ratioILl1ELl1000000EEEElS2_ILl1ELl1000000000EEEENSt9enable_ifIXsrNS_13__is_durationIT_EE5valueES8_E4typeERKNS1_IT0_T1_EE>
  403370:	f9001be0 	str	x0, [sp, #48]
  403374:	9100c3e0 	add	x0, sp, #0x30
  403378:	94000245 	bl	403c8c <_ZNKSt6chrono8durationIlSt5ratioILl1ELl1000000EEE5countEv>
  40337c:	9e620000 	scvtf	d0, x0
  403380:	d2d09000 	mov	x0, #0x848000000000        	// #145685290680320
  403384:	f2e825c0 	movk	x0, #0x412e, lsl #48
  403388:	9e670001 	fmov	d1, x0
  40338c:	1e611800 	fdiv	d0, d0, d1
  403390:	fd4147e1 	ldr	d1, [sp, #648]
  403394:	1e602820 	fadd	d0, d1, d0
  403398:	fd0147e0 	str	d0, [sp, #648]
  40339c:	b94283e1 	ldr	w1, [sp, #640]
  4033a0:	b94287e0 	ldr	w0, [sp, #644]
  4033a4:	0b000020 	add	w0, w1, w0
  4033a8:	b90283e0 	str	w0, [sp, #640]
  4033ac:	b90287ff 	str	wzr, [sp, #644]
  4033b0:	9101e3e0 	add	x0, sp, #0x78
  4033b4:	91064000 	add	x0, x0, #0x190
  4033b8:	94000409 	bl	4043dc <_ZNSt6vectorINSt7__cxx1112basic_stringIcSt11char_traitsIcESaIcEEESaIS5_EE5clearEv>
  4033bc:	17ffff5c 	b	40312c <main+0x13c>
  4033c0:	9101e3e0 	add	x0, sp, #0x78
  4033c4:	940001ef 	bl	403b80 <_ZN13PriorityQueueD1Ev>
  4033c8:	52800000 	mov	w0, #0x0                   	// #0
  4033cc:	1400000e 	b	403404 <main+0x414>
  4033d0:	aa0003f3 	mov	x19, x0
  4033d4:	910883e0 	add	x0, sp, #0x220
  4033d8:	97fffa9e 	bl	401e50 <_ZNSt7__cxx1112basic_stringIcSt11char_traitsIcESaIcEED1Ev@plt>
  4033dc:	14000002 	b	4033e4 <main+0x3f4>
  4033e0:	aa0003f3 	mov	x19, x0
  4033e4:	910903e0 	add	x0, sp, #0x240
  4033e8:	97fffad2 	bl	401f30 <_ZNSaIcED1Ev@plt>
  4033ec:	14000002 	b	4033f4 <main+0x404>
  4033f0:	aa0003f3 	mov	x19, x0
  4033f4:	9101e3e0 	add	x0, sp, #0x78
  4033f8:	940001e2 	bl	403b80 <_ZN13PriorityQueueD1Ev>
  4033fc:	aa1303e0 	mov	x0, x19
  403400:	97fffb38 	bl	4020e0 <_Unwind_Resume@plt>
  403404:	f9400bf3 	ldr	x19, [sp, #16]
  403408:	a9407bfd 	ldp	x29, x30, [sp]
  40340c:	910a43ff 	add	sp, sp, #0x290
  403410:	d65f03c0 	ret

0000000000403414 <_Z41__static_initialization_and_destruction_0ii>:
  403414:	a9be7bfd 	stp	x29, x30, [sp, #-32]!
  403418:	910003fd 	mov	x29, sp
  40341c:	b9001fe0 	str	w0, [sp, #28]
  403420:	b9001be1 	str	w1, [sp, #24]
  403424:	b9401fe0 	ldr	w0, [sp, #28]
  403428:	7100041f 	cmp	w0, #0x1
  40342c:	540001e1 	b.ne	403468 <_Z41__static_initialization_and_destruction_0ii+0x54>  // b.any
  403430:	b9401be1 	ldr	w1, [sp, #24]
  403434:	529fffe0 	mov	w0, #0xffff                	// #65535
  403438:	6b00003f 	cmp	w1, w0
  40343c:	54000161 	b.ne	403468 <_Z41__static_initialization_and_destruction_0ii+0x54>  // b.any
  403440:	b00001e0 	adrp	x0, 440000 <_Znam@GLIBCXX_3.4>
  403444:	910d2000 	add	x0, x0, #0x348
  403448:	97fffb06 	bl	402060 <_ZNSt8ios_base4InitC1Ev@plt>
  40344c:	b00001e0 	adrp	x0, 440000 <_Znam@GLIBCXX_3.4>
  403450:	91086002 	add	x2, x0, #0x218
  403454:	b00001e0 	adrp	x0, 440000 <_Znam@GLIBCXX_3.4>
  403458:	910d2001 	add	x1, x0, #0x348
  40345c:	f0ffffe0 	adrp	x0, 402000 <_ZNSolsEj@plt>
  403460:	9104c000 	add	x0, x0, #0x130
  403464:	97fffab7 	bl	401f40 <__cxa_atexit@plt>
  403468:	d503201f 	nop
  40346c:	a8c27bfd 	ldp	x29, x30, [sp], #32
  403470:	d65f03c0 	ret

0000000000403474 <_GLOBAL__sub_I_main>:
  403474:	a9bf7bfd 	stp	x29, x30, [sp, #-16]!
  403478:	910003fd 	mov	x29, sp
  40347c:	529fffe1 	mov	w1, #0xffff                	// #65535
  403480:	52800020 	mov	w0, #0x1                   	// #1
  403484:	97ffffe4 	bl	403414 <_Z41__static_initialization_and_destruction_0ii>
  403488:	a8c17bfd 	ldp	x29, x30, [sp], #16
  40348c:	d65f03c0 	ret

0000000000403490 <_ZNSt11char_traitsIcE7compareEPKcS2_m>:
  403490:	a9bd7bfd 	stp	x29, x30, [sp, #-48]!
  403494:	910003fd 	mov	x29, sp
  403498:	f90017e0 	str	x0, [sp, #40]
  40349c:	f90013e1 	str	x1, [sp, #32]
  4034a0:	f9000fe2 	str	x2, [sp, #24]
  4034a4:	f9400fe0 	ldr	x0, [sp, #24]
  4034a8:	f100001f 	cmp	x0, #0x0
  4034ac:	54000061 	b.ne	4034b8 <_ZNSt11char_traitsIcE7compareEPKcS2_m+0x28>  // b.any
  4034b0:	52800000 	mov	w0, #0x0                   	// #0
  4034b4:	14000006 	b	4034cc <_ZNSt11char_traitsIcE7compareEPKcS2_m+0x3c>
  4034b8:	f9400fe2 	ldr	x2, [sp, #24]
  4034bc:	f94013e1 	ldr	x1, [sp, #32]
  4034c0:	f94017e0 	ldr	x0, [sp, #40]
  4034c4:	97fffa4b 	bl	401df0 <memcmp@plt>
  4034c8:	d503201f 	nop
  4034cc:	a8c37bfd 	ldp	x29, x30, [sp], #48
  4034d0:	d65f03c0 	ret

00000000004034d4 <_ZnwmPv>:
  4034d4:	d10043ff 	sub	sp, sp, #0x10
  4034d8:	f90007e0 	str	x0, [sp, #8]
  4034dc:	f90003e1 	str	x1, [sp]
  4034e0:	f94003e0 	ldr	x0, [sp]
  4034e4:	910043ff 	add	sp, sp, #0x10
  4034e8:	d65f03c0 	ret

00000000004034ec <_ZdlPvS_>:
  4034ec:	d10043ff 	sub	sp, sp, #0x10
  4034f0:	f90007e0 	str	x0, [sp, #8]
  4034f4:	f90003e1 	str	x1, [sp]
  4034f8:	d503201f 	nop
  4034fc:	910043ff 	add	sp, sp, #0x10
  403500:	d65f03c0 	ret

0000000000403504 <_ZStanSt13_Ios_FmtflagsS_>:
  403504:	d10043ff 	sub	sp, sp, #0x10
  403508:	b9000fe0 	str	w0, [sp, #12]
  40350c:	b9000be1 	str	w1, [sp, #8]
  403510:	b9400fe1 	ldr	w1, [sp, #12]
  403514:	b9400be0 	ldr	w0, [sp, #8]
  403518:	0a000020 	and	w0, w1, w0
  40351c:	910043ff 	add	sp, sp, #0x10
  403520:	d65f03c0 	ret

0000000000403524 <_ZStorSt13_Ios_FmtflagsS_>:
  403524:	d10043ff 	sub	sp, sp, #0x10
  403528:	b9000fe0 	str	w0, [sp, #12]
  40352c:	b9000be1 	str	w1, [sp, #8]
  403530:	b9400fe1 	ldr	w1, [sp, #12]
  403534:	b9400be0 	ldr	w0, [sp, #8]
  403538:	2a000020 	orr	w0, w1, w0
  40353c:	910043ff 	add	sp, sp, #0x10
  403540:	d65f03c0 	ret

0000000000403544 <_ZStcoSt13_Ios_Fmtflags>:
  403544:	d10043ff 	sub	sp, sp, #0x10
  403548:	b9000fe0 	str	w0, [sp, #12]
  40354c:	b9400fe0 	ldr	w0, [sp, #12]
  403550:	2a2003e0 	mvn	w0, w0
  403554:	910043ff 	add	sp, sp, #0x10
  403558:	d65f03c0 	ret

000000000040355c <_ZStoRRSt13_Ios_FmtflagsS_>:
  40355c:	a9be7bfd 	stp	x29, x30, [sp, #-32]!
  403560:	910003fd 	mov	x29, sp
  403564:	f9000fe0 	str	x0, [sp, #24]
  403568:	b90017e1 	str	w1, [sp, #20]
  40356c:	f9400fe0 	ldr	x0, [sp, #24]
  403570:	b9400000 	ldr	w0, [x0]
  403574:	b94017e1 	ldr	w1, [sp, #20]
  403578:	97ffffeb 	bl	403524 <_ZStorSt13_Ios_FmtflagsS_>
  40357c:	2a0003e1 	mov	w1, w0
  403580:	f9400fe0 	ldr	x0, [sp, #24]
  403584:	b9000001 	str	w1, [x0]
  403588:	f9400fe0 	ldr	x0, [sp, #24]
  40358c:	a8c27bfd 	ldp	x29, x30, [sp], #32
  403590:	d65f03c0 	ret

0000000000403594 <_ZStaNRSt13_Ios_FmtflagsS_>:
  403594:	a9be7bfd 	stp	x29, x30, [sp, #-32]!
  403598:	910003fd 	mov	x29, sp
  40359c:	f9000fe0 	str	x0, [sp, #24]
  4035a0:	b90017e1 	str	w1, [sp, #20]
  4035a4:	f9400fe0 	ldr	x0, [sp, #24]
  4035a8:	b9400000 	ldr	w0, [x0]
  4035ac:	b94017e1 	ldr	w1, [sp, #20]
  4035b0:	97ffffd5 	bl	403504 <_ZStanSt13_Ios_FmtflagsS_>
  4035b4:	2a0003e1 	mov	w1, w0
  4035b8:	f9400fe0 	ldr	x0, [sp, #24]
  4035bc:	b9000001 	str	w1, [x0]
  4035c0:	f9400fe0 	ldr	x0, [sp, #24]
  4035c4:	a8c27bfd 	ldp	x29, x30, [sp], #32
  4035c8:	d65f03c0 	ret

00000000004035cc <_ZNSt8ios_base4setfESt13_Ios_FmtflagsS0_>:
  4035cc:	a9bc7bfd 	stp	x29, x30, [sp, #-64]!
  4035d0:	910003fd 	mov	x29, sp
  4035d4:	f9000bf3 	str	x19, [sp, #16]
  4035d8:	f90017e0 	str	x0, [sp, #40]
  4035dc:	b90027e1 	str	w1, [sp, #36]
  4035e0:	b90023e2 	str	w2, [sp, #32]
  4035e4:	f94017e0 	ldr	x0, [sp, #40]
  4035e8:	b9401800 	ldr	w0, [x0, #24]
  4035ec:	b9003fe0 	str	w0, [sp, #60]
  4035f0:	f94017e0 	ldr	x0, [sp, #40]
  4035f4:	91006013 	add	x19, x0, #0x18
  4035f8:	b94023e0 	ldr	w0, [sp, #32]
  4035fc:	97ffffd2 	bl	403544 <_ZStcoSt13_Ios_Fmtflags>
  403600:	2a0003e1 	mov	w1, w0
  403604:	aa1303e0 	mov	x0, x19
  403608:	97ffffe3 	bl	403594 <_ZStaNRSt13_Ios_FmtflagsS_>
  40360c:	f94017e0 	ldr	x0, [sp, #40]
  403610:	91006013 	add	x19, x0, #0x18
  403614:	b94023e1 	ldr	w1, [sp, #32]
  403618:	b94027e0 	ldr	w0, [sp, #36]
  40361c:	97ffffba 	bl	403504 <_ZStanSt13_Ios_FmtflagsS_>
  403620:	2a0003e1 	mov	w1, w0
  403624:	aa1303e0 	mov	x0, x19
  403628:	97ffffcd 	bl	40355c <_ZStoRRSt13_Ios_FmtflagsS_>
  40362c:	b9403fe0 	ldr	w0, [sp, #60]
  403630:	f9400bf3 	ldr	x19, [sp, #16]
  403634:	a8c47bfd 	ldp	x29, x30, [sp], #64
  403638:	d65f03c0 	ret

000000000040363c <_ZSt3hexRSt8ios_base>:
  40363c:	a9be7bfd 	stp	x29, x30, [sp, #-32]!
  403640:	910003fd 	mov	x29, sp
  403644:	f9000fe0 	str	x0, [sp, #24]
  403648:	52800942 	mov	w2, #0x4a                  	// #74
  40364c:	52800101 	mov	w1, #0x8                   	// #8
  403650:	f9400fe0 	ldr	x0, [sp, #24]
  403654:	97ffffde 	bl	4035cc <_ZNSt8ios_base4setfESt13_Ios_FmtflagsS0_>
  403658:	f9400fe0 	ldr	x0, [sp, #24]
  40365c:	a8c27bfd 	ldp	x29, x30, [sp], #32
  403660:	d65f03c0 	ret

0000000000403664 <_ZNSt8__detail15_Hash_node_baseC1Ev>:
  403664:	d10043ff 	sub	sp, sp, #0x10
  403668:	f90007e0 	str	x0, [sp, #8]
  40366c:	f94007e0 	ldr	x0, [sp, #8]
  403670:	f900001f 	str	xzr, [x0]
  403674:	d503201f 	nop
  403678:	910043ff 	add	sp, sp, #0x10
  40367c:	d65f03c0 	ret

0000000000403680 <_ZNSt8__detail20_Prime_rehash_policyC1Ef>:
  403680:	d10043ff 	sub	sp, sp, #0x10
  403684:	f90007e0 	str	x0, [sp, #8]
  403688:	bd0007e0 	str	s0, [sp, #4]
  40368c:	f94007e0 	ldr	x0, [sp, #8]
  403690:	bd4007e0 	ldr	s0, [sp, #4]
  403694:	bd000000 	str	s0, [x0]
  403698:	f94007e0 	ldr	x0, [sp, #8]
  40369c:	f900041f 	str	xzr, [x0, #8]
  4036a0:	d503201f 	nop
  4036a4:	910043ff 	add	sp, sp, #0x10
  4036a8:	d65f03c0 	ret

00000000004036ac <_ZSt3minImERKT_S2_S2_>:
  4036ac:	d10043ff 	sub	sp, sp, #0x10
  4036b0:	f90007e0 	str	x0, [sp, #8]
  4036b4:	f90003e1 	str	x1, [sp]
  4036b8:	f94003e0 	ldr	x0, [sp]
  4036bc:	f9400001 	ldr	x1, [x0]
  4036c0:	f94007e0 	ldr	x0, [sp, #8]
  4036c4:	f9400000 	ldr	x0, [x0]
  4036c8:	eb00003f 	cmp	x1, x0
  4036cc:	54000062 	b.cs	4036d8 <_ZSt3minImERKT_S2_S2_+0x2c>  // b.hs, b.nlast
  4036d0:	f94003e0 	ldr	x0, [sp]
  4036d4:	14000002 	b	4036dc <_ZSt3minImERKT_S2_S2_+0x30>
  4036d8:	f94007e0 	ldr	x0, [sp, #8]
  4036dc:	910043ff 	add	sp, sp, #0x10
  4036e0:	d65f03c0 	ret

00000000004036e4 <_ZNSt12_Vector_baseINSt7__cxx1112basic_stringIcSt11char_traitsIcESaIcEEESaIS5_EE12_Vector_implD1Ev>:
  4036e4:	a9be7bfd 	stp	x29, x30, [sp, #-32]!
  4036e8:	910003fd 	mov	x29, sp
  4036ec:	f9000fe0 	str	x0, [sp, #24]
  4036f0:	f9400fe0 	ldr	x0, [sp, #24]
  4036f4:	94000176 	bl	403ccc <_ZNSaINSt7__cxx1112basic_stringIcSt11char_traitsIcESaIcEEEED1Ev>
  4036f8:	d503201f 	nop
  4036fc:	a8c27bfd 	ldp	x29, x30, [sp], #32
  403700:	d65f03c0 	ret

0000000000403704 <_ZNSt12_Vector_baseINSt7__cxx1112basic_stringIcSt11char_traitsIcESaIcEEESaIS5_EEC1Ev>:
  403704:	a9be7bfd 	stp	x29, x30, [sp, #-32]!
  403708:	910003fd 	mov	x29, sp
  40370c:	f9000fe0 	str	x0, [sp, #24]
  403710:	f9400fe0 	ldr	x0, [sp, #24]
  403714:	94000164 	bl	403ca4 <_ZNSt12_Vector_baseINSt7__cxx1112basic_stringIcSt11char_traitsIcESaIcEEESaIS5_EE12_Vector_implC1Ev>
  403718:	d503201f 	nop
  40371c:	a8c27bfd 	ldp	x29, x30, [sp], #32
  403720:	d65f03c0 	ret

0000000000403724 <_ZNSt6vectorINSt7__cxx1112basic_stringIcSt11char_traitsIcESaIcEEESaIS5_EEC1Ev>:
  403724:	a9be7bfd 	stp	x29, x30, [sp, #-32]!
  403728:	910003fd 	mov	x29, sp
  40372c:	f9000fe0 	str	x0, [sp, #24]
  403730:	f9400fe0 	ldr	x0, [sp, #24]
  403734:	97fffff4 	bl	403704 <_ZNSt12_Vector_baseINSt7__cxx1112basic_stringIcSt11char_traitsIcESaIcEEESaIS5_EEC1Ev>
  403738:	d503201f 	nop
  40373c:	a8c27bfd 	ldp	x29, x30, [sp], #32
  403740:	d65f03c0 	ret

0000000000403744 <_ZNSt12_Vector_baseIiSaIiEE12_Vector_implD1Ev>:
  403744:	a9be7bfd 	stp	x29, x30, [sp, #-32]!
  403748:	910003fd 	mov	x29, sp
  40374c:	f9000fe0 	str	x0, [sp, #24]
  403750:	f9400fe0 	ldr	x0, [sp, #24]
  403754:	9400018e 	bl	403d8c <_ZNSaIiED1Ev>
  403758:	d503201f 	nop
  40375c:	a8c27bfd 	ldp	x29, x30, [sp], #32
  403760:	d65f03c0 	ret

0000000000403764 <_ZNSt8__detail21_Hashtable_ebo_helperILi0ESaINS_10_Hash_nodeISt4pairIKNSt7__cxx1112basic_stringIcSt11char_traitsIcESaIcEEEiELb1EEEELb1EED1Ev>:
  403764:	a9be7bfd 	stp	x29, x30, [sp, #-32]!
  403768:	910003fd 	mov	x29, sp
  40376c:	f9000fe0 	str	x0, [sp, #24]
  403770:	f9400fe0 	ldr	x0, [sp, #24]
  403774:	940001b6 	bl	403e4c <_ZNSaINSt8__detail10_Hash_nodeISt4pairIKNSt7__cxx1112basic_stringIcSt11char_traitsIcESaIcEEEiELb1EEEED1Ev>
  403778:	d503201f 	nop
  40377c:	a8c27bfd 	ldp	x29, x30, [sp], #32
  403780:	d65f03c0 	ret

0000000000403784 <_ZNSt8__detail16_Hashtable_allocISaINS_10_Hash_nodeISt4pairIKNSt7__cxx1112basic_stringIcSt11char_traitsIcESaIcEEEiELb1EEEEED1Ev>:
  403784:	a9be7bfd 	stp	x29, x30, [sp, #-32]!
  403788:	910003fd 	mov	x29, sp
  40378c:	f9000fe0 	str	x0, [sp, #24]
  403790:	f9400fe0 	ldr	x0, [sp, #24]
  403794:	97fffff4 	bl	403764 <_ZNSt8__detail21_Hashtable_ebo_helperILi0ESaINS_10_Hash_nodeISt4pairIKNSt7__cxx1112basic_stringIcSt11char_traitsIcESaIcEEEiELb1EEEELb1EED1Ev>
  403798:	d503201f 	nop
  40379c:	a8c27bfd 	ldp	x29, x30, [sp], #32
  4037a0:	d65f03c0 	ret

00000000004037a4 <_ZNSt13unordered_mapINSt7__cxx1112basic_stringIcSt11char_traitsIcESaIcEEEiSt4hashIS5_ESt8equal_toIS5_ESaISt4pairIKS5_iEEED1Ev>:
  4037a4:	a9be7bfd 	stp	x29, x30, [sp, #-32]!
  4037a8:	910003fd 	mov	x29, sp
  4037ac:	f9000fe0 	str	x0, [sp, #24]
  4037b0:	f9400fe0 	ldr	x0, [sp, #24]
  4037b4:	940001ae 	bl	403e6c <_ZNSt10_HashtableINSt7__cxx1112basic_stringIcSt11char_traitsIcESaIcEEESt4pairIKS5_iESaIS8_ENSt8__detail10_Select1stESt8equal_toIS5_ESt4hashIS5_ENSA_18_Mod_range_hashingENSA_20_Default_ranged_hashENSA_20_Prime_rehash_policyENSA_17_Hashtable_traitsILb1ELb0ELb1EEEED1Ev>
  4037b8:	d503201f 	nop
  4037bc:	a8c27bfd 	ldp	x29, x30, [sp], #32
  4037c0:	d65f03c0 	ret

00000000004037c4 <_ZNSt8__detail21_Hashtable_ebo_helperILi0ESaINS_10_Hash_nodeISt4pairIKiiELb0EEEELb1EEC1Ev>:
  4037c4:	a9be7bfd 	stp	x29, x30, [sp, #-32]!
  4037c8:	910003fd 	mov	x29, sp
  4037cc:	f9000fe0 	str	x0, [sp, #24]
  4037d0:	f9400fe0 	ldr	x0, [sp, #24]
  4037d4:	940001b2 	bl	403e9c <_ZNSaINSt8__detail10_Hash_nodeISt4pairIKiiELb0EEEEC1Ev>
  4037d8:	d503201f 	nop
  4037dc:	a8c27bfd 	ldp	x29, x30, [sp], #32
  4037e0:	d65f03c0 	ret

00000000004037e4 <_ZNSt8__detail21_Hashtable_ebo_helperILi0ESaINS_10_Hash_nodeISt4pairIKiiELb0EEEELb1EED1Ev>:
  4037e4:	a9be7bfd 	stp	x29, x30, [sp, #-32]!
  4037e8:	910003fd 	mov	x29, sp
  4037ec:	f9000fe0 	str	x0, [sp, #24]
  4037f0:	f9400fe0 	ldr	x0, [sp, #24]
  4037f4:	940001b2 	bl	403ebc <_ZNSaINSt8__detail10_Hash_nodeISt4pairIKiiELb0EEEED1Ev>
  4037f8:	d503201f 	nop
  4037fc:	a8c27bfd 	ldp	x29, x30, [sp], #32
  403800:	d65f03c0 	ret

0000000000403804 <_ZNSt8__detail16_Hashtable_allocISaINS_10_Hash_nodeISt4pairIKiiELb0EEEEEC1Ev>:
  403804:	a9be7bfd 	stp	x29, x30, [sp, #-32]!
  403808:	910003fd 	mov	x29, sp
  40380c:	f9000fe0 	str	x0, [sp, #24]
  403810:	f9400fe0 	ldr	x0, [sp, #24]
  403814:	97ffffec 	bl	4037c4 <_ZNSt8__detail21_Hashtable_ebo_helperILi0ESaINS_10_Hash_nodeISt4pairIKiiELb0EEEELb1EEC1Ev>
  403818:	d503201f 	nop
  40381c:	a8c27bfd 	ldp	x29, x30, [sp], #32
  403820:	d65f03c0 	ret

0000000000403824 <_ZNSt8__detail16_Hashtable_allocISaINS_10_Hash_nodeISt4pairIKiiELb0EEEEED1Ev>:
  403824:	a9be7bfd 	stp	x29, x30, [sp, #-32]!
  403828:	910003fd 	mov	x29, sp
  40382c:	f9000fe0 	str	x0, [sp, #24]
  403830:	f9400fe0 	ldr	x0, [sp, #24]
  403834:	97ffffec 	bl	4037e4 <_ZNSt8__detail21_Hashtable_ebo_helperILi0ESaINS_10_Hash_nodeISt4pairIKiiELb0EEEELb1EED1Ev>
  403838:	d503201f 	nop
  40383c:	a8c27bfd 	ldp	x29, x30, [sp], #32
  403840:	d65f03c0 	ret

0000000000403844 <_ZNSt10_HashtableIiSt4pairIKiiESaIS2_ENSt8__detail10_Select1stESt8equal_toIiESt4hashIiENS4_18_Mod_range_hashingENS4_20_Default_ranged_hashENS4_20_Prime_rehash_policyENS4_17_Hashtable_traitsILb0ELb0ELb1EEEEC1Ev>:
  403844:	a9be7bfd 	stp	x29, x30, [sp, #-32]!
  403848:	910003fd 	mov	x29, sp
  40384c:	f9000fe0 	str	x0, [sp, #24]
  403850:	f9400fe0 	ldr	x0, [sp, #24]
  403854:	97ffffec 	bl	403804 <_ZNSt8__detail16_Hashtable_allocISaINS_10_Hash_nodeISt4pairIKiiELb0EEEEEC1Ev>
  403858:	f9400fe0 	ldr	x0, [sp, #24]
  40385c:	9100c001 	add	x1, x0, #0x30
  403860:	f9400fe0 	ldr	x0, [sp, #24]
  403864:	f9000001 	str	x1, [x0]
  403868:	f9400fe0 	ldr	x0, [sp, #24]
  40386c:	d2800021 	mov	x1, #0x1                   	// #1
  403870:	f9000401 	str	x1, [x0, #8]
  403874:	f9400fe0 	ldr	x0, [sp, #24]
  403878:	91004000 	add	x0, x0, #0x10
  40387c:	97ffff7a 	bl	403664 <_ZNSt8__detail15_Hash_node_baseC1Ev>
  403880:	f9400fe0 	ldr	x0, [sp, #24]
  403884:	f9000c1f 	str	xzr, [x0, #24]
  403888:	f9400fe0 	ldr	x0, [sp, #24]
  40388c:	91008000 	add	x0, x0, #0x20
  403890:	1e2e1000 	fmov	s0, #1.000000000000000000e+00
  403894:	97ffff7b 	bl	403680 <_ZNSt8__detail20_Prime_rehash_policyC1Ef>
  403898:	f9400fe0 	ldr	x0, [sp, #24]
  40389c:	f900181f 	str	xzr, [x0, #48]
  4038a0:	d503201f 	nop
  4038a4:	a8c27bfd 	ldp	x29, x30, [sp], #32
  4038a8:	d65f03c0 	ret

00000000004038ac <_ZNSt13unordered_mapIiiSt4hashIiESt8equal_toIiESaISt4pairIKiiEEEC1Ev>:
  4038ac:	a9be7bfd 	stp	x29, x30, [sp, #-32]!
  4038b0:	910003fd 	mov	x29, sp
  4038b4:	f9000fe0 	str	x0, [sp, #24]
  4038b8:	f9400fe0 	ldr	x0, [sp, #24]
  4038bc:	97ffffe2 	bl	403844 <_ZNSt10_HashtableIiSt4pairIKiiESaIS2_ENSt8__detail10_Select1stESt8equal_toIiESt4hashIiENS4_18_Mod_range_hashingENS4_20_Default_ranged_hashENS4_20_Prime_rehash_policyENS4_17_Hashtable_traitsILb0ELb0ELb1EEEEC1Ev>
  4038c0:	d503201f 	nop
  4038c4:	a8c27bfd 	ldp	x29, x30, [sp], #32
  4038c8:	d65f03c0 	ret

00000000004038cc <_ZNSt13unordered_mapIiiSt4hashIiESt8equal_toIiESaISt4pairIKiiEEED1Ev>:
  4038cc:	a9be7bfd 	stp	x29, x30, [sp, #-32]!
  4038d0:	910003fd 	mov	x29, sp
  4038d4:	f9000fe0 	str	x0, [sp, #24]
  4038d8:	f9400fe0 	ldr	x0, [sp, #24]
  4038dc:	94000180 	bl	403edc <_ZNSt10_HashtableIiSt4pairIKiiESaIS2_ENSt8__detail10_Select1stESt8equal_toIiESt4hashIiENS4_18_Mod_range_hashingENS4_20_Default_ranged_hashENS4_20_Prime_rehash_policyENS4_17_Hashtable_traitsILb0ELb0ELb1EEEED1Ev>
  4038e0:	d503201f 	nop
  4038e4:	a8c27bfd 	ldp	x29, x30, [sp], #32
  4038e8:	d65f03c0 	ret

00000000004038ec <_ZNKSt6chrono8durationIlSt5ratioILl1ELl1000000000EEE5countEv>:
  4038ec:	d10043ff 	sub	sp, sp, #0x10
  4038f0:	f90007e0 	str	x0, [sp, #8]
  4038f4:	f94007e0 	ldr	x0, [sp, #8]
  4038f8:	f9400000 	ldr	x0, [x0]
  4038fc:	910043ff 	add	sp, sp, #0x10
  403900:	d65f03c0 	ret

0000000000403904 <_ZNSt6chrono8durationIlSt5ratioILl1ELl1000000000EEEC1IlvEERKT_>:
  403904:	d10043ff 	sub	sp, sp, #0x10
  403908:	f90007e0 	str	x0, [sp, #8]
  40390c:	f90003e1 	str	x1, [sp]
  403910:	f94003e0 	ldr	x0, [sp]
  403914:	f9400001 	ldr	x1, [x0]
  403918:	f94007e0 	ldr	x0, [sp, #8]
  40391c:	f9000001 	str	x1, [x0]
  403920:	d503201f 	nop
  403924:	910043ff 	add	sp, sp, #0x10
  403928:	d65f03c0 	ret

000000000040392c <_ZSt4setwi>:
  40392c:	d10043ff 	sub	sp, sp, #0x10
  403930:	b9000fe0 	str	w0, [sp, #12]
  403934:	b9400fe0 	ldr	w0, [sp, #12]
  403938:	910043ff 	add	sp, sp, #0x10
  40393c:	d65f03c0 	ret

0000000000403940 <_ZNSt12_Vector_baseI2PTSaIS0_EE12_Vector_implD1Ev>:
  403940:	a9be7bfd 	stp	x29, x30, [sp, #-32]!
  403944:	910003fd 	mov	x29, sp
  403948:	f9000fe0 	str	x0, [sp, #24]
  40394c:	f9400fe0 	ldr	x0, [sp, #24]
  403950:	9400020c 	bl	404180 <_ZNSaI2PTED1Ev>
  403954:	d503201f 	nop
  403958:	a8c27bfd 	ldp	x29, x30, [sp], #32
  40395c:	d65f03c0 	ret

0000000000403960 <_ZNSt12_Vector_baseI2PTSaIS0_EEC1Ev>:
  403960:	a9be7bfd 	stp	x29, x30, [sp, #-32]!
  403964:	910003fd 	mov	x29, sp
  403968:	f9000fe0 	str	x0, [sp, #24]
  40396c:	f9400fe0 	ldr	x0, [sp, #24]
  403970:	940001fa 	bl	404158 <_ZNSt12_Vector_baseI2PTSaIS0_EE12_Vector_implC1Ev>
  403974:	d503201f 	nop
  403978:	a8c27bfd 	ldp	x29, x30, [sp], #32
  40397c:	d65f03c0 	ret

0000000000403980 <_ZNSt6vectorI2PTSaIS0_EEC1Ev>:
  403980:	a9be7bfd 	stp	x29, x30, [sp, #-32]!
  403984:	910003fd 	mov	x29, sp
  403988:	f9000fe0 	str	x0, [sp, #24]
  40398c:	f9400fe0 	ldr	x0, [sp, #24]
  403990:	97fffff4 	bl	403960 <_ZNSt12_Vector_baseI2PTSaIS0_EEC1Ev>
  403994:	d503201f 	nop
  403998:	a8c27bfd 	ldp	x29, x30, [sp], #32
  40399c:	d65f03c0 	ret

00000000004039a0 <_ZNSt12_Vector_baseI7segmentSaIS0_EE12_Vector_implD1Ev>:
  4039a0:	a9be7bfd 	stp	x29, x30, [sp, #-32]!
  4039a4:	910003fd 	mov	x29, sp
  4039a8:	f9000fe0 	str	x0, [sp, #24]
  4039ac:	f9400fe0 	ldr	x0, [sp, #24]
  4039b0:	94000233 	bl	40427c <_ZNSaI7segmentED1Ev>
  4039b4:	d503201f 	nop
  4039b8:	a8c27bfd 	ldp	x29, x30, [sp], #32
  4039bc:	d65f03c0 	ret

00000000004039c0 <_ZNSt12_Vector_baseI7segmentSaIS0_EEC1Ev>:
  4039c0:	a9be7bfd 	stp	x29, x30, [sp, #-32]!
  4039c4:	910003fd 	mov	x29, sp
  4039c8:	f9000fe0 	str	x0, [sp, #24]
  4039cc:	f9400fe0 	ldr	x0, [sp, #24]
  4039d0:	94000221 	bl	404254 <_ZNSt12_Vector_baseI7segmentSaIS0_EE12_Vector_implC1Ev>
  4039d4:	d503201f 	nop
  4039d8:	a8c27bfd 	ldp	x29, x30, [sp], #32
  4039dc:	d65f03c0 	ret

00000000004039e0 <_ZNSt6vectorI7segmentSaIS0_EEC1Ev>:
  4039e0:	a9be7bfd 	stp	x29, x30, [sp, #-32]!
  4039e4:	910003fd 	mov	x29, sp
  4039e8:	f9000fe0 	str	x0, [sp, #24]
  4039ec:	f9400fe0 	ldr	x0, [sp, #24]
  4039f0:	97fffff4 	bl	4039c0 <_ZNSt12_Vector_baseI7segmentSaIS0_EEC1Ev>
  4039f4:	d503201f 	nop
  4039f8:	a8c27bfd 	ldp	x29, x30, [sp], #32
  4039fc:	d65f03c0 	ret

0000000000403a00 <_ZN5modelC1Ev>:
  403a00:	a9be7bfd 	stp	x29, x30, [sp, #-32]!
  403a04:	910003fd 	mov	x29, sp
  403a08:	f9000fe0 	str	x0, [sp, #24]
  403a0c:	f9400fe0 	ldr	x0, [sp, #24]
  403a10:	12800001 	mov	w1, #0xffffffff            	// #-1
  403a14:	b9000001 	str	w1, [x0]
  403a18:	f9400fe0 	ldr	x0, [sp, #24]
  403a1c:	12800001 	mov	w1, #0xffffffff            	// #-1
  403a20:	b9000401 	str	w1, [x0, #4]
  403a24:	f9400fe0 	ldr	x0, [sp, #24]
  403a28:	12800001 	mov	w1, #0xffffffff            	// #-1
  403a2c:	b9000801 	str	w1, [x0, #8]
  403a30:	f9400fe0 	ldr	x0, [sp, #24]
  403a34:	12800001 	mov	w1, #0xffffffff            	// #-1
  403a38:	b9000c01 	str	w1, [x0, #12]
  403a3c:	f9400fe0 	ldr	x0, [sp, #24]
  403a40:	b900101f 	str	wzr, [x0, #16]
  403a44:	f9400fe0 	ldr	x0, [sp, #24]
  403a48:	91006000 	add	x0, x0, #0x18
  403a4c:	97ffffcd 	bl	403980 <_ZNSt6vectorI2PTSaIS0_EEC1Ev>
  403a50:	f9400fe0 	ldr	x0, [sp, #24]
  403a54:	9100c000 	add	x0, x0, #0x30
  403a58:	97ffffe2 	bl	4039e0 <_ZNSt6vectorI7segmentSaIS0_EEC1Ev>
  403a5c:	f9400fe0 	ldr	x0, [sp, #24]
  403a60:	91012000 	add	x0, x0, #0x48
  403a64:	97ffffdf 	bl	4039e0 <_ZNSt6vectorI7segmentSaIS0_EEC1Ev>
  403a68:	f9400fe0 	ldr	x0, [sp, #24]
  403a6c:	91018000 	add	x0, x0, #0x60
  403a70:	97ffffdc 	bl	4039e0 <_ZNSt6vectorI7segmentSaIS0_EEC1Ev>
  403a74:	f9400fe0 	ldr	x0, [sp, #24]
  403a78:	9101e000 	add	x0, x0, #0x78
  403a7c:	97ffff8c 	bl	4038ac <_ZNSt13unordered_mapIiiSt4hashIiESt8equal_toIiESaISt4pairIKiiEEEC1Ev>
  403a80:	f9400fe0 	ldr	x0, [sp, #24]
  403a84:	9102c000 	add	x0, x0, #0xb0
  403a88:	97ffff89 	bl	4038ac <_ZNSt13unordered_mapIiiSt4hashIiESt8equal_toIiESaISt4pairIKiiEEEC1Ev>
  403a8c:	f9400fe0 	ldr	x0, [sp, #24]
  403a90:	9103a000 	add	x0, x0, #0xe8
  403a94:	97ffff86 	bl	4038ac <_ZNSt13unordered_mapIiiSt4hashIiESt8equal_toIiESaISt4pairIKiiEEEC1Ev>
  403a98:	f9400fe0 	ldr	x0, [sp, #24]
  403a9c:	91048000 	add	x0, x0, #0x120
  403aa0:	97ffff83 	bl	4038ac <_ZNSt13unordered_mapIiiSt4hashIiESt8equal_toIiESaISt4pairIKiiEEEC1Ev>
  403aa4:	f9400fe0 	ldr	x0, [sp, #24]
  403aa8:	91056000 	add	x0, x0, #0x158
  403aac:	97ffffb5 	bl	403980 <_ZNSt6vectorI2PTSaIS0_EEC1Ev>
  403ab0:	d503201f 	nop
  403ab4:	a8c27bfd 	ldp	x29, x30, [sp], #32
  403ab8:	d65f03c0 	ret

0000000000403abc <_ZN5modelD1Ev>:
  403abc:	a9be7bfd 	stp	x29, x30, [sp, #-32]!
  403ac0:	910003fd 	mov	x29, sp
  403ac4:	f9000fe0 	str	x0, [sp, #24]
  403ac8:	f9400fe0 	ldr	x0, [sp, #24]
  403acc:	91056000 	add	x0, x0, #0x158
  403ad0:	940001cd 	bl	404204 <_ZNSt6vectorI2PTSaIS0_EED1Ev>
  403ad4:	f9400fe0 	ldr	x0, [sp, #24]
  403ad8:	91048000 	add	x0, x0, #0x120
  403adc:	97ffff7c 	bl	4038cc <_ZNSt13unordered_mapIiiSt4hashIiESt8equal_toIiESaISt4pairIKiiEEED1Ev>
  403ae0:	f9400fe0 	ldr	x0, [sp, #24]
  403ae4:	9103a000 	add	x0, x0, #0xe8
  403ae8:	97ffff79 	bl	4038cc <_ZNSt13unordered_mapIiiSt4hashIiESt8equal_toIiESaISt4pairIKiiEEED1Ev>
  403aec:	f9400fe0 	ldr	x0, [sp, #24]
  403af0:	9102c000 	add	x0, x0, #0xb0
  403af4:	97ffff76 	bl	4038cc <_ZNSt13unordered_mapIiiSt4hashIiESt8equal_toIiESaISt4pairIKiiEEED1Ev>
  403af8:	f9400fe0 	ldr	x0, [sp, #24]
  403afc:	9101e000 	add	x0, x0, #0x78
  403b00:	97ffff73 	bl	4038cc <_ZNSt13unordered_mapIiiSt4hashIiESt8equal_toIiESaISt4pairIKiiEEED1Ev>
  403b04:	f9400fe0 	ldr	x0, [sp, #24]
  403b08:	91018000 	add	x0, x0, #0x60
  403b0c:	940001fd 	bl	404300 <_ZNSt6vectorI7segmentSaIS0_EED1Ev>
  403b10:	f9400fe0 	ldr	x0, [sp, #24]
  403b14:	91012000 	add	x0, x0, #0x48
  403b18:	940001fa 	bl	404300 <_ZNSt6vectorI7segmentSaIS0_EED1Ev>
  403b1c:	f9400fe0 	ldr	x0, [sp, #24]
  403b20:	9100c000 	add	x0, x0, #0x30
  403b24:	940001f7 	bl	404300 <_ZNSt6vectorI7segmentSaIS0_EED1Ev>
  403b28:	f9400fe0 	ldr	x0, [sp, #24]
  403b2c:	91006000 	add	x0, x0, #0x18
  403b30:	940001b5 	bl	404204 <_ZNSt6vectorI2PTSaIS0_EED1Ev>
  403b34:	d503201f 	nop
  403b38:	a8c27bfd 	ldp	x29, x30, [sp], #32
  403b3c:	d65f03c0 	ret

0000000000403b40 <_ZN13PriorityQueueC1Ev>:
  403b40:	a9be7bfd 	stp	x29, x30, [sp, #-32]!
  403b44:	910003fd 	mov	x29, sp
  403b48:	f9000fe0 	str	x0, [sp, #24]
  403b4c:	f9400fe0 	ldr	x0, [sp, #24]
  403b50:	97ffff8c 	bl	403980 <_ZNSt6vectorI2PTSaIS0_EEC1Ev>
  403b54:	f9400fe0 	ldr	x0, [sp, #24]
  403b58:	91006000 	add	x0, x0, #0x18
  403b5c:	97ffffa9 	bl	403a00 <_ZN5modelC1Ev>
  403b60:	f9400fe0 	ldr	x0, [sp, #24]
  403b64:	b901881f 	str	wzr, [x0, #392]
  403b68:	f9400fe0 	ldr	x0, [sp, #24]
  403b6c:	91064000 	add	x0, x0, #0x190
  403b70:	97fffeed 	bl	403724 <_ZNSt6vectorINSt7__cxx1112basic_stringIcSt11char_traitsIcESaIcEEESaIS5_EEC1Ev>
  403b74:	d503201f 	nop
  403b78:	a8c27bfd 	ldp	x29, x30, [sp], #32
  403b7c:	d65f03c0 	ret

0000000000403b80 <_ZN13PriorityQueueD1Ev>:
  403b80:	a9be7bfd 	stp	x29, x30, [sp, #-32]!
  403b84:	910003fd 	mov	x29, sp
  403b88:	f9000fe0 	str	x0, [sp, #24]
  403b8c:	f9400fe0 	ldr	x0, [sp, #24]
  403b90:	91064000 	add	x0, x0, #0x190
  403b94:	9400006a 	bl	403d3c <_ZNSt6vectorINSt7__cxx1112basic_stringIcSt11char_traitsIcESaIcEEESaIS5_EED1Ev>
  403b98:	f9400fe0 	ldr	x0, [sp, #24]
  403b9c:	91006000 	add	x0, x0, #0x18
  403ba0:	97ffffc7 	bl	403abc <_ZN5modelD1Ev>
  403ba4:	f9400fe0 	ldr	x0, [sp, #24]
  403ba8:	94000197 	bl	404204 <_ZNSt6vectorI2PTSaIS0_EED1Ev>
  403bac:	d503201f 	nop
  403bb0:	a8c27bfd 	ldp	x29, x30, [sp], #32
  403bb4:	d65f03c0 	ret

0000000000403bb8 <_ZNSt6chrono13duration_castINS_8durationIlSt5ratioILl1ELl1000000EEEElS2_ILl1ELl1000000000EEEENSt9enable_ifIXsrNS_13__is_durationIT_EE5valueES8_E4typeERKNS1_IT0_T1_EE>:
  403bb8:	a9be7bfd 	stp	x29, x30, [sp, #-32]!
  403bbc:	910003fd 	mov	x29, sp
  403bc0:	f9000fe0 	str	x0, [sp, #24]
  403bc4:	f9400fe0 	ldr	x0, [sp, #24]
  403bc8:	940001e2 	bl	404350 <_ZNSt6chrono20__duration_cast_implINS_8durationIlSt5ratioILl1ELl1000000EEEES2_ILl1ELl1000EElLb1ELb0EE6__castIlS2_ILl1ELl1000000000EEEES4_RKNS1_IT_T0_EE>
  403bcc:	a8c27bfd 	ldp	x29, x30, [sp], #32
  403bd0:	d65f03c0 	ret

0000000000403bd4 <_ZNSt6chronomiINS_3_V212system_clockENS_8durationIlSt5ratioILl1ELl1000000000EEEES6_EENSt11common_typeIJT0_T1_EE4typeERKNS_10time_pointIT_S8_EERKNSC_ISD_S9_EE>:
  403bd4:	a9bd7bfd 	stp	x29, x30, [sp, #-48]!
  403bd8:	910003fd 	mov	x29, sp
  403bdc:	f9000fe0 	str	x0, [sp, #24]
  403be0:	f9000be1 	str	x1, [sp, #16]
  403be4:	f9400fe0 	ldr	x0, [sp, #24]
  403be8:	94000023 	bl	403c74 <_ZNKSt6chrono10time_pointINS_3_V212system_clockENS_8durationIlSt5ratioILl1ELl1000000000EEEEE16time_since_epochEv>
  403bec:	f90013e0 	str	x0, [sp, #32]
  403bf0:	f9400be0 	ldr	x0, [sp, #16]
  403bf4:	94000020 	bl	403c74 <_ZNKSt6chrono10time_pointINS_3_V212system_clockENS_8durationIlSt5ratioILl1ELl1000000000EEEEE16time_since_epochEv>
  403bf8:	f90017e0 	str	x0, [sp, #40]
  403bfc:	9100a3e1 	add	x1, sp, #0x28
  403c00:	910083e0 	add	x0, sp, #0x20
  403c04:	94000003 	bl	403c10 <_ZNSt6chronomiIlSt5ratioILl1ELl1000000000EElS2_EENSt11common_typeIJNS_8durationIT_T0_EENS4_IT1_T2_EEEE4typeERKS7_RKSA_>
  403c08:	a8c37bfd 	ldp	x29, x30, [sp], #48
  403c0c:	d65f03c0 	ret

0000000000403c10 <_ZNSt6chronomiIlSt5ratioILl1ELl1000000000EElS2_EENSt11common_typeIJNS_8durationIT_T0_EENS4_IT1_T2_EEEE4typeERKS7_RKSA_>:
  403c10:	a9bb7bfd 	stp	x29, x30, [sp, #-80]!
  403c14:	910003fd 	mov	x29, sp
  403c18:	f9000bf3 	str	x19, [sp, #16]
  403c1c:	f90017e0 	str	x0, [sp, #40]
  403c20:	f90013e1 	str	x1, [sp, #32]
  403c24:	f94017e0 	ldr	x0, [sp, #40]
  403c28:	f9400000 	ldr	x0, [x0]
  403c2c:	f90023e0 	str	x0, [sp, #64]
  403c30:	910103e0 	add	x0, sp, #0x40
  403c34:	97ffff2e 	bl	4038ec <_ZNKSt6chrono8durationIlSt5ratioILl1ELl1000000000EEE5countEv>
  403c38:	aa0003f3 	mov	x19, x0
  403c3c:	f94013e0 	ldr	x0, [sp, #32]
  403c40:	f9400000 	ldr	x0, [x0]
  403c44:	f90027e0 	str	x0, [sp, #72]
  403c48:	910123e0 	add	x0, sp, #0x48
  403c4c:	97ffff28 	bl	4038ec <_ZNKSt6chrono8durationIlSt5ratioILl1ELl1000000000EEE5countEv>
  403c50:	cb000260 	sub	x0, x19, x0
  403c54:	f9001fe0 	str	x0, [sp, #56]
  403c58:	9100e3e1 	add	x1, sp, #0x38
  403c5c:	9100c3e0 	add	x0, sp, #0x30
  403c60:	97ffff29 	bl	403904 <_ZNSt6chrono8durationIlSt5ratioILl1ELl1000000000EEEC1IlvEERKT_>
  403c64:	f9401be0 	ldr	x0, [sp, #48]
  403c68:	f9400bf3 	ldr	x19, [sp, #16]
  403c6c:	a8c57bfd 	ldp	x29, x30, [sp], #80
  403c70:	d65f03c0 	ret

0000000000403c74 <_ZNKSt6chrono10time_pointINS_3_V212system_clockENS_8durationIlSt5ratioILl1ELl1000000000EEEEE16time_since_epochEv>:
  403c74:	d10043ff 	sub	sp, sp, #0x10
  403c78:	f90007e0 	str	x0, [sp, #8]
  403c7c:	f94007e0 	ldr	x0, [sp, #8]
  403c80:	f9400000 	ldr	x0, [x0]
  403c84:	910043ff 	add	sp, sp, #0x10
  403c88:	d65f03c0 	ret

0000000000403c8c <_ZNKSt6chrono8durationIlSt5ratioILl1ELl1000000EEE5countEv>:
  403c8c:	d10043ff 	sub	sp, sp, #0x10
  403c90:	f90007e0 	str	x0, [sp, #8]
  403c94:	f94007e0 	ldr	x0, [sp, #8]
  403c98:	f9400000 	ldr	x0, [x0]
  403c9c:	910043ff 	add	sp, sp, #0x10
  403ca0:	d65f03c0 	ret

0000000000403ca4 <_ZNSt12_Vector_baseINSt7__cxx1112basic_stringIcSt11char_traitsIcESaIcEEESaIS5_EE12_Vector_implC1Ev>:
  403ca4:	a9be7bfd 	stp	x29, x30, [sp, #-32]!
  403ca8:	910003fd 	mov	x29, sp
  403cac:	f9000fe0 	str	x0, [sp, #24]
  403cb0:	f9400fe0 	ldr	x0, [sp, #24]
  403cb4:	9400009b 	bl	403f20 <_ZNSaINSt7__cxx1112basic_stringIcSt11char_traitsIcESaIcEEEEC1Ev>
  403cb8:	f9400fe0 	ldr	x0, [sp, #24]
  403cbc:	940001d3 	bl	404408 <_ZNSt12_Vector_baseINSt7__cxx1112basic_stringIcSt11char_traitsIcESaIcEEESaIS5_EE17_Vector_impl_dataC1Ev>
  403cc0:	d503201f 	nop
  403cc4:	a8c27bfd 	ldp	x29, x30, [sp], #32
  403cc8:	d65f03c0 	ret

0000000000403ccc <_ZNSaINSt7__cxx1112basic_stringIcSt11char_traitsIcESaIcEEEED1Ev>:
  403ccc:	a9be7bfd 	stp	x29, x30, [sp, #-32]!
  403cd0:	910003fd 	mov	x29, sp
  403cd4:	f9000fe0 	str	x0, [sp, #24]
  403cd8:	f9400fe0 	ldr	x0, [sp, #24]
  403cdc:	940001d6 	bl	404434 <_ZN9__gnu_cxx13new_allocatorINSt7__cxx1112basic_stringIcSt11char_traitsIcESaIcEEEED1Ev>
  403ce0:	d503201f 	nop
  403ce4:	a8c27bfd 	ldp	x29, x30, [sp], #32
  403ce8:	d65f03c0 	ret

0000000000403cec <_ZNSt12_Vector_baseINSt7__cxx1112basic_stringIcSt11char_traitsIcESaIcEEESaIS5_EED1Ev>:
  403cec:	a9be7bfd 	stp	x29, x30, [sp, #-32]!
  403cf0:	910003fd 	mov	x29, sp
  403cf4:	f9000fe0 	str	x0, [sp, #24]
  403cf8:	f9400fe0 	ldr	x0, [sp, #24]
  403cfc:	f9400003 	ldr	x3, [x0]
  403d00:	f9400fe0 	ldr	x0, [sp, #24]
  403d04:	f9400801 	ldr	x1, [x0, #16]
  403d08:	f9400fe0 	ldr	x0, [sp, #24]
  403d0c:	f9400000 	ldr	x0, [x0]
  403d10:	cb000020 	sub	x0, x1, x0
  403d14:	9345fc00 	asr	x0, x0, #5
  403d18:	aa0003e2 	mov	x2, x0
  403d1c:	aa0303e1 	mov	x1, x3
  403d20:	f9400fe0 	ldr	x0, [sp, #24]
  403d24:	940001c9 	bl	404448 <_ZNSt12_Vector_baseINSt7__cxx1112basic_stringIcSt11char_traitsIcESaIcEEESaIS5_EE13_M_deallocateEPS5_m>
  403d28:	f9400fe0 	ldr	x0, [sp, #24]
  403d2c:	97fffe6e 	bl	4036e4 <_ZNSt12_Vector_baseINSt7__cxx1112basic_stringIcSt11char_traitsIcESaIcEEESaIS5_EE12_Vector_implD1Ev>
  403d30:	d503201f 	nop
  403d34:	a8c27bfd 	ldp	x29, x30, [sp], #32
  403d38:	d65f03c0 	ret

0000000000403d3c <_ZNSt6vectorINSt7__cxx1112basic_stringIcSt11char_traitsIcESaIcEEESaIS5_EED1Ev>:
  403d3c:	a9bd7bfd 	stp	x29, x30, [sp, #-48]!
  403d40:	910003fd 	mov	x29, sp
  403d44:	a90153f3 	stp	x19, x20, [sp, #16]
  403d48:	f90017e0 	str	x0, [sp, #40]
  403d4c:	f94017e0 	ldr	x0, [sp, #40]
  403d50:	f9400013 	ldr	x19, [x0]
  403d54:	f94017e0 	ldr	x0, [sp, #40]
  403d58:	f9400414 	ldr	x20, [x0, #8]
  403d5c:	f94017e0 	ldr	x0, [sp, #40]
  403d60:	940001c9 	bl	404484 <_ZNSt12_Vector_baseINSt7__cxx1112basic_stringIcSt11char_traitsIcESaIcEEESaIS5_EE19_M_get_Tp_allocatorEv>
  403d64:	aa0003e2 	mov	x2, x0
  403d68:	aa1403e1 	mov	x1, x20
  403d6c:	aa1303e0 	mov	x0, x19
  403d70:	940001ca 	bl	404498 <_ZSt8_DestroyIPNSt7__cxx1112basic_stringIcSt11char_traitsIcESaIcEEES5_EvT_S7_RSaIT0_E>
  403d74:	f94017e0 	ldr	x0, [sp, #40]
  403d78:	97ffffdd 	bl	403cec <_ZNSt12_Vector_baseINSt7__cxx1112basic_stringIcSt11char_traitsIcESaIcEEESaIS5_EED1Ev>
  403d7c:	d503201f 	nop
  403d80:	a94153f3 	ldp	x19, x20, [sp, #16]
  403d84:	a8c37bfd 	ldp	x29, x30, [sp], #48
  403d88:	d65f03c0 	ret

0000000000403d8c <_ZNSaIiED1Ev>:
  403d8c:	a9be7bfd 	stp	x29, x30, [sp, #-32]!
  403d90:	910003fd 	mov	x29, sp
  403d94:	f9000fe0 	str	x0, [sp, #24]
  403d98:	f9400fe0 	ldr	x0, [sp, #24]
  403d9c:	940001ca 	bl	4044c4 <_ZN9__gnu_cxx13new_allocatorIiED1Ev>
  403da0:	d503201f 	nop
  403da4:	a8c27bfd 	ldp	x29, x30, [sp], #32
  403da8:	d65f03c0 	ret

0000000000403dac <_ZNSt12_Vector_baseIiSaIiEED1Ev>:
  403dac:	a9be7bfd 	stp	x29, x30, [sp, #-32]!
  403db0:	910003fd 	mov	x29, sp
  403db4:	f9000fe0 	str	x0, [sp, #24]
  403db8:	f9400fe0 	ldr	x0, [sp, #24]
  403dbc:	f9400003 	ldr	x3, [x0]
  403dc0:	f9400fe0 	ldr	x0, [sp, #24]
  403dc4:	f9400801 	ldr	x1, [x0, #16]
  403dc8:	f9400fe0 	ldr	x0, [sp, #24]
  403dcc:	f9400000 	ldr	x0, [x0]
  403dd0:	cb000020 	sub	x0, x1, x0
  403dd4:	9342fc00 	asr	x0, x0, #2
  403dd8:	aa0003e2 	mov	x2, x0
  403ddc:	aa0303e1 	mov	x1, x3
  403de0:	f9400fe0 	ldr	x0, [sp, #24]
  403de4:	940001bd 	bl	4044d8 <_ZNSt12_Vector_baseIiSaIiEE13_M_deallocateEPim>
  403de8:	f9400fe0 	ldr	x0, [sp, #24]
  403dec:	97fffe56 	bl	403744 <_ZNSt12_Vector_baseIiSaIiEE12_Vector_implD1Ev>
  403df0:	d503201f 	nop
  403df4:	a8c27bfd 	ldp	x29, x30, [sp], #32
  403df8:	d65f03c0 	ret

0000000000403dfc <_ZNSt6vectorIiSaIiEED1Ev>:
  403dfc:	a9bd7bfd 	stp	x29, x30, [sp, #-48]!
  403e00:	910003fd 	mov	x29, sp
  403e04:	a90153f3 	stp	x19, x20, [sp, #16]
  403e08:	f90017e0 	str	x0, [sp, #40]
  403e0c:	f94017e0 	ldr	x0, [sp, #40]
  403e10:	f9400013 	ldr	x19, [x0]
  403e14:	f94017e0 	ldr	x0, [sp, #40]
  403e18:	f9400414 	ldr	x20, [x0, #8]
  403e1c:	f94017e0 	ldr	x0, [sp, #40]
  403e20:	940001bd 	bl	404514 <_ZNSt12_Vector_baseIiSaIiEE19_M_get_Tp_allocatorEv>
  403e24:	aa0003e2 	mov	x2, x0
  403e28:	aa1403e1 	mov	x1, x20
  403e2c:	aa1303e0 	mov	x0, x19
  403e30:	940001be 	bl	404528 <_ZSt8_DestroyIPiiEvT_S1_RSaIT0_E>
  403e34:	f94017e0 	ldr	x0, [sp, #40]
  403e38:	97ffffdd 	bl	403dac <_ZNSt12_Vector_baseIiSaIiEED1Ev>
  403e3c:	d503201f 	nop
  403e40:	a94153f3 	ldp	x19, x20, [sp, #16]
  403e44:	a8c37bfd 	ldp	x29, x30, [sp], #48
  403e48:	d65f03c0 	ret

0000000000403e4c <_ZNSaINSt8__detail10_Hash_nodeISt4pairIKNSt7__cxx1112basic_stringIcSt11char_traitsIcESaIcEEEiELb1EEEED1Ev>:
  403e4c:	a9be7bfd 	stp	x29, x30, [sp, #-32]!
  403e50:	910003fd 	mov	x29, sp
  403e54:	f9000fe0 	str	x0, [sp, #24]
  403e58:	f9400fe0 	ldr	x0, [sp, #24]
  403e5c:	940001be 	bl	404554 <_ZN9__gnu_cxx13new_allocatorINSt8__detail10_Hash_nodeISt4pairIKNSt7__cxx1112basic_stringIcSt11char_traitsIcESaIcEEEiELb1EEEED1Ev>
  403e60:	d503201f 	nop
  403e64:	a8c27bfd 	ldp	x29, x30, [sp], #32
  403e68:	d65f03c0 	ret

0000000000403e6c <_ZNSt10_HashtableINSt7__cxx1112basic_stringIcSt11char_traitsIcESaIcEEESt4pairIKS5_iESaIS8_ENSt8__detail10_Select1stESt8equal_toIS5_ESt4hashIS5_ENSA_18_Mod_range_hashingENSA_20_Default_ranged_hashENSA_20_Prime_rehash_policyENSA_17_Hashtable_traitsILb1ELb0ELb1EEEED1Ev>:
  403e6c:	a9be7bfd 	stp	x29, x30, [sp, #-32]!
  403e70:	910003fd 	mov	x29, sp
  403e74:	f9000fe0 	str	x0, [sp, #24]
  403e78:	f9400fe0 	ldr	x0, [sp, #24]
  403e7c:	940001bb 	bl	404568 <_ZNSt10_HashtableINSt7__cxx1112basic_stringIcSt11char_traitsIcESaIcEEESt4pairIKS5_iESaIS8_ENSt8__detail10_Select1stESt8equal_toIS5_ESt4hashIS5_ENSA_18_Mod_range_hashingENSA_20_Default_ranged_hashENSA_20_Prime_rehash_policyENSA_17_Hashtable_traitsILb1ELb0ELb1EEEE5clearEv>
  403e80:	f9400fe0 	ldr	x0, [sp, #24]
  403e84:	940001d2 	bl	4045cc <_ZNSt10_HashtableINSt7__cxx1112basic_stringIcSt11char_traitsIcESaIcEEESt4pairIKS5_iESaIS8_ENSt8__detail10_Select1stESt8equal_toIS5_ESt4hashIS5_ENSA_18_Mod_range_hashingENSA_20_Default_ranged_hashENSA_20_Prime_rehash_policyENSA_17_Hashtable_traitsILb1ELb0ELb1EEEE21_M_deallocate_bucketsEv>
  403e88:	f9400fe0 	ldr	x0, [sp, #24]
  403e8c:	97fffe3e 	bl	403784 <_ZNSt8__detail16_Hashtable_allocISaINS_10_Hash_nodeISt4pairIKNSt7__cxx1112basic_stringIcSt11char_traitsIcESaIcEEEiELb1EEEEED1Ev>
  403e90:	d503201f 	nop
  403e94:	a8c27bfd 	ldp	x29, x30, [sp], #32
  403e98:	d65f03c0 	ret

0000000000403e9c <_ZNSaINSt8__detail10_Hash_nodeISt4pairIKiiELb0EEEEC1Ev>:
  403e9c:	a9be7bfd 	stp	x29, x30, [sp, #-32]!
  403ea0:	910003fd 	mov	x29, sp
  403ea4:	f9000fe0 	str	x0, [sp, #24]
  403ea8:	f9400fe0 	ldr	x0, [sp, #24]
  403eac:	940001d5 	bl	404600 <_ZN9__gnu_cxx13new_allocatorINSt8__detail10_Hash_nodeISt4pairIKiiELb0EEEEC1Ev>
  403eb0:	d503201f 	nop
  403eb4:	a8c27bfd 	ldp	x29, x30, [sp], #32
  403eb8:	d65f03c0 	ret

0000000000403ebc <_ZNSaINSt8__detail10_Hash_nodeISt4pairIKiiELb0EEEED1Ev>:
  403ebc:	a9be7bfd 	stp	x29, x30, [sp, #-32]!
  403ec0:	910003fd 	mov	x29, sp
  403ec4:	f9000fe0 	str	x0, [sp, #24]
  403ec8:	f9400fe0 	ldr	x0, [sp, #24]
  403ecc:	940001d2 	bl	404614 <_ZN9__gnu_cxx13new_allocatorINSt8__detail10_Hash_nodeISt4pairIKiiELb0EEEED1Ev>
  403ed0:	d503201f 	nop
  403ed4:	a8c27bfd 	ldp	x29, x30, [sp], #32
  403ed8:	d65f03c0 	ret

0000000000403edc <_ZNSt10_HashtableIiSt4pairIKiiESaIS2_ENSt8__detail10_Select1stESt8equal_toIiESt4hashIiENS4_18_Mod_range_hashingENS4_20_Default_ranged_hashENS4_20_Prime_rehash_policyENS4_17_Hashtable_traitsILb0ELb0ELb1EEEED1Ev>:
  403edc:	a9be7bfd 	stp	x29, x30, [sp, #-32]!
  403ee0:	910003fd 	mov	x29, sp
  403ee4:	f9000fe0 	str	x0, [sp, #24]
  403ee8:	f9400fe0 	ldr	x0, [sp, #24]
  403eec:	940001cf 	bl	404628 <_ZNSt10_HashtableIiSt4pairIKiiESaIS2_ENSt8__detail10_Select1stESt8equal_toIiESt4hashIiENS4_18_Mod_range_hashingENS4_20_Default_ranged_hashENS4_20_Prime_rehash_policyENS4_17_Hashtable_traitsILb0ELb0ELb1EEEE5clearEv>
  403ef0:	f9400fe0 	ldr	x0, [sp, #24]
  403ef4:	940001e6 	bl	40468c <_ZNSt10_HashtableIiSt4pairIKiiESaIS2_ENSt8__detail10_Select1stESt8equal_toIiESt4hashIiENS4_18_Mod_range_hashingENS4_20_Default_ranged_hashENS4_20_Prime_rehash_policyENS4_17_Hashtable_traitsILb0ELb0ELb1EEEE21_M_deallocate_bucketsEv>
  403ef8:	f9400fe0 	ldr	x0, [sp, #24]
  403efc:	97fffe4a 	bl	403824 <_ZNSt8__detail16_Hashtable_allocISaINS_10_Hash_nodeISt4pairIKiiELb0EEEEED1Ev>
  403f00:	d503201f 	nop
  403f04:	a8c27bfd 	ldp	x29, x30, [sp], #32
  403f08:	d65f03c0 	ret

0000000000403f0c <_ZSt7setfillIcESt8_SetfillIT_ES1_>:
  403f0c:	d10043ff 	sub	sp, sp, #0x10
  403f10:	39003fe0 	strb	w0, [sp, #15]
  403f14:	39403fe0 	ldrb	w0, [sp, #15]
  403f18:	910043ff 	add	sp, sp, #0x10
  403f1c:	d65f03c0 	ret

0000000000403f20 <_ZNSaINSt7__cxx1112basic_stringIcSt11char_traitsIcESaIcEEEEC1Ev>:
  403f20:	a9be7bfd 	stp	x29, x30, [sp, #-32]!
  403f24:	910003fd 	mov	x29, sp
  403f28:	f9000fe0 	str	x0, [sp, #24]
  403f2c:	f9400fe0 	ldr	x0, [sp, #24]
  403f30:	940001e4 	bl	4046c0 <_ZN9__gnu_cxx13new_allocatorINSt7__cxx1112basic_stringIcSt11char_traitsIcESaIcEEEEC1Ev>
  403f34:	d503201f 	nop
  403f38:	a8c27bfd 	ldp	x29, x30, [sp], #32
  403f3c:	d65f03c0 	ret

0000000000403f40 <_ZNSt6vectorINSt7__cxx1112basic_stringIcSt11char_traitsIcESaIcEEESaIS5_EEC1ESt16initializer_listIS5_ERKS6_>:
  403f40:	a9bb7bfd 	stp	x29, x30, [sp, #-80]!
  403f44:	910003fd 	mov	x29, sp
  403f48:	a90153f3 	stp	x19, x20, [sp, #16]
  403f4c:	f9001fe0 	str	x0, [sp, #56]
  403f50:	a9028be1 	stp	x1, x2, [sp, #40]
  403f54:	f90013e3 	str	x3, [sp, #32]
  403f58:	f9401fe0 	ldr	x0, [sp, #56]
  403f5c:	f94013e1 	ldr	x1, [sp, #32]
  403f60:	940001dd 	bl	4046d4 <_ZNSt12_Vector_baseINSt7__cxx1112basic_stringIcSt11char_traitsIcESaIcEEESaIS5_EEC1ERKS6_>
  403f64:	9100a3e0 	add	x0, sp, #0x28
  403f68:	940001e5 	bl	4046fc <_ZNKSt16initializer_listINSt7__cxx1112basic_stringIcSt11char_traitsIcESaIcEEEE5beginEv>
  403f6c:	aa0003f3 	mov	x19, x0
  403f70:	9100a3e0 	add	x0, sp, #0x28
  403f74:	940001e8 	bl	404714 <_ZNKSt16initializer_listINSt7__cxx1112basic_stringIcSt11char_traitsIcESaIcEEEE3endEv>
  403f78:	2a1403e3 	mov	w3, w20
  403f7c:	aa0003e2 	mov	x2, x0
  403f80:	aa1303e1 	mov	x1, x19
  403f84:	f9401fe0 	ldr	x0, [sp, #56]
  403f88:	940001f1 	bl	40474c <_ZNSt6vectorINSt7__cxx1112basic_stringIcSt11char_traitsIcESaIcEEESaIS5_EE19_M_range_initializeIPKS5_EEvT_SB_St20forward_iterator_tag>
  403f8c:	14000006 	b	403fa4 <_ZNSt6vectorINSt7__cxx1112basic_stringIcSt11char_traitsIcESaIcEEESaIS5_EEC1ESt16initializer_listIS5_ERKS6_+0x64>
  403f90:	aa0003f3 	mov	x19, x0
  403f94:	f9401fe0 	ldr	x0, [sp, #56]
  403f98:	97ffff55 	bl	403cec <_ZNSt12_Vector_baseINSt7__cxx1112basic_stringIcSt11char_traitsIcESaIcEEESaIS5_EED1Ev>
  403f9c:	aa1303e0 	mov	x0, x19
  403fa0:	97fff850 	bl	4020e0 <_Unwind_Resume@plt>
  403fa4:	a94153f3 	ldp	x19, x20, [sp, #16]
  403fa8:	a8c57bfd 	ldp	x29, x30, [sp], #80
  403fac:	d65f03c0 	ret

0000000000403fb0 <_ZNKSt6vectorINSt7__cxx1112basic_stringIcSt11char_traitsIcESaIcEEESaIS5_EE4sizeEv>:
  403fb0:	d10043ff 	sub	sp, sp, #0x10
  403fb4:	f90007e0 	str	x0, [sp, #8]
  403fb8:	f94007e0 	ldr	x0, [sp, #8]
  403fbc:	f9400401 	ldr	x1, [x0, #8]
  403fc0:	f94007e0 	ldr	x0, [sp, #8]
  403fc4:	f9400000 	ldr	x0, [x0]
  403fc8:	cb000020 	sub	x0, x1, x0
  403fcc:	9345fc00 	asr	x0, x0, #5
  403fd0:	910043ff 	add	sp, sp, #0x10
  403fd4:	d65f03c0 	ret

0000000000403fd8 <_ZNSt6vectorINSt7__cxx1112basic_stringIcSt11char_traitsIcESaIcEEESaIS5_EEixEm>:
  403fd8:	d10043ff 	sub	sp, sp, #0x10
  403fdc:	f90007e0 	str	x0, [sp, #8]
  403fe0:	f90003e1 	str	x1, [sp]
  403fe4:	f94007e0 	ldr	x0, [sp, #8]
  403fe8:	f9400001 	ldr	x1, [x0]
  403fec:	f94003e0 	ldr	x0, [sp]
  403ff0:	d37be800 	lsl	x0, x0, #5
  403ff4:	8b000020 	add	x0, x1, x0
  403ff8:	910043ff 	add	sp, sp, #0x10
  403ffc:	d65f03c0 	ret

0000000000404000 <_ZStneIcSt11char_traitsIcESaIcEEbRKNSt7__cxx1112basic_stringIT_T0_T1_EESA_>:
  404000:	a9be7bfd 	stp	x29, x30, [sp, #-32]!
  404004:	910003fd 	mov	x29, sp
  404008:	f9000fe0 	str	x0, [sp, #24]
  40400c:	f9000be1 	str	x1, [sp, #16]
  404010:	f9400be1 	ldr	x1, [sp, #16]
  404014:	f9400fe0 	ldr	x0, [sp, #24]
  404018:	940001fb 	bl	404804 <_ZSteqIcEN9__gnu_cxx11__enable_ifIXsrSt9__is_charIT_E7__valueEbE6__typeERKNSt7__cxx1112basic_stringIS3_St11char_traitsIS3_ESaIS3_EEESE_>
  40401c:	12001c00 	and	w0, w0, #0xff
  404020:	52000000 	eor	w0, w0, #0x1
  404024:	12001c00 	and	w0, w0, #0xff
  404028:	a8c27bfd 	ldp	x29, x30, [sp], #32
  40402c:	d65f03c0 	ret

0000000000404030 <_ZSteqIcSt11char_traitsIcESaIcEEbRKNSt7__cxx1112basic_stringIT_T0_T1_EEPKS5_>:
  404030:	a9be7bfd 	stp	x29, x30, [sp, #-32]!
  404034:	910003fd 	mov	x29, sp
  404038:	f9000fe0 	str	x0, [sp, #24]
  40403c:	f9000be1 	str	x1, [sp, #16]
  404040:	f9400be1 	ldr	x1, [sp, #16]
  404044:	f9400fe0 	ldr	x0, [sp, #24]
  404048:	97fff74e 	bl	401d80 <_ZNKSt7__cxx1112basic_stringIcSt11char_traitsIcESaIcEE7compareEPKc@plt>
  40404c:	7100001f 	cmp	w0, #0x0
  404050:	1a9f17e0 	cset	w0, eq  // eq = none
  404054:	12001c00 	and	w0, w0, #0xff
  404058:	a8c27bfd 	ldp	x29, x30, [sp], #32
  40405c:	d65f03c0 	ret

0000000000404060 <_ZNKSt6vectorINSt7__cxx1112basic_stringIcSt11char_traitsIcESaIcEEESaIS5_EE5beginEv>:
  404060:	a9bd7bfd 	stp	x29, x30, [sp, #-48]!
  404064:	910003fd 	mov	x29, sp
  404068:	f9000fe0 	str	x0, [sp, #24]
  40406c:	f9400fe1 	ldr	x1, [sp, #24]
  404070:	9100a3e0 	add	x0, sp, #0x28
  404074:	94000204 	bl	404884 <_ZN9__gnu_cxx17__normal_iteratorIPKNSt7__cxx1112basic_stringIcSt11char_traitsIcESaIcEEESt6vectorIS6_SaIS6_EEEC1ERKS8_>
  404078:	f94017e0 	ldr	x0, [sp, #40]
  40407c:	a8c37bfd 	ldp	x29, x30, [sp], #48
  404080:	d65f03c0 	ret

0000000000404084 <_ZNKSt6vectorINSt7__cxx1112basic_stringIcSt11char_traitsIcESaIcEEESaIS5_EE3endEv>:
  404084:	a9bd7bfd 	stp	x29, x30, [sp, #-48]!
  404088:	910003fd 	mov	x29, sp
  40408c:	f9000fe0 	str	x0, [sp, #24]
  404090:	f9400fe0 	ldr	x0, [sp, #24]
  404094:	91002001 	add	x1, x0, #0x8
  404098:	9100a3e0 	add	x0, sp, #0x28
  40409c:	940001fa 	bl	404884 <_ZN9__gnu_cxx17__normal_iteratorIPKNSt7__cxx1112basic_stringIcSt11char_traitsIcESaIcEEESt6vectorIS6_SaIS6_EEEC1ERKS8_>
  4040a0:	f94017e0 	ldr	x0, [sp, #40]
  4040a4:	a8c37bfd 	ldp	x29, x30, [sp], #48
  4040a8:	d65f03c0 	ret

00000000004040ac <_ZN9__gnu_cxxneIPKNSt7__cxx1112basic_stringIcSt11char_traitsIcESaIcEEESt6vectorIS6_SaIS6_EEEEbRKNS_17__normal_iteratorIT_T0_EESH_>:
  4040ac:	a9bd7bfd 	stp	x29, x30, [sp, #-48]!
  4040b0:	910003fd 	mov	x29, sp
  4040b4:	f9000bf3 	str	x19, [sp, #16]
  4040b8:	f90017e0 	str	x0, [sp, #40]
  4040bc:	f90013e1 	str	x1, [sp, #32]
  4040c0:	f94017e0 	ldr	x0, [sp, #40]
  4040c4:	940001fa 	bl	4048ac <_ZNK9__gnu_cxx17__normal_iteratorIPKNSt7__cxx1112basic_stringIcSt11char_traitsIcESaIcEEESt6vectorIS6_SaIS6_EEE4baseEv>
  4040c8:	f9400013 	ldr	x19, [x0]
  4040cc:	f94013e0 	ldr	x0, [sp, #32]
  4040d0:	940001f7 	bl	4048ac <_ZNK9__gnu_cxx17__normal_iteratorIPKNSt7__cxx1112basic_stringIcSt11char_traitsIcESaIcEEESt6vectorIS6_SaIS6_EEE4baseEv>
  4040d4:	f9400000 	ldr	x0, [x0]
  4040d8:	eb00027f 	cmp	x19, x0
  4040dc:	1a9f07e0 	cset	w0, ne  // ne = any
  4040e0:	12001c00 	and	w0, w0, #0xff
  4040e4:	f9400bf3 	ldr	x19, [sp, #16]
  4040e8:	a8c37bfd 	ldp	x29, x30, [sp], #48
  4040ec:	d65f03c0 	ret

00000000004040f0 <_ZN9__gnu_cxx17__normal_iteratorIPKNSt7__cxx1112basic_stringIcSt11char_traitsIcESaIcEEESt6vectorIS6_SaIS6_EEEppEv>:
  4040f0:	d10043ff 	sub	sp, sp, #0x10
  4040f4:	f90007e0 	str	x0, [sp, #8]
  4040f8:	f94007e0 	ldr	x0, [sp, #8]
  4040fc:	f9400000 	ldr	x0, [x0]
  404100:	91008001 	add	x1, x0, #0x20
  404104:	f94007e0 	ldr	x0, [sp, #8]
  404108:	f9000001 	str	x1, [x0]
  40410c:	f94007e0 	ldr	x0, [sp, #8]
  404110:	910043ff 	add	sp, sp, #0x10
  404114:	d65f03c0 	ret

0000000000404118 <_ZNK9__gnu_cxx17__normal_iteratorIPKNSt7__cxx1112basic_stringIcSt11char_traitsIcESaIcEEESt6vectorIS6_SaIS6_EEEdeEv>:
  404118:	d10043ff 	sub	sp, sp, #0x10
  40411c:	f90007e0 	str	x0, [sp, #8]
  404120:	f94007e0 	ldr	x0, [sp, #8]
  404124:	f9400000 	ldr	x0, [x0]
  404128:	910043ff 	add	sp, sp, #0x10
  40412c:	d65f03c0 	ret

0000000000404130 <_ZNKSt6vectorINSt7__cxx1112basic_stringIcSt11char_traitsIcESaIcEEESaIS5_EEixEm>:
  404130:	d10043ff 	sub	sp, sp, #0x10
  404134:	f90007e0 	str	x0, [sp, #8]
  404138:	f90003e1 	str	x1, [sp]
  40413c:	f94007e0 	ldr	x0, [sp, #8]
  404140:	f9400001 	ldr	x1, [x0]
  404144:	f94003e0 	ldr	x0, [sp]
  404148:	d37be800 	lsl	x0, x0, #5
  40414c:	8b000020 	add	x0, x1, x0
  404150:	910043ff 	add	sp, sp, #0x10
  404154:	d65f03c0 	ret

0000000000404158 <_ZNSt12_Vector_baseI2PTSaIS0_EE12_Vector_implC1Ev>:
  404158:	a9be7bfd 	stp	x29, x30, [sp, #-32]!
  40415c:	910003fd 	mov	x29, sp
  404160:	f9000fe0 	str	x0, [sp, #24]
  404164:	f9400fe0 	ldr	x0, [sp, #24]
  404168:	940001d6 	bl	4048c0 <_ZNSaI2PTEC1Ev>
  40416c:	f9400fe0 	ldr	x0, [sp, #24]
  404170:	940001dc 	bl	4048e0 <_ZNSt12_Vector_baseI2PTSaIS0_EE17_Vector_impl_dataC1Ev>
  404174:	d503201f 	nop
  404178:	a8c27bfd 	ldp	x29, x30, [sp], #32
  40417c:	d65f03c0 	ret

0000000000404180 <_ZNSaI2PTED1Ev>:
  404180:	a9be7bfd 	stp	x29, x30, [sp, #-32]!
  404184:	910003fd 	mov	x29, sp
  404188:	f9000fe0 	str	x0, [sp, #24]
  40418c:	f9400fe0 	ldr	x0, [sp, #24]
  404190:	940001df 	bl	40490c <_ZN9__gnu_cxx13new_allocatorI2PTED1Ev>
  404194:	d503201f 	nop
  404198:	a8c27bfd 	ldp	x29, x30, [sp], #32
  40419c:	d65f03c0 	ret

00000000004041a0 <_ZNSt12_Vector_baseI2PTSaIS0_EED1Ev>:
  4041a0:	a9be7bfd 	stp	x29, x30, [sp, #-32]!
  4041a4:	910003fd 	mov	x29, sp
  4041a8:	f9000fe0 	str	x0, [sp, #24]
  4041ac:	f9400fe0 	ldr	x0, [sp, #24]
  4041b0:	f9400003 	ldr	x3, [x0]
  4041b4:	f9400fe0 	ldr	x0, [sp, #24]
  4041b8:	f9400801 	ldr	x1, [x0, #16]
  4041bc:	f9400fe0 	ldr	x0, [sp, #24]
  4041c0:	f9400000 	ldr	x0, [x0]
  4041c4:	cb000020 	sub	x0, x1, x0
  4041c8:	9343fc01 	asr	x1, x0, #3
  4041cc:	d2917460 	mov	x0, #0x8ba3                	// #35747
  4041d0:	f2b745c0 	movk	x0, #0xba2e, lsl #16
  4041d4:	f2d45d00 	movk	x0, #0xa2e8, lsl #32
  4041d8:	f2e5d160 	movk	x0, #0x2e8b, lsl #48
  4041dc:	9b007c20 	mul	x0, x1, x0
  4041e0:	aa0003e2 	mov	x2, x0
  4041e4:	aa0303e1 	mov	x1, x3
  4041e8:	f9400fe0 	ldr	x0, [sp, #24]
  4041ec:	940001cd 	bl	404920 <_ZNSt12_Vector_baseI2PTSaIS0_EE13_M_deallocateEPS0_m>
  4041f0:	f9400fe0 	ldr	x0, [sp, #24]
  4041f4:	97fffdd3 	bl	403940 <_ZNSt12_Vector_baseI2PTSaIS0_EE12_Vector_implD1Ev>
  4041f8:	d503201f 	nop
  4041fc:	a8c27bfd 	ldp	x29, x30, [sp], #32
  404200:	d65f03c0 	ret

0000000000404204 <_ZNSt6vectorI2PTSaIS0_EED1Ev>:
  404204:	a9bd7bfd 	stp	x29, x30, [sp, #-48]!
  404208:	910003fd 	mov	x29, sp
  40420c:	a90153f3 	stp	x19, x20, [sp, #16]
  404210:	f90017e0 	str	x0, [sp, #40]
  404214:	f94017e0 	ldr	x0, [sp, #40]
  404218:	f9400013 	ldr	x19, [x0]
  40421c:	f94017e0 	ldr	x0, [sp, #40]
  404220:	f9400414 	ldr	x20, [x0, #8]
  404224:	f94017e0 	ldr	x0, [sp, #40]
  404228:	940001cd 	bl	40495c <_ZNSt12_Vector_baseI2PTSaIS0_EE19_M_get_Tp_allocatorEv>
  40422c:	aa0003e2 	mov	x2, x0
  404230:	aa1403e1 	mov	x1, x20
  404234:	aa1303e0 	mov	x0, x19
  404238:	940001ce 	bl	404970 <_ZSt8_DestroyIP2PTS0_EvT_S2_RSaIT0_E>
  40423c:	f94017e0 	ldr	x0, [sp, #40]
  404240:	97ffffd8 	bl	4041a0 <_ZNSt12_Vector_baseI2PTSaIS0_EED1Ev>
  404244:	d503201f 	nop
  404248:	a94153f3 	ldp	x19, x20, [sp, #16]
  40424c:	a8c37bfd 	ldp	x29, x30, [sp], #48
  404250:	d65f03c0 	ret

0000000000404254 <_ZNSt12_Vector_baseI7segmentSaIS0_EE12_Vector_implC1Ev>:
  404254:	a9be7bfd 	stp	x29, x30, [sp, #-32]!
  404258:	910003fd 	mov	x29, sp
  40425c:	f9000fe0 	str	x0, [sp, #24]
  404260:	f9400fe0 	ldr	x0, [sp, #24]
  404264:	940001ce 	bl	40499c <_ZNSaI7segmentEC1Ev>
  404268:	f9400fe0 	ldr	x0, [sp, #24]
  40426c:	940001d4 	bl	4049bc <_ZNSt12_Vector_baseI7segmentSaIS0_EE17_Vector_impl_dataC1Ev>
  404270:	d503201f 	nop
  404274:	a8c27bfd 	ldp	x29, x30, [sp], #32
  404278:	d65f03c0 	ret

000000000040427c <_ZNSaI7segmentED1Ev>:
  40427c:	a9be7bfd 	stp	x29, x30, [sp, #-32]!
  404280:	910003fd 	mov	x29, sp
  404284:	f9000fe0 	str	x0, [sp, #24]
  404288:	f9400fe0 	ldr	x0, [sp, #24]
  40428c:	940001d7 	bl	4049e8 <_ZN9__gnu_cxx13new_allocatorI7segmentED1Ev>
  404290:	d503201f 	nop
  404294:	a8c27bfd 	ldp	x29, x30, [sp], #32
  404298:	d65f03c0 	ret

000000000040429c <_ZNSt12_Vector_baseI7segmentSaIS0_EED1Ev>:
  40429c:	a9be7bfd 	stp	x29, x30, [sp, #-32]!
  4042a0:	910003fd 	mov	x29, sp
  4042a4:	f9000fe0 	str	x0, [sp, #24]
  4042a8:	f9400fe0 	ldr	x0, [sp, #24]
  4042ac:	f9400003 	ldr	x3, [x0]
  4042b0:	f9400fe0 	ldr	x0, [sp, #24]
  4042b4:	f9400801 	ldr	x1, [x0, #16]
  4042b8:	f9400fe0 	ldr	x0, [sp, #24]
  4042bc:	f9400000 	ldr	x0, [x0]
  4042c0:	cb000020 	sub	x0, x1, x0
  4042c4:	9344fc01 	asr	x1, x0, #4
  4042c8:	d2917460 	mov	x0, #0x8ba3                	// #35747
  4042cc:	f2b745c0 	movk	x0, #0xba2e, lsl #16
  4042d0:	f2d45d00 	movk	x0, #0xa2e8, lsl #32
  4042d4:	f2e5d160 	movk	x0, #0x2e8b, lsl #48
  4042d8:	9b007c20 	mul	x0, x1, x0
  4042dc:	aa0003e2 	mov	x2, x0
  4042e0:	aa0303e1 	mov	x1, x3
  4042e4:	f9400fe0 	ldr	x0, [sp, #24]
  4042e8:	940001c5 	bl	4049fc <_ZNSt12_Vector_baseI7segmentSaIS0_EE13_M_deallocateEPS0_m>
  4042ec:	f9400fe0 	ldr	x0, [sp, #24]
  4042f0:	97fffdac 	bl	4039a0 <_ZNSt12_Vector_baseI7segmentSaIS0_EE12_Vector_implD1Ev>
  4042f4:	d503201f 	nop
  4042f8:	a8c27bfd 	ldp	x29, x30, [sp], #32
  4042fc:	d65f03c0 	ret

0000000000404300 <_ZNSt6vectorI7segmentSaIS0_EED1Ev>:
  404300:	a9bd7bfd 	stp	x29, x30, [sp, #-48]!
  404304:	910003fd 	mov	x29, sp
  404308:	a90153f3 	stp	x19, x20, [sp, #16]
  40430c:	f90017e0 	str	x0, [sp, #40]
  404310:	f94017e0 	ldr	x0, [sp, #40]
  404314:	f9400013 	ldr	x19, [x0]
  404318:	f94017e0 	ldr	x0, [sp, #40]
  40431c:	f9400414 	ldr	x20, [x0, #8]
  404320:	f94017e0 	ldr	x0, [sp, #40]
  404324:	940001c5 	bl	404a38 <_ZNSt12_Vector_baseI7segmentSaIS0_EE19_M_get_Tp_allocatorEv>
  404328:	aa0003e2 	mov	x2, x0
  40432c:	aa1403e1 	mov	x1, x20
  404330:	aa1303e0 	mov	x0, x19
  404334:	940001c6 	bl	404a4c <_ZSt8_DestroyIP7segmentS0_EvT_S2_RSaIT0_E>
  404338:	f94017e0 	ldr	x0, [sp, #40]
  40433c:	97ffffd8 	bl	40429c <_ZNSt12_Vector_baseI7segmentSaIS0_EED1Ev>
  404340:	d503201f 	nop
  404344:	a94153f3 	ldp	x19, x20, [sp, #16]
  404348:	a8c37bfd 	ldp	x29, x30, [sp], #48
  40434c:	d65f03c0 	ret

0000000000404350 <_ZNSt6chrono20__duration_cast_implINS_8durationIlSt5ratioILl1ELl1000000EEEES2_ILl1ELl1000EElLb1ELb0EE6__castIlS2_ILl1ELl1000000000EEEES4_RKNS1_IT_T0_EE>:
  404350:	a9bd7bfd 	stp	x29, x30, [sp, #-48]!
  404354:	910003fd 	mov	x29, sp
  404358:	f9000fe0 	str	x0, [sp, #24]
  40435c:	f9400fe0 	ldr	x0, [sp, #24]
  404360:	97fffd63 	bl	4038ec <_ZNKSt6chrono8durationIlSt5ratioILl1ELl1000000000EEE5countEv>
  404364:	d29ef9e1 	mov	x1, #0xf7cf                	// #63439
  404368:	f2bc6a61 	movk	x1, #0xe353, lsl #16
  40436c:	f2d374a1 	movk	x1, #0x9ba5, lsl #32
  404370:	f2e41881 	movk	x1, #0x20c4, lsl #48
  404374:	9b417c01 	smulh	x1, x0, x1
  404378:	9347fc21 	asr	x1, x1, #7
  40437c:	937ffc00 	asr	x0, x0, #63
  404380:	cb000020 	sub	x0, x1, x0
  404384:	f90017e0 	str	x0, [sp, #40]
  404388:	9100a3e1 	add	x1, sp, #0x28
  40438c:	910083e0 	add	x0, sp, #0x20
  404390:	940001ba 	bl	404a78 <_ZNSt6chrono8durationIlSt5ratioILl1ELl1000000EEEC1IlvEERKT_>
  404394:	f94013e0 	ldr	x0, [sp, #32]
  404398:	a8c37bfd 	ldp	x29, x30, [sp], #48
  40439c:	d65f03c0 	ret

00000000004043a0 <_ZNKSt6vectorI2PTSaIS0_EE5emptyEv>:
  4043a0:	a9bd7bfd 	stp	x29, x30, [sp, #-48]!
  4043a4:	910003fd 	mov	x29, sp
  4043a8:	f9000fe0 	str	x0, [sp, #24]
  4043ac:	f9400fe0 	ldr	x0, [sp, #24]
  4043b0:	940001bc 	bl	404aa0 <_ZNKSt6vectorI2PTSaIS0_EE5beginEv>
  4043b4:	f90013e0 	str	x0, [sp, #32]
  4043b8:	f9400fe0 	ldr	x0, [sp, #24]
  4043bc:	940001c2 	bl	404ac4 <_ZNKSt6vectorI2PTSaIS0_EE3endEv>
  4043c0:	f90017e0 	str	x0, [sp, #40]
  4043c4:	9100a3e1 	add	x1, sp, #0x28
  4043c8:	910083e0 	add	x0, sp, #0x20
  4043cc:	940001c8 	bl	404aec <_ZN9__gnu_cxxeqIPK2PTSt6vectorIS1_SaIS1_EEEEbRKNS_17__normal_iteratorIT_T0_EESC_>
  4043d0:	12001c00 	and	w0, w0, #0xff
  4043d4:	a8c37bfd 	ldp	x29, x30, [sp], #48
  4043d8:	d65f03c0 	ret

00000000004043dc <_ZNSt6vectorINSt7__cxx1112basic_stringIcSt11char_traitsIcESaIcEEESaIS5_EE5clearEv>:
  4043dc:	a9be7bfd 	stp	x29, x30, [sp, #-32]!
  4043e0:	910003fd 	mov	x29, sp
  4043e4:	f9000fe0 	str	x0, [sp, #24]
  4043e8:	f9400fe0 	ldr	x0, [sp, #24]
  4043ec:	f9400000 	ldr	x0, [x0]
  4043f0:	aa0003e1 	mov	x1, x0
  4043f4:	f9400fe0 	ldr	x0, [sp, #24]
  4043f8:	940001ce 	bl	404b30 <_ZNSt6vectorINSt7__cxx1112basic_stringIcSt11char_traitsIcESaIcEEESaIS5_EE15_M_erase_at_endEPS5_>
  4043fc:	d503201f 	nop
  404400:	a8c27bfd 	ldp	x29, x30, [sp], #32
  404404:	d65f03c0 	ret

0000000000404408 <_ZNSt12_Vector_baseINSt7__cxx1112basic_stringIcSt11char_traitsIcESaIcEEESaIS5_EE17_Vector_impl_dataC1Ev>:
  404408:	d10043ff 	sub	sp, sp, #0x10
  40440c:	f90007e0 	str	x0, [sp, #8]
  404410:	f94007e0 	ldr	x0, [sp, #8]
  404414:	f900001f 	str	xzr, [x0]
  404418:	f94007e0 	ldr	x0, [sp, #8]
  40441c:	f900041f 	str	xzr, [x0, #8]
  404420:	f94007e0 	ldr	x0, [sp, #8]
  404424:	f900081f 	str	xzr, [x0, #16]
  404428:	d503201f 	nop
  40442c:	910043ff 	add	sp, sp, #0x10
  404430:	d65f03c0 	ret

0000000000404434 <_ZN9__gnu_cxx13new_allocatorINSt7__cxx1112basic_stringIcSt11char_traitsIcESaIcEEEED1Ev>:
  404434:	d10043ff 	sub	sp, sp, #0x10
  404438:	f90007e0 	str	x0, [sp, #8]
  40443c:	d503201f 	nop
  404440:	910043ff 	add	sp, sp, #0x10
  404444:	d65f03c0 	ret

0000000000404448 <_ZNSt12_Vector_baseINSt7__cxx1112basic_stringIcSt11char_traitsIcESaIcEEESaIS5_EE13_M_deallocateEPS5_m>:
  404448:	a9bd7bfd 	stp	x29, x30, [sp, #-48]!
  40444c:	910003fd 	mov	x29, sp
  404450:	f90017e0 	str	x0, [sp, #40]
  404454:	f90013e1 	str	x1, [sp, #32]
  404458:	f9000fe2 	str	x2, [sp, #24]
  40445c:	f94013e0 	ldr	x0, [sp, #32]
  404460:	f100001f 	cmp	x0, #0x0
  404464:	540000a0 	b.eq	404478 <_ZNSt12_Vector_baseINSt7__cxx1112basic_stringIcSt11char_traitsIcESaIcEEESaIS5_EE13_M_deallocateEPS5_m+0x30>  // b.none
  404468:	f94017e0 	ldr	x0, [sp, #40]
  40446c:	f9400fe2 	ldr	x2, [sp, #24]
  404470:	f94013e1 	ldr	x1, [sp, #32]
  404474:	940001cc 	bl	404ba4 <_ZNSt16allocator_traitsISaINSt7__cxx1112basic_stringIcSt11char_traitsIcESaIcEEEEE10deallocateERS6_PS5_m>
  404478:	d503201f 	nop
  40447c:	a8c37bfd 	ldp	x29, x30, [sp], #48
  404480:	d65f03c0 	ret

0000000000404484 <_ZNSt12_Vector_baseINSt7__cxx1112basic_stringIcSt11char_traitsIcESaIcEEESaIS5_EE19_M_get_Tp_allocatorEv>:
  404484:	d10043ff 	sub	sp, sp, #0x10
  404488:	f90007e0 	str	x0, [sp, #8]
  40448c:	f94007e0 	ldr	x0, [sp, #8]
  404490:	910043ff 	add	sp, sp, #0x10
  404494:	d65f03c0 	ret

0000000000404498 <_ZSt8_DestroyIPNSt7__cxx1112basic_stringIcSt11char_traitsIcESaIcEEES5_EvT_S7_RSaIT0_E>:
  404498:	a9bd7bfd 	stp	x29, x30, [sp, #-48]!
  40449c:	910003fd 	mov	x29, sp
  4044a0:	f90017e0 	str	x0, [sp, #40]
  4044a4:	f90013e1 	str	x1, [sp, #32]
  4044a8:	f9000fe2 	str	x2, [sp, #24]
  4044ac:	f94013e1 	ldr	x1, [sp, #32]
  4044b0:	f94017e0 	ldr	x0, [sp, #40]
  4044b4:	940001c8 	bl	404bd4 <_ZSt8_DestroyIPNSt7__cxx1112basic_stringIcSt11char_traitsIcESaIcEEEEvT_S7_>
  4044b8:	d503201f 	nop
  4044bc:	a8c37bfd 	ldp	x29, x30, [sp], #48
  4044c0:	d65f03c0 	ret

00000000004044c4 <_ZN9__gnu_cxx13new_allocatorIiED1Ev>:
  4044c4:	d10043ff 	sub	sp, sp, #0x10
  4044c8:	f90007e0 	str	x0, [sp, #8]
  4044cc:	d503201f 	nop
  4044d0:	910043ff 	add	sp, sp, #0x10
  4044d4:	d65f03c0 	ret

00000000004044d8 <_ZNSt12_Vector_baseIiSaIiEE13_M_deallocateEPim>:
  4044d8:	a9bd7bfd 	stp	x29, x30, [sp, #-48]!
  4044dc:	910003fd 	mov	x29, sp
  4044e0:	f90017e0 	str	x0, [sp, #40]
  4044e4:	f90013e1 	str	x1, [sp, #32]
  4044e8:	f9000fe2 	str	x2, [sp, #24]
  4044ec:	f94013e0 	ldr	x0, [sp, #32]
  4044f0:	f100001f 	cmp	x0, #0x0
  4044f4:	540000a0 	b.eq	404508 <_ZNSt12_Vector_baseIiSaIiEE13_M_deallocateEPim+0x30>  // b.none
  4044f8:	f94017e0 	ldr	x0, [sp, #40]
  4044fc:	f9400fe2 	ldr	x2, [sp, #24]
  404500:	f94013e1 	ldr	x1, [sp, #32]
  404504:	940001be 	bl	404bfc <_ZNSt16allocator_traitsISaIiEE10deallocateERS0_Pim>
  404508:	d503201f 	nop
  40450c:	a8c37bfd 	ldp	x29, x30, [sp], #48
  404510:	d65f03c0 	ret

0000000000404514 <_ZNSt12_Vector_baseIiSaIiEE19_M_get_Tp_allocatorEv>:
  404514:	d10043ff 	sub	sp, sp, #0x10
  404518:	f90007e0 	str	x0, [sp, #8]
  40451c:	f94007e0 	ldr	x0, [sp, #8]
  404520:	910043ff 	add	sp, sp, #0x10
  404524:	d65f03c0 	ret

0000000000404528 <_ZSt8_DestroyIPiiEvT_S1_RSaIT0_E>:
  404528:	a9bd7bfd 	stp	x29, x30, [sp, #-48]!
  40452c:	910003fd 	mov	x29, sp
  404530:	f90017e0 	str	x0, [sp, #40]
  404534:	f90013e1 	str	x1, [sp, #32]
  404538:	f9000fe2 	str	x2, [sp, #24]
  40453c:	f94013e1 	ldr	x1, [sp, #32]
  404540:	f94017e0 	ldr	x0, [sp, #40]
  404544:	940001ba 	bl	404c2c <_ZSt8_DestroyIPiEvT_S1_>
  404548:	d503201f 	nop
  40454c:	a8c37bfd 	ldp	x29, x30, [sp], #48
  404550:	d65f03c0 	ret

0000000000404554 <_ZN9__gnu_cxx13new_allocatorINSt8__detail10_Hash_nodeISt4pairIKNSt7__cxx1112basic_stringIcSt11char_traitsIcESaIcEEEiELb1EEEED1Ev>:
  404554:	d10043ff 	sub	sp, sp, #0x10
  404558:	f90007e0 	str	x0, [sp, #8]
  40455c:	d503201f 	nop
  404560:	910043ff 	add	sp, sp, #0x10
  404564:	d65f03c0 	ret

0000000000404568 <_ZNSt10_HashtableINSt7__cxx1112basic_stringIcSt11char_traitsIcESaIcEEESt4pairIKS5_iESaIS8_ENSt8__detail10_Select1stESt8equal_toIS5_ESt4hashIS5_ENSA_18_Mod_range_hashingENSA_20_Default_ranged_hashENSA_20_Prime_rehash_policyENSA_17_Hashtable_traitsILb1ELb0ELb1EEEE5clearEv>:
  404568:	a9be7bfd 	stp	x29, x30, [sp, #-32]!
  40456c:	910003fd 	mov	x29, sp
  404570:	f9000fe0 	str	x0, [sp, #24]
  404574:	f9400fe0 	ldr	x0, [sp, #24]
  404578:	940001b7 	bl	404c54 <_ZNKSt10_HashtableINSt7__cxx1112basic_stringIcSt11char_traitsIcESaIcEEESt4pairIKS5_iESaIS8_ENSt8__detail10_Select1stESt8equal_toIS5_ESt4hashIS5_ENSA_18_Mod_range_hashingENSA_20_Default_ranged_hashENSA_20_Prime_rehash_policyENSA_17_Hashtable_traitsILb1ELb0ELb1EEEE8_M_beginEv>
  40457c:	aa0003e1 	mov	x1, x0
  404580:	f9400fe0 	ldr	x0, [sp, #24]
  404584:	940001ba 	bl	404c6c <_ZNSt8__detail16_Hashtable_allocISaINS_10_Hash_nodeISt4pairIKNSt7__cxx1112basic_stringIcSt11char_traitsIcESaIcEEEiELb1EEEEE19_M_deallocate_nodesEPSB_>
  404588:	f9400fe0 	ldr	x0, [sp, #24]
  40458c:	f9400001 	ldr	x1, [x0]
  404590:	f9400fe0 	ldr	x0, [sp, #24]
  404594:	f9400400 	ldr	x0, [x0, #8]
  404598:	d37df000 	lsl	x0, x0, #3
  40459c:	aa0103e3 	mov	x3, x1
  4045a0:	aa0003e2 	mov	x2, x0
  4045a4:	52800001 	mov	w1, #0x0                   	// #0
  4045a8:	aa0303e0 	mov	x0, x3
  4045ac:	97fff61d 	bl	401e20 <memset@plt>
  4045b0:	f9400fe0 	ldr	x0, [sp, #24]
  4045b4:	f9000c1f 	str	xzr, [x0, #24]
  4045b8:	f9400fe0 	ldr	x0, [sp, #24]
  4045bc:	f900081f 	str	xzr, [x0, #16]
  4045c0:	d503201f 	nop
  4045c4:	a8c27bfd 	ldp	x29, x30, [sp], #32
  4045c8:	d65f03c0 	ret

00000000004045cc <_ZNSt10_HashtableINSt7__cxx1112basic_stringIcSt11char_traitsIcESaIcEEESt4pairIKS5_iESaIS8_ENSt8__detail10_Select1stESt8equal_toIS5_ESt4hashIS5_ENSA_18_Mod_range_hashingENSA_20_Default_ranged_hashENSA_20_Prime_rehash_policyENSA_17_Hashtable_traitsILb1ELb0ELb1EEEE21_M_deallocate_bucketsEv>:
  4045cc:	a9be7bfd 	stp	x29, x30, [sp, #-32]!
  4045d0:	910003fd 	mov	x29, sp
  4045d4:	f9000fe0 	str	x0, [sp, #24]
  4045d8:	f9400fe0 	ldr	x0, [sp, #24]
  4045dc:	f9400001 	ldr	x1, [x0]
  4045e0:	f9400fe0 	ldr	x0, [sp, #24]
  4045e4:	f9400400 	ldr	x0, [x0, #8]
  4045e8:	aa0003e2 	mov	x2, x0
  4045ec:	f9400fe0 	ldr	x0, [sp, #24]
  4045f0:	940001b2 	bl	404cb8 <_ZNSt10_HashtableINSt7__cxx1112basic_stringIcSt11char_traitsIcESaIcEEESt4pairIKS5_iESaIS8_ENSt8__detail10_Select1stESt8equal_toIS5_ESt4hashIS5_ENSA_18_Mod_range_hashingENSA_20_Default_ranged_hashENSA_20_Prime_rehash_policyENSA_17_Hashtable_traitsILb1ELb0ELb1EEEE21_M_deallocate_bucketsEPPNSA_15_Hash_node_baseEm>
  4045f4:	d503201f 	nop
  4045f8:	a8c27bfd 	ldp	x29, x30, [sp], #32
  4045fc:	d65f03c0 	ret

0000000000404600 <_ZN9__gnu_cxx13new_allocatorINSt8__detail10_Hash_nodeISt4pairIKiiELb0EEEEC1Ev>:
  404600:	d10043ff 	sub	sp, sp, #0x10
  404604:	f90007e0 	str	x0, [sp, #8]
  404608:	d503201f 	nop
  40460c:	910043ff 	add	sp, sp, #0x10
  404610:	d65f03c0 	ret

0000000000404614 <_ZN9__gnu_cxx13new_allocatorINSt8__detail10_Hash_nodeISt4pairIKiiELb0EEEED1Ev>:
  404614:	d10043ff 	sub	sp, sp, #0x10
  404618:	f90007e0 	str	x0, [sp, #8]
  40461c:	d503201f 	nop
  404620:	910043ff 	add	sp, sp, #0x10
  404624:	d65f03c0 	ret

0000000000404628 <_ZNSt10_HashtableIiSt4pairIKiiESaIS2_ENSt8__detail10_Select1stESt8equal_toIiESt4hashIiENS4_18_Mod_range_hashingENS4_20_Default_ranged_hashENS4_20_Prime_rehash_policyENS4_17_Hashtable_traitsILb0ELb0ELb1EEEE5clearEv>:
  404628:	a9be7bfd 	stp	x29, x30, [sp, #-32]!
  40462c:	910003fd 	mov	x29, sp
  404630:	f9000fe0 	str	x0, [sp, #24]
  404634:	f9400fe0 	ldr	x0, [sp, #24]
  404638:	940001b3 	bl	404d04 <_ZNKSt10_HashtableIiSt4pairIKiiESaIS2_ENSt8__detail10_Select1stESt8equal_toIiESt4hashIiENS4_18_Mod_range_hashingENS4_20_Default_ranged_hashENS4_20_Prime_rehash_policyENS4_17_Hashtable_traitsILb0ELb0ELb1EEEE8_M_beginEv>
  40463c:	aa0003e1 	mov	x1, x0
  404640:	f9400fe0 	ldr	x0, [sp, #24]
  404644:	940001b6 	bl	404d1c <_ZNSt8__detail16_Hashtable_allocISaINS_10_Hash_nodeISt4pairIKiiELb0EEEEE19_M_deallocate_nodesEPS5_>
  404648:	f9400fe0 	ldr	x0, [sp, #24]
  40464c:	f9400001 	ldr	x1, [x0]
  404650:	f9400fe0 	ldr	x0, [sp, #24]
  404654:	f9400400 	ldr	x0, [x0, #8]
  404658:	d37df000 	lsl	x0, x0, #3
  40465c:	aa0103e3 	mov	x3, x1
  404660:	aa0003e2 	mov	x2, x0
  404664:	52800001 	mov	w1, #0x0                   	// #0
  404668:	aa0303e0 	mov	x0, x3
  40466c:	97fff5ed 	bl	401e20 <memset@plt>
  404670:	f9400fe0 	ldr	x0, [sp, #24]
  404674:	f9000c1f 	str	xzr, [x0, #24]
  404678:	f9400fe0 	ldr	x0, [sp, #24]
  40467c:	f900081f 	str	xzr, [x0, #16]
  404680:	d503201f 	nop
  404684:	a8c27bfd 	ldp	x29, x30, [sp], #32
  404688:	d65f03c0 	ret

000000000040468c <_ZNSt10_HashtableIiSt4pairIKiiESaIS2_ENSt8__detail10_Select1stESt8equal_toIiESt4hashIiENS4_18_Mod_range_hashingENS4_20_Default_ranged_hashENS4_20_Prime_rehash_policyENS4_17_Hashtable_traitsILb0ELb0ELb1EEEE21_M_deallocate_bucketsEv>:
  40468c:	a9be7bfd 	stp	x29, x30, [sp, #-32]!
  404690:	910003fd 	mov	x29, sp
  404694:	f9000fe0 	str	x0, [sp, #24]
  404698:	f9400fe0 	ldr	x0, [sp, #24]
  40469c:	f9400001 	ldr	x1, [x0]
  4046a0:	f9400fe0 	ldr	x0, [sp, #24]
  4046a4:	f9400400 	ldr	x0, [x0, #8]
  4046a8:	aa0003e2 	mov	x2, x0
  4046ac:	f9400fe0 	ldr	x0, [sp, #24]
  4046b0:	940001ae 	bl	404d68 <_ZNSt10_HashtableIiSt4pairIKiiESaIS2_ENSt8__detail10_Select1stESt8equal_toIiESt4hashIiENS4_18_Mod_range_hashingENS4_20_Default_ranged_hashENS4_20_Prime_rehash_policyENS4_17_Hashtable_traitsILb0ELb0ELb1EEEE21_M_deallocate_bucketsEPPNS4_15_Hash_node_baseEm>
  4046b4:	d503201f 	nop
  4046b8:	a8c27bfd 	ldp	x29, x30, [sp], #32
  4046bc:	d65f03c0 	ret

00000000004046c0 <_ZN9__gnu_cxx13new_allocatorINSt7__cxx1112basic_stringIcSt11char_traitsIcESaIcEEEEC1Ev>:
  4046c0:	d10043ff 	sub	sp, sp, #0x10
  4046c4:	f90007e0 	str	x0, [sp, #8]
  4046c8:	d503201f 	nop
  4046cc:	910043ff 	add	sp, sp, #0x10
  4046d0:	d65f03c0 	ret

00000000004046d4 <_ZNSt12_Vector_baseINSt7__cxx1112basic_stringIcSt11char_traitsIcESaIcEEESaIS5_EEC1ERKS6_>:
  4046d4:	a9be7bfd 	stp	x29, x30, [sp, #-32]!
  4046d8:	910003fd 	mov	x29, sp
  4046dc:	f9000fe0 	str	x0, [sp, #24]
  4046e0:	f9000be1 	str	x1, [sp, #16]
  4046e4:	f9400fe0 	ldr	x0, [sp, #24]
  4046e8:	f9400be1 	ldr	x1, [sp, #16]
  4046ec:	940001b2 	bl	404db4 <_ZNSt12_Vector_baseINSt7__cxx1112basic_stringIcSt11char_traitsIcESaIcEEESaIS5_EE12_Vector_implC1ERKS6_>
  4046f0:	d503201f 	nop
  4046f4:	a8c27bfd 	ldp	x29, x30, [sp], #32
  4046f8:	d65f03c0 	ret

00000000004046fc <_ZNKSt16initializer_listINSt7__cxx1112basic_stringIcSt11char_traitsIcESaIcEEEE5beginEv>:
  4046fc:	d10043ff 	sub	sp, sp, #0x10
  404700:	f90007e0 	str	x0, [sp, #8]
  404704:	f94007e0 	ldr	x0, [sp, #8]
  404708:	f9400000 	ldr	x0, [x0]
  40470c:	910043ff 	add	sp, sp, #0x10
  404710:	d65f03c0 	ret

0000000000404714 <_ZNKSt16initializer_listINSt7__cxx1112basic_stringIcSt11char_traitsIcESaIcEEEE3endEv>:
  404714:	a9bd7bfd 	stp	x29, x30, [sp, #-48]!
  404718:	910003fd 	mov	x29, sp
  40471c:	f9000bf3 	str	x19, [sp, #16]
  404720:	f90017e0 	str	x0, [sp, #40]
  404724:	f94017e0 	ldr	x0, [sp, #40]
  404728:	97fffff5 	bl	4046fc <_ZNKSt16initializer_listINSt7__cxx1112basic_stringIcSt11char_traitsIcESaIcEEEE5beginEv>
  40472c:	aa0003f3 	mov	x19, x0
  404730:	f94017e0 	ldr	x0, [sp, #40]
  404734:	940001ac 	bl	404de4 <_ZNKSt16initializer_listINSt7__cxx1112basic_stringIcSt11char_traitsIcESaIcEEEE4sizeEv>
  404738:	d37be800 	lsl	x0, x0, #5
  40473c:	8b000260 	add	x0, x19, x0
  404740:	f9400bf3 	ldr	x19, [sp, #16]
  404744:	a8c37bfd 	ldp	x29, x30, [sp], #48
  404748:	d65f03c0 	ret

000000000040474c <_ZNSt6vectorINSt7__cxx1112basic_stringIcSt11char_traitsIcESaIcEEESaIS5_EE19_M_range_initializeIPKS5_EEvT_SB_St20forward_iterator_tag>:
  40474c:	a9bb7bfd 	stp	x29, x30, [sp, #-80]!
  404750:	910003fd 	mov	x29, sp
  404754:	f9000bf3 	str	x19, [sp, #16]
  404758:	f9001fe0 	str	x0, [sp, #56]
  40475c:	f9001be1 	str	x1, [sp, #48]
  404760:	f90017e2 	str	x2, [sp, #40]
  404764:	390083e3 	strb	w3, [sp, #32]
  404768:	f94017e1 	ldr	x1, [sp, #40]
  40476c:	f9401be0 	ldr	x0, [sp, #48]
  404770:	940001a3 	bl	404dfc <_ZSt8distanceIPKNSt7__cxx1112basic_stringIcSt11char_traitsIcESaIcEEEENSt15iterator_traitsIT_E15difference_typeES9_S9_>
  404774:	f90027e0 	str	x0, [sp, #72]
  404778:	f9401ff3 	ldr	x19, [sp, #56]
  40477c:	f9401fe0 	ldr	x0, [sp, #56]
  404780:	97ffff41 	bl	404484 <_ZNSt12_Vector_baseINSt7__cxx1112basic_stringIcSt11char_traitsIcESaIcEEESaIS5_EE19_M_get_Tp_allocatorEv>
  404784:	aa0003e1 	mov	x1, x0
  404788:	f94027e0 	ldr	x0, [sp, #72]
  40478c:	940001ab 	bl	404e38 <_ZNSt6vectorINSt7__cxx1112basic_stringIcSt11char_traitsIcESaIcEEESaIS5_EE17_S_check_init_lenEmRKS6_>
  404790:	aa0003e1 	mov	x1, x0
  404794:	aa1303e0 	mov	x0, x19
  404798:	940001c2 	bl	404ea0 <_ZNSt12_Vector_baseINSt7__cxx1112basic_stringIcSt11char_traitsIcESaIcEEESaIS5_EE11_M_allocateEm>
  40479c:	aa0003e1 	mov	x1, x0
  4047a0:	f9401fe0 	ldr	x0, [sp, #56]
  4047a4:	f9000001 	str	x1, [x0]
  4047a8:	f9401fe0 	ldr	x0, [sp, #56]
  4047ac:	f9400001 	ldr	x1, [x0]
  4047b0:	f94027e0 	ldr	x0, [sp, #72]
  4047b4:	d37be800 	lsl	x0, x0, #5
  4047b8:	8b000021 	add	x1, x1, x0
  4047bc:	f9401fe0 	ldr	x0, [sp, #56]
  4047c0:	f9000801 	str	x1, [x0, #16]
  4047c4:	f9401fe0 	ldr	x0, [sp, #56]
  4047c8:	f9400013 	ldr	x19, [x0]
  4047cc:	f9401fe0 	ldr	x0, [sp, #56]
  4047d0:	97ffff2d 	bl	404484 <_ZNSt12_Vector_baseINSt7__cxx1112basic_stringIcSt11char_traitsIcESaIcEEESaIS5_EE19_M_get_Tp_allocatorEv>
  4047d4:	aa0003e3 	mov	x3, x0
  4047d8:	aa1303e2 	mov	x2, x19
  4047dc:	f94017e1 	ldr	x1, [sp, #40]
  4047e0:	f9401be0 	ldr	x0, [sp, #48]
  4047e4:	940001bd 	bl	404ed8 <_ZSt22__uninitialized_copy_aIPKNSt7__cxx1112basic_stringIcSt11char_traitsIcESaIcEEEPS5_S5_ET0_T_SA_S9_RSaIT1_E>
  4047e8:	aa0003e1 	mov	x1, x0
  4047ec:	f9401fe0 	ldr	x0, [sp, #56]
  4047f0:	f9000401 	str	x1, [x0, #8]
  4047f4:	d503201f 	nop
  4047f8:	f9400bf3 	ldr	x19, [sp, #16]
  4047fc:	a8c57bfd 	ldp	x29, x30, [sp], #80
  404800:	d65f03c0 	ret

0000000000404804 <_ZSteqIcEN9__gnu_cxx11__enable_ifIXsrSt9__is_charIT_E7__valueEbE6__typeERKNSt7__cxx1112basic_stringIS3_St11char_traitsIS3_ESaIS3_EEESE_>:
  404804:	a9bd7bfd 	stp	x29, x30, [sp, #-48]!
  404808:	910003fd 	mov	x29, sp
  40480c:	a90153f3 	stp	x19, x20, [sp, #16]
  404810:	f90017e0 	str	x0, [sp, #40]
  404814:	f90013e1 	str	x1, [sp, #32]
  404818:	f94017e0 	ldr	x0, [sp, #40]
  40481c:	97fff595 	bl	401e70 <_ZNKSt7__cxx1112basic_stringIcSt11char_traitsIcESaIcEE4sizeEv@plt>
  404820:	aa0003f3 	mov	x19, x0
  404824:	f94013e0 	ldr	x0, [sp, #32]
  404828:	97fff592 	bl	401e70 <_ZNKSt7__cxx1112basic_stringIcSt11char_traitsIcESaIcEE4sizeEv@plt>
  40482c:	eb00027f 	cmp	x19, x0
  404830:	54000221 	b.ne	404874 <_ZSteqIcEN9__gnu_cxx11__enable_ifIXsrSt9__is_charIT_E7__valueEbE6__typeERKNSt7__cxx1112basic_stringIS3_St11char_traitsIS3_ESaIS3_EEESE_+0x70>  // b.any
  404834:	f94017e0 	ldr	x0, [sp, #40]
  404838:	97fff5e6 	bl	401fd0 <_ZNKSt7__cxx1112basic_stringIcSt11char_traitsIcESaIcEE4dataEv@plt>
  40483c:	aa0003f3 	mov	x19, x0
  404840:	f94013e0 	ldr	x0, [sp, #32]
  404844:	97fff5e3 	bl	401fd0 <_ZNKSt7__cxx1112basic_stringIcSt11char_traitsIcESaIcEE4dataEv@plt>
  404848:	aa0003f4 	mov	x20, x0
  40484c:	f94017e0 	ldr	x0, [sp, #40]
  404850:	97fff588 	bl	401e70 <_ZNKSt7__cxx1112basic_stringIcSt11char_traitsIcESaIcEE4sizeEv@plt>
  404854:	aa0003e2 	mov	x2, x0
  404858:	aa1403e1 	mov	x1, x20
  40485c:	aa1303e0 	mov	x0, x19
  404860:	97fffb0c 	bl	403490 <_ZNSt11char_traitsIcE7compareEPKcS2_m>
  404864:	7100001f 	cmp	w0, #0x0
  404868:	54000061 	b.ne	404874 <_ZSteqIcEN9__gnu_cxx11__enable_ifIXsrSt9__is_charIT_E7__valueEbE6__typeERKNSt7__cxx1112basic_stringIS3_St11char_traitsIS3_ESaIS3_EEESE_+0x70>  // b.any
  40486c:	52800020 	mov	w0, #0x1                   	// #1
  404870:	14000002 	b	404878 <_ZSteqIcEN9__gnu_cxx11__enable_ifIXsrSt9__is_charIT_E7__valueEbE6__typeERKNSt7__cxx1112basic_stringIS3_St11char_traitsIS3_ESaIS3_EEESE_+0x74>
  404874:	52800000 	mov	w0, #0x0                   	// #0
  404878:	a94153f3 	ldp	x19, x20, [sp, #16]
  40487c:	a8c37bfd 	ldp	x29, x30, [sp], #48
  404880:	d65f03c0 	ret

0000000000404884 <_ZN9__gnu_cxx17__normal_iteratorIPKNSt7__cxx1112basic_stringIcSt11char_traitsIcESaIcEEESt6vectorIS6_SaIS6_EEEC1ERKS8_>:
  404884:	d10043ff 	sub	sp, sp, #0x10
  404888:	f90007e0 	str	x0, [sp, #8]
  40488c:	f90003e1 	str	x1, [sp]
  404890:	f94003e0 	ldr	x0, [sp]
  404894:	f9400001 	ldr	x1, [x0]
  404898:	f94007e0 	ldr	x0, [sp, #8]
  40489c:	f9000001 	str	x1, [x0]
  4048a0:	d503201f 	nop
  4048a4:	910043ff 	add	sp, sp, #0x10
  4048a8:	d65f03c0 	ret

00000000004048ac <_ZNK9__gnu_cxx17__normal_iteratorIPKNSt7__cxx1112basic_stringIcSt11char_traitsIcESaIcEEESt6vectorIS6_SaIS6_EEE4baseEv>:
  4048ac:	d10043ff 	sub	sp, sp, #0x10
  4048b0:	f90007e0 	str	x0, [sp, #8]
  4048b4:	f94007e0 	ldr	x0, [sp, #8]
  4048b8:	910043ff 	add	sp, sp, #0x10
  4048bc:	d65f03c0 	ret

00000000004048c0 <_ZNSaI2PTEC1Ev>:
  4048c0:	a9be7bfd 	stp	x29, x30, [sp, #-32]!
  4048c4:	910003fd 	mov	x29, sp
  4048c8:	f9000fe0 	str	x0, [sp, #24]
  4048cc:	f9400fe0 	ldr	x0, [sp, #24]
  4048d0:	9400018e 	bl	404f08 <_ZN9__gnu_cxx13new_allocatorI2PTEC1Ev>
  4048d4:	d503201f 	nop
  4048d8:	a8c27bfd 	ldp	x29, x30, [sp], #32
  4048dc:	d65f03c0 	ret

00000000004048e0 <_ZNSt12_Vector_baseI2PTSaIS0_EE17_Vector_impl_dataC1Ev>:
  4048e0:	d10043ff 	sub	sp, sp, #0x10
  4048e4:	f90007e0 	str	x0, [sp, #8]
  4048e8:	f94007e0 	ldr	x0, [sp, #8]
  4048ec:	f900001f 	str	xzr, [x0]
  4048f0:	f94007e0 	ldr	x0, [sp, #8]
  4048f4:	f900041f 	str	xzr, [x0, #8]
  4048f8:	f94007e0 	ldr	x0, [sp, #8]
  4048fc:	f900081f 	str	xzr, [x0, #16]
  404900:	d503201f 	nop
  404904:	910043ff 	add	sp, sp, #0x10
  404908:	d65f03c0 	ret

000000000040490c <_ZN9__gnu_cxx13new_allocatorI2PTED1Ev>:
  40490c:	d10043ff 	sub	sp, sp, #0x10
  404910:	f90007e0 	str	x0, [sp, #8]
  404914:	d503201f 	nop
  404918:	910043ff 	add	sp, sp, #0x10
  40491c:	d65f03c0 	ret

0000000000404920 <_ZNSt12_Vector_baseI2PTSaIS0_EE13_M_deallocateEPS0_m>:
  404920:	a9bd7bfd 	stp	x29, x30, [sp, #-48]!
  404924:	910003fd 	mov	x29, sp
  404928:	f90017e0 	str	x0, [sp, #40]
  40492c:	f90013e1 	str	x1, [sp, #32]
  404930:	f9000fe2 	str	x2, [sp, #24]
  404934:	f94013e0 	ldr	x0, [sp, #32]
  404938:	f100001f 	cmp	x0, #0x0
  40493c:	540000a0 	b.eq	404950 <_ZNSt12_Vector_baseI2PTSaIS0_EE13_M_deallocateEPS0_m+0x30>  // b.none
  404940:	f94017e0 	ldr	x0, [sp, #40]
  404944:	f9400fe2 	ldr	x2, [sp, #24]
  404948:	f94013e1 	ldr	x1, [sp, #32]
  40494c:	94000174 	bl	404f1c <_ZNSt16allocator_traitsISaI2PTEE10deallocateERS1_PS0_m>
  404950:	d503201f 	nop
  404954:	a8c37bfd 	ldp	x29, x30, [sp], #48
  404958:	d65f03c0 	ret

000000000040495c <_ZNSt12_Vector_baseI2PTSaIS0_EE19_M_get_Tp_allocatorEv>:
  40495c:	d10043ff 	sub	sp, sp, #0x10
  404960:	f90007e0 	str	x0, [sp, #8]
  404964:	f94007e0 	ldr	x0, [sp, #8]
  404968:	910043ff 	add	sp, sp, #0x10
  40496c:	d65f03c0 	ret

0000000000404970 <_ZSt8_DestroyIP2PTS0_EvT_S2_RSaIT0_E>:
  404970:	a9bd7bfd 	stp	x29, x30, [sp, #-48]!
  404974:	910003fd 	mov	x29, sp
  404978:	f90017e0 	str	x0, [sp, #40]
  40497c:	f90013e1 	str	x1, [sp, #32]
  404980:	f9000fe2 	str	x2, [sp, #24]
  404984:	f94013e1 	ldr	x1, [sp, #32]
  404988:	f94017e0 	ldr	x0, [sp, #40]
  40498c:	94000170 	bl	404f4c <_ZSt8_DestroyIP2PTEvT_S2_>
  404990:	d503201f 	nop
  404994:	a8c37bfd 	ldp	x29, x30, [sp], #48
  404998:	d65f03c0 	ret

000000000040499c <_ZNSaI7segmentEC1Ev>:
  40499c:	a9be7bfd 	stp	x29, x30, [sp, #-32]!
  4049a0:	910003fd 	mov	x29, sp
  4049a4:	f9000fe0 	str	x0, [sp, #24]
  4049a8:	f9400fe0 	ldr	x0, [sp, #24]
  4049ac:	94000172 	bl	404f74 <_ZN9__gnu_cxx13new_allocatorI7segmentEC1Ev>
  4049b0:	d503201f 	nop
  4049b4:	a8c27bfd 	ldp	x29, x30, [sp], #32
  4049b8:	d65f03c0 	ret

00000000004049bc <_ZNSt12_Vector_baseI7segmentSaIS0_EE17_Vector_impl_dataC1Ev>:
  4049bc:	d10043ff 	sub	sp, sp, #0x10
  4049c0:	f90007e0 	str	x0, [sp, #8]
  4049c4:	f94007e0 	ldr	x0, [sp, #8]
  4049c8:	f900001f 	str	xzr, [x0]
  4049cc:	f94007e0 	ldr	x0, [sp, #8]
  4049d0:	f900041f 	str	xzr, [x0, #8]
  4049d4:	f94007e0 	ldr	x0, [sp, #8]
  4049d8:	f900081f 	str	xzr, [x0, #16]
  4049dc:	d503201f 	nop
  4049e0:	910043ff 	add	sp, sp, #0x10
  4049e4:	d65f03c0 	ret

00000000004049e8 <_ZN9__gnu_cxx13new_allocatorI7segmentED1Ev>:
  4049e8:	d10043ff 	sub	sp, sp, #0x10
  4049ec:	f90007e0 	str	x0, [sp, #8]
  4049f0:	d503201f 	nop
  4049f4:	910043ff 	add	sp, sp, #0x10
  4049f8:	d65f03c0 	ret

00000000004049fc <_ZNSt12_Vector_baseI7segmentSaIS0_EE13_M_deallocateEPS0_m>:
  4049fc:	a9bd7bfd 	stp	x29, x30, [sp, #-48]!
  404a00:	910003fd 	mov	x29, sp
  404a04:	f90017e0 	str	x0, [sp, #40]
  404a08:	f90013e1 	str	x1, [sp, #32]
  404a0c:	f9000fe2 	str	x2, [sp, #24]
  404a10:	f94013e0 	ldr	x0, [sp, #32]
  404a14:	f100001f 	cmp	x0, #0x0
  404a18:	540000a0 	b.eq	404a2c <_ZNSt12_Vector_baseI7segmentSaIS0_EE13_M_deallocateEPS0_m+0x30>  // b.none
  404a1c:	f94017e0 	ldr	x0, [sp, #40]
  404a20:	f9400fe2 	ldr	x2, [sp, #24]
  404a24:	f94013e1 	ldr	x1, [sp, #32]
  404a28:	94000158 	bl	404f88 <_ZNSt16allocator_traitsISaI7segmentEE10deallocateERS1_PS0_m>
  404a2c:	d503201f 	nop
  404a30:	a8c37bfd 	ldp	x29, x30, [sp], #48
  404a34:	d65f03c0 	ret

0000000000404a38 <_ZNSt12_Vector_baseI7segmentSaIS0_EE19_M_get_Tp_allocatorEv>:
  404a38:	d10043ff 	sub	sp, sp, #0x10
  404a3c:	f90007e0 	str	x0, [sp, #8]
  404a40:	f94007e0 	ldr	x0, [sp, #8]
  404a44:	910043ff 	add	sp, sp, #0x10
  404a48:	d65f03c0 	ret

0000000000404a4c <_ZSt8_DestroyIP7segmentS0_EvT_S2_RSaIT0_E>:
  404a4c:	a9bd7bfd 	stp	x29, x30, [sp, #-48]!
  404a50:	910003fd 	mov	x29, sp
  404a54:	f90017e0 	str	x0, [sp, #40]
  404a58:	f90013e1 	str	x1, [sp, #32]
  404a5c:	f9000fe2 	str	x2, [sp, #24]
  404a60:	f94013e1 	ldr	x1, [sp, #32]
  404a64:	f94017e0 	ldr	x0, [sp, #40]
  404a68:	94000154 	bl	404fb8 <_ZSt8_DestroyIP7segmentEvT_S2_>
  404a6c:	d503201f 	nop
  404a70:	a8c37bfd 	ldp	x29, x30, [sp], #48
  404a74:	d65f03c0 	ret

0000000000404a78 <_ZNSt6chrono8durationIlSt5ratioILl1ELl1000000EEEC1IlvEERKT_>:
  404a78:	d10043ff 	sub	sp, sp, #0x10
  404a7c:	f90007e0 	str	x0, [sp, #8]
  404a80:	f90003e1 	str	x1, [sp]
  404a84:	f94003e0 	ldr	x0, [sp]
  404a88:	f9400001 	ldr	x1, [x0]
  404a8c:	f94007e0 	ldr	x0, [sp, #8]
  404a90:	f9000001 	str	x1, [x0]
  404a94:	d503201f 	nop
  404a98:	910043ff 	add	sp, sp, #0x10
  404a9c:	d65f03c0 	ret

0000000000404aa0 <_ZNKSt6vectorI2PTSaIS0_EE5beginEv>:
  404aa0:	a9bd7bfd 	stp	x29, x30, [sp, #-48]!
  404aa4:	910003fd 	mov	x29, sp
  404aa8:	f9000fe0 	str	x0, [sp, #24]
  404aac:	f9400fe1 	ldr	x1, [sp, #24]
  404ab0:	9100a3e0 	add	x0, sp, #0x28
  404ab4:	9400014b 	bl	404fe0 <_ZN9__gnu_cxx17__normal_iteratorIPK2PTSt6vectorIS1_SaIS1_EEEC1ERKS3_>
  404ab8:	f94017e0 	ldr	x0, [sp, #40]
  404abc:	a8c37bfd 	ldp	x29, x30, [sp], #48
  404ac0:	d65f03c0 	ret

0000000000404ac4 <_ZNKSt6vectorI2PTSaIS0_EE3endEv>:
  404ac4:	a9bd7bfd 	stp	x29, x30, [sp, #-48]!
  404ac8:	910003fd 	mov	x29, sp
  404acc:	f9000fe0 	str	x0, [sp, #24]
  404ad0:	f9400fe0 	ldr	x0, [sp, #24]
  404ad4:	91002001 	add	x1, x0, #0x8
  404ad8:	9100a3e0 	add	x0, sp, #0x28
  404adc:	94000141 	bl	404fe0 <_ZN9__gnu_cxx17__normal_iteratorIPK2PTSt6vectorIS1_SaIS1_EEEC1ERKS3_>
  404ae0:	f94017e0 	ldr	x0, [sp, #40]
  404ae4:	a8c37bfd 	ldp	x29, x30, [sp], #48
  404ae8:	d65f03c0 	ret

0000000000404aec <_ZN9__gnu_cxxeqIPK2PTSt6vectorIS1_SaIS1_EEEEbRKNS_17__normal_iteratorIT_T0_EESC_>:
  404aec:	a9bd7bfd 	stp	x29, x30, [sp, #-48]!
  404af0:	910003fd 	mov	x29, sp
  404af4:	f9000bf3 	str	x19, [sp, #16]
  404af8:	f90017e0 	str	x0, [sp, #40]
  404afc:	f90013e1 	str	x1, [sp, #32]
  404b00:	f94017e0 	ldr	x0, [sp, #40]
  404b04:	94000141 	bl	405008 <_ZNK9__gnu_cxx17__normal_iteratorIPK2PTSt6vectorIS1_SaIS1_EEE4baseEv>
  404b08:	f9400013 	ldr	x19, [x0]
  404b0c:	f94013e0 	ldr	x0, [sp, #32]
  404b10:	9400013e 	bl	405008 <_ZNK9__gnu_cxx17__normal_iteratorIPK2PTSt6vectorIS1_SaIS1_EEE4baseEv>
  404b14:	f9400000 	ldr	x0, [x0]
  404b18:	eb00027f 	cmp	x19, x0
  404b1c:	1a9f17e0 	cset	w0, eq  // eq = none
  404b20:	12001c00 	and	w0, w0, #0xff
  404b24:	f9400bf3 	ldr	x19, [sp, #16]
  404b28:	a8c37bfd 	ldp	x29, x30, [sp], #48
  404b2c:	d65f03c0 	ret

0000000000404b30 <_ZNSt6vectorINSt7__cxx1112basic_stringIcSt11char_traitsIcESaIcEEESaIS5_EE15_M_erase_at_endEPS5_>:
  404b30:	a9bc7bfd 	stp	x29, x30, [sp, #-64]!
  404b34:	910003fd 	mov	x29, sp
  404b38:	f9000bf3 	str	x19, [sp, #16]
  404b3c:	f90017e0 	str	x0, [sp, #40]
  404b40:	f90013e1 	str	x1, [sp, #32]
  404b44:	f94017e0 	ldr	x0, [sp, #40]
  404b48:	f9400401 	ldr	x1, [x0, #8]
  404b4c:	f94013e0 	ldr	x0, [sp, #32]
  404b50:	cb000020 	sub	x0, x1, x0
  404b54:	9345fc00 	asr	x0, x0, #5
  404b58:	f9001fe0 	str	x0, [sp, #56]
  404b5c:	f9401fe0 	ldr	x0, [sp, #56]
  404b60:	f100001f 	cmp	x0, #0x0
  404b64:	54000180 	b.eq	404b94 <_ZNSt6vectorINSt7__cxx1112basic_stringIcSt11char_traitsIcESaIcEEESaIS5_EE15_M_erase_at_endEPS5_+0x64>  // b.none
  404b68:	f94017e0 	ldr	x0, [sp, #40]
  404b6c:	f9400413 	ldr	x19, [x0, #8]
  404b70:	f94017e0 	ldr	x0, [sp, #40]
  404b74:	97fffe44 	bl	404484 <_ZNSt12_Vector_baseINSt7__cxx1112basic_stringIcSt11char_traitsIcESaIcEEESaIS5_EE19_M_get_Tp_allocatorEv>
  404b78:	aa0003e2 	mov	x2, x0
  404b7c:	aa1303e1 	mov	x1, x19
  404b80:	f94013e0 	ldr	x0, [sp, #32]
  404b84:	97fffe45 	bl	404498 <_ZSt8_DestroyIPNSt7__cxx1112basic_stringIcSt11char_traitsIcESaIcEEES5_EvT_S7_RSaIT0_E>
  404b88:	f94017e0 	ldr	x0, [sp, #40]
  404b8c:	f94013e1 	ldr	x1, [sp, #32]
  404b90:	f9000401 	str	x1, [x0, #8]
  404b94:	d503201f 	nop
  404b98:	f9400bf3 	ldr	x19, [sp, #16]
  404b9c:	a8c47bfd 	ldp	x29, x30, [sp], #64
  404ba0:	d65f03c0 	ret

0000000000404ba4 <_ZNSt16allocator_traitsISaINSt7__cxx1112basic_stringIcSt11char_traitsIcESaIcEEEEE10deallocateERS6_PS5_m>:
  404ba4:	a9bd7bfd 	stp	x29, x30, [sp, #-48]!
  404ba8:	910003fd 	mov	x29, sp
  404bac:	f90017e0 	str	x0, [sp, #40]
  404bb0:	f90013e1 	str	x1, [sp, #32]
  404bb4:	f9000fe2 	str	x2, [sp, #24]
  404bb8:	f9400fe2 	ldr	x2, [sp, #24]
  404bbc:	f94013e1 	ldr	x1, [sp, #32]
  404bc0:	f94017e0 	ldr	x0, [sp, #40]
  404bc4:	94000116 	bl	40501c <_ZN9__gnu_cxx13new_allocatorINSt7__cxx1112basic_stringIcSt11char_traitsIcESaIcEEEE10deallocateEPS6_m>
  404bc8:	d503201f 	nop
  404bcc:	a8c37bfd 	ldp	x29, x30, [sp], #48
  404bd0:	d65f03c0 	ret

0000000000404bd4 <_ZSt8_DestroyIPNSt7__cxx1112basic_stringIcSt11char_traitsIcESaIcEEEEvT_S7_>:
  404bd4:	a9be7bfd 	stp	x29, x30, [sp, #-32]!
  404bd8:	910003fd 	mov	x29, sp
  404bdc:	f9000fe0 	str	x0, [sp, #24]
  404be0:	f9000be1 	str	x1, [sp, #16]
  404be4:	f9400be1 	ldr	x1, [sp, #16]
  404be8:	f9400fe0 	ldr	x0, [sp, #24]
  404bec:	94000119 	bl	405050 <_ZNSt12_Destroy_auxILb0EE9__destroyIPNSt7__cxx1112basic_stringIcSt11char_traitsIcESaIcEEEEEvT_S9_>
  404bf0:	d503201f 	nop
  404bf4:	a8c27bfd 	ldp	x29, x30, [sp], #32
  404bf8:	d65f03c0 	ret

0000000000404bfc <_ZNSt16allocator_traitsISaIiEE10deallocateERS0_Pim>:
  404bfc:	a9bd7bfd 	stp	x29, x30, [sp, #-48]!
  404c00:	910003fd 	mov	x29, sp
  404c04:	f90017e0 	str	x0, [sp, #40]
  404c08:	f90013e1 	str	x1, [sp, #32]
  404c0c:	f9000fe2 	str	x2, [sp, #24]
  404c10:	f9400fe2 	ldr	x2, [sp, #24]
  404c14:	f94013e1 	ldr	x1, [sp, #32]
  404c18:	f94017e0 	ldr	x0, [sp, #40]
  404c1c:	9400011f 	bl	405098 <_ZN9__gnu_cxx13new_allocatorIiE10deallocateEPim>
  404c20:	d503201f 	nop
  404c24:	a8c37bfd 	ldp	x29, x30, [sp], #48
  404c28:	d65f03c0 	ret

0000000000404c2c <_ZSt8_DestroyIPiEvT_S1_>:
  404c2c:	a9be7bfd 	stp	x29, x30, [sp, #-32]!
  404c30:	910003fd 	mov	x29, sp
  404c34:	f9000fe0 	str	x0, [sp, #24]
  404c38:	f9000be1 	str	x1, [sp, #16]
  404c3c:	f9400be1 	ldr	x1, [sp, #16]
  404c40:	f9400fe0 	ldr	x0, [sp, #24]
  404c44:	94000122 	bl	4050cc <_ZNSt12_Destroy_auxILb1EE9__destroyIPiEEvT_S3_>
  404c48:	d503201f 	nop
  404c4c:	a8c27bfd 	ldp	x29, x30, [sp], #32
  404c50:	d65f03c0 	ret

0000000000404c54 <_ZNKSt10_HashtableINSt7__cxx1112basic_stringIcSt11char_traitsIcESaIcEEESt4pairIKS5_iESaIS8_ENSt8__detail10_Select1stESt8equal_toIS5_ESt4hashIS5_ENSA_18_Mod_range_hashingENSA_20_Default_ranged_hashENSA_20_Prime_rehash_policyENSA_17_Hashtable_traitsILb1ELb0ELb1EEEE8_M_beginEv>:
  404c54:	d10043ff 	sub	sp, sp, #0x10
  404c58:	f90007e0 	str	x0, [sp, #8]
  404c5c:	f94007e0 	ldr	x0, [sp, #8]
  404c60:	f9400800 	ldr	x0, [x0, #16]
  404c64:	910043ff 	add	sp, sp, #0x10
  404c68:	d65f03c0 	ret

0000000000404c6c <_ZNSt8__detail16_Hashtable_allocISaINS_10_Hash_nodeISt4pairIKNSt7__cxx1112basic_stringIcSt11char_traitsIcESaIcEEEiELb1EEEEE19_M_deallocate_nodesEPSB_>:
  404c6c:	a9bd7bfd 	stp	x29, x30, [sp, #-48]!
  404c70:	910003fd 	mov	x29, sp
  404c74:	f9000fe0 	str	x0, [sp, #24]
  404c78:	f9000be1 	str	x1, [sp, #16]
  404c7c:	f9400be0 	ldr	x0, [sp, #16]
  404c80:	f100001f 	cmp	x0, #0x0
  404c84:	54000140 	b.eq	404cac <_ZNSt8__detail16_Hashtable_allocISaINS_10_Hash_nodeISt4pairIKNSt7__cxx1112basic_stringIcSt11char_traitsIcESaIcEEEiELb1EEEEE19_M_deallocate_nodesEPSB_+0x40>  // b.none
  404c88:	f9400be0 	ldr	x0, [sp, #16]
  404c8c:	f90017e0 	str	x0, [sp, #40]
  404c90:	f9400be0 	ldr	x0, [sp, #16]
  404c94:	94000114 	bl	4050e4 <_ZNKSt8__detail10_Hash_nodeISt4pairIKNSt7__cxx1112basic_stringIcSt11char_traitsIcESaIcEEEiELb1EE7_M_nextEv>
  404c98:	f9000be0 	str	x0, [sp, #16]
  404c9c:	f94017e1 	ldr	x1, [sp, #40]
  404ca0:	f9400fe0 	ldr	x0, [sp, #24]
  404ca4:	94000116 	bl	4050fc <_ZNSt8__detail16_Hashtable_allocISaINS_10_Hash_nodeISt4pairIKNSt7__cxx1112basic_stringIcSt11char_traitsIcESaIcEEEiELb1EEEEE18_M_deallocate_nodeEPSB_>
  404ca8:	17fffff5 	b	404c7c <_ZNSt8__detail16_Hashtable_allocISaINS_10_Hash_nodeISt4pairIKNSt7__cxx1112basic_stringIcSt11char_traitsIcESaIcEEEiELb1EEEEE19_M_deallocate_nodesEPSB_+0x10>
  404cac:	d503201f 	nop
  404cb0:	a8c37bfd 	ldp	x29, x30, [sp], #48
  404cb4:	d65f03c0 	ret

0000000000404cb8 <_ZNSt10_HashtableINSt7__cxx1112basic_stringIcSt11char_traitsIcESaIcEEESt4pairIKS5_iESaIS8_ENSt8__detail10_Select1stESt8equal_toIS5_ESt4hashIS5_ENSA_18_Mod_range_hashingENSA_20_Default_ranged_hashENSA_20_Prime_rehash_policyENSA_17_Hashtable_traitsILb1ELb0ELb1EEEE21_M_deallocate_bucketsEPPNSA_15_Hash_node_baseEm>:
  404cb8:	a9bd7bfd 	stp	x29, x30, [sp, #-48]!
  404cbc:	910003fd 	mov	x29, sp
  404cc0:	f90017e0 	str	x0, [sp, #40]
  404cc4:	f90013e1 	str	x1, [sp, #32]
  404cc8:	f9000fe2 	str	x2, [sp, #24]
  404ccc:	f94013e1 	ldr	x1, [sp, #32]
  404cd0:	f94017e0 	ldr	x0, [sp, #40]
  404cd4:	9400011e 	bl	40514c <_ZNKSt10_HashtableINSt7__cxx1112basic_stringIcSt11char_traitsIcESaIcEEESt4pairIKS5_iESaIS8_ENSt8__detail10_Select1stESt8equal_toIS5_ESt4hashIS5_ENSA_18_Mod_range_hashingENSA_20_Default_ranged_hashENSA_20_Prime_rehash_policyENSA_17_Hashtable_traitsILb1ELb0ELb1EEEE21_M_uses_single_bucketEPPNSA_15_Hash_node_baseE>
  404cd8:	12001c00 	and	w0, w0, #0xff
  404cdc:	7100001f 	cmp	w0, #0x0
  404ce0:	540000c1 	b.ne	404cf8 <_ZNSt10_HashtableINSt7__cxx1112basic_stringIcSt11char_traitsIcESaIcEEESt4pairIKS5_iESaIS8_ENSt8__detail10_Select1stESt8equal_toIS5_ESt4hashIS5_ENSA_18_Mod_range_hashingENSA_20_Default_ranged_hashENSA_20_Prime_rehash_policyENSA_17_Hashtable_traitsILb1ELb0ELb1EEEE21_M_deallocate_bucketsEPPNSA_15_Hash_node_baseEm+0x40>  // b.any
  404ce4:	f9400fe2 	ldr	x2, [sp, #24]
  404ce8:	f94013e1 	ldr	x1, [sp, #32]
  404cec:	f94017e0 	ldr	x0, [sp, #40]
  404cf0:	94000126 	bl	405188 <_ZNSt8__detail16_Hashtable_allocISaINS_10_Hash_nodeISt4pairIKNSt7__cxx1112basic_stringIcSt11char_traitsIcESaIcEEEiELb1EEEEE21_M_deallocate_bucketsEPPNS_15_Hash_node_baseEm>
  404cf4:	14000002 	b	404cfc <_ZNSt10_HashtableINSt7__cxx1112basic_stringIcSt11char_traitsIcESaIcEEESt4pairIKS5_iESaIS8_ENSt8__detail10_Select1stESt8equal_toIS5_ESt4hashIS5_ENSA_18_Mod_range_hashingENSA_20_Default_ranged_hashENSA_20_Prime_rehash_policyENSA_17_Hashtable_traitsILb1ELb0ELb1EEEE21_M_deallocate_bucketsEPPNSA_15_Hash_node_baseEm+0x44>
  404cf8:	d503201f 	nop
  404cfc:	a8c37bfd 	ldp	x29, x30, [sp], #48
  404d00:	d65f03c0 	ret

0000000000404d04 <_ZNKSt10_HashtableIiSt4pairIKiiESaIS2_ENSt8__detail10_Select1stESt8equal_toIiESt4hashIiENS4_18_Mod_range_hashingENS4_20_Default_ranged_hashENS4_20_Prime_rehash_policyENS4_17_Hashtable_traitsILb0ELb0ELb1EEEE8_M_beginEv>:
  404d04:	d10043ff 	sub	sp, sp, #0x10
  404d08:	f90007e0 	str	x0, [sp, #8]
  404d0c:	f94007e0 	ldr	x0, [sp, #8]
  404d10:	f9400800 	ldr	x0, [x0, #16]
  404d14:	910043ff 	add	sp, sp, #0x10
  404d18:	d65f03c0 	ret

0000000000404d1c <_ZNSt8__detail16_Hashtable_allocISaINS_10_Hash_nodeISt4pairIKiiELb0EEEEE19_M_deallocate_nodesEPS5_>:
  404d1c:	a9bd7bfd 	stp	x29, x30, [sp, #-48]!
  404d20:	910003fd 	mov	x29, sp
  404d24:	f9000fe0 	str	x0, [sp, #24]
  404d28:	f9000be1 	str	x1, [sp, #16]
  404d2c:	f9400be0 	ldr	x0, [sp, #16]
  404d30:	f100001f 	cmp	x0, #0x0
  404d34:	54000140 	b.eq	404d5c <_ZNSt8__detail16_Hashtable_allocISaINS_10_Hash_nodeISt4pairIKiiELb0EEEEE19_M_deallocate_nodesEPS5_+0x40>  // b.none
  404d38:	f9400be0 	ldr	x0, [sp, #16]
  404d3c:	f90017e0 	str	x0, [sp, #40]
  404d40:	f9400be0 	ldr	x0, [sp, #16]
  404d44:	9400012e 	bl	4051fc <_ZNKSt8__detail10_Hash_nodeISt4pairIKiiELb0EE7_M_nextEv>
  404d48:	f9000be0 	str	x0, [sp, #16]
  404d4c:	f94017e1 	ldr	x1, [sp, #40]
  404d50:	f9400fe0 	ldr	x0, [sp, #24]
  404d54:	94000130 	bl	405214 <_ZNSt8__detail16_Hashtable_allocISaINS_10_Hash_nodeISt4pairIKiiELb0EEEEE18_M_deallocate_nodeEPS5_>
  404d58:	17fffff5 	b	404d2c <_ZNSt8__detail16_Hashtable_allocISaINS_10_Hash_nodeISt4pairIKiiELb0EEEEE19_M_deallocate_nodesEPS5_+0x10>
  404d5c:	d503201f 	nop
  404d60:	a8c37bfd 	ldp	x29, x30, [sp], #48
  404d64:	d65f03c0 	ret

0000000000404d68 <_ZNSt10_HashtableIiSt4pairIKiiESaIS2_ENSt8__detail10_Select1stESt8equal_toIiESt4hashIiENS4_18_Mod_range_hashingENS4_20_Default_ranged_hashENS4_20_Prime_rehash_policyENS4_17_Hashtable_traitsILb0ELb0ELb1EEEE21_M_deallocate_bucketsEPPNS4_15_Hash_node_baseEm>:
  404d68:	a9bd7bfd 	stp	x29, x30, [sp, #-48]!
  404d6c:	910003fd 	mov	x29, sp
  404d70:	f90017e0 	str	x0, [sp, #40]
  404d74:	f90013e1 	str	x1, [sp, #32]
  404d78:	f9000fe2 	str	x2, [sp, #24]
  404d7c:	f94013e1 	ldr	x1, [sp, #32]
  404d80:	f94017e0 	ldr	x0, [sp, #40]
  404d84:	94000138 	bl	405264 <_ZNKSt10_HashtableIiSt4pairIKiiESaIS2_ENSt8__detail10_Select1stESt8equal_toIiESt4hashIiENS4_18_Mod_range_hashingENS4_20_Default_ranged_hashENS4_20_Prime_rehash_policyENS4_17_Hashtable_traitsILb0ELb0ELb1EEEE21_M_uses_single_bucketEPPNS4_15_Hash_node_baseE>
  404d88:	12001c00 	and	w0, w0, #0xff
  404d8c:	7100001f 	cmp	w0, #0x0
  404d90:	540000c1 	b.ne	404da8 <_ZNSt10_HashtableIiSt4pairIKiiESaIS2_ENSt8__detail10_Select1stESt8equal_toIiESt4hashIiENS4_18_Mod_range_hashingENS4_20_Default_ranged_hashENS4_20_Prime_rehash_policyENS4_17_Hashtable_traitsILb0ELb0ELb1EEEE21_M_deallocate_bucketsEPPNS4_15_Hash_node_baseEm+0x40>  // b.any
  404d94:	f9400fe2 	ldr	x2, [sp, #24]
  404d98:	f94013e1 	ldr	x1, [sp, #32]
  404d9c:	f94017e0 	ldr	x0, [sp, #40]
  404da0:	94000140 	bl	4052a0 <_ZNSt8__detail16_Hashtable_allocISaINS_10_Hash_nodeISt4pairIKiiELb0EEEEE21_M_deallocate_bucketsEPPNS_15_Hash_node_baseEm>
  404da4:	14000002 	b	404dac <_ZNSt10_HashtableIiSt4pairIKiiESaIS2_ENSt8__detail10_Select1stESt8equal_toIiESt4hashIiENS4_18_Mod_range_hashingENS4_20_Default_ranged_hashENS4_20_Prime_rehash_policyENS4_17_Hashtable_traitsILb0ELb0ELb1EEEE21_M_deallocate_bucketsEPPNS4_15_Hash_node_baseEm+0x44>
  404da8:	d503201f 	nop
  404dac:	a8c37bfd 	ldp	x29, x30, [sp], #48
  404db0:	d65f03c0 	ret

0000000000404db4 <_ZNSt12_Vector_baseINSt7__cxx1112basic_stringIcSt11char_traitsIcESaIcEEESaIS5_EE12_Vector_implC1ERKS6_>:
  404db4:	a9be7bfd 	stp	x29, x30, [sp, #-32]!
  404db8:	910003fd 	mov	x29, sp
  404dbc:	f9000fe0 	str	x0, [sp, #24]
  404dc0:	f9000be1 	str	x1, [sp, #16]
  404dc4:	f9400be1 	ldr	x1, [sp, #16]
  404dc8:	f9400fe0 	ldr	x0, [sp, #24]
  404dcc:	94000152 	bl	405314 <_ZNSaINSt7__cxx1112basic_stringIcSt11char_traitsIcESaIcEEEEC1ERKS5_>
  404dd0:	f9400fe0 	ldr	x0, [sp, #24]
  404dd4:	97fffd8d 	bl	404408 <_ZNSt12_Vector_baseINSt7__cxx1112basic_stringIcSt11char_traitsIcESaIcEEESaIS5_EE17_Vector_impl_dataC1Ev>
  404dd8:	d503201f 	nop
  404ddc:	a8c27bfd 	ldp	x29, x30, [sp], #32
  404de0:	d65f03c0 	ret

0000000000404de4 <_ZNKSt16initializer_listINSt7__cxx1112basic_stringIcSt11char_traitsIcESaIcEEEE4sizeEv>:
  404de4:	d10043ff 	sub	sp, sp, #0x10
  404de8:	f90007e0 	str	x0, [sp, #8]
  404dec:	f94007e0 	ldr	x0, [sp, #8]
  404df0:	f9400400 	ldr	x0, [x0, #8]
  404df4:	910043ff 	add	sp, sp, #0x10
  404df8:	d65f03c0 	ret

0000000000404dfc <_ZSt8distanceIPKNSt7__cxx1112basic_stringIcSt11char_traitsIcESaIcEEEENSt15iterator_traitsIT_E15difference_typeES9_S9_>:
  404dfc:	a9bd7bfd 	stp	x29, x30, [sp, #-48]!
  404e00:	910003fd 	mov	x29, sp
  404e04:	a90153f3 	stp	x19, x20, [sp, #16]
  404e08:	f90017e0 	str	x0, [sp, #40]
  404e0c:	f90013e1 	str	x1, [sp, #32]
  404e10:	f94017f3 	ldr	x19, [sp, #40]
  404e14:	9100a3e0 	add	x0, sp, #0x28
  404e18:	94000149 	bl	40533c <_ZSt19__iterator_categoryIPKNSt7__cxx1112basic_stringIcSt11char_traitsIcESaIcEEEENSt15iterator_traitsIT_E17iterator_categoryERKS9_>
  404e1c:	2a1403e2 	mov	w2, w20
  404e20:	f94013e1 	ldr	x1, [sp, #32]
  404e24:	aa1303e0 	mov	x0, x19
  404e28:	9400014b 	bl	405354 <_ZSt10__distanceIPKNSt7__cxx1112basic_stringIcSt11char_traitsIcESaIcEEEENSt15iterator_traitsIT_E15difference_typeES9_S9_St26random_access_iterator_tag>
  404e2c:	a94153f3 	ldp	x19, x20, [sp, #16]
  404e30:	a8c37bfd 	ldp	x29, x30, [sp], #48
  404e34:	d65f03c0 	ret

0000000000404e38 <_ZNSt6vectorINSt7__cxx1112basic_stringIcSt11char_traitsIcESaIcEEESaIS5_EE17_S_check_init_lenEmRKS6_>:
  404e38:	a9bc7bfd 	stp	x29, x30, [sp, #-64]!
  404e3c:	910003fd 	mov	x29, sp
  404e40:	f9000bf3 	str	x19, [sp, #16]
  404e44:	f90017e0 	str	x0, [sp, #40]
  404e48:	f90013e1 	str	x1, [sp, #32]
  404e4c:	9100e3e0 	add	x0, sp, #0x38
  404e50:	f94013e1 	ldr	x1, [sp, #32]
  404e54:	94000130 	bl	405314 <_ZNSaINSt7__cxx1112basic_stringIcSt11char_traitsIcESaIcEEEEC1ERKS5_>
  404e58:	9100e3e0 	add	x0, sp, #0x38
  404e5c:	94000148 	bl	40537c <_ZNSt6vectorINSt7__cxx1112basic_stringIcSt11char_traitsIcESaIcEEESaIS5_EE11_S_max_sizeERKS6_>
  404e60:	aa0003e1 	mov	x1, x0
  404e64:	f94017e0 	ldr	x0, [sp, #40]
  404e68:	eb01001f 	cmp	x0, x1
  404e6c:	1a9f97e0 	cset	w0, hi  // hi = pmore
  404e70:	12001c13 	and	w19, w0, #0xff
  404e74:	9100e3e0 	add	x0, sp, #0x38
  404e78:	97fffb95 	bl	403ccc <_ZNSaINSt7__cxx1112basic_stringIcSt11char_traitsIcESaIcEEEED1Ev>
  404e7c:	7100027f 	cmp	w19, #0x0
  404e80:	54000080 	b.eq	404e90 <_ZNSt6vectorINSt7__cxx1112basic_stringIcSt11char_traitsIcESaIcEEESaIS5_EE17_S_check_init_lenEmRKS6_+0x58>  // b.none
  404e84:	900000e0 	adrp	x0, 420000 <_Z19MD5Hash_simdversionPKNSt7__cxx1112basic_stringIcSt11char_traitsIcESaIcEEEP12__Uint32x4_t+0x3adc>
  404e88:	913ba000 	add	x0, x0, #0xee8
  404e8c:	97fff3e1 	bl	401e10 <_ZSt20__throw_length_errorPKc@plt>
  404e90:	f94017e0 	ldr	x0, [sp, #40]
  404e94:	f9400bf3 	ldr	x19, [sp, #16]
  404e98:	a8c47bfd 	ldp	x29, x30, [sp], #64
  404e9c:	d65f03c0 	ret

0000000000404ea0 <_ZNSt12_Vector_baseINSt7__cxx1112basic_stringIcSt11char_traitsIcESaIcEEESaIS5_EE11_M_allocateEm>:
  404ea0:	a9be7bfd 	stp	x29, x30, [sp, #-32]!
  404ea4:	910003fd 	mov	x29, sp
  404ea8:	f9000fe0 	str	x0, [sp, #24]
  404eac:	f9000be1 	str	x1, [sp, #16]
  404eb0:	f9400be0 	ldr	x0, [sp, #16]
  404eb4:	f100001f 	cmp	x0, #0x0
  404eb8:	540000a0 	b.eq	404ecc <_ZNSt12_Vector_baseINSt7__cxx1112basic_stringIcSt11char_traitsIcESaIcEEESaIS5_EE11_M_allocateEm+0x2c>  // b.none
  404ebc:	f9400fe0 	ldr	x0, [sp, #24]
  404ec0:	f9400be1 	ldr	x1, [sp, #16]
  404ec4:	9400013c 	bl	4053b4 <_ZNSt16allocator_traitsISaINSt7__cxx1112basic_stringIcSt11char_traitsIcESaIcEEEEE8allocateERS6_m>
  404ec8:	14000002 	b	404ed0 <_ZNSt12_Vector_baseINSt7__cxx1112basic_stringIcSt11char_traitsIcESaIcEEESaIS5_EE11_M_allocateEm+0x30>
  404ecc:	d2800000 	mov	x0, #0x0                   	// #0
  404ed0:	a8c27bfd 	ldp	x29, x30, [sp], #32
  404ed4:	d65f03c0 	ret

0000000000404ed8 <_ZSt22__uninitialized_copy_aIPKNSt7__cxx1112basic_stringIcSt11char_traitsIcESaIcEEEPS5_S5_ET0_T_SA_S9_RSaIT1_E>:
  404ed8:	a9bd7bfd 	stp	x29, x30, [sp, #-48]!
  404edc:	910003fd 	mov	x29, sp
  404ee0:	f90017e0 	str	x0, [sp, #40]
  404ee4:	f90013e1 	str	x1, [sp, #32]
  404ee8:	f9000fe2 	str	x2, [sp, #24]
  404eec:	f9000be3 	str	x3, [sp, #16]
  404ef0:	f9400fe2 	ldr	x2, [sp, #24]
  404ef4:	f94013e1 	ldr	x1, [sp, #32]
  404ef8:	f94017e0 	ldr	x0, [sp, #40]
  404efc:	94000138 	bl	4053dc <_ZSt18uninitialized_copyIPKNSt7__cxx1112basic_stringIcSt11char_traitsIcESaIcEEEPS5_ET0_T_SA_S9_>
  404f00:	a8c37bfd 	ldp	x29, x30, [sp], #48
  404f04:	d65f03c0 	ret

0000000000404f08 <_ZN9__gnu_cxx13new_allocatorI2PTEC1Ev>:
  404f08:	d10043ff 	sub	sp, sp, #0x10
  404f0c:	f90007e0 	str	x0, [sp, #8]
  404f10:	d503201f 	nop
  404f14:	910043ff 	add	sp, sp, #0x10
  404f18:	d65f03c0 	ret

0000000000404f1c <_ZNSt16allocator_traitsISaI2PTEE10deallocateERS1_PS0_m>:
  404f1c:	a9bd7bfd 	stp	x29, x30, [sp, #-48]!
  404f20:	910003fd 	mov	x29, sp
  404f24:	f90017e0 	str	x0, [sp, #40]
  404f28:	f90013e1 	str	x1, [sp, #32]
  404f2c:	f9000fe2 	str	x2, [sp, #24]
  404f30:	f9400fe2 	ldr	x2, [sp, #24]
  404f34:	f94013e1 	ldr	x1, [sp, #32]
  404f38:	f94017e0 	ldr	x0, [sp, #40]
  404f3c:	94000135 	bl	405410 <_ZN9__gnu_cxx13new_allocatorI2PTE10deallocateEPS1_m>
  404f40:	d503201f 	nop
  404f44:	a8c37bfd 	ldp	x29, x30, [sp], #48
  404f48:	d65f03c0 	ret

0000000000404f4c <_ZSt8_DestroyIP2PTEvT_S2_>:
  404f4c:	a9be7bfd 	stp	x29, x30, [sp, #-32]!
  404f50:	910003fd 	mov	x29, sp
  404f54:	f9000fe0 	str	x0, [sp, #24]
  404f58:	f9000be1 	str	x1, [sp, #16]
  404f5c:	f9400be1 	ldr	x1, [sp, #16]
  404f60:	f9400fe0 	ldr	x0, [sp, #24]
  404f64:	9400013d 	bl	405458 <_ZNSt12_Destroy_auxILb0EE9__destroyIP2PTEEvT_S4_>
  404f68:	d503201f 	nop
  404f6c:	a8c27bfd 	ldp	x29, x30, [sp], #32
  404f70:	d65f03c0 	ret

0000000000404f74 <_ZN9__gnu_cxx13new_allocatorI7segmentEC1Ev>:
  404f74:	d10043ff 	sub	sp, sp, #0x10
  404f78:	f90007e0 	str	x0, [sp, #8]
  404f7c:	d503201f 	nop
  404f80:	910043ff 	add	sp, sp, #0x10
  404f84:	d65f03c0 	ret

0000000000404f88 <_ZNSt16allocator_traitsISaI7segmentEE10deallocateERS1_PS0_m>:
  404f88:	a9bd7bfd 	stp	x29, x30, [sp, #-48]!
  404f8c:	910003fd 	mov	x29, sp
  404f90:	f90017e0 	str	x0, [sp, #40]
  404f94:	f90013e1 	str	x1, [sp, #32]
  404f98:	f9000fe2 	str	x2, [sp, #24]
  404f9c:	f9400fe2 	ldr	x2, [sp, #24]
  404fa0:	f94013e1 	ldr	x1, [sp, #32]
  404fa4:	f94017e0 	ldr	x0, [sp, #40]
  404fa8:	9400013e 	bl	4054a0 <_ZN9__gnu_cxx13new_allocatorI7segmentE10deallocateEPS1_m>
  404fac:	d503201f 	nop
  404fb0:	a8c37bfd 	ldp	x29, x30, [sp], #48
  404fb4:	d65f03c0 	ret

0000000000404fb8 <_ZSt8_DestroyIP7segmentEvT_S2_>:
  404fb8:	a9be7bfd 	stp	x29, x30, [sp, #-32]!
  404fbc:	910003fd 	mov	x29, sp
  404fc0:	f9000fe0 	str	x0, [sp, #24]
  404fc4:	f9000be1 	str	x1, [sp, #16]
  404fc8:	f9400be1 	ldr	x1, [sp, #16]
  404fcc:	f9400fe0 	ldr	x0, [sp, #24]
  404fd0:	94000146 	bl	4054e8 <_ZNSt12_Destroy_auxILb0EE9__destroyIP7segmentEEvT_S4_>
  404fd4:	d503201f 	nop
  404fd8:	a8c27bfd 	ldp	x29, x30, [sp], #32
  404fdc:	d65f03c0 	ret

0000000000404fe0 <_ZN9__gnu_cxx17__normal_iteratorIPK2PTSt6vectorIS1_SaIS1_EEEC1ERKS3_>:
  404fe0:	d10043ff 	sub	sp, sp, #0x10
  404fe4:	f90007e0 	str	x0, [sp, #8]
  404fe8:	f90003e1 	str	x1, [sp]
  404fec:	f94003e0 	ldr	x0, [sp]
  404ff0:	f9400001 	ldr	x1, [x0]
  404ff4:	f94007e0 	ldr	x0, [sp, #8]
  404ff8:	f9000001 	str	x1, [x0]
  404ffc:	d503201f 	nop
  405000:	910043ff 	add	sp, sp, #0x10
  405004:	d65f03c0 	ret

0000000000405008 <_ZNK9__gnu_cxx17__normal_iteratorIPK2PTSt6vectorIS1_SaIS1_EEE4baseEv>:
  405008:	d10043ff 	sub	sp, sp, #0x10
  40500c:	f90007e0 	str	x0, [sp, #8]
  405010:	f94007e0 	ldr	x0, [sp, #8]
  405014:	910043ff 	add	sp, sp, #0x10
  405018:	d65f03c0 	ret

000000000040501c <_ZN9__gnu_cxx13new_allocatorINSt7__cxx1112basic_stringIcSt11char_traitsIcESaIcEEEE10deallocateEPS6_m>:
  40501c:	a9bd7bfd 	stp	x29, x30, [sp, #-48]!
  405020:	910003fd 	mov	x29, sp
  405024:	f90017e0 	str	x0, [sp, #40]
  405028:	f90013e1 	str	x1, [sp, #32]
  40502c:	f9000fe2 	str	x2, [sp, #24]
  405030:	f9400fe0 	ldr	x0, [sp, #24]
  405034:	d37be800 	lsl	x0, x0, #5
  405038:	aa0003e1 	mov	x1, x0
  40503c:	f94013e0 	ldr	x0, [sp, #32]
  405040:	97fff3b4 	bl	401f10 <_ZdlPvm@plt>
  405044:	d503201f 	nop
  405048:	a8c37bfd 	ldp	x29, x30, [sp], #48
  40504c:	d65f03c0 	ret

0000000000405050 <_ZNSt12_Destroy_auxILb0EE9__destroyIPNSt7__cxx1112basic_stringIcSt11char_traitsIcESaIcEEEEEvT_S9_>:
  405050:	a9be7bfd 	stp	x29, x30, [sp, #-32]!
  405054:	910003fd 	mov	x29, sp
  405058:	f9000fe0 	str	x0, [sp, #24]
  40505c:	f9000be1 	str	x1, [sp, #16]
  405060:	f9400fe1 	ldr	x1, [sp, #24]
  405064:	f9400be0 	ldr	x0, [sp, #16]
  405068:	eb00003f 	cmp	x1, x0
  40506c:	54000100 	b.eq	40508c <_ZNSt12_Destroy_auxILb0EE9__destroyIPNSt7__cxx1112basic_stringIcSt11char_traitsIcESaIcEEEEEvT_S9_+0x3c>  // b.none
  405070:	f9400fe0 	ldr	x0, [sp, #24]
  405074:	9400012f 	bl	405530 <_ZSt11__addressofINSt7__cxx1112basic_stringIcSt11char_traitsIcESaIcEEEEPT_RS6_>
  405078:	94000133 	bl	405544 <_ZSt8_DestroyINSt7__cxx1112basic_stringIcSt11char_traitsIcESaIcEEEEvPT_>
  40507c:	f9400fe0 	ldr	x0, [sp, #24]
  405080:	91008000 	add	x0, x0, #0x20
  405084:	f9000fe0 	str	x0, [sp, #24]
  405088:	17fffff6 	b	405060 <_ZNSt12_Destroy_auxILb0EE9__destroyIPNSt7__cxx1112basic_stringIcSt11char_traitsIcESaIcEEEEEvT_S9_+0x10>
  40508c:	d503201f 	nop
  405090:	a8c27bfd 	ldp	x29, x30, [sp], #32
  405094:	d65f03c0 	ret

0000000000405098 <_ZN9__gnu_cxx13new_allocatorIiE10deallocateEPim>:
  405098:	a9bd7bfd 	stp	x29, x30, [sp, #-48]!
  40509c:	910003fd 	mov	x29, sp
  4050a0:	f90017e0 	str	x0, [sp, #40]
  4050a4:	f90013e1 	str	x1, [sp, #32]
  4050a8:	f9000fe2 	str	x2, [sp, #24]
  4050ac:	f9400fe0 	ldr	x0, [sp, #24]
  4050b0:	d37ef400 	lsl	x0, x0, #2
  4050b4:	aa0003e1 	mov	x1, x0
  4050b8:	f94013e0 	ldr	x0, [sp, #32]
  4050bc:	97fff395 	bl	401f10 <_ZdlPvm@plt>
  4050c0:	d503201f 	nop
  4050c4:	a8c37bfd 	ldp	x29, x30, [sp], #48
  4050c8:	d65f03c0 	ret

00000000004050cc <_ZNSt12_Destroy_auxILb1EE9__destroyIPiEEvT_S3_>:
  4050cc:	d10043ff 	sub	sp, sp, #0x10
  4050d0:	f90007e0 	str	x0, [sp, #8]
  4050d4:	f90003e1 	str	x1, [sp]
  4050d8:	d503201f 	nop
  4050dc:	910043ff 	add	sp, sp, #0x10
  4050e0:	d65f03c0 	ret

00000000004050e4 <_ZNKSt8__detail10_Hash_nodeISt4pairIKNSt7__cxx1112basic_stringIcSt11char_traitsIcESaIcEEEiELb1EE7_M_nextEv>:
  4050e4:	d10043ff 	sub	sp, sp, #0x10
  4050e8:	f90007e0 	str	x0, [sp, #8]
  4050ec:	f94007e0 	ldr	x0, [sp, #8]
  4050f0:	f9400000 	ldr	x0, [x0]
  4050f4:	910043ff 	add	sp, sp, #0x10
  4050f8:	d65f03c0 	ret

00000000004050fc <_ZNSt8__detail16_Hashtable_allocISaINS_10_Hash_nodeISt4pairIKNSt7__cxx1112basic_stringIcSt11char_traitsIcESaIcEEEiELb1EEEEE18_M_deallocate_nodeEPSB_>:
  4050fc:	a9bd7bfd 	stp	x29, x30, [sp, #-48]!
  405100:	910003fd 	mov	x29, sp
  405104:	f9000bf3 	str	x19, [sp, #16]
  405108:	f90017e0 	str	x0, [sp, #40]
  40510c:	f90013e1 	str	x1, [sp, #32]
  405110:	f94017e0 	ldr	x0, [sp, #40]
  405114:	94000114 	bl	405564 <_ZNSt8__detail16_Hashtable_allocISaINS_10_Hash_nodeISt4pairIKNSt7__cxx1112basic_stringIcSt11char_traitsIcESaIcEEEiELb1EEEEE17_M_node_allocatorEv>
  405118:	aa0003f3 	mov	x19, x0
  40511c:	f94013e0 	ldr	x0, [sp, #32]
  405120:	94000118 	bl	405580 <_ZNSt8__detail21_Hash_node_value_baseISt4pairIKNSt7__cxx1112basic_stringIcSt11char_traitsIcESaIcEEEiEE9_M_valptrEv>
  405124:	aa0003e1 	mov	x1, x0
  405128:	aa1303e0 	mov	x0, x19
  40512c:	9400011d 	bl	4055a0 <_ZNSt16allocator_traitsISaINSt8__detail10_Hash_nodeISt4pairIKNSt7__cxx1112basic_stringIcSt11char_traitsIcESaIcEEEiELb1EEEEE7destroyISA_EEvRSC_PT_>
  405130:	f94013e1 	ldr	x1, [sp, #32]
  405134:	f94017e0 	ldr	x0, [sp, #40]
  405138:	94000124 	bl	4055c8 <_ZNSt8__detail16_Hashtable_allocISaINS_10_Hash_nodeISt4pairIKNSt7__cxx1112basic_stringIcSt11char_traitsIcESaIcEEEiELb1EEEEE22_M_deallocate_node_ptrEPSB_>
  40513c:	d503201f 	nop
  405140:	f9400bf3 	ldr	x19, [sp, #16]
  405144:	a8c37bfd 	ldp	x29, x30, [sp], #48
  405148:	d65f03c0 	ret

000000000040514c <_ZNKSt10_HashtableINSt7__cxx1112basic_stringIcSt11char_traitsIcESaIcEEESt4pairIKS5_iESaIS8_ENSt8__detail10_Select1stESt8equal_toIS5_ESt4hashIS5_ENSA_18_Mod_range_hashingENSA_20_Default_ranged_hashENSA_20_Prime_rehash_policyENSA_17_Hashtable_traitsILb1ELb0ELb1EEEE21_M_uses_single_bucketEPPNSA_15_Hash_node_baseE>:
  40514c:	d10043ff 	sub	sp, sp, #0x10
  405150:	f90007e0 	str	x0, [sp, #8]
  405154:	f90003e1 	str	x1, [sp]
  405158:	f94007e0 	ldr	x0, [sp, #8]
  40515c:	9100c000 	add	x0, x0, #0x30
  405160:	f94003e1 	ldr	x1, [sp]
  405164:	eb00003f 	cmp	x1, x0
  405168:	1a9f17e0 	cset	w0, eq  // eq = none
  40516c:	12001c00 	and	w0, w0, #0xff
  405170:	92401c00 	and	x0, x0, #0xff
  405174:	f100001f 	cmp	x0, #0x0
  405178:	1a9f07e0 	cset	w0, ne  // ne = any
  40517c:	12001c00 	and	w0, w0, #0xff
  405180:	910043ff 	add	sp, sp, #0x10
  405184:	d65f03c0 	ret

0000000000405188 <_ZNSt8__detail16_Hashtable_allocISaINS_10_Hash_nodeISt4pairIKNSt7__cxx1112basic_stringIcSt11char_traitsIcESaIcEEEiELb1EEEEE21_M_deallocate_bucketsEPPNS_15_Hash_node_baseEm>:
  405188:	a9bb7bfd 	stp	x29, x30, [sp, #-80]!
  40518c:	910003fd 	mov	x29, sp
  405190:	f9000bf3 	str	x19, [sp, #16]
  405194:	f9001fe0 	str	x0, [sp, #56]
  405198:	f9001be1 	str	x1, [sp, #48]
  40519c:	f90017e2 	str	x2, [sp, #40]
  4051a0:	f9401be0 	ldr	x0, [sp, #48]
  4051a4:	94000118 	bl	405604 <_ZNSt14pointer_traitsIPPNSt8__detail15_Hash_node_baseEE10pointer_toERS2_>
  4051a8:	f90027e0 	str	x0, [sp, #72]
  4051ac:	f9401fe0 	ldr	x0, [sp, #56]
  4051b0:	940000ed 	bl	405564 <_ZNSt8__detail16_Hashtable_allocISaINS_10_Hash_nodeISt4pairIKNSt7__cxx1112basic_stringIcSt11char_traitsIcESaIcEEEiELb1EEEEE17_M_node_allocatorEv>
  4051b4:	aa0003e1 	mov	x1, x0
  4051b8:	910103e0 	add	x0, sp, #0x40
  4051bc:	94000119 	bl	405620 <_ZNSaIPNSt8__detail15_Hash_node_baseEEC1INS_10_Hash_nodeISt4pairIKNSt7__cxx1112basic_stringIcSt11char_traitsIcESaIcEEEiELb1EEEEERKSaIT_E>
  4051c0:	910103e0 	add	x0, sp, #0x40
  4051c4:	f94017e2 	ldr	x2, [sp, #40]
  4051c8:	f94027e1 	ldr	x1, [sp, #72]
  4051cc:	94000126 	bl	405664 <_ZNSt16allocator_traitsISaIPNSt8__detail15_Hash_node_baseEEE10deallocateERS3_PS2_m>
  4051d0:	910103e0 	add	x0, sp, #0x40
  4051d4:	9400011c 	bl	405644 <_ZNSaIPNSt8__detail15_Hash_node_baseEED1Ev>
  4051d8:	14000006 	b	4051f0 <_ZNSt8__detail16_Hashtable_allocISaINS_10_Hash_nodeISt4pairIKNSt7__cxx1112basic_stringIcSt11char_traitsIcESaIcEEEiELb1EEEEE21_M_deallocate_bucketsEPPNS_15_Hash_node_baseEm+0x68>
  4051dc:	aa0003f3 	mov	x19, x0
  4051e0:	910103e0 	add	x0, sp, #0x40
  4051e4:	94000118 	bl	405644 <_ZNSaIPNSt8__detail15_Hash_node_baseEED1Ev>
  4051e8:	aa1303e0 	mov	x0, x19
  4051ec:	97fff3bd 	bl	4020e0 <_Unwind_Resume@plt>
  4051f0:	f9400bf3 	ldr	x19, [sp, #16]
  4051f4:	a8c57bfd 	ldp	x29, x30, [sp], #80
  4051f8:	d65f03c0 	ret

00000000004051fc <_ZNKSt8__detail10_Hash_nodeISt4pairIKiiELb0EE7_M_nextEv>:
  4051fc:	d10043ff 	sub	sp, sp, #0x10
  405200:	f90007e0 	str	x0, [sp, #8]
  405204:	f94007e0 	ldr	x0, [sp, #8]
  405208:	f9400000 	ldr	x0, [x0]
  40520c:	910043ff 	add	sp, sp, #0x10
  405210:	d65f03c0 	ret

0000000000405214 <_ZNSt8__detail16_Hashtable_allocISaINS_10_Hash_nodeISt4pairIKiiELb0EEEEE18_M_deallocate_nodeEPS5_>:
  405214:	a9bd7bfd 	stp	x29, x30, [sp, #-48]!
  405218:	910003fd 	mov	x29, sp
  40521c:	f9000bf3 	str	x19, [sp, #16]
  405220:	f90017e0 	str	x0, [sp, #40]
  405224:	f90013e1 	str	x1, [sp, #32]
  405228:	f94017e0 	ldr	x0, [sp, #40]
  40522c:	9400011a 	bl	405694 <_ZNSt8__detail16_Hashtable_allocISaINS_10_Hash_nodeISt4pairIKiiELb0EEEEE17_M_node_allocatorEv>
  405230:	aa0003f3 	mov	x19, x0
  405234:	f94013e0 	ldr	x0, [sp, #32]
  405238:	9400011e 	bl	4056b0 <_ZNSt8__detail21_Hash_node_value_baseISt4pairIKiiEE9_M_valptrEv>
  40523c:	aa0003e1 	mov	x1, x0
  405240:	aa1303e0 	mov	x0, x19
  405244:	94000123 	bl	4056d0 <_ZNSt16allocator_traitsISaINSt8__detail10_Hash_nodeISt4pairIKiiELb0EEEEE7destroyIS4_EEvRS6_PT_>
  405248:	f94013e1 	ldr	x1, [sp, #32]
  40524c:	f94017e0 	ldr	x0, [sp, #40]
  405250:	9400012a 	bl	4056f8 <_ZNSt8__detail16_Hashtable_allocISaINS_10_Hash_nodeISt4pairIKiiELb0EEEEE22_M_deallocate_node_ptrEPS5_>
  405254:	d503201f 	nop
  405258:	f9400bf3 	ldr	x19, [sp, #16]
  40525c:	a8c37bfd 	ldp	x29, x30, [sp], #48
  405260:	d65f03c0 	ret

0000000000405264 <_ZNKSt10_HashtableIiSt4pairIKiiESaIS2_ENSt8__detail10_Select1stESt8equal_toIiESt4hashIiENS4_18_Mod_range_hashingENS4_20_Default_ranged_hashENS4_20_Prime_rehash_policyENS4_17_Hashtable_traitsILb0ELb0ELb1EEEE21_M_uses_single_bucketEPPNS4_15_Hash_node_baseE>:
  405264:	d10043ff 	sub	sp, sp, #0x10
  405268:	f90007e0 	str	x0, [sp, #8]
  40526c:	f90003e1 	str	x1, [sp]
  405270:	f94007e0 	ldr	x0, [sp, #8]
  405274:	9100c000 	add	x0, x0, #0x30
  405278:	f94003e1 	ldr	x1, [sp]
  40527c:	eb00003f 	cmp	x1, x0
  405280:	1a9f17e0 	cset	w0, eq  // eq = none
  405284:	12001c00 	and	w0, w0, #0xff
  405288:	92401c00 	and	x0, x0, #0xff
  40528c:	f100001f 	cmp	x0, #0x0
  405290:	1a9f07e0 	cset	w0, ne  // ne = any
  405294:	12001c00 	and	w0, w0, #0xff
  405298:	910043ff 	add	sp, sp, #0x10
  40529c:	d65f03c0 	ret

00000000004052a0 <_ZNSt8__detail16_Hashtable_allocISaINS_10_Hash_nodeISt4pairIKiiELb0EEEEE21_M_deallocate_bucketsEPPNS_15_Hash_node_baseEm>:
  4052a0:	a9bb7bfd 	stp	x29, x30, [sp, #-80]!
  4052a4:	910003fd 	mov	x29, sp
  4052a8:	f9000bf3 	str	x19, [sp, #16]
  4052ac:	f9001fe0 	str	x0, [sp, #56]
  4052b0:	f9001be1 	str	x1, [sp, #48]
  4052b4:	f90017e2 	str	x2, [sp, #40]
  4052b8:	f9401be0 	ldr	x0, [sp, #48]
  4052bc:	940000d2 	bl	405604 <_ZNSt14pointer_traitsIPPNSt8__detail15_Hash_node_baseEE10pointer_toERS2_>
  4052c0:	f90027e0 	str	x0, [sp, #72]
  4052c4:	f9401fe0 	ldr	x0, [sp, #56]
  4052c8:	940000f3 	bl	405694 <_ZNSt8__detail16_Hashtable_allocISaINS_10_Hash_nodeISt4pairIKiiELb0EEEEE17_M_node_allocatorEv>
  4052cc:	aa0003e1 	mov	x1, x0
  4052d0:	910103e0 	add	x0, sp, #0x40
  4052d4:	94000118 	bl	405734 <_ZNSaIPNSt8__detail15_Hash_node_baseEEC1INS_10_Hash_nodeISt4pairIKiiELb0EEEEERKSaIT_E>
  4052d8:	910103e0 	add	x0, sp, #0x40
  4052dc:	f94017e2 	ldr	x2, [sp, #40]
  4052e0:	f94027e1 	ldr	x1, [sp, #72]
  4052e4:	940000e0 	bl	405664 <_ZNSt16allocator_traitsISaIPNSt8__detail15_Hash_node_baseEEE10deallocateERS3_PS2_m>
  4052e8:	910103e0 	add	x0, sp, #0x40
  4052ec:	940000d6 	bl	405644 <_ZNSaIPNSt8__detail15_Hash_node_baseEED1Ev>
  4052f0:	14000006 	b	405308 <_ZNSt8__detail16_Hashtable_allocISaINS_10_Hash_nodeISt4pairIKiiELb0EEEEE21_M_deallocate_bucketsEPPNS_15_Hash_node_baseEm+0x68>
  4052f4:	aa0003f3 	mov	x19, x0
  4052f8:	910103e0 	add	x0, sp, #0x40
  4052fc:	940000d2 	bl	405644 <_ZNSaIPNSt8__detail15_Hash_node_baseEED1Ev>
  405300:	aa1303e0 	mov	x0, x19
  405304:	97fff377 	bl	4020e0 <_Unwind_Resume@plt>
  405308:	f9400bf3 	ldr	x19, [sp, #16]
  40530c:	a8c57bfd 	ldp	x29, x30, [sp], #80
  405310:	d65f03c0 	ret

0000000000405314 <_ZNSaINSt7__cxx1112basic_stringIcSt11char_traitsIcESaIcEEEEC1ERKS5_>:
  405314:	a9be7bfd 	stp	x29, x30, [sp, #-32]!
  405318:	910003fd 	mov	x29, sp
  40531c:	f9000fe0 	str	x0, [sp, #24]
  405320:	f9000be1 	str	x1, [sp, #16]
  405324:	f9400be1 	ldr	x1, [sp, #16]
  405328:	f9400fe0 	ldr	x0, [sp, #24]
  40532c:	9400010b 	bl	405758 <_ZN9__gnu_cxx13new_allocatorINSt7__cxx1112basic_stringIcSt11char_traitsIcESaIcEEEEC1ERKS7_>
  405330:	d503201f 	nop
  405334:	a8c27bfd 	ldp	x29, x30, [sp], #32
  405338:	d65f03c0 	ret

000000000040533c <_ZSt19__iterator_categoryIPKNSt7__cxx1112basic_stringIcSt11char_traitsIcESaIcEEEENSt15iterator_traitsIT_E17iterator_categoryERKS9_>:
  40533c:	d10043ff 	sub	sp, sp, #0x10
  405340:	f90007e0 	str	x0, [sp, #8]
  405344:	d503201f 	nop
  405348:	2a0103e0 	mov	w0, w1
  40534c:	910043ff 	add	sp, sp, #0x10
  405350:	d65f03c0 	ret

0000000000405354 <_ZSt10__distanceIPKNSt7__cxx1112basic_stringIcSt11char_traitsIcESaIcEEEENSt15iterator_traitsIT_E15difference_typeES9_S9_St26random_access_iterator_tag>:
  405354:	d10083ff 	sub	sp, sp, #0x20
  405358:	f9000fe0 	str	x0, [sp, #24]
  40535c:	f9000be1 	str	x1, [sp, #16]
  405360:	390023e2 	strb	w2, [sp, #8]
  405364:	f9400be1 	ldr	x1, [sp, #16]
  405368:	f9400fe0 	ldr	x0, [sp, #24]
  40536c:	cb000020 	sub	x0, x1, x0
  405370:	9345fc00 	asr	x0, x0, #5
  405374:	910083ff 	add	sp, sp, #0x20
  405378:	d65f03c0 	ret

000000000040537c <_ZNSt6vectorINSt7__cxx1112basic_stringIcSt11char_traitsIcESaIcEEESaIS5_EE11_S_max_sizeERKS6_>:
  40537c:	a9bd7bfd 	stp	x29, x30, [sp, #-48]!
  405380:	910003fd 	mov	x29, sp
  405384:	f9000fe0 	str	x0, [sp, #24]
  405388:	92ff8000 	mov	x0, #0x3ffffffffffffff     	// #288230376151711743
  40538c:	f90017e0 	str	x0, [sp, #40]
  405390:	f9400fe0 	ldr	x0, [sp, #24]
  405394:	940000f7 	bl	405770 <_ZNSt16allocator_traitsISaINSt7__cxx1112basic_stringIcSt11char_traitsIcESaIcEEEEE8max_sizeERKS6_>
  405398:	f90013e0 	str	x0, [sp, #32]
  40539c:	910083e1 	add	x1, sp, #0x20
  4053a0:	9100a3e0 	add	x0, sp, #0x28
  4053a4:	97fff8c2 	bl	4036ac <_ZSt3minImERKT_S2_S2_>
  4053a8:	f9400000 	ldr	x0, [x0]
  4053ac:	a8c37bfd 	ldp	x29, x30, [sp], #48
  4053b0:	d65f03c0 	ret

00000000004053b4 <_ZNSt16allocator_traitsISaINSt7__cxx1112basic_stringIcSt11char_traitsIcESaIcEEEEE8allocateERS6_m>:
  4053b4:	a9be7bfd 	stp	x29, x30, [sp, #-32]!
  4053b8:	910003fd 	mov	x29, sp
  4053bc:	f9000fe0 	str	x0, [sp, #24]
  4053c0:	f9000be1 	str	x1, [sp, #16]
  4053c4:	d2800002 	mov	x2, #0x0                   	// #0
  4053c8:	f9400be1 	ldr	x1, [sp, #16]
  4053cc:	f9400fe0 	ldr	x0, [sp, #24]
  4053d0:	940000ef 	bl	40578c <_ZN9__gnu_cxx13new_allocatorINSt7__cxx1112basic_stringIcSt11char_traitsIcESaIcEEEE8allocateEmPKv>
  4053d4:	a8c27bfd 	ldp	x29, x30, [sp], #32
  4053d8:	d65f03c0 	ret

00000000004053dc <_ZSt18uninitialized_copyIPKNSt7__cxx1112basic_stringIcSt11char_traitsIcESaIcEEEPS5_ET0_T_SA_S9_>:
  4053dc:	a9bc7bfd 	stp	x29, x30, [sp, #-64]!
  4053e0:	910003fd 	mov	x29, sp
  4053e4:	f90017e0 	str	x0, [sp, #40]
  4053e8:	f90013e1 	str	x1, [sp, #32]
  4053ec:	f9000fe2 	str	x2, [sp, #24]
  4053f0:	52800020 	mov	w0, #0x1                   	// #1
  4053f4:	3900ffe0 	strb	w0, [sp, #63]
  4053f8:	f9400fe2 	ldr	x2, [sp, #24]
  4053fc:	f94013e1 	ldr	x1, [sp, #32]
  405400:	f94017e0 	ldr	x0, [sp, #40]
  405404:	940000f6 	bl	4057dc <_ZNSt20__uninitialized_copyILb0EE13__uninit_copyIPKNSt7__cxx1112basic_stringIcSt11char_traitsIcESaIcEEEPS7_EET0_T_SC_SB_>
  405408:	a8c47bfd 	ldp	x29, x30, [sp], #64
  40540c:	d65f03c0 	ret

0000000000405410 <_ZN9__gnu_cxx13new_allocatorI2PTE10deallocateEPS1_m>:
  405410:	a9bd7bfd 	stp	x29, x30, [sp, #-48]!
  405414:	910003fd 	mov	x29, sp
  405418:	f90017e0 	str	x0, [sp, #40]
  40541c:	f90013e1 	str	x1, [sp, #32]
  405420:	f9000fe2 	str	x2, [sp, #24]
  405424:	f9400fe1 	ldr	x1, [sp, #24]
  405428:	aa0103e0 	mov	x0, x1
  40542c:	d37ff800 	lsl	x0, x0, #1
  405430:	8b010000 	add	x0, x0, x1
  405434:	d37ef400 	lsl	x0, x0, #2
  405438:	cb010000 	sub	x0, x0, x1
  40543c:	d37df000 	lsl	x0, x0, #3
  405440:	aa0003e1 	mov	x1, x0
  405444:	f94013e0 	ldr	x0, [sp, #32]
  405448:	97fff2b2 	bl	401f10 <_ZdlPvm@plt>
  40544c:	d503201f 	nop
  405450:	a8c37bfd 	ldp	x29, x30, [sp], #48
  405454:	d65f03c0 	ret

0000000000405458 <_ZNSt12_Destroy_auxILb0EE9__destroyIP2PTEEvT_S4_>:
  405458:	a9be7bfd 	stp	x29, x30, [sp, #-32]!
  40545c:	910003fd 	mov	x29, sp
  405460:	f9000fe0 	str	x0, [sp, #24]
  405464:	f9000be1 	str	x1, [sp, #16]
  405468:	f9400fe1 	ldr	x1, [sp, #24]
  40546c:	f9400be0 	ldr	x0, [sp, #16]
  405470:	eb00003f 	cmp	x1, x0
  405474:	54000100 	b.eq	405494 <_ZNSt12_Destroy_auxILb0EE9__destroyIP2PTEEvT_S4_+0x3c>  // b.none
  405478:	f9400fe0 	ldr	x0, [sp, #24]
  40547c:	940000fd 	bl	405870 <_ZSt11__addressofI2PTEPT_RS1_>
  405480:	9400010f 	bl	4058bc <_ZSt8_DestroyI2PTEvPT_>
  405484:	f9400fe0 	ldr	x0, [sp, #24]
  405488:	91016000 	add	x0, x0, #0x58
  40548c:	f9000fe0 	str	x0, [sp, #24]
  405490:	17fffff6 	b	405468 <_ZNSt12_Destroy_auxILb0EE9__destroyIP2PTEEvT_S4_+0x10>
  405494:	d503201f 	nop
  405498:	a8c27bfd 	ldp	x29, x30, [sp], #32
  40549c:	d65f03c0 	ret

00000000004054a0 <_ZN9__gnu_cxx13new_allocatorI7segmentE10deallocateEPS1_m>:
  4054a0:	a9bd7bfd 	stp	x29, x30, [sp, #-48]!
  4054a4:	910003fd 	mov	x29, sp
  4054a8:	f90017e0 	str	x0, [sp, #40]
  4054ac:	f90013e1 	str	x1, [sp, #32]
  4054b0:	f9000fe2 	str	x2, [sp, #24]
  4054b4:	f9400fe1 	ldr	x1, [sp, #24]
  4054b8:	aa0103e0 	mov	x0, x1
  4054bc:	d37ff800 	lsl	x0, x0, #1
  4054c0:	8b010000 	add	x0, x0, x1
  4054c4:	d37ef400 	lsl	x0, x0, #2
  4054c8:	cb010000 	sub	x0, x0, x1
  4054cc:	d37cec00 	lsl	x0, x0, #4
  4054d0:	aa0003e1 	mov	x1, x0
  4054d4:	f94013e0 	ldr	x0, [sp, #32]
  4054d8:	97fff28e 	bl	401f10 <_ZdlPvm@plt>
  4054dc:	d503201f 	nop
  4054e0:	a8c37bfd 	ldp	x29, x30, [sp], #48
  4054e4:	d65f03c0 	ret

00000000004054e8 <_ZNSt12_Destroy_auxILb0EE9__destroyIP7segmentEEvT_S4_>:
  4054e8:	a9be7bfd 	stp	x29, x30, [sp, #-32]!
  4054ec:	910003fd 	mov	x29, sp
  4054f0:	f9000fe0 	str	x0, [sp, #24]
  4054f4:	f9000be1 	str	x1, [sp, #16]
  4054f8:	f9400fe1 	ldr	x1, [sp, #24]
  4054fc:	f9400be0 	ldr	x0, [sp, #16]
  405500:	eb00003f 	cmp	x1, x0
  405504:	54000100 	b.eq	405524 <_ZNSt12_Destroy_auxILb0EE9__destroyIP7segmentEEvT_S4_+0x3c>  // b.none
  405508:	f9400fe0 	ldr	x0, [sp, #24]
  40550c:	940000f4 	bl	4058dc <_ZSt11__addressofI7segmentEPT_RS1_>
  405510:	9400010a 	bl	405938 <_ZSt8_DestroyI7segmentEvPT_>
  405514:	f9400fe0 	ldr	x0, [sp, #24]
  405518:	9102c000 	add	x0, x0, #0xb0
  40551c:	f9000fe0 	str	x0, [sp, #24]
  405520:	17fffff6 	b	4054f8 <_ZNSt12_Destroy_auxILb0EE9__destroyIP7segmentEEvT_S4_+0x10>
  405524:	d503201f 	nop
  405528:	a8c27bfd 	ldp	x29, x30, [sp], #32
  40552c:	d65f03c0 	ret

0000000000405530 <_ZSt11__addressofINSt7__cxx1112basic_stringIcSt11char_traitsIcESaIcEEEEPT_RS6_>:
  405530:	d10043ff 	sub	sp, sp, #0x10
  405534:	f90007e0 	str	x0, [sp, #8]
  405538:	f94007e0 	ldr	x0, [sp, #8]
  40553c:	910043ff 	add	sp, sp, #0x10
  405540:	d65f03c0 	ret

0000000000405544 <_ZSt8_DestroyINSt7__cxx1112basic_stringIcSt11char_traitsIcESaIcEEEEvPT_>:
  405544:	a9be7bfd 	stp	x29, x30, [sp, #-32]!
  405548:	910003fd 	mov	x29, sp
  40554c:	f9000fe0 	str	x0, [sp, #24]
  405550:	f9400fe0 	ldr	x0, [sp, #24]
  405554:	97fff23f 	bl	401e50 <_ZNSt7__cxx1112basic_stringIcSt11char_traitsIcESaIcEED1Ev@plt>
  405558:	d503201f 	nop
  40555c:	a8c27bfd 	ldp	x29, x30, [sp], #32
  405560:	d65f03c0 	ret

0000000000405564 <_ZNSt8__detail16_Hashtable_allocISaINS_10_Hash_nodeISt4pairIKNSt7__cxx1112basic_stringIcSt11char_traitsIcESaIcEEEiELb1EEEEE17_M_node_allocatorEv>:
  405564:	a9be7bfd 	stp	x29, x30, [sp, #-32]!
  405568:	910003fd 	mov	x29, sp
  40556c:	f9000fe0 	str	x0, [sp, #24]
  405570:	f9400fe0 	ldr	x0, [sp, #24]
  405574:	940000f9 	bl	405958 <_ZNSt8__detail21_Hashtable_ebo_helperILi0ESaINS_10_Hash_nodeISt4pairIKNSt7__cxx1112basic_stringIcSt11char_traitsIcESaIcEEEiELb1EEEELb1EE6_M_getEv>
  405578:	a8c27bfd 	ldp	x29, x30, [sp], #32
  40557c:	d65f03c0 	ret

0000000000405580 <_ZNSt8__detail21_Hash_node_value_baseISt4pairIKNSt7__cxx1112basic_stringIcSt11char_traitsIcESaIcEEEiEE9_M_valptrEv>:
  405580:	a9be7bfd 	stp	x29, x30, [sp, #-32]!
  405584:	910003fd 	mov	x29, sp
  405588:	f9000fe0 	str	x0, [sp, #24]
  40558c:	f9400fe0 	ldr	x0, [sp, #24]
  405590:	91002000 	add	x0, x0, #0x8
  405594:	940000f6 	bl	40596c <_ZN9__gnu_cxx16__aligned_bufferISt4pairIKNSt7__cxx1112basic_stringIcSt11char_traitsIcESaIcEEEiEE6_M_ptrEv>
  405598:	a8c27bfd 	ldp	x29, x30, [sp], #32
  40559c:	d65f03c0 	ret

00000000004055a0 <_ZNSt16allocator_traitsISaINSt8__detail10_Hash_nodeISt4pairIKNSt7__cxx1112basic_stringIcSt11char_traitsIcESaIcEEEiELb1EEEEE7destroyISA_EEvRSC_PT_>:
  4055a0:	a9be7bfd 	stp	x29, x30, [sp, #-32]!
  4055a4:	910003fd 	mov	x29, sp
  4055a8:	f9000fe0 	str	x0, [sp, #24]
  4055ac:	f9000be1 	str	x1, [sp, #16]
  4055b0:	f9400be1 	ldr	x1, [sp, #16]
  4055b4:	f9400fe0 	ldr	x0, [sp, #24]
  4055b8:	940000fc 	bl	4059a8 <_ZN9__gnu_cxx13new_allocatorINSt8__detail10_Hash_nodeISt4pairIKNSt7__cxx1112basic_stringIcSt11char_traitsIcESaIcEEEiELb1EEEE7destroyISB_EEvPT_>
  4055bc:	d503201f 	nop
  4055c0:	a8c27bfd 	ldp	x29, x30, [sp], #32
  4055c4:	d65f03c0 	ret

00000000004055c8 <_ZNSt8__detail16_Hashtable_allocISaINS_10_Hash_nodeISt4pairIKNSt7__cxx1112basic_stringIcSt11char_traitsIcESaIcEEEiELb1EEEEE22_M_deallocate_node_ptrEPSB_>:
  4055c8:	a9bd7bfd 	stp	x29, x30, [sp, #-48]!
  4055cc:	910003fd 	mov	x29, sp
  4055d0:	f9000fe0 	str	x0, [sp, #24]
  4055d4:	f9000be1 	str	x1, [sp, #16]
  4055d8:	f9400be0 	ldr	x0, [sp, #16]
  4055dc:	940000fc 	bl	4059cc <_ZNSt14pointer_traitsIPNSt8__detail10_Hash_nodeISt4pairIKNSt7__cxx1112basic_stringIcSt11char_traitsIcESaIcEEEiELb1EEEE10pointer_toERSB_>
  4055e0:	f90017e0 	str	x0, [sp, #40]
  4055e4:	f9400fe0 	ldr	x0, [sp, #24]
  4055e8:	97ffffdf 	bl	405564 <_ZNSt8__detail16_Hashtable_allocISaINS_10_Hash_nodeISt4pairIKNSt7__cxx1112basic_stringIcSt11char_traitsIcESaIcEEEiELb1EEEEE17_M_node_allocatorEv>
  4055ec:	d2800022 	mov	x2, #0x1                   	// #1
  4055f0:	f94017e1 	ldr	x1, [sp, #40]
  4055f4:	940000fd 	bl	4059e8 <_ZNSt16allocator_traitsISaINSt8__detail10_Hash_nodeISt4pairIKNSt7__cxx1112basic_stringIcSt11char_traitsIcESaIcEEEiELb1EEEEE10deallocateERSC_PSB_m>
  4055f8:	d503201f 	nop
  4055fc:	a8c37bfd 	ldp	x29, x30, [sp], #48
  405600:	d65f03c0 	ret

0000000000405604 <_ZNSt14pointer_traitsIPPNSt8__detail15_Hash_node_baseEE10pointer_toERS2_>:
  405604:	a9be7bfd 	stp	x29, x30, [sp, #-32]!
  405608:	910003fd 	mov	x29, sp
  40560c:	f9000fe0 	str	x0, [sp, #24]
  405610:	f9400fe0 	ldr	x0, [sp, #24]
  405614:	94000101 	bl	405a18 <_ZSt9addressofIPNSt8__detail15_Hash_node_baseEEPT_RS3_>
  405618:	a8c27bfd 	ldp	x29, x30, [sp], #32
  40561c:	d65f03c0 	ret

0000000000405620 <_ZNSaIPNSt8__detail15_Hash_node_baseEEC1INS_10_Hash_nodeISt4pairIKNSt7__cxx1112basic_stringIcSt11char_traitsIcESaIcEEEiELb1EEEEERKSaIT_E>:
  405620:	a9be7bfd 	stp	x29, x30, [sp, #-32]!
  405624:	910003fd 	mov	x29, sp
  405628:	f9000fe0 	str	x0, [sp, #24]
  40562c:	f9000be1 	str	x1, [sp, #16]
  405630:	f9400fe0 	ldr	x0, [sp, #24]
  405634:	94000100 	bl	405a34 <_ZN9__gnu_cxx13new_allocatorIPNSt8__detail15_Hash_node_baseEEC1Ev>
  405638:	d503201f 	nop
  40563c:	a8c27bfd 	ldp	x29, x30, [sp], #32
  405640:	d65f03c0 	ret

0000000000405644 <_ZNSaIPNSt8__detail15_Hash_node_baseEED1Ev>:
  405644:	a9be7bfd 	stp	x29, x30, [sp, #-32]!
  405648:	910003fd 	mov	x29, sp
  40564c:	f9000fe0 	str	x0, [sp, #24]
  405650:	f9400fe0 	ldr	x0, [sp, #24]
  405654:	940000fd 	bl	405a48 <_ZN9__gnu_cxx13new_allocatorIPNSt8__detail15_Hash_node_baseEED1Ev>
  405658:	d503201f 	nop
  40565c:	a8c27bfd 	ldp	x29, x30, [sp], #32
  405660:	d65f03c0 	ret

0000000000405664 <_ZNSt16allocator_traitsISaIPNSt8__detail15_Hash_node_baseEEE10deallocateERS3_PS2_m>:
  405664:	a9bd7bfd 	stp	x29, x30, [sp, #-48]!
  405668:	910003fd 	mov	x29, sp
  40566c:	f90017e0 	str	x0, [sp, #40]
  405670:	f90013e1 	str	x1, [sp, #32]
  405674:	f9000fe2 	str	x2, [sp, #24]
  405678:	f9400fe2 	ldr	x2, [sp, #24]
  40567c:	f94013e1 	ldr	x1, [sp, #32]
  405680:	f94017e0 	ldr	x0, [sp, #40]
  405684:	940000f6 	bl	405a5c <_ZN9__gnu_cxx13new_allocatorIPNSt8__detail15_Hash_node_baseEE10deallocateEPS3_m>
  405688:	d503201f 	nop
  40568c:	a8c37bfd 	ldp	x29, x30, [sp], #48
  405690:	d65f03c0 	ret

0000000000405694 <_ZNSt8__detail16_Hashtable_allocISaINS_10_Hash_nodeISt4pairIKiiELb0EEEEE17_M_node_allocatorEv>:
  405694:	a9be7bfd 	stp	x29, x30, [sp, #-32]!
  405698:	910003fd 	mov	x29, sp
  40569c:	f9000fe0 	str	x0, [sp, #24]
  4056a0:	f9400fe0 	ldr	x0, [sp, #24]
  4056a4:	940000fb 	bl	405a90 <_ZNSt8__detail21_Hashtable_ebo_helperILi0ESaINS_10_Hash_nodeISt4pairIKiiELb0EEEELb1EE6_M_getEv>
  4056a8:	a8c27bfd 	ldp	x29, x30, [sp], #32
  4056ac:	d65f03c0 	ret

00000000004056b0 <_ZNSt8__detail21_Hash_node_value_baseISt4pairIKiiEE9_M_valptrEv>:
  4056b0:	a9be7bfd 	stp	x29, x30, [sp, #-32]!
  4056b4:	910003fd 	mov	x29, sp
  4056b8:	f9000fe0 	str	x0, [sp, #24]
  4056bc:	f9400fe0 	ldr	x0, [sp, #24]
  4056c0:	91002000 	add	x0, x0, #0x8
  4056c4:	940000f8 	bl	405aa4 <_ZN9__gnu_cxx16__aligned_bufferISt4pairIKiiEE6_M_ptrEv>
  4056c8:	a8c27bfd 	ldp	x29, x30, [sp], #32
  4056cc:	d65f03c0 	ret

00000000004056d0 <_ZNSt16allocator_traitsISaINSt8__detail10_Hash_nodeISt4pairIKiiELb0EEEEE7destroyIS4_EEvRS6_PT_>:
  4056d0:	a9be7bfd 	stp	x29, x30, [sp, #-32]!
  4056d4:	910003fd 	mov	x29, sp
  4056d8:	f9000fe0 	str	x0, [sp, #24]
  4056dc:	f9000be1 	str	x1, [sp, #16]
  4056e0:	f9400be1 	ldr	x1, [sp, #16]
  4056e4:	f9400fe0 	ldr	x0, [sp, #24]
  4056e8:	940000f6 	bl	405ac0 <_ZN9__gnu_cxx13new_allocatorINSt8__detail10_Hash_nodeISt4pairIKiiELb0EEEE7destroyIS5_EEvPT_>
  4056ec:	d503201f 	nop
  4056f0:	a8c27bfd 	ldp	x29, x30, [sp], #32
  4056f4:	d65f03c0 	ret

00000000004056f8 <_ZNSt8__detail16_Hashtable_allocISaINS_10_Hash_nodeISt4pairIKiiELb0EEEEE22_M_deallocate_node_ptrEPS5_>:
  4056f8:	a9bd7bfd 	stp	x29, x30, [sp, #-48]!
  4056fc:	910003fd 	mov	x29, sp
  405700:	f9000fe0 	str	x0, [sp, #24]
  405704:	f9000be1 	str	x1, [sp, #16]
  405708:	f9400be0 	ldr	x0, [sp, #16]
  40570c:	940000f3 	bl	405ad8 <_ZNSt14pointer_traitsIPNSt8__detail10_Hash_nodeISt4pairIKiiELb0EEEE10pointer_toERS5_>
  405710:	f90017e0 	str	x0, [sp, #40]
  405714:	f9400fe0 	ldr	x0, [sp, #24]
  405718:	97ffffdf 	bl	405694 <_ZNSt8__detail16_Hashtable_allocISaINS_10_Hash_nodeISt4pairIKiiELb0EEEEE17_M_node_allocatorEv>
  40571c:	d2800022 	mov	x2, #0x1                   	// #1
  405720:	f94017e1 	ldr	x1, [sp, #40]
  405724:	940000f4 	bl	405af4 <_ZNSt16allocator_traitsISaINSt8__detail10_Hash_nodeISt4pairIKiiELb0EEEEE10deallocateERS6_PS5_m>
  405728:	d503201f 	nop
  40572c:	a8c37bfd 	ldp	x29, x30, [sp], #48
  405730:	d65f03c0 	ret

0000000000405734 <_ZNSaIPNSt8__detail15_Hash_node_baseEEC1INS_10_Hash_nodeISt4pairIKiiELb0EEEEERKSaIT_E>:
  405734:	a9be7bfd 	stp	x29, x30, [sp, #-32]!
  405738:	910003fd 	mov	x29, sp
  40573c:	f9000fe0 	str	x0, [sp, #24]
  405740:	f9000be1 	str	x1, [sp, #16]
  405744:	f9400fe0 	ldr	x0, [sp, #24]
  405748:	940000bb 	bl	405a34 <_ZN9__gnu_cxx13new_allocatorIPNSt8__detail15_Hash_node_baseEEC1Ev>
  40574c:	d503201f 	nop
  405750:	a8c27bfd 	ldp	x29, x30, [sp], #32
  405754:	d65f03c0 	ret

0000000000405758 <_ZN9__gnu_cxx13new_allocatorINSt7__cxx1112basic_stringIcSt11char_traitsIcESaIcEEEEC1ERKS7_>:
  405758:	d10043ff 	sub	sp, sp, #0x10
  40575c:	f90007e0 	str	x0, [sp, #8]
  405760:	f90003e1 	str	x1, [sp]
  405764:	d503201f 	nop
  405768:	910043ff 	add	sp, sp, #0x10
  40576c:	d65f03c0 	ret

0000000000405770 <_ZNSt16allocator_traitsISaINSt7__cxx1112basic_stringIcSt11char_traitsIcESaIcEEEEE8max_sizeERKS6_>:
  405770:	a9be7bfd 	stp	x29, x30, [sp, #-32]!
  405774:	910003fd 	mov	x29, sp
  405778:	f9000fe0 	str	x0, [sp, #24]
  40577c:	f9400fe0 	ldr	x0, [sp, #24]
  405780:	940000e9 	bl	405b24 <_ZNK9__gnu_cxx13new_allocatorINSt7__cxx1112basic_stringIcSt11char_traitsIcESaIcEEEE8max_sizeEv>
  405784:	a8c27bfd 	ldp	x29, x30, [sp], #32
  405788:	d65f03c0 	ret

000000000040578c <_ZN9__gnu_cxx13new_allocatorINSt7__cxx1112basic_stringIcSt11char_traitsIcESaIcEEEE8allocateEmPKv>:
  40578c:	a9bd7bfd 	stp	x29, x30, [sp, #-48]!
  405790:	910003fd 	mov	x29, sp
  405794:	f90017e0 	str	x0, [sp, #40]
  405798:	f90013e1 	str	x1, [sp, #32]
  40579c:	f9000fe2 	str	x2, [sp, #24]
  4057a0:	f94017e0 	ldr	x0, [sp, #40]
  4057a4:	940000e7 	bl	405b40 <_ZNK9__gnu_cxx13new_allocatorINSt7__cxx1112basic_stringIcSt11char_traitsIcESaIcEEEE11_M_max_sizeEv>
  4057a8:	aa0003e1 	mov	x1, x0
  4057ac:	f94013e0 	ldr	x0, [sp, #32]
  4057b0:	eb01001f 	cmp	x0, x1
  4057b4:	1a9f97e0 	cset	w0, hi  // hi = pmore
  4057b8:	12001c00 	and	w0, w0, #0xff
  4057bc:	7100001f 	cmp	w0, #0x0
  4057c0:	54000040 	b.eq	4057c8 <_ZN9__gnu_cxx13new_allocatorINSt7__cxx1112basic_stringIcSt11char_traitsIcESaIcEEEE8allocateEmPKv+0x3c>  // b.none
  4057c4:	97fff177 	bl	401da0 <_ZSt17__throw_bad_allocv@plt>
  4057c8:	f94013e0 	ldr	x0, [sp, #32]
  4057cc:	d37be800 	lsl	x0, x0, #5
  4057d0:	97fff1cc 	bl	401f00 <_Znwm@plt>
  4057d4:	a8c37bfd 	ldp	x29, x30, [sp], #48
  4057d8:	d65f03c0 	ret

00000000004057dc <_ZNSt20__uninitialized_copyILb0EE13__uninit_copyIPKNSt7__cxx1112basic_stringIcSt11char_traitsIcESaIcEEEPS7_EET0_T_SC_SB_>:
  4057dc:	a9bb7bfd 	stp	x29, x30, [sp, #-80]!
  4057e0:	910003fd 	mov	x29, sp
  4057e4:	f9000bf3 	str	x19, [sp, #16]
  4057e8:	f9001fe0 	str	x0, [sp, #56]
  4057ec:	f9001be1 	str	x1, [sp, #48]
  4057f0:	f90017e2 	str	x2, [sp, #40]
  4057f4:	f94017e0 	ldr	x0, [sp, #40]
  4057f8:	f90027e0 	str	x0, [sp, #72]
  4057fc:	f9401fe1 	ldr	x1, [sp, #56]
  405800:	f9401be0 	ldr	x0, [sp, #48]
  405804:	eb00003f 	cmp	x1, x0
  405808:	54000180 	b.eq	405838 <_ZNSt20__uninitialized_copyILb0EE13__uninit_copyIPKNSt7__cxx1112basic_stringIcSt11char_traitsIcESaIcEEEPS7_EET0_T_SC_SB_+0x5c>  // b.none
  40580c:	f94027e0 	ldr	x0, [sp, #72]
  405810:	97ffff48 	bl	405530 <_ZSt11__addressofINSt7__cxx1112basic_stringIcSt11char_traitsIcESaIcEEEEPT_RS6_>
  405814:	f9401fe1 	ldr	x1, [sp, #56]
  405818:	940000cf 	bl	405b54 <_ZSt10_ConstructINSt7__cxx1112basic_stringIcSt11char_traitsIcESaIcEEEJRKS5_EEvPT_DpOT0_>
  40581c:	f9401fe0 	ldr	x0, [sp, #56]
  405820:	91008000 	add	x0, x0, #0x20
  405824:	f9001fe0 	str	x0, [sp, #56]
  405828:	f94027e0 	ldr	x0, [sp, #72]
  40582c:	91008000 	add	x0, x0, #0x20
  405830:	f90027e0 	str	x0, [sp, #72]
  405834:	17fffff2 	b	4057fc <_ZNSt20__uninitialized_copyILb0EE13__uninit_copyIPKNSt7__cxx1112basic_stringIcSt11char_traitsIcESaIcEEEPS7_EET0_T_SC_SB_+0x20>
  405838:	f94027e0 	ldr	x0, [sp, #72]
  40583c:	1400000a 	b	405864 <_ZNSt20__uninitialized_copyILb0EE13__uninit_copyIPKNSt7__cxx1112basic_stringIcSt11char_traitsIcESaIcEEEPS7_EET0_T_SC_SB_+0x88>
  405840:	97fff15c 	bl	401db0 <__cxa_begin_catch@plt>
  405844:	f94027e1 	ldr	x1, [sp, #72]
  405848:	f94017e0 	ldr	x0, [sp, #40]
  40584c:	97fffce2 	bl	404bd4 <_ZSt8_DestroyIPNSt7__cxx1112basic_stringIcSt11char_traitsIcESaIcEEEEvT_S7_>
  405850:	97fff1fc 	bl	402040 <__cxa_rethrow@plt>
  405854:	aa0003f3 	mov	x19, x0
  405858:	97fff212 	bl	4020a0 <__cxa_end_catch@plt>
  40585c:	aa1303e0 	mov	x0, x19
  405860:	97fff220 	bl	4020e0 <_Unwind_Resume@plt>
  405864:	f9400bf3 	ldr	x19, [sp, #16]
  405868:	a8c57bfd 	ldp	x29, x30, [sp], #80
  40586c:	d65f03c0 	ret

0000000000405870 <_ZSt11__addressofI2PTEPT_RS1_>:
  405870:	d10043ff 	sub	sp, sp, #0x10
  405874:	f90007e0 	str	x0, [sp, #8]
  405878:	f94007e0 	ldr	x0, [sp, #8]
  40587c:	910043ff 	add	sp, sp, #0x10
  405880:	d65f03c0 	ret

0000000000405884 <_ZN2PTD1Ev>:
  405884:	a9be7bfd 	stp	x29, x30, [sp, #-32]!
  405888:	910003fd 	mov	x29, sp
  40588c:	f9000fe0 	str	x0, [sp, #24]
  405890:	f9400fe0 	ldr	x0, [sp, #24]
  405894:	9100e000 	add	x0, x0, #0x38
  405898:	97fff959 	bl	403dfc <_ZNSt6vectorIiSaIiEED1Ev>
  40589c:	f9400fe0 	ldr	x0, [sp, #24]
  4058a0:	91008000 	add	x0, x0, #0x20
  4058a4:	97fff956 	bl	403dfc <_ZNSt6vectorIiSaIiEED1Ev>
  4058a8:	f9400fe0 	ldr	x0, [sp, #24]
  4058ac:	97fffa95 	bl	404300 <_ZNSt6vectorI7segmentSaIS0_EED1Ev>
  4058b0:	d503201f 	nop
  4058b4:	a8c27bfd 	ldp	x29, x30, [sp], #32
  4058b8:	d65f03c0 	ret

00000000004058bc <_ZSt8_DestroyI2PTEvPT_>:
  4058bc:	a9be7bfd 	stp	x29, x30, [sp, #-32]!
  4058c0:	910003fd 	mov	x29, sp
  4058c4:	f9000fe0 	str	x0, [sp, #24]
  4058c8:	f9400fe0 	ldr	x0, [sp, #24]
  4058cc:	97ffffee 	bl	405884 <_ZN2PTD1Ev>
  4058d0:	d503201f 	nop
  4058d4:	a8c27bfd 	ldp	x29, x30, [sp], #32
  4058d8:	d65f03c0 	ret

00000000004058dc <_ZSt11__addressofI7segmentEPT_RS1_>:
  4058dc:	d10043ff 	sub	sp, sp, #0x10
  4058e0:	f90007e0 	str	x0, [sp, #8]
  4058e4:	f94007e0 	ldr	x0, [sp, #8]
  4058e8:	910043ff 	add	sp, sp, #0x10
  4058ec:	d65f03c0 	ret

00000000004058f0 <_ZN7segmentD1Ev>:
  4058f0:	a9be7bfd 	stp	x29, x30, [sp, #-32]!
  4058f4:	910003fd 	mov	x29, sp
  4058f8:	f9000fe0 	str	x0, [sp, #24]
  4058fc:	f9400fe0 	ldr	x0, [sp, #24]
  405900:	9101e000 	add	x0, x0, #0x78
  405904:	97fff7f2 	bl	4038cc <_ZNSt13unordered_mapIiiSt4hashIiESt8equal_toIiESaISt4pairIKiiEEED1Ev>
  405908:	f9400fe0 	ldr	x0, [sp, #24]
  40590c:	91010000 	add	x0, x0, #0x40
  405910:	97fff7a5 	bl	4037a4 <_ZNSt13unordered_mapINSt7__cxx1112basic_stringIcSt11char_traitsIcESaIcEEEiSt4hashIS5_ESt8equal_toIS5_ESaISt4pairIKS5_iEEED1Ev>
  405914:	f9400fe0 	ldr	x0, [sp, #24]
  405918:	91008000 	add	x0, x0, #0x20
  40591c:	97fff938 	bl	403dfc <_ZNSt6vectorIiSaIiEED1Ev>
  405920:	f9400fe0 	ldr	x0, [sp, #24]
  405924:	91002000 	add	x0, x0, #0x8
  405928:	97fff905 	bl	403d3c <_ZNSt6vectorINSt7__cxx1112basic_stringIcSt11char_traitsIcESaIcEEESaIS5_EED1Ev>
  40592c:	d503201f 	nop
  405930:	a8c27bfd 	ldp	x29, x30, [sp], #32
  405934:	d65f03c0 	ret

0000000000405938 <_ZSt8_DestroyI7segmentEvPT_>:
  405938:	a9be7bfd 	stp	x29, x30, [sp, #-32]!
  40593c:	910003fd 	mov	x29, sp
  405940:	f9000fe0 	str	x0, [sp, #24]
  405944:	f9400fe0 	ldr	x0, [sp, #24]
  405948:	97ffffea 	bl	4058f0 <_ZN7segmentD1Ev>
  40594c:	d503201f 	nop
  405950:	a8c27bfd 	ldp	x29, x30, [sp], #32
  405954:	d65f03c0 	ret

0000000000405958 <_ZNSt8__detail21_Hashtable_ebo_helperILi0ESaINS_10_Hash_nodeISt4pairIKNSt7__cxx1112basic_stringIcSt11char_traitsIcESaIcEEEiELb1EEEELb1EE6_M_getEv>:
  405958:	d10043ff 	sub	sp, sp, #0x10
  40595c:	f90007e0 	str	x0, [sp, #8]
  405960:	f94007e0 	ldr	x0, [sp, #8]
  405964:	910043ff 	add	sp, sp, #0x10
  405968:	d65f03c0 	ret

000000000040596c <_ZN9__gnu_cxx16__aligned_bufferISt4pairIKNSt7__cxx1112basic_stringIcSt11char_traitsIcESaIcEEEiEE6_M_ptrEv>:
  40596c:	a9be7bfd 	stp	x29, x30, [sp, #-32]!
  405970:	910003fd 	mov	x29, sp
  405974:	f9000fe0 	str	x0, [sp, #24]
  405978:	f9400fe0 	ldr	x0, [sp, #24]
  40597c:	94000092 	bl	405bc4 <_ZN9__gnu_cxx16__aligned_bufferISt4pairIKNSt7__cxx1112basic_stringIcSt11char_traitsIcESaIcEEEiEE7_M_addrEv>
  405980:	a8c27bfd 	ldp	x29, x30, [sp], #32
  405984:	d65f03c0 	ret

0000000000405988 <_ZNSt4pairIKNSt7__cxx1112basic_stringIcSt11char_traitsIcESaIcEEEiED1Ev>:
  405988:	a9be7bfd 	stp	x29, x30, [sp, #-32]!
  40598c:	910003fd 	mov	x29, sp
  405990:	f9000fe0 	str	x0, [sp, #24]
  405994:	f9400fe0 	ldr	x0, [sp, #24]
  405998:	97fff12e 	bl	401e50 <_ZNSt7__cxx1112basic_stringIcSt11char_traitsIcESaIcEED1Ev@plt>
  40599c:	d503201f 	nop
  4059a0:	a8c27bfd 	ldp	x29, x30, [sp], #32
  4059a4:	d65f03c0 	ret

00000000004059a8 <_ZN9__gnu_cxx13new_allocatorINSt8__detail10_Hash_nodeISt4pairIKNSt7__cxx1112basic_stringIcSt11char_traitsIcESaIcEEEiELb1EEEE7destroyISB_EEvPT_>:
  4059a8:	a9be7bfd 	stp	x29, x30, [sp, #-32]!
  4059ac:	910003fd 	mov	x29, sp
  4059b0:	f9000fe0 	str	x0, [sp, #24]
  4059b4:	f9000be1 	str	x1, [sp, #16]
  4059b8:	f9400be0 	ldr	x0, [sp, #16]
  4059bc:	97fffff3 	bl	405988 <_ZNSt4pairIKNSt7__cxx1112basic_stringIcSt11char_traitsIcESaIcEEEiED1Ev>
  4059c0:	d503201f 	nop
  4059c4:	a8c27bfd 	ldp	x29, x30, [sp], #32
  4059c8:	d65f03c0 	ret

00000000004059cc <_ZNSt14pointer_traitsIPNSt8__detail10_Hash_nodeISt4pairIKNSt7__cxx1112basic_stringIcSt11char_traitsIcESaIcEEEiELb1EEEE10pointer_toERSB_>:
  4059cc:	a9be7bfd 	stp	x29, x30, [sp, #-32]!
  4059d0:	910003fd 	mov	x29, sp
  4059d4:	f9000fe0 	str	x0, [sp, #24]
  4059d8:	f9400fe0 	ldr	x0, [sp, #24]
  4059dc:	9400007f 	bl	405bd8 <_ZSt9addressofINSt8__detail10_Hash_nodeISt4pairIKNSt7__cxx1112basic_stringIcSt11char_traitsIcESaIcEEEiELb1EEEEPT_RSC_>
  4059e0:	a8c27bfd 	ldp	x29, x30, [sp], #32
  4059e4:	d65f03c0 	ret

00000000004059e8 <_ZNSt16allocator_traitsISaINSt8__detail10_Hash_nodeISt4pairIKNSt7__cxx1112basic_stringIcSt11char_traitsIcESaIcEEEiELb1EEEEE10deallocateERSC_PSB_m>:
  4059e8:	a9bd7bfd 	stp	x29, x30, [sp, #-48]!
  4059ec:	910003fd 	mov	x29, sp
  4059f0:	f90017e0 	str	x0, [sp, #40]
  4059f4:	f90013e1 	str	x1, [sp, #32]
  4059f8:	f9000fe2 	str	x2, [sp, #24]
  4059fc:	f9400fe2 	ldr	x2, [sp, #24]
  405a00:	f94013e1 	ldr	x1, [sp, #32]
  405a04:	f94017e0 	ldr	x0, [sp, #40]
  405a08:	9400007b 	bl	405bf4 <_ZN9__gnu_cxx13new_allocatorINSt8__detail10_Hash_nodeISt4pairIKNSt7__cxx1112basic_stringIcSt11char_traitsIcESaIcEEEiELb1EEEE10deallocateEPSC_m>
  405a0c:	d503201f 	nop
  405a10:	a8c37bfd 	ldp	x29, x30, [sp], #48
  405a14:	d65f03c0 	ret

0000000000405a18 <_ZSt9addressofIPNSt8__detail15_Hash_node_baseEEPT_RS3_>:
  405a18:	a9be7bfd 	stp	x29, x30, [sp, #-32]!
  405a1c:	910003fd 	mov	x29, sp
  405a20:	f9000fe0 	str	x0, [sp, #24]
  405a24:	f9400fe0 	ldr	x0, [sp, #24]
  405a28:	94000083 	bl	405c34 <_ZSt11__addressofIPNSt8__detail15_Hash_node_baseEEPT_RS3_>
  405a2c:	a8c27bfd 	ldp	x29, x30, [sp], #32
  405a30:	d65f03c0 	ret

0000000000405a34 <_ZN9__gnu_cxx13new_allocatorIPNSt8__detail15_Hash_node_baseEEC1Ev>:
  405a34:	d10043ff 	sub	sp, sp, #0x10
  405a38:	f90007e0 	str	x0, [sp, #8]
  405a3c:	d503201f 	nop
  405a40:	910043ff 	add	sp, sp, #0x10
  405a44:	d65f03c0 	ret

0000000000405a48 <_ZN9__gnu_cxx13new_allocatorIPNSt8__detail15_Hash_node_baseEED1Ev>:
  405a48:	d10043ff 	sub	sp, sp, #0x10
  405a4c:	f90007e0 	str	x0, [sp, #8]
  405a50:	d503201f 	nop
  405a54:	910043ff 	add	sp, sp, #0x10
  405a58:	d65f03c0 	ret

0000000000405a5c <_ZN9__gnu_cxx13new_allocatorIPNSt8__detail15_Hash_node_baseEE10deallocateEPS3_m>:
  405a5c:	a9bd7bfd 	stp	x29, x30, [sp, #-48]!
  405a60:	910003fd 	mov	x29, sp
  405a64:	f90017e0 	str	x0, [sp, #40]
  405a68:	f90013e1 	str	x1, [sp, #32]
  405a6c:	f9000fe2 	str	x2, [sp, #24]
  405a70:	f9400fe0 	ldr	x0, [sp, #24]
  405a74:	d37df000 	lsl	x0, x0, #3
  405a78:	aa0003e1 	mov	x1, x0
  405a7c:	f94013e0 	ldr	x0, [sp, #32]
  405a80:	97fff124 	bl	401f10 <_ZdlPvm@plt>
  405a84:	d503201f 	nop
  405a88:	a8c37bfd 	ldp	x29, x30, [sp], #48
  405a8c:	d65f03c0 	ret

0000000000405a90 <_ZNSt8__detail21_Hashtable_ebo_helperILi0ESaINS_10_Hash_nodeISt4pairIKiiELb0EEEELb1EE6_M_getEv>:
  405a90:	d10043ff 	sub	sp, sp, #0x10
  405a94:	f90007e0 	str	x0, [sp, #8]
  405a98:	f94007e0 	ldr	x0, [sp, #8]
  405a9c:	910043ff 	add	sp, sp, #0x10
  405aa0:	d65f03c0 	ret

0000000000405aa4 <_ZN9__gnu_cxx16__aligned_bufferISt4pairIKiiEE6_M_ptrEv>:
  405aa4:	a9be7bfd 	stp	x29, x30, [sp, #-32]!
  405aa8:	910003fd 	mov	x29, sp
  405aac:	f9000fe0 	str	x0, [sp, #24]
  405ab0:	f9400fe0 	ldr	x0, [sp, #24]
  405ab4:	94000065 	bl	405c48 <_ZN9__gnu_cxx16__aligned_bufferISt4pairIKiiEE7_M_addrEv>
  405ab8:	a8c27bfd 	ldp	x29, x30, [sp], #32
  405abc:	d65f03c0 	ret

0000000000405ac0 <_ZN9__gnu_cxx13new_allocatorINSt8__detail10_Hash_nodeISt4pairIKiiELb0EEEE7destroyIS5_EEvPT_>:
  405ac0:	d10043ff 	sub	sp, sp, #0x10
  405ac4:	f90007e0 	str	x0, [sp, #8]
  405ac8:	f90003e1 	str	x1, [sp]
  405acc:	d503201f 	nop
  405ad0:	910043ff 	add	sp, sp, #0x10
  405ad4:	d65f03c0 	ret

0000000000405ad8 <_ZNSt14pointer_traitsIPNSt8__detail10_Hash_nodeISt4pairIKiiELb0EEEE10pointer_toERS5_>:
  405ad8:	a9be7bfd 	stp	x29, x30, [sp, #-32]!
  405adc:	910003fd 	mov	x29, sp
  405ae0:	f9000fe0 	str	x0, [sp, #24]
  405ae4:	f9400fe0 	ldr	x0, [sp, #24]
  405ae8:	9400005d 	bl	405c5c <_ZSt9addressofINSt8__detail10_Hash_nodeISt4pairIKiiELb0EEEEPT_RS6_>
  405aec:	a8c27bfd 	ldp	x29, x30, [sp], #32
  405af0:	d65f03c0 	ret

0000000000405af4 <_ZNSt16allocator_traitsISaINSt8__detail10_Hash_nodeISt4pairIKiiELb0EEEEE10deallocateERS6_PS5_m>:
  405af4:	a9bd7bfd 	stp	x29, x30, [sp, #-48]!
  405af8:	910003fd 	mov	x29, sp
  405afc:	f90017e0 	str	x0, [sp, #40]
  405b00:	f90013e1 	str	x1, [sp, #32]
  405b04:	f9000fe2 	str	x2, [sp, #24]
  405b08:	f9400fe2 	ldr	x2, [sp, #24]
  405b0c:	f94013e1 	ldr	x1, [sp, #32]
  405b10:	f94017e0 	ldr	x0, [sp, #40]
  405b14:	94000059 	bl	405c78 <_ZN9__gnu_cxx13new_allocatorINSt8__detail10_Hash_nodeISt4pairIKiiELb0EEEE10deallocateEPS6_m>
  405b18:	d503201f 	nop
  405b1c:	a8c37bfd 	ldp	x29, x30, [sp], #48
  405b20:	d65f03c0 	ret

0000000000405b24 <_ZNK9__gnu_cxx13new_allocatorINSt7__cxx1112basic_stringIcSt11char_traitsIcESaIcEEEE8max_sizeEv>:
  405b24:	a9be7bfd 	stp	x29, x30, [sp, #-32]!
  405b28:	910003fd 	mov	x29, sp
  405b2c:	f9000fe0 	str	x0, [sp, #24]
  405b30:	f9400fe0 	ldr	x0, [sp, #24]
  405b34:	94000003 	bl	405b40 <_ZNK9__gnu_cxx13new_allocatorINSt7__cxx1112basic_stringIcSt11char_traitsIcESaIcEEEE11_M_max_sizeEv>
  405b38:	a8c27bfd 	ldp	x29, x30, [sp], #32
  405b3c:	d65f03c0 	ret

0000000000405b40 <_ZNK9__gnu_cxx13new_allocatorINSt7__cxx1112basic_stringIcSt11char_traitsIcESaIcEEEE11_M_max_sizeEv>:
  405b40:	d10043ff 	sub	sp, sp, #0x10
  405b44:	f90007e0 	str	x0, [sp, #8]
  405b48:	92ff8000 	mov	x0, #0x3ffffffffffffff     	// #288230376151711743
  405b4c:	910043ff 	add	sp, sp, #0x10
  405b50:	d65f03c0 	ret

0000000000405b54 <_ZSt10_ConstructINSt7__cxx1112basic_stringIcSt11char_traitsIcESaIcEEEJRKS5_EEvPT_DpOT0_>:
  405b54:	a9bc7bfd 	stp	x29, x30, [sp, #-64]!
  405b58:	910003fd 	mov	x29, sp
  405b5c:	a90153f3 	stp	x19, x20, [sp, #16]
  405b60:	f90013f5 	str	x21, [sp, #32]
  405b64:	f9001fe0 	str	x0, [sp, #56]
  405b68:	f9001be1 	str	x1, [sp, #48]
  405b6c:	f9401be0 	ldr	x0, [sp, #48]
  405b70:	9400004f 	bl	405cac <_ZSt7forwardIRKNSt7__cxx1112basic_stringIcSt11char_traitsIcESaIcEEEEOT_RNSt16remove_referenceIS8_E4typeE>
  405b74:	aa0003f5 	mov	x21, x0
  405b78:	f9401ff3 	ldr	x19, [sp, #56]
  405b7c:	aa1303e1 	mov	x1, x19
  405b80:	d2800400 	mov	x0, #0x20                  	// #32
  405b84:	97fff654 	bl	4034d4 <_ZnwmPv>
  405b88:	aa0003f4 	mov	x20, x0
  405b8c:	aa1503e1 	mov	x1, x21
  405b90:	aa1403e0 	mov	x0, x20
  405b94:	97fff08f 	bl	401dd0 <_ZNSt7__cxx1112basic_stringIcSt11char_traitsIcESaIcEEC1ERKS4_@plt>
  405b98:	14000007 	b	405bb4 <_ZSt10_ConstructINSt7__cxx1112basic_stringIcSt11char_traitsIcESaIcEEEJRKS5_EEvPT_DpOT0_+0x60>
  405b9c:	aa0003f5 	mov	x21, x0
  405ba0:	aa1303e1 	mov	x1, x19
  405ba4:	aa1403e0 	mov	x0, x20
  405ba8:	97fff651 	bl	4034ec <_ZdlPvS_>
  405bac:	aa1503e0 	mov	x0, x21
  405bb0:	97fff14c 	bl	4020e0 <_Unwind_Resume@plt>
  405bb4:	a94153f3 	ldp	x19, x20, [sp, #16]
  405bb8:	f94013f5 	ldr	x21, [sp, #32]
  405bbc:	a8c47bfd 	ldp	x29, x30, [sp], #64
  405bc0:	d65f03c0 	ret

0000000000405bc4 <_ZN9__gnu_cxx16__aligned_bufferISt4pairIKNSt7__cxx1112basic_stringIcSt11char_traitsIcESaIcEEEiEE7_M_addrEv>:
  405bc4:	d10043ff 	sub	sp, sp, #0x10
  405bc8:	f90007e0 	str	x0, [sp, #8]
  405bcc:	f94007e0 	ldr	x0, [sp, #8]
  405bd0:	910043ff 	add	sp, sp, #0x10
  405bd4:	d65f03c0 	ret

0000000000405bd8 <_ZSt9addressofINSt8__detail10_Hash_nodeISt4pairIKNSt7__cxx1112basic_stringIcSt11char_traitsIcESaIcEEEiELb1EEEEPT_RSC_>:
  405bd8:	a9be7bfd 	stp	x29, x30, [sp, #-32]!
  405bdc:	910003fd 	mov	x29, sp
  405be0:	f9000fe0 	str	x0, [sp, #24]
  405be4:	f9400fe0 	ldr	x0, [sp, #24]
  405be8:	94000036 	bl	405cc0 <_ZSt11__addressofINSt8__detail10_Hash_nodeISt4pairIKNSt7__cxx1112basic_stringIcSt11char_traitsIcESaIcEEEiELb1EEEEPT_RSC_>
  405bec:	a8c27bfd 	ldp	x29, x30, [sp], #32
  405bf0:	d65f03c0 	ret

0000000000405bf4 <_ZN9__gnu_cxx13new_allocatorINSt8__detail10_Hash_nodeISt4pairIKNSt7__cxx1112basic_stringIcSt11char_traitsIcESaIcEEEiELb1EEEE10deallocateEPSC_m>:
  405bf4:	a9bd7bfd 	stp	x29, x30, [sp, #-48]!
  405bf8:	910003fd 	mov	x29, sp
  405bfc:	f90017e0 	str	x0, [sp, #40]
  405c00:	f90013e1 	str	x1, [sp, #32]
  405c04:	f9000fe2 	str	x2, [sp, #24]
  405c08:	f9400fe1 	ldr	x1, [sp, #24]
  405c0c:	aa0103e0 	mov	x0, x1
  405c10:	d37df000 	lsl	x0, x0, #3
  405c14:	cb010000 	sub	x0, x0, x1
  405c18:	d37df000 	lsl	x0, x0, #3
  405c1c:	aa0003e1 	mov	x1, x0
  405c20:	f94013e0 	ldr	x0, [sp, #32]
  405c24:	97fff0bb 	bl	401f10 <_ZdlPvm@plt>
  405c28:	d503201f 	nop
  405c2c:	a8c37bfd 	ldp	x29, x30, [sp], #48
  405c30:	d65f03c0 	ret

0000000000405c34 <_ZSt11__addressofIPNSt8__detail15_Hash_node_baseEEPT_RS3_>:
  405c34:	d10043ff 	sub	sp, sp, #0x10
  405c38:	f90007e0 	str	x0, [sp, #8]
  405c3c:	f94007e0 	ldr	x0, [sp, #8]
  405c40:	910043ff 	add	sp, sp, #0x10
  405c44:	d65f03c0 	ret

0000000000405c48 <_ZN9__gnu_cxx16__aligned_bufferISt4pairIKiiEE7_M_addrEv>:
  405c48:	d10043ff 	sub	sp, sp, #0x10
  405c4c:	f90007e0 	str	x0, [sp, #8]
  405c50:	f94007e0 	ldr	x0, [sp, #8]
  405c54:	910043ff 	add	sp, sp, #0x10
  405c58:	d65f03c0 	ret

0000000000405c5c <_ZSt9addressofINSt8__detail10_Hash_nodeISt4pairIKiiELb0EEEEPT_RS6_>:
  405c5c:	a9be7bfd 	stp	x29, x30, [sp, #-32]!
  405c60:	910003fd 	mov	x29, sp
  405c64:	f9000fe0 	str	x0, [sp, #24]
  405c68:	f9400fe0 	ldr	x0, [sp, #24]
  405c6c:	9400001a 	bl	405cd4 <_ZSt11__addressofINSt8__detail10_Hash_nodeISt4pairIKiiELb0EEEEPT_RS6_>
  405c70:	a8c27bfd 	ldp	x29, x30, [sp], #32
  405c74:	d65f03c0 	ret

0000000000405c78 <_ZN9__gnu_cxx13new_allocatorINSt8__detail10_Hash_nodeISt4pairIKiiELb0EEEE10deallocateEPS6_m>:
  405c78:	a9bd7bfd 	stp	x29, x30, [sp, #-48]!
  405c7c:	910003fd 	mov	x29, sp
  405c80:	f90017e0 	str	x0, [sp, #40]
  405c84:	f90013e1 	str	x1, [sp, #32]
  405c88:	f9000fe2 	str	x2, [sp, #24]
  405c8c:	f9400fe0 	ldr	x0, [sp, #24]
  405c90:	d37cec00 	lsl	x0, x0, #4
  405c94:	aa0003e1 	mov	x1, x0
  405c98:	f94013e0 	ldr	x0, [sp, #32]
  405c9c:	97fff09d 	bl	401f10 <_ZdlPvm@plt>
  405ca0:	d503201f 	nop
  405ca4:	a8c37bfd 	ldp	x29, x30, [sp], #48
  405ca8:	d65f03c0 	ret

0000000000405cac <_ZSt7forwardIRKNSt7__cxx1112basic_stringIcSt11char_traitsIcESaIcEEEEOT_RNSt16remove_referenceIS8_E4typeE>:
  405cac:	d10043ff 	sub	sp, sp, #0x10
  405cb0:	f90007e0 	str	x0, [sp, #8]
  405cb4:	f94007e0 	ldr	x0, [sp, #8]
  405cb8:	910043ff 	add	sp, sp, #0x10
  405cbc:	d65f03c0 	ret

0000000000405cc0 <_ZSt11__addressofINSt8__detail10_Hash_nodeISt4pairIKNSt7__cxx1112basic_stringIcSt11char_traitsIcESaIcEEEiELb1EEEEPT_RSC_>:
  405cc0:	d10043ff 	sub	sp, sp, #0x10
  405cc4:	f90007e0 	str	x0, [sp, #8]
  405cc8:	f94007e0 	ldr	x0, [sp, #8]
  405ccc:	910043ff 	add	sp, sp, #0x10
  405cd0:	d65f03c0 	ret

0000000000405cd4 <_ZSt11__addressofINSt8__detail10_Hash_nodeISt4pairIKiiELb0EEEEPT_RS6_>:
  405cd4:	d10043ff 	sub	sp, sp, #0x10
  405cd8:	f90007e0 	str	x0, [sp, #8]
  405cdc:	f94007e0 	ldr	x0, [sp, #8]
  405ce0:	910043ff 	add	sp, sp, #0x10
  405ce4:	d65f03c0 	ret

0000000000405ce8 <_ZN5model5trainENSt7__cxx1112basic_stringIcSt11char_traitsIcESaIcEEE>:
  405ce8:	d10a43ff 	sub	sp, sp, #0x290
  405cec:	a9007bfd 	stp	x29, x30, [sp]
  405cf0:	910003fd 	mov	x29, sp
  405cf4:	f9000bf3 	str	x19, [sp, #16]
  405cf8:	f90017e0 	str	x0, [sp, #40]
  405cfc:	f90013e1 	str	x1, [sp, #32]
  405d00:	910923e0 	add	x0, sp, #0x248
  405d04:	97fff0c7 	bl	402020 <_ZNSt7__cxx1112basic_stringIcSt11char_traitsIcESaIcEEC1Ev@plt>
  405d08:	9100e3e0 	add	x0, sp, #0x38
  405d0c:	52800102 	mov	w2, #0x8                   	// #8
  405d10:	f94013e1 	ldr	x1, [sp, #32]
  405d14:	97fff0df 	bl	402090 <_ZNSt14basic_ifstreamIcSt11char_traitsIcEEC1ERKNSt7__cxx1112basic_stringIcS1_SaIcEEESt13_Ios_Openmode@plt>
  405d18:	b9028fff 	str	wzr, [sp, #652]
  405d1c:	f00000c0 	adrp	x0, 420000 <_Z19MD5Hash_simdversionPKNSt7__cxx1112basic_stringIcSt11char_traitsIcESaIcEEEP12__Uint32x4_t+0x3adc>
  405d20:	913ce001 	add	x1, x0, #0xf38
  405d24:	f00001c0 	adrp	x0, 440000 <_Znam@GLIBCXX_3.4>
  405d28:	9108c000 	add	x0, x0, #0x230
  405d2c:	97fff071 	bl	401ef0 <_ZStlsISt11char_traitsIcEERSt13basic_ostreamIcT_ES5_PKc@plt>
  405d30:	aa0003e2 	mov	x2, x0
  405d34:	90ffffe0 	adrp	x0, 401000 <__abi_tag+0xd88>
  405d38:	91378001 	add	x1, x0, #0xde0
  405d3c:	aa0203e0 	mov	x0, x2
  405d40:	97fff078 	bl	401f20 <_ZNSolsEPFRSoS_E@plt>
  405d44:	f00000c0 	adrp	x0, 420000 <_Z19MD5Hash_simdversionPKNSt7__cxx1112basic_stringIcSt11char_traitsIcESaIcEEEP12__Uint32x4_t+0x3adc>
  405d48:	913d2001 	add	x1, x0, #0xf48
  405d4c:	f00001c0 	adrp	x0, 440000 <_Znam@GLIBCXX_3.4>
  405d50:	9108c000 	add	x0, x0, #0x230
  405d54:	97fff067 	bl	401ef0 <_ZStlsISt11char_traitsIcEERSt13basic_ostreamIcT_ES5_PKc@plt>
  405d58:	aa0003e2 	mov	x2, x0
  405d5c:	90ffffe0 	adrp	x0, 401000 <__abi_tag+0xd88>
  405d60:	91378001 	add	x1, x0, #0xde0
  405d64:	aa0203e0 	mov	x0, x2
  405d68:	97fff06e 	bl	401f20 <_ZNSolsEPFRSoS_E@plt>
  405d6c:	910923e1 	add	x1, sp, #0x248
  405d70:	9100e3e0 	add	x0, sp, #0x38
  405d74:	97fff08b 	bl	401fa0 <_ZStrsIcSt11char_traitsIcESaIcEERSt13basic_istreamIT_T0_ES7_RNSt7__cxx1112basic_stringIS4_S5_T1_EE@plt>
  405d78:	f9400001 	ldr	x1, [x0]
  405d7c:	d1006021 	sub	x1, x1, #0x18
  405d80:	f9400021 	ldr	x1, [x1]
  405d84:	8b010000 	add	x0, x0, x1
  405d88:	97fff07e 	bl	401f80 <_ZNKSt9basic_iosIcSt11char_traitsIcEEcvbEv@plt>
  405d8c:	12001c00 	and	w0, w0, #0xff
  405d90:	7100001f 	cmp	w0, #0x0
  405d94:	540005a0 	b.eq	405e48 <_ZN5model5trainENSt7__cxx1112basic_stringIcSt11char_traitsIcESaIcEEE+0x160>  // b.none
  405d98:	b9428fe0 	ldr	w0, [sp, #652]
  405d9c:	11000400 	add	w0, w0, #0x1
  405da0:	b9028fe0 	str	w0, [sp, #652]
  405da4:	b9428fe1 	ldr	w1, [sp, #652]
  405da8:	529175a0 	mov	w0, #0x8bad                	// #35757
  405dac:	72ad1b60 	movk	w0, #0x68db, lsl #16
  405db0:	9b207c20 	smull	x0, w1, w0
  405db4:	d360fc00 	lsr	x0, x0, #32
  405db8:	130c7c02 	asr	w2, w0, #12
  405dbc:	131f7c20 	asr	w0, w1, #31
  405dc0:	4b000040 	sub	w0, w2, w0
  405dc4:	5284e202 	mov	w2, #0x2710                	// #10000
  405dc8:	1b027c00 	mul	w0, w0, w2
  405dcc:	4b000020 	sub	w0, w1, w0
  405dd0:	7100001f 	cmp	w0, #0x0
  405dd4:	54000241 	b.ne	405e1c <_ZN5model5trainENSt7__cxx1112basic_stringIcSt11char_traitsIcESaIcEEE+0x134>  // b.any
  405dd8:	f00000c0 	adrp	x0, 420000 <_Z19MD5Hash_simdversionPKNSt7__cxx1112basic_stringIcSt11char_traitsIcESaIcEEEP12__Uint32x4_t+0x3adc>
  405ddc:	913e0001 	add	x1, x0, #0xf80
  405de0:	f00001c0 	adrp	x0, 440000 <_Znam@GLIBCXX_3.4>
  405de4:	9108c000 	add	x0, x0, #0x230
  405de8:	97fff042 	bl	401ef0 <_ZStlsISt11char_traitsIcEERSt13basic_ostreamIcT_ES5_PKc@plt>
  405dec:	b9428fe1 	ldr	w1, [sp, #652]
  405df0:	97fff0b8 	bl	4020d0 <_ZNSolsEi@plt>
  405df4:	aa0003e2 	mov	x2, x0
  405df8:	90ffffe0 	adrp	x0, 401000 <__abi_tag+0xd88>
  405dfc:	91378001 	add	x1, x0, #0xde0
  405e00:	aa0203e0 	mov	x0, x2
  405e04:	97fff047 	bl	401f20 <_ZNSolsEPFRSoS_E@plt>
  405e08:	b9428fe1 	ldr	w1, [sp, #652]
  405e0c:	5298d800 	mov	w0, #0xc6c0                	// #50880
  405e10:	72a005a0 	movk	w0, #0x2d, lsl #16
  405e14:	6b00003f 	cmp	w1, w0
  405e18:	5400016c 	b.gt	405e44 <_ZN5model5trainENSt7__cxx1112basic_stringIcSt11char_traitsIcESaIcEEE+0x15c>
  405e1c:	910923e1 	add	x1, sp, #0x248
  405e20:	9109a3e0 	add	x0, sp, #0x268
  405e24:	97ffefeb 	bl	401dd0 <_ZNSt7__cxx1112basic_stringIcSt11char_traitsIcESaIcEEC1ERKS4_@plt>
  405e28:	9109a3e0 	add	x0, sp, #0x268
  405e2c:	aa0003e1 	mov	x1, x0
  405e30:	f94017e0 	ldr	x0, [sp, #40]
  405e34:	940001f9 	bl	406618 <_ZN5model5parseENSt7__cxx1112basic_stringIcSt11char_traitsIcESaIcEEE>
  405e38:	9109a3e0 	add	x0, sp, #0x268
  405e3c:	97fff005 	bl	401e50 <_ZNSt7__cxx1112basic_stringIcSt11char_traitsIcESaIcEED1Ev@plt>
  405e40:	17ffffcb 	b	405d6c <_ZN5model5trainENSt7__cxx1112basic_stringIcSt11char_traitsIcESaIcEEE+0x84>
  405e44:	d503201f 	nop
  405e48:	9100e3e0 	add	x0, sp, #0x38
  405e4c:	97ffefc9 	bl	401d70 <_ZNSt14basic_ifstreamIcSt11char_traitsIcEED1Ev@plt>
  405e50:	910923e0 	add	x0, sp, #0x248
  405e54:	97ffefff 	bl	401e50 <_ZNSt7__cxx1112basic_stringIcSt11char_traitsIcESaIcEED1Ev@plt>
  405e58:	1400000e 	b	405e90 <_ZN5model5trainENSt7__cxx1112basic_stringIcSt11char_traitsIcESaIcEEE+0x1a8>
  405e5c:	aa0003f3 	mov	x19, x0
  405e60:	9109a3e0 	add	x0, sp, #0x268
  405e64:	97ffeffb 	bl	401e50 <_ZNSt7__cxx1112basic_stringIcSt11char_traitsIcESaIcEED1Ev@plt>
  405e68:	14000002 	b	405e70 <_ZN5model5trainENSt7__cxx1112basic_stringIcSt11char_traitsIcESaIcEEE+0x188>
  405e6c:	aa0003f3 	mov	x19, x0
  405e70:	9100e3e0 	add	x0, sp, #0x38
  405e74:	97ffefbf 	bl	401d70 <_ZNSt14basic_ifstreamIcSt11char_traitsIcEED1Ev@plt>
  405e78:	14000002 	b	405e80 <_ZN5model5trainENSt7__cxx1112basic_stringIcSt11char_traitsIcESaIcEEE+0x198>
  405e7c:	aa0003f3 	mov	x19, x0
  405e80:	910923e0 	add	x0, sp, #0x248
  405e84:	97ffeff3 	bl	401e50 <_ZNSt7__cxx1112basic_stringIcSt11char_traitsIcESaIcEED1Ev@plt>
  405e88:	aa1303e0 	mov	x0, x19
  405e8c:	97fff095 	bl	4020e0 <_Unwind_Resume@plt>
  405e90:	f9400bf3 	ldr	x19, [sp, #16]
  405e94:	a9407bfd 	ldp	x29, x30, [sp]
  405e98:	910a43ff 	add	sp, sp, #0x290
  405e9c:	d65f03c0 	ret

0000000000405ea0 <_ZN5model6FindPTE2PT>:
  405ea0:	a9bc7bfd 	stp	x29, x30, [sp, #-64]!
  405ea4:	910003fd 	mov	x29, sp
  405ea8:	f9000bf3 	str	x19, [sp, #16]
  405eac:	f90017e0 	str	x0, [sp, #40]
  405eb0:	f90013e1 	str	x1, [sp, #32]
  405eb4:	b9003fff 	str	wzr, [sp, #60]
  405eb8:	b9803ff3 	ldrsw	x19, [sp, #60]
  405ebc:	f94017e0 	ldr	x0, [sp, #40]
  405ec0:	91006000 	add	x0, x0, #0x18
  405ec4:	94000ebb 	bl	4099b0 <_ZNKSt6vectorI2PTSaIS0_EE4sizeEv>
  405ec8:	eb00027f 	cmp	x19, x0
  405ecc:	1a9f27e0 	cset	w0, cc  // cc = lo, ul, last
  405ed0:	12001c00 	and	w0, w0, #0xff
  405ed4:	7100001f 	cmp	w0, #0x0
  405ed8:	54000a20 	b.eq	40601c <_ZN5model6FindPTE2PT+0x17c>  // b.none
  405edc:	f94017e0 	ldr	x0, [sp, #40]
  405ee0:	91006000 	add	x0, x0, #0x18
  405ee4:	b9803fe1 	ldrsw	x1, [sp, #60]
  405ee8:	94000ec1 	bl	4099ec <_ZNSt6vectorI2PTSaIS0_EEixEm>
  405eec:	94000ecf 	bl	409a28 <_ZNKSt6vectorI7segmentSaIS0_EE4sizeEv>
  405ef0:	aa0003f3 	mov	x19, x0
  405ef4:	f94013e0 	ldr	x0, [sp, #32]
  405ef8:	94000ecc 	bl	409a28 <_ZNKSt6vectorI7segmentSaIS0_EE4sizeEv>
  405efc:	eb00027f 	cmp	x19, x0
  405f00:	1a9f07e0 	cset	w0, ne  // ne = any
  405f04:	12001c00 	and	w0, w0, #0xff
  405f08:	7100001f 	cmp	w0, #0x0
  405f0c:	540007e1 	b.ne	406008 <_ZN5model6FindPTE2PT+0x168>  // b.any
  405f10:	52800020 	mov	w0, #0x1                   	// #1
  405f14:	3900efe0 	strb	w0, [sp, #59]
  405f18:	b90037ff 	str	wzr, [sp, #52]
  405f1c:	b98037f3 	ldrsw	x19, [sp, #52]
  405f20:	f94017e0 	ldr	x0, [sp, #40]
  405f24:	91006000 	add	x0, x0, #0x18
  405f28:	b9803fe1 	ldrsw	x1, [sp, #60]
  405f2c:	94000eb0 	bl	4099ec <_ZNSt6vectorI2PTSaIS0_EEixEm>
  405f30:	94000ebe 	bl	409a28 <_ZNKSt6vectorI7segmentSaIS0_EE4sizeEv>
  405f34:	eb00027f 	cmp	x19, x0
  405f38:	1a9f27e0 	cset	w0, cc  // cc = lo, ul, last
  405f3c:	12001c00 	and	w0, w0, #0xff
  405f40:	7100001f 	cmp	w0, #0x0
  405f44:	54000580 	b.eq	405ff4 <_ZN5model6FindPTE2PT+0x154>  // b.none
  405f48:	f94017e0 	ldr	x0, [sp, #40]
  405f4c:	91006000 	add	x0, x0, #0x18
  405f50:	b9803fe1 	ldrsw	x1, [sp, #60]
  405f54:	94000ea6 	bl	4099ec <_ZNSt6vectorI2PTSaIS0_EEixEm>
  405f58:	aa0003e2 	mov	x2, x0
  405f5c:	b98037e0 	ldrsw	x0, [sp, #52]
  405f60:	aa0003e1 	mov	x1, x0
  405f64:	aa0203e0 	mov	x0, x2
  405f68:	94000ebf 	bl	409a64 <_ZNSt6vectorI7segmentSaIS0_EEixEm>
  405f6c:	b9400013 	ldr	w19, [x0]
  405f70:	f94013e0 	ldr	x0, [sp, #32]
  405f74:	b98037e1 	ldrsw	x1, [sp, #52]
  405f78:	94000ebb 	bl	409a64 <_ZNSt6vectorI7segmentSaIS0_EEixEm>
  405f7c:	b9400000 	ldr	w0, [x0]
  405f80:	6b00027f 	cmp	w19, w0
  405f84:	54000221 	b.ne	405fc8 <_ZN5model6FindPTE2PT+0x128>  // b.any
  405f88:	f94017e0 	ldr	x0, [sp, #40]
  405f8c:	91006000 	add	x0, x0, #0x18
  405f90:	b9803fe1 	ldrsw	x1, [sp, #60]
  405f94:	94000e96 	bl	4099ec <_ZNSt6vectorI2PTSaIS0_EEixEm>
  405f98:	aa0003e2 	mov	x2, x0
  405f9c:	b98037e0 	ldrsw	x0, [sp, #52]
  405fa0:	aa0003e1 	mov	x1, x0
  405fa4:	aa0203e0 	mov	x0, x2
  405fa8:	94000eaf 	bl	409a64 <_ZNSt6vectorI7segmentSaIS0_EEixEm>
  405fac:	b9400413 	ldr	w19, [x0, #4]
  405fb0:	f94013e0 	ldr	x0, [sp, #32]
  405fb4:	b98037e1 	ldrsw	x1, [sp, #52]
  405fb8:	94000eab 	bl	409a64 <_ZNSt6vectorI7segmentSaIS0_EEixEm>
  405fbc:	b9400400 	ldr	w0, [x0, #4]
  405fc0:	6b00027f 	cmp	w19, w0
  405fc4:	54000060 	b.eq	405fd0 <_ZN5model6FindPTE2PT+0x130>  // b.none
  405fc8:	52800020 	mov	w0, #0x1                   	// #1
  405fcc:	14000002 	b	405fd4 <_ZN5model6FindPTE2PT+0x134>
  405fd0:	52800000 	mov	w0, #0x0                   	// #0
  405fd4:	7100001f 	cmp	w0, #0x0
  405fd8:	54000060 	b.eq	405fe4 <_ZN5model6FindPTE2PT+0x144>  // b.none
  405fdc:	3900efff 	strb	wzr, [sp, #59]
  405fe0:	14000005 	b	405ff4 <_ZN5model6FindPTE2PT+0x154>
  405fe4:	b94037e0 	ldr	w0, [sp, #52]
  405fe8:	11000400 	add	w0, w0, #0x1
  405fec:	b90037e0 	str	w0, [sp, #52]
  405ff0:	17ffffcb 	b	405f1c <_ZN5model6FindPTE2PT+0x7c>
  405ff4:	3940efe0 	ldrb	w0, [sp, #59]
  405ff8:	7100041f 	cmp	w0, #0x1
  405ffc:	54000081 	b.ne	40600c <_ZN5model6FindPTE2PT+0x16c>  // b.any
  406000:	b9403fe0 	ldr	w0, [sp, #60]
  406004:	14000007 	b	406020 <_ZN5model6FindPTE2PT+0x180>
  406008:	d503201f 	nop
  40600c:	b9403fe0 	ldr	w0, [sp, #60]
  406010:	11000400 	add	w0, w0, #0x1
  406014:	b9003fe0 	str	w0, [sp, #60]
  406018:	17ffffa8 	b	405eb8 <_ZN5model6FindPTE2PT+0x18>
  40601c:	12800000 	mov	w0, #0xffffffff            	// #-1
  406020:	f9400bf3 	ldr	x19, [sp, #16]
  406024:	a8c47bfd 	ldp	x29, x30, [sp], #64
  406028:	d65f03c0 	ret

000000000040602c <_ZN5model10FindLetterE7segment>:
  40602c:	a9bc7bfd 	stp	x29, x30, [sp, #-64]!
  406030:	910003fd 	mov	x29, sp
  406034:	f9000bf3 	str	x19, [sp, #16]
  406038:	f90017e0 	str	x0, [sp, #40]
  40603c:	f90013e1 	str	x1, [sp, #32]
  406040:	b9003fff 	str	wzr, [sp, #60]
  406044:	b9803ff3 	ldrsw	x19, [sp, #60]
  406048:	f94017e0 	ldr	x0, [sp, #40]
  40604c:	9100c000 	add	x0, x0, #0x30
  406050:	94000e76 	bl	409a28 <_ZNKSt6vectorI7segmentSaIS0_EE4sizeEv>
  406054:	eb00027f 	cmp	x19, x0
  406058:	1a9f27e0 	cset	w0, cc  // cc = lo, ul, last
  40605c:	12001c00 	and	w0, w0, #0xff
  406060:	7100001f 	cmp	w0, #0x0
  406064:	54000260 	b.eq	4060b0 <_ZN5model10FindLetterE7segment+0x84>  // b.none
  406068:	f94017e0 	ldr	x0, [sp, #40]
  40606c:	9100c000 	add	x0, x0, #0x30
  406070:	b9803fe1 	ldrsw	x1, [sp, #60]
  406074:	94000e7c 	bl	409a64 <_ZNSt6vectorI7segmentSaIS0_EEixEm>
  406078:	b9400401 	ldr	w1, [x0, #4]
  40607c:	f94013e0 	ldr	x0, [sp, #32]
  406080:	b9400400 	ldr	w0, [x0, #4]
  406084:	6b00003f 	cmp	w1, w0
  406088:	1a9f17e0 	cset	w0, eq  // eq = none
  40608c:	12001c00 	and	w0, w0, #0xff
  406090:	7100001f 	cmp	w0, #0x0
  406094:	54000060 	b.eq	4060a0 <_ZN5model10FindLetterE7segment+0x74>  // b.none
  406098:	b9403fe0 	ldr	w0, [sp, #60]
  40609c:	14000006 	b	4060b4 <_ZN5model10FindLetterE7segment+0x88>
  4060a0:	b9403fe0 	ldr	w0, [sp, #60]
  4060a4:	11000400 	add	w0, w0, #0x1
  4060a8:	b9003fe0 	str	w0, [sp, #60]
  4060ac:	17ffffe6 	b	406044 <_ZN5model10FindLetterE7segment+0x18>
  4060b0:	12800000 	mov	w0, #0xffffffff            	// #-1
  4060b4:	f9400bf3 	ldr	x19, [sp, #16]
  4060b8:	a8c47bfd 	ldp	x29, x30, [sp], #64
  4060bc:	d65f03c0 	ret

00000000004060c0 <_ZN5model9FindDigitE7segment>:
  4060c0:	a9bc7bfd 	stp	x29, x30, [sp, #-64]!
  4060c4:	910003fd 	mov	x29, sp
  4060c8:	f9000bf3 	str	x19, [sp, #16]
  4060cc:	f90017e0 	str	x0, [sp, #40]
  4060d0:	f90013e1 	str	x1, [sp, #32]
  4060d4:	b9003fff 	str	wzr, [sp, #60]
  4060d8:	b9803ff3 	ldrsw	x19, [sp, #60]
  4060dc:	f94017e0 	ldr	x0, [sp, #40]
  4060e0:	91012000 	add	x0, x0, #0x48
  4060e4:	94000e51 	bl	409a28 <_ZNKSt6vectorI7segmentSaIS0_EE4sizeEv>
  4060e8:	eb00027f 	cmp	x19, x0
  4060ec:	1a9f27e0 	cset	w0, cc  // cc = lo, ul, last
  4060f0:	12001c00 	and	w0, w0, #0xff
  4060f4:	7100001f 	cmp	w0, #0x0
  4060f8:	54000260 	b.eq	406144 <_ZN5model9FindDigitE7segment+0x84>  // b.none
  4060fc:	f94017e0 	ldr	x0, [sp, #40]
  406100:	91012000 	add	x0, x0, #0x48
  406104:	b9803fe1 	ldrsw	x1, [sp, #60]
  406108:	94000e57 	bl	409a64 <_ZNSt6vectorI7segmentSaIS0_EEixEm>
  40610c:	b9400401 	ldr	w1, [x0, #4]
  406110:	f94013e0 	ldr	x0, [sp, #32]
  406114:	b9400400 	ldr	w0, [x0, #4]
  406118:	6b00003f 	cmp	w1, w0
  40611c:	1a9f17e0 	cset	w0, eq  // eq = none
  406120:	12001c00 	and	w0, w0, #0xff
  406124:	7100001f 	cmp	w0, #0x0
  406128:	54000060 	b.eq	406134 <_ZN5model9FindDigitE7segment+0x74>  // b.none
  40612c:	b9403fe0 	ldr	w0, [sp, #60]
  406130:	14000006 	b	406148 <_ZN5model9FindDigitE7segment+0x88>
  406134:	b9403fe0 	ldr	w0, [sp, #60]
  406138:	11000400 	add	w0, w0, #0x1
  40613c:	b9003fe0 	str	w0, [sp, #60]
  406140:	17ffffe6 	b	4060d8 <_ZN5model9FindDigitE7segment+0x18>
  406144:	12800000 	mov	w0, #0xffffffff            	// #-1
  406148:	f9400bf3 	ldr	x19, [sp, #16]
  40614c:	a8c47bfd 	ldp	x29, x30, [sp], #64
  406150:	d65f03c0 	ret

0000000000406154 <_ZN5model10FindSymbolE7segment>:
  406154:	a9bc7bfd 	stp	x29, x30, [sp, #-64]!
  406158:	910003fd 	mov	x29, sp
  40615c:	f9000bf3 	str	x19, [sp, #16]
  406160:	f90017e0 	str	x0, [sp, #40]
  406164:	f90013e1 	str	x1, [sp, #32]
  406168:	b9003fff 	str	wzr, [sp, #60]
  40616c:	b9803ff3 	ldrsw	x19, [sp, #60]
  406170:	f94017e0 	ldr	x0, [sp, #40]
  406174:	91018000 	add	x0, x0, #0x60
  406178:	94000e2c 	bl	409a28 <_ZNKSt6vectorI7segmentSaIS0_EE4sizeEv>
  40617c:	eb00027f 	cmp	x19, x0
  406180:	1a9f27e0 	cset	w0, cc  // cc = lo, ul, last
  406184:	12001c00 	and	w0, w0, #0xff
  406188:	7100001f 	cmp	w0, #0x0
  40618c:	54000260 	b.eq	4061d8 <_ZN5model10FindSymbolE7segment+0x84>  // b.none
  406190:	f94017e0 	ldr	x0, [sp, #40]
  406194:	91018000 	add	x0, x0, #0x60
  406198:	b9803fe1 	ldrsw	x1, [sp, #60]
  40619c:	94000e32 	bl	409a64 <_ZNSt6vectorI7segmentSaIS0_EEixEm>
  4061a0:	b9400401 	ldr	w1, [x0, #4]
  4061a4:	f94013e0 	ldr	x0, [sp, #32]
  4061a8:	b9400400 	ldr	w0, [x0, #4]
  4061ac:	6b00003f 	cmp	w1, w0
  4061b0:	1a9f17e0 	cset	w0, eq  // eq = none
  4061b4:	12001c00 	and	w0, w0, #0xff
  4061b8:	7100001f 	cmp	w0, #0x0
  4061bc:	54000060 	b.eq	4061c8 <_ZN5model10FindSymbolE7segment+0x74>  // b.none
  4061c0:	b9403fe0 	ldr	w0, [sp, #60]
  4061c4:	14000006 	b	4061dc <_ZN5model10FindSymbolE7segment+0x88>
  4061c8:	b9403fe0 	ldr	w0, [sp, #60]
  4061cc:	11000400 	add	w0, w0, #0x1
  4061d0:	b9003fe0 	str	w0, [sp, #60]
  4061d4:	17ffffe6 	b	40616c <_ZN5model10FindSymbolE7segment+0x18>
  4061d8:	12800000 	mov	w0, #0xffffffff            	// #-1
  4061dc:	f9400bf3 	ldr	x19, [sp, #16]
  4061e0:	a8c47bfd 	ldp	x29, x30, [sp], #64
  4061e4:	d65f03c0 	ret

00000000004061e8 <_ZN2PT6insertE7segment>:
  4061e8:	a9be7bfd 	stp	x29, x30, [sp, #-32]!
  4061ec:	910003fd 	mov	x29, sp
  4061f0:	f9000fe0 	str	x0, [sp, #24]
  4061f4:	f9000be1 	str	x1, [sp, #16]
  4061f8:	f9400fe0 	ldr	x0, [sp, #24]
  4061fc:	f9400be1 	ldr	x1, [sp, #16]
  406200:	94000e28 	bl	409aa0 <_ZNSt6vectorI7segmentSaIS0_EE12emplace_backIJRS0_EEEvDpOT_>
  406204:	d503201f 	nop
  406208:	a8c27bfd 	ldp	x29, x30, [sp], #32
  40620c:	d65f03c0 	ret

0000000000406210 <_ZN7segment6insertENSt7__cxx1112basic_stringIcSt11char_traitsIcESaIcEEE>:
  406210:	a9bc7bfd 	stp	x29, x30, [sp, #-64]!
  406214:	910003fd 	mov	x29, sp
  406218:	f9000bf3 	str	x19, [sp, #16]
  40621c:	f90017e0 	str	x0, [sp, #40]
  406220:	f90013e1 	str	x1, [sp, #32]
  406224:	f94017e0 	ldr	x0, [sp, #40]
  406228:	91010000 	add	x0, x0, #0x40
  40622c:	f94013e1 	ldr	x1, [sp, #32]
  406230:	94000e43 	bl	409b3c <_ZNSt13unordered_mapINSt7__cxx1112basic_stringIcSt11char_traitsIcESaIcEEEiSt4hashIS5_ESt8equal_toIS5_ESaISt4pairIKS5_iEEE4findERSB_>
  406234:	f9001be0 	str	x0, [sp, #48]
  406238:	f94017e0 	ldr	x0, [sp, #40]
  40623c:	91010000 	add	x0, x0, #0x40
  406240:	94000e48 	bl	409b60 <_ZNSt13unordered_mapINSt7__cxx1112basic_stringIcSt11char_traitsIcESaIcEEEiSt4hashIS5_ESt8equal_toIS5_ESaISt4pairIKS5_iEEE3endEv>
  406244:	f9001fe0 	str	x0, [sp, #56]
  406248:	9100e3e1 	add	x1, sp, #0x38
  40624c:	9100c3e0 	add	x0, sp, #0x30
  406250:	94000e4b 	bl	409b7c <_ZNSt8__detaileqISt4pairIKNSt7__cxx1112basic_stringIcSt11char_traitsIcESaIcEEEiELb1EEEbRKNS_19_Node_iterator_baseIT_XT0_EEESE_>
  406254:	12001c00 	and	w0, w0, #0xff
  406258:	7100001f 	cmp	w0, #0x0
  40625c:	54000300 	b.eq	4062bc <_ZN7segment6insertENSt7__cxx1112basic_stringIcSt11char_traitsIcESaIcEEE+0xac>  // b.none
  406260:	f94017e0 	ldr	x0, [sp, #40]
  406264:	91010000 	add	x0, x0, #0x40
  406268:	94000e5a 	bl	409bd0 <_ZNKSt13unordered_mapINSt7__cxx1112basic_stringIcSt11char_traitsIcESaIcEEEiSt4hashIS5_ESt8equal_toIS5_ESaISt4pairIKS5_iEEE4sizeEv>
  40626c:	aa0003f3 	mov	x19, x0
  406270:	f94017e0 	ldr	x0, [sp, #40]
  406274:	91010000 	add	x0, x0, #0x40
  406278:	f94013e1 	ldr	x1, [sp, #32]
  40627c:	94000e4c 	bl	409bac <_ZNSt13unordered_mapINSt7__cxx1112basic_stringIcSt11char_traitsIcESaIcEEEiSt4hashIS5_ESt8equal_toIS5_ESaISt4pairIKS5_iEEEixERSB_>
  406280:	2a1303e1 	mov	w1, w19
  406284:	b9000001 	str	w1, [x0]
  406288:	f94017e0 	ldr	x0, [sp, #40]
  40628c:	9101e013 	add	x19, x0, #0x78
  406290:	f94017e0 	ldr	x0, [sp, #40]
  406294:	91010000 	add	x0, x0, #0x40
  406298:	f94013e1 	ldr	x1, [sp, #32]
  40629c:	94000e44 	bl	409bac <_ZNSt13unordered_mapINSt7__cxx1112basic_stringIcSt11char_traitsIcESaIcEEEiSt4hashIS5_ESt8equal_toIS5_ESaISt4pairIKS5_iEEEixERSB_>
  4062a0:	aa0003e1 	mov	x1, x0
  4062a4:	aa1303e0 	mov	x0, x19
  4062a8:	94000e51 	bl	409bec <_ZNSt13unordered_mapIiiSt4hashIiESt8equal_toIiESaISt4pairIKiiEEEixERS5_>
  4062ac:	aa0003e1 	mov	x1, x0
  4062b0:	52800020 	mov	w0, #0x1                   	// #1
  4062b4:	b9000020 	str	w0, [x1]
  4062b8:	1400000d 	b	4062ec <_ZN7segment6insertENSt7__cxx1112basic_stringIcSt11char_traitsIcESaIcEEE+0xdc>
  4062bc:	f94017e0 	ldr	x0, [sp, #40]
  4062c0:	9101e013 	add	x19, x0, #0x78
  4062c4:	f94017e0 	ldr	x0, [sp, #40]
  4062c8:	91010000 	add	x0, x0, #0x40
  4062cc:	f94013e1 	ldr	x1, [sp, #32]
  4062d0:	94000e37 	bl	409bac <_ZNSt13unordered_mapINSt7__cxx1112basic_stringIcSt11char_traitsIcESaIcEEEiSt4hashIS5_ESt8equal_toIS5_ESaISt4pairIKS5_iEEEixERSB_>
  4062d4:	aa0003e1 	mov	x1, x0
  4062d8:	aa1303e0 	mov	x0, x19
  4062dc:	94000e44 	bl	409bec <_ZNSt13unordered_mapIiiSt4hashIiESt8equal_toIiESaISt4pairIKiiEEEixERS5_>
  4062e0:	b9400001 	ldr	w1, [x0]
  4062e4:	11000421 	add	w1, w1, #0x1
  4062e8:	b9000001 	str	w1, [x0]
  4062ec:	d503201f 	nop
  4062f0:	f9400bf3 	ldr	x19, [sp, #16]
  4062f4:	a8c47bfd 	ldp	x29, x30, [sp], #64
  4062f8:	d65f03c0 	ret

00000000004062fc <_ZZN7segment5orderEvENKUlRKNSt7__cxx1112basic_stringIcSt11char_traitsIcESaIcEEES7_E_clES7_S7_>:
  4062fc:	a9bc7bfd 	stp	x29, x30, [sp, #-64]!
  406300:	910003fd 	mov	x29, sp
  406304:	a90153f3 	stp	x19, x20, [sp, #16]
  406308:	f9001fe0 	str	x0, [sp, #56]
  40630c:	f9001be1 	str	x1, [sp, #48]
  406310:	f90017e2 	str	x2, [sp, #40]
  406314:	f9401fe0 	ldr	x0, [sp, #56]
  406318:	f9400000 	ldr	x0, [x0]
  40631c:	9101e013 	add	x19, x0, #0x78
  406320:	f9401fe0 	ldr	x0, [sp, #56]
  406324:	f9400000 	ldr	x0, [x0]
  406328:	91010000 	add	x0, x0, #0x40
  40632c:	f9401be1 	ldr	x1, [sp, #48]
  406330:	94000e1f 	bl	409bac <_ZNSt13unordered_mapINSt7__cxx1112basic_stringIcSt11char_traitsIcESaIcEEEiSt4hashIS5_ESt8equal_toIS5_ESaISt4pairIKS5_iEEEixERSB_>
  406334:	aa0003e1 	mov	x1, x0
  406338:	aa1303e0 	mov	x0, x19
  40633c:	94000ea0 	bl	409dbc <_ZNSt13unordered_mapIiiSt4hashIiESt8equal_toIiESaISt4pairIKiiEEE2atERS5_>
  406340:	b9400013 	ldr	w19, [x0]
  406344:	f9401fe0 	ldr	x0, [sp, #56]
  406348:	f9400000 	ldr	x0, [x0]
  40634c:	9101e014 	add	x20, x0, #0x78
  406350:	f9401fe0 	ldr	x0, [sp, #56]
  406354:	f9400000 	ldr	x0, [x0]
  406358:	91010000 	add	x0, x0, #0x40
  40635c:	f94017e1 	ldr	x1, [sp, #40]
  406360:	94000e13 	bl	409bac <_ZNSt13unordered_mapINSt7__cxx1112basic_stringIcSt11char_traitsIcESaIcEEEiSt4hashIS5_ESt8equal_toIS5_ESaISt4pairIKS5_iEEEixERSB_>
  406364:	aa0003e1 	mov	x1, x0
  406368:	aa1403e0 	mov	x0, x20
  40636c:	94000e94 	bl	409dbc <_ZNSt13unordered_mapIiiSt4hashIiESt8equal_toIiESaISt4pairIKiiEEE2atERS5_>
  406370:	b9400000 	ldr	w0, [x0]
  406374:	6b00027f 	cmp	w19, w0
  406378:	1a9fd7e0 	cset	w0, gt
  40637c:	12001c00 	and	w0, w0, #0xff
  406380:	a94153f3 	ldp	x19, x20, [sp, #16]
  406384:	a8c47bfd 	ldp	x29, x30, [sp], #64
  406388:	d65f03c0 	ret

000000000040638c <_ZN7segment5orderEv>:
  40638c:	a9b57bfd 	stp	x29, x30, [sp, #-176]!
  406390:	910003fd 	mov	x29, sp
  406394:	a90153f3 	stp	x19, x20, [sp, #16]
  406398:	f90017e0 	str	x0, [sp, #40]
  40639c:	f94017e0 	ldr	x0, [sp, #40]
  4063a0:	91010000 	add	x0, x0, #0x40
  4063a4:	f90057e0 	str	x0, [sp, #168]
  4063a8:	f94057e0 	ldr	x0, [sp, #168]
  4063ac:	94000e19 	bl	409c10 <_ZNSt13unordered_mapINSt7__cxx1112basic_stringIcSt11char_traitsIcESaIcEEEiSt4hashIS5_ESt8equal_toIS5_ESaISt4pairIKS5_iEEE5beginEv>
  4063b0:	f90047e0 	str	x0, [sp, #136]
  4063b4:	f94057e0 	ldr	x0, [sp, #168]
  4063b8:	94000dea 	bl	409b60 <_ZNSt13unordered_mapINSt7__cxx1112basic_stringIcSt11char_traitsIcESaIcEEEiSt4hashIS5_ESt8equal_toIS5_ESaISt4pairIKS5_iEEE3endEv>
  4063bc:	f90043e0 	str	x0, [sp, #128]
  4063c0:	910203e1 	add	x1, sp, #0x80
  4063c4:	910223e0 	add	x0, sp, #0x88
  4063c8:	94000e19 	bl	409c2c <_ZNSt8__detailneISt4pairIKNSt7__cxx1112basic_stringIcSt11char_traitsIcESaIcEEEiELb1EEEbRKNS_19_Node_iterator_baseIT_XT0_EEESE_>
  4063cc:	12001c00 	and	w0, w0, #0xff
  4063d0:	7100001f 	cmp	w0, #0x0
  4063d4:	540001e0 	b.eq	406410 <_ZN7segment5orderEv+0x84>  // b.none
  4063d8:	910223e0 	add	x0, sp, #0x88
  4063dc:	94000e28 	bl	409c7c <_ZNKSt8__detail14_Node_iteratorISt4pairIKNSt7__cxx1112basic_stringIcSt11char_traitsIcESaIcEEEiELb0ELb1EEdeEv>
  4063e0:	aa0003e1 	mov	x1, x0
  4063e4:	9100e3e0 	add	x0, sp, #0x38
  4063e8:	94000e2d 	bl	409c9c <_ZNSt4pairINSt7__cxx1112basic_stringIcSt11char_traitsIcESaIcEEEiEC1IKS5_iLb1EEERKS_IT_T0_E>
  4063ec:	f94017e0 	ldr	x0, [sp, #40]
  4063f0:	91002000 	add	x0, x0, #0x8
  4063f4:	9100e3e1 	add	x1, sp, #0x38
  4063f8:	94000e37 	bl	409cd4 <_ZNSt6vectorINSt7__cxx1112basic_stringIcSt11char_traitsIcESaIcEEESaIS5_EE12emplace_backIJRS5_EEEvDpOT_>
  4063fc:	9100e3e0 	add	x0, sp, #0x38
  406400:	94000caa 	bl	4096a8 <_ZNSt4pairINSt7__cxx1112basic_stringIcSt11char_traitsIcESaIcEEEiED1Ev>
  406404:	910223e0 	add	x0, sp, #0x88
  406408:	94000e15 	bl	409c5c <_ZNSt8__detail14_Node_iteratorISt4pairIKNSt7__cxx1112basic_stringIcSt11char_traitsIcESaIcEEEiELb0ELb1EEppEv>
  40640c:	17ffffed 	b	4063c0 <_ZN7segment5orderEv+0x34>
  406410:	f94017e0 	ldr	x0, [sp, #40]
  406414:	91002000 	add	x0, x0, #0x8
  406418:	94000e56 	bl	409d70 <_ZNSt6vectorINSt7__cxx1112basic_stringIcSt11char_traitsIcESaIcEEESaIS5_EE5beginEv>
  40641c:	aa0003f3 	mov	x19, x0
  406420:	f94017e0 	ldr	x0, [sp, #40]
  406424:	91002000 	add	x0, x0, #0x8
  406428:	94000e5b 	bl	409d94 <_ZNSt6vectorINSt7__cxx1112basic_stringIcSt11char_traitsIcESaIcEEESaIS5_EE3endEv>
  40642c:	aa0003e1 	mov	x1, x0
  406430:	f94017e0 	ldr	x0, [sp, #40]
  406434:	aa0003e2 	mov	x2, x0
  406438:	aa1303e0 	mov	x0, x19
  40643c:	940007d6 	bl	408394 <_ZSt4sortIN9__gnu_cxx17__normal_iteratorIPNSt7__cxx1112basic_stringIcSt11char_traitsIcESaIcEEESt6vectorIS7_SaIS7_EEEEZN7segment5orderEvEUlRKS7_SF_E_EvT_SH_T0_>
  406440:	f94017e0 	ldr	x0, [sp, #40]
  406444:	91002000 	add	x0, x0, #0x8
  406448:	f90053e0 	str	x0, [sp, #160]
  40644c:	f94053e0 	ldr	x0, [sp, #160]
  406450:	94000e48 	bl	409d70 <_ZNSt6vectorINSt7__cxx1112basic_stringIcSt11char_traitsIcESaIcEEESaIS5_EE5beginEv>
  406454:	f9003fe0 	str	x0, [sp, #120]
  406458:	f94053e0 	ldr	x0, [sp, #160]
  40645c:	94000e4e 	bl	409d94 <_ZNSt6vectorINSt7__cxx1112basic_stringIcSt11char_traitsIcESaIcEEESaIS5_EE3endEv>
  406460:	f9003be0 	str	x0, [sp, #112]
  406464:	9101c3e1 	add	x1, sp, #0x70
  406468:	9101e3e0 	add	x0, sp, #0x78
  40646c:	94000e5d 	bl	409de0 <_ZN9__gnu_cxxneIPNSt7__cxx1112basic_stringIcSt11char_traitsIcESaIcEEESt6vectorIS6_SaIS6_EEEEbRKNS_17__normal_iteratorIT_T0_EESG_>
  406470:	12001c00 	and	w0, w0, #0xff
  406474:	7100001f 	cmp	w0, #0x0
  406478:	54000480 	b.eq	406508 <_ZN7segment5orderEv+0x17c>  // b.none
  40647c:	9101e3e0 	add	x0, sp, #0x78
  406480:	94000e73 	bl	409e4c <_ZNK9__gnu_cxx17__normal_iteratorIPNSt7__cxx1112basic_stringIcSt11char_traitsIcESaIcEEESt6vectorIS6_SaIS6_EEEdeEv>
  406484:	f9004be0 	str	x0, [sp, #144]
  406488:	f94017e0 	ldr	x0, [sp, #40]
  40648c:	91008013 	add	x19, x0, #0x20
  406490:	f94017e0 	ldr	x0, [sp, #40]
  406494:	9101e014 	add	x20, x0, #0x78
  406498:	f94017e0 	ldr	x0, [sp, #40]
  40649c:	91010000 	add	x0, x0, #0x40
  4064a0:	f9404be1 	ldr	x1, [sp, #144]
  4064a4:	94000dc2 	bl	409bac <_ZNSt13unordered_mapINSt7__cxx1112basic_stringIcSt11char_traitsIcESaIcEEEiSt4hashIS5_ESt8equal_toIS5_ESaISt4pairIKS5_iEEEixERSB_>
  4064a8:	aa0003e1 	mov	x1, x0
  4064ac:	aa1403e0 	mov	x0, x20
  4064b0:	94000e43 	bl	409dbc <_ZNSt13unordered_mapIiiSt4hashIiESt8equal_toIiESaISt4pairIKiiEEE2atERS5_>
  4064b4:	aa0003e1 	mov	x1, x0
  4064b8:	aa1303e0 	mov	x0, x19
  4064bc:	94000e6a 	bl	409e64 <_ZNSt6vectorIiSaIiEE12emplace_backIJRiEEEvDpOT_>
  4064c0:	f94017e0 	ldr	x0, [sp, #40]
  4064c4:	9101e013 	add	x19, x0, #0x78
  4064c8:	f94017e0 	ldr	x0, [sp, #40]
  4064cc:	91010000 	add	x0, x0, #0x40
  4064d0:	f9404be1 	ldr	x1, [sp, #144]
  4064d4:	94000db6 	bl	409bac <_ZNSt13unordered_mapINSt7__cxx1112basic_stringIcSt11char_traitsIcESaIcEEEiSt4hashIS5_ESt8equal_toIS5_ESaISt4pairIKS5_iEEEixERSB_>
  4064d8:	aa0003e1 	mov	x1, x0
  4064dc:	aa1303e0 	mov	x0, x19
  4064e0:	94000e37 	bl	409dbc <_ZNSt13unordered_mapIiiSt4hashIiESt8equal_toIiESaISt4pairIKiiEEE2atERS5_>
  4064e4:	b9400001 	ldr	w1, [x0]
  4064e8:	f94017e0 	ldr	x0, [sp, #40]
  4064ec:	b9403800 	ldr	w0, [x0, #56]
  4064f0:	0b000021 	add	w1, w1, w0
  4064f4:	f94017e0 	ldr	x0, [sp, #40]
  4064f8:	b9003801 	str	w1, [x0, #56]
  4064fc:	9101e3e0 	add	x0, sp, #0x78
  406500:	94000e49 	bl	409e24 <_ZN9__gnu_cxx17__normal_iteratorIPNSt7__cxx1112basic_stringIcSt11char_traitsIcESaIcEEESt6vectorIS6_SaIS6_EEEppEv>
  406504:	17ffffd8 	b	406464 <_ZN7segment5orderEv+0xd8>
  406508:	f94017e0 	ldr	x0, [sp, #40]
  40650c:	91002000 	add	x0, x0, #0x8
  406510:	f9004fe0 	str	x0, [sp, #152]
  406514:	f9404fe0 	ldr	x0, [sp, #152]
  406518:	94000e16 	bl	409d70 <_ZNSt6vectorINSt7__cxx1112basic_stringIcSt11char_traitsIcESaIcEEESaIS5_EE5beginEv>
  40651c:	f90037e0 	str	x0, [sp, #104]
  406520:	f9404fe0 	ldr	x0, [sp, #152]
  406524:	94000e1c 	bl	409d94 <_ZNSt6vectorINSt7__cxx1112basic_stringIcSt11char_traitsIcESaIcEEESaIS5_EE3endEv>
  406528:	f90033e0 	str	x0, [sp, #96]
  40652c:	910183e1 	add	x1, sp, #0x60
  406530:	9101a3e0 	add	x0, sp, #0x68
  406534:	94000e2b 	bl	409de0 <_ZN9__gnu_cxxneIPNSt7__cxx1112basic_stringIcSt11char_traitsIcESaIcEEESt6vectorIS6_SaIS6_EEEEbRKNS_17__normal_iteratorIT_T0_EESG_>
  406538:	12001c00 	and	w0, w0, #0xff
  40653c:	7100001f 	cmp	w0, #0x0
  406540:	54000640 	b.eq	406608 <_ZN7segment5orderEv+0x27c>  // b.none
  406544:	9101a3e0 	add	x0, sp, #0x68
  406548:	94000e41 	bl	409e4c <_ZNK9__gnu_cxx17__normal_iteratorIPNSt7__cxx1112basic_stringIcSt11char_traitsIcESaIcEEESt6vectorIS6_SaIS6_EEEdeEv>
  40654c:	aa0003e1 	mov	x1, x0
  406550:	9100e3e0 	add	x0, sp, #0x38
  406554:	97ffee1f 	bl	401dd0 <_ZNSt7__cxx1112basic_stringIcSt11char_traitsIcESaIcEEC1ERKS4_@plt>
  406558:	f94017e0 	ldr	x0, [sp, #40]
